; Listing generated by Microsoft (R) Optimizing Compiler Version 19.29.30145.0 

	TITLE	D:\git\src\IBK\IBK_DRFN\#DRfn-CS\_Obj\HWStrategyAnalysis\TabResult.obj
	.686P
	.XMM
	include listing.inc
	.model	flat

INCLUDELIB MSVCRT
INCLUDELIB OLDNAMES

PUBLIC	??_C@_0P@BKKCOCLK@RMSG_INTERFACE@		; `string'
PUBLIC	??_C@_0BB@GOOPDKI@RMSG_GETPCTRDATA@		; `string'
PUBLIC	??_C@_0BB@JPACFCL@RMSG_SETPCTRDATA@		; `string'
PUBLIC	??_C@_0BE@FJPKENOB@RMSG_GETSIGNAL_REAL@		; `string'
PUBLIC	??_C@_0BB@CNOFPEHG@RMSG_SETQUERYOPT@		; `string'
PUBLIC	??_C@_0P@KHFCBIOH@RMSG_CHARTMAIN@		; `string'
PUBLIC	??_C@_0BC@MMPGLPDH@RMS_ANALYSIS_FUNC@		; `string'
PUBLIC	??_C@_0BA@HKNFENJL@RMSG_GET_USERID@		; `string'
PUBLIC	??_C@_0BG@CNPAHNGG@RMSG_CHANGE_SKINCOLOR@	; `string'
PUBLIC	??_C@_0BD@FLDNDDHK@RMSG_GET_SKINCOLOR@		; `string'
PUBLIC	??_C@_0BJ@JLKHIBIK@RMSG_CHANGEVERTSCALETYPE@	; `string'
PUBLIC	??_C@_0BG@LNLCJKPF@RMSG_CHANGE_CROSSLINE@	; `string'
PUBLIC	??_C@_0BH@IFDMIMBP@RMSG_ADD_PLATFORM_MENU@	; `string'
PUBLIC	??_C@_0BJ@OGNAJHHI@RMSG_SETINITIALCHARTDATA@	; `string'
PUBLIC	??_C@_0N@IIOKMIEH@RMSG_GETINFO@			; `string'
PUBLIC	??_C@_0N@HABLPHJG@RMSG_SETINFO@			; `string'
;	COMDAT ??_C@_0N@HABLPHJG@RMSG_SETINFO@
CONST	SEGMENT
??_C@_0N@HABLPHJG@RMSG_SETINFO@ DB 'RMSG_SETINFO', 00H	; `string'
CONST	ENDS
;	COMDAT ??_C@_0N@IIOKMIEH@RMSG_GETINFO@
CONST	SEGMENT
??_C@_0N@IIOKMIEH@RMSG_GETINFO@ DB 'RMSG_GETINFO', 00H	; `string'
CONST	ENDS
;	COMDAT ??_C@_0BJ@OGNAJHHI@RMSG_SETINITIALCHARTDATA@
CONST	SEGMENT
??_C@_0BJ@OGNAJHHI@RMSG_SETINITIALCHARTDATA@ DB 'RMSG_SETINITIALCHARTDATA'
	DB	00H						; `string'
CONST	ENDS
;	COMDAT ??_C@_0BH@IFDMIMBP@RMSG_ADD_PLATFORM_MENU@
CONST	SEGMENT
??_C@_0BH@IFDMIMBP@RMSG_ADD_PLATFORM_MENU@ DB 'RMSG_ADD_PLATFORM_MENU', 00H ; `string'
CONST	ENDS
;	COMDAT ??_C@_0BG@LNLCJKPF@RMSG_CHANGE_CROSSLINE@
CONST	SEGMENT
??_C@_0BG@LNLCJKPF@RMSG_CHANGE_CROSSLINE@ DB 'RMSG_CHANGE_CROSSLINE', 00H ; `string'
CONST	ENDS
;	COMDAT ??_C@_0BJ@JLKHIBIK@RMSG_CHANGEVERTSCALETYPE@
CONST	SEGMENT
??_C@_0BJ@JLKHIBIK@RMSG_CHANGEVERTSCALETYPE@ DB 'RMSG_CHANGEVERTSCALETYPE'
	DB	00H						; `string'
CONST	ENDS
;	COMDAT ??_C@_0BD@FLDNDDHK@RMSG_GET_SKINCOLOR@
CONST	SEGMENT
??_C@_0BD@FLDNDDHK@RMSG_GET_SKINCOLOR@ DB 'RMSG_GET_SKINCOLOR', 00H ; `string'
CONST	ENDS
;	COMDAT ??_C@_0BG@CNPAHNGG@RMSG_CHANGE_SKINCOLOR@
CONST	SEGMENT
??_C@_0BG@CNPAHNGG@RMSG_CHANGE_SKINCOLOR@ DB 'RMSG_CHANGE_SKINCOLOR', 00H ; `string'
CONST	ENDS
;	COMDAT ??_C@_0BA@HKNFENJL@RMSG_GET_USERID@
CONST	SEGMENT
??_C@_0BA@HKNFENJL@RMSG_GET_USERID@ DB 'RMSG_GET_USERID', 00H ; `string'
CONST	ENDS
;	COMDAT ??_C@_0BC@MMPGLPDH@RMS_ANALYSIS_FUNC@
CONST	SEGMENT
??_C@_0BC@MMPGLPDH@RMS_ANALYSIS_FUNC@ DB 'RMS_ANALYSIS_FUNC', 00H ; `string'
CONST	ENDS
;	COMDAT ??_C@_0P@KHFCBIOH@RMSG_CHARTMAIN@
CONST	SEGMENT
??_C@_0P@KHFCBIOH@RMSG_CHARTMAIN@ DB 'RMSG_CHARTMAIN', 00H ; `string'
CONST	ENDS
;	COMDAT ??_C@_0BB@CNOFPEHG@RMSG_SETQUERYOPT@
CONST	SEGMENT
??_C@_0BB@CNOFPEHG@RMSG_SETQUERYOPT@ DB 'RMSG_SETQUERYOPT', 00H ; `string'
CONST	ENDS
;	COMDAT ??_C@_0BE@FJPKENOB@RMSG_GETSIGNAL_REAL@
CONST	SEGMENT
??_C@_0BE@FJPKENOB@RMSG_GETSIGNAL_REAL@ DB 'RMSG_GETSIGNAL_REAL', 00H ; `string'
CONST	ENDS
;	COMDAT ??_C@_0BB@JPACFCL@RMSG_SETPCTRDATA@
CONST	SEGMENT
??_C@_0BB@JPACFCL@RMSG_SETPCTRDATA@ DB 'RMSG_SETPCTRDATA', 00H ; `string'
CONST	ENDS
;	COMDAT ??_C@_0BB@GOOPDKI@RMSG_GETPCTRDATA@
CONST	SEGMENT
??_C@_0BB@GOOPDKI@RMSG_GETPCTRDATA@ DB 'RMSG_GETPCTRDATA', 00H ; `string'
CONST	ENDS
;	COMDAT ??_C@_0P@BKKCOCLK@RMSG_INTERFACE@
CONST	SEGMENT
??_C@_0P@BKKCOCLK@RMSG_INTERFACE@ DB 'RMSG_INTERFACE', 00H ; `string'
CONST	ENDS
PUBLIC	?__empty_global_delete@@YAXPAX@Z		; __empty_global_delete
PUBLIC	?__empty_global_delete@@YAXPAXI@Z		; __empty_global_delete
PUBLIC	??1CObject@@UAE@XZ				; CObject::~CObject
PUBLIC	?Serialize@CObject@@UAEXAAVCArchive@@@Z		; CObject::Serialize
PUBLIC	?AssertValid@CObject@@UBEXXZ			; CObject::AssertValid
PUBLIC	?Dump@CObject@@UBEXAAVCDumpContext@@@Z		; CObject::Dump
PUBLIC	??HATL@@YA?AV?$CStringT@DV?$StrTraitMFC_DLL@DV?$ChTraitsCRT@D@ATL@@@@@0@ABV10@0@Z ; ATL::operator+
PUBLIC	??1CGdiObject@@UAE@XZ				; CGdiObject::~CGdiObject
PUBLIC	??_GCGdiObject@@UAEPAXI@Z			; CGdiObject::`scalar deleting destructor'
PUBLIC	??1CBrush@@UAE@XZ				; CBrush::~CBrush
PUBLIC	??_GCBrush@@UAEPAXI@Z				; CBrush::`scalar deleting destructor'
PUBLIC	?DoDataExchange@CWnd@@MAEXPAVCDataExchange@@@Z	; CWnd::DoDataExchange
PUBLIC	?BeginModalState@CWnd@@UAEXXZ			; CWnd::BeginModalState
PUBLIC	?EndModalState@CWnd@@UAEXXZ			; CWnd::EndModalState
PUBLIC	?Create@CDialog@@UAEHIPAVCWnd@@@Z		; CDialog::Create
PUBLIC	??_GCStatic@@UAEPAXI@Z				; CStatic::`scalar deleting destructor'
PUBLIC	??1COleVariant@@QAE@XZ				; COleVariant::~COleVariant
PUBLIC	??1ST_DATAINDEX@@QAE@XZ				; ST_DATAINDEX::~ST_DATAINDEX
PUBLIC	?PreTranslateMessage@CEscDialog@@MAEHPAUtagMSG@@@Z ; CEscDialog::PreTranslateMessage
PUBLIC	??1_GV_ITEM@@QAE@XZ				; _GV_ITEM::~_GV_ITEM
PUBLIC	?UpdateDlg@CDlgInterface@@UAEXXZ		; CDlgInterface::UpdateDlg
PUBLIC	?SetChartFocus@CDlgInterface@@UAEXH@Z		; CDlgInterface::SetChartFocus
PUBLIC	?GuganBtnUpdate@CDlgInterface@@UAEXXZ		; CDlgInterface::GuganBtnUpdate
PUBLIC	??1CDlgInterface@@UAE@XZ			; CDlgInterface::~CDlgInterface
PUBLIC	??0CTabResult@@QAE@PAVCWnd@@@Z			; CTabResult::CTabResult
PUBLIC	?DoDataExchange@CTabResult@@MAEXPAVCDataExchange@@@Z ; CTabResult::DoDataExchange
PUBLIC	?OnInitDialog@CTabResult@@MAEHXZ		; CTabResult::OnInitDialog
PUBLIC	?OnDestroy@CTabResult@@IAEXXZ			; CTabResult::OnDestroy
PUBLIC	?GetThisMessageMap@CTabResult@@KGPBUAFX_MSGMAP@@XZ ; CTabResult::GetThisMessageMap
PUBLIC	?GetMessageMap@CTabResult@@MBEPBUAFX_MSGMAP@@XZ	; CTabResult::GetMessageMap
PUBLIC	?OpenWebView@CTabResult@@QAEXV?$CStringT@DV?$StrTraitMFC_DLL@DV?$ChTraitsCRT@D@ATL@@@@@ATL@@@Z ; CTabResult::OpenWebView
PUBLIC	?MakeHtmlFile@CTabResult@@QAEXXZ		; CTabResult::MakeHtmlFile
PUBLIC	?ParsingstrHtml@CTabResult@@QAE?AV?$CStringT@DV?$StrTraitMFC_DLL@DV?$ChTraitsCRT@D@ATL@@@@@ATL@@V23@@Z ; CTabResult::ParsingstrHtml
PUBLIC	?InitHtml@CTabResult@@QAEXXZ			; CTabResult::InitHtml
PUBLIC	?InitPasingData@CTabResult@@QAEXXZ		; CTabResult::InitPasingData
PUBLIC	?InsertData2HtmlString@CTabResult@@QAEXFAAV?$CStringT@DV?$StrTraitMFC_DLL@DV?$ChTraitsCRT@D@ATL@@@@@ATL@@PAVCIStrategyItem0001@@@Z ; CTabResult::InsertData2HtmlString
PUBLIC	?ParsingstrHtml2@CTabResult@@QAEHAAV?$CStringT@DV?$StrTraitMFC_DLL@DV?$ChTraitsCRT@D@ATL@@@@@ATL@@@Z ; CTabResult::ParsingstrHtml2
PUBLIC	?InitGrid@CTabResult@@QAEXXZ			; CTabResult::InitGrid
PUBLIC	?SetDataSpreadGrid@CTabResult@@QAEXXZ		; CTabResult::SetDataSpreadGrid
PUBLIC	?OnCtlColor@CTabResult@@QAEPAUHBRUSH__@@PAVCDC@@PAVCWnd@@I@Z ; CTabResult::OnCtlColor
PUBLIC	??_GCTabResult@@UAEPAXI@Z			; CTabResult::`scalar deleting destructor'
PUBLIC	?GetAt@?$CArray@UST_DATAINDEX@@U1@@@QAEAAUST_DATAINDEX@@H@Z ; CArray<ST_DATAINDEX,ST_DATAINDEX>::GetAt
PUBLIC	??_R0PAVCException@@@8				; CException * `RTTI Type Descriptor'
PUBLIC	??_C@_02DPKJAMEF@?$CFd@				; `string'
PUBLIC	??_C@_00CNPNBAHC@@				; `string'
PUBLIC	??_7CGdiObject@@6B@				; CGdiObject::`vftable'
PUBLIC	??_7CBrush@@6B@					; CBrush::`vftable'
PUBLIC	??_7CStatic@@6B@				; CStatic::`vftable'
PUBLIC	??_C@_0HD@JJCHHHNK@C?3?2Program?5Files?5?$CIx86?$CJ?2Microsof@ ; `string'
PUBLIC	??_C@_0BP@OIEOKIDM@Exception?5thrown?5in?5destructor@ ; `string'
PUBLIC	??_C@_0BB@HBOOMJBF@?$CFTs?5?$CI?$CFTs?3?$CFd?$CJ?6?$CFTs@ ; `string'
PUBLIC	??_C@_0N@OMEMOKLE@?$CFTs?5?$CI?$CFTs?3?$CFd?$CJ@ ; `string'
PUBLIC	??_R0?AVCObject@@@8				; CObject `RTTI Type Descriptor'
PUBLIC	??_R3CObject@@8					; CObject::`RTTI Class Hierarchy Descriptor'
PUBLIC	??_R2CObject@@8					; CObject::`RTTI Base Class Array'
PUBLIC	??_R1A@?0A@EA@CObject@@8			; CObject::`RTTI Base Class Descriptor at (0,-1,0,64)'
PUBLIC	??_R4CGdiObject@@6B@				; CGdiObject::`RTTI Complete Object Locator'
PUBLIC	??_R0?AVCGdiObject@@@8				; CGdiObject `RTTI Type Descriptor'
PUBLIC	??_R3CGdiObject@@8				; CGdiObject::`RTTI Class Hierarchy Descriptor'
PUBLIC	??_R2CGdiObject@@8				; CGdiObject::`RTTI Base Class Array'
PUBLIC	??_R1A@?0A@EA@CGdiObject@@8			; CGdiObject::`RTTI Base Class Descriptor at (0,-1,0,64)'
PUBLIC	??_R4CBrush@@6B@				; CBrush::`RTTI Complete Object Locator'
PUBLIC	??_R0?AVCBrush@@@8				; CBrush `RTTI Type Descriptor'
PUBLIC	??_R3CBrush@@8					; CBrush::`RTTI Class Hierarchy Descriptor'
PUBLIC	??_R2CBrush@@8					; CBrush::`RTTI Base Class Array'
PUBLIC	??_R1A@?0A@EA@CBrush@@8				; CBrush::`RTTI Base Class Descriptor at (0,-1,0,64)'
PUBLIC	??_R4CStatic@@6B@				; CStatic::`RTTI Complete Object Locator'
PUBLIC	??_R0?AVCStatic@@@8				; CStatic `RTTI Type Descriptor'
PUBLIC	??_R3CStatic@@8					; CStatic::`RTTI Class Hierarchy Descriptor'
PUBLIC	??_R2CStatic@@8					; CStatic::`RTTI Base Class Array'
PUBLIC	??_R1A@?0A@EA@CStatic@@8			; CStatic::`RTTI Base Class Descriptor at (0,-1,0,64)'
PUBLIC	??_R1A@?0A@EA@CWnd@@8				; CWnd::`RTTI Base Class Descriptor at (0,-1,0,64)'
PUBLIC	??_R0?AVCWnd@@@8				; CWnd `RTTI Type Descriptor'
PUBLIC	??_R3CWnd@@8					; CWnd::`RTTI Class Hierarchy Descriptor'
PUBLIC	??_R2CWnd@@8					; CWnd::`RTTI Base Class Array'
PUBLIC	??_R1A@?0A@EA@CCmdTarget@@8			; CCmdTarget::`RTTI Base Class Descriptor at (0,-1,0,64)'
PUBLIC	??_R0?AVCCmdTarget@@@8				; CCmdTarget `RTTI Type Descriptor'
PUBLIC	??_R3CCmdTarget@@8				; CCmdTarget::`RTTI Class Hierarchy Descriptor'
PUBLIC	??_R2CCmdTarget@@8				; CCmdTarget::`RTTI Base Class Array'
PUBLIC	??_R1A@?0A@EA@CDialog@@8			; CDialog::`RTTI Base Class Descriptor at (0,-1,0,64)'
PUBLIC	??_R0?AVCDialog@@@8				; CDialog `RTTI Type Descriptor'
PUBLIC	??_R3CDialog@@8					; CDialog::`RTTI Class Hierarchy Descriptor'
PUBLIC	??_R2CDialog@@8					; CDialog::`RTTI Base Class Array'
PUBLIC	??_R0?AVCEscDialog@@@8				; CEscDialog `RTTI Type Descriptor'
PUBLIC	??_R3CEscDialog@@8				; CEscDialog::`RTTI Class Hierarchy Descriptor'
PUBLIC	??_R2CEscDialog@@8				; CEscDialog::`RTTI Base Class Array'
PUBLIC	??_R1A@?0A@EA@CEscDialog@@8			; CEscDialog::`RTTI Base Class Descriptor at (0,-1,0,64)'
PUBLIC	??_7CTabResult@@6B@				; CTabResult::`vftable'
PUBLIC	??_C@_0O@MEHDIMKH@?2?$LM?$LK?$LA?z?$LK?P?$LM?$KO?4htm@ ; `string'
PUBLIC	??_C@_0BJ@EJHFGNNM@Do?5Not?5Create?5Html?5File?4@ ; `string'
PUBLIC	??_C@_02JINPPBEP@No@				; `string'
PUBLIC	??_C@_0L@FJFCOKJ@?$LE?$KJ?$MA?$PL?$LM?v?$MA?M?$LH?$PM@ ; `string'
PUBLIC	??_C@_06GNECPJOA@?C?Q?$LM?U?$MA?M@		; `string'
PUBLIC	??_C@_0O@KHPIEGBI@?C?Q?$MA?L?$MA?M?1?C?Q?$LM?U?$LN?G@ ; `string'
PUBLIC	??_C@_0N@NJFCNOGE@?$LA?G?$LK?$LA?F?r?$LB?U?$LM?U?$MA?M@ ; `string'
PUBLIC	??_C@_06KFFIADGF@?C?Q?A?x?$MA?T@		; `string'
PUBLIC	??_C@_08OPDCDADA@?C?Q?$LI?E?$LI?E?$LM?v@	; `string'
PUBLIC	??_C@_0O@CIHDHIEL@?$MA?L?$MA?M?$LM?v?1?$LM?U?$LN?G?$LM?v@ ; `string'
PUBLIC	??_C@_0L@OFFEDCHL@?$LB?b?$LA?$KD?$LF?n?$LG?t?$LH?$PM@ ; `string'
PUBLIC	??_C@_0P@HMJADPNA@?$MA?$PM?$LH?$KL?C?J?$LA?z?$LM?v?$MA?M?$LH?$PM@ ; `string'
PUBLIC	??_C@_06OEJMNFOB@?C?Q?$LK?$MA?$LM?v@		; `string'
PUBLIC	??_C@_0L@IJLGNGBO@?$LB?b?$LA?$KD?B?$PM?$LP?$KJ?$MA?$LC@ ; `string'
PUBLIC	??_C@_0N@PDNPFNDD@?F?r?$LB?U?$LI?E?$LI?E?$LK?$MA?$LM?v@ ; `string'
PUBLIC	??_C@_0P@JJNKLJJO@?$LA?G?$LK?$LA?F?r?$LB?U?$LM?v?$MA?M?$LH?$PM@ ; `string'
PUBLIC	??_C@_06HMHBOMDL@?C?Q?$MA?L?$MA?M@		; `string'
PUBLIC	??_C@_0N@JDICKLCG@?$LA?G?$LK?$LA?C?V?$LE?k?$MA?L?$MA?M@ ; `string'
PUBLIC	??_C@_0N@MIGBMLLP@?$LA?G?$LK?$LA?F?r?$LB?U?$MA?L?$MA?M@ ; `string'
PUBLIC	??_C@_0BB@NJCLLDAP@?$LJ?L?C?$LL?$LL?j?F?w?G?T?C?Q?C?$LL?$LL?j@ ; `string'
PUBLIC	??_C@_0L@LDAPEPIM@?$MA?L?$MA?M?$LI?E?$LI?E?$LM?v@ ; `string'
PUBLIC	??_C@_0BB@CGAEBIGF@?$MA?L?$MA?M?$LI?E?$LI?E?$MA?$LC?$CI?$LN?B?$LH?$PM?$CJ@ ; `string'
PUBLIC	??_C@_0P@KPEIILEB@?C?V?$LE?k?$LP?$KM?$LM?S?$MA?L?$MA?M?$LM?v@ ; `string'
PUBLIC	??_C@_0N@OAECDKHI@?C?V?$LE?k?$LP?$KM?$LM?S?$MA?L?$MA?M@ ; `string'
PUBLIC	??_C@_0N@KFPHCLNL@?$MA?L?$MA?M?$LI?E?$LI?E?$LK?$MA?$LM?v@ ; `string'
PUBLIC	??_C@_0N@FOGALCGL@?A?x?$MA?T?$LL?s?E?B?$LK?$MA?$LM?v@ ; `string'
PUBLIC	??_C@_0BB@KLAEHKOB@?$MA?L?$MA?M?$LI?E?$LI?E?F?r?$LB?U?$LK?$MA?$LM?v@ ; `string'
PUBLIC	??_C@_0BB@NADIPDBG@?G?v?$MA?g?F?w?A?v?$LM?G?$LM?v?$MA?M?$LH?$PM@ ; `string'
PUBLIC	??_C@_06MLIEOKGJ@?C?Q?$LM?U?$LN?G@		; `string'
PUBLIC	??_C@_0N@CEHHKNHE@?$LA?G?$LK?$LA?C?V?$LE?k?$LM?U?$LN?G@ ; `string'
PUBLIC	??_C@_0N@HPJEMNON@?$LA?G?$LK?$LA?F?r?$LB?U?$LM?U?$LN?G@ ; `string'
PUBLIC	??_C@_01CLKCMJKC@?5@				; `string'
PUBLIC	??_C@_0L@MKABNNA@?$LM?U?$LN?G?$LI?E?$LI?E?$LM?v@ ; `string'
PUBLIC	??_C@_0BB@DDLIPNDD@?$LM?U?$LN?G?$LI?E?$LI?E?$MA?$LC?$CI?F?P?$MA?$LC?$CJ@ ; `string'
PUBLIC	??_C@_0P@MOKGKGFH@?C?V?$LE?k?$LP?$KM?$LM?S?$LM?U?$LN?G?$LM?v@ ; `string'
PUBLIC	??_C@_0N@FHLHDMCK@?C?V?$LE?k?$LP?$KM?$LM?S?$LM?U?$LN?G@ ; `string'
PUBLIC	??_C@_0N@DGJMLGPE@?$LM?U?$LN?G?$LI?E?$LI?E?$LK?$MA?$LM?v@ ; `string'
PUBLIC	??_C@_0N@NCPIAFBM@?C?$LL?$LL?j?$LL?s?E?B?$LK?$MA?$LM?v@ ; `string'
PUBLIC	??_C@_0BB@EJJBJOLI@?$LM?U?$LN?G?$LI?E?$LI?E?F?r?$LB?U?$LK?$MA?$LM?v@ ; `string'
PUBLIC	??_C@_04OKGDLNCL@NONE@				; `string'
PUBLIC	??_C@_08BPEOHGCP@?$LI?E?$LM?v?A?x?$MA?T@	; `string'
PUBLIC	??_C@_08OJBKHDEB@?$LI?E?$LF?$LF?C?$LL?$LL?j@	; `string'
PUBLIC	??_C@_08DBKELDO@?$LI?E?$LF?$LF?A?x?$MA?T@	; `string'
PUBLIC	??_C@_08PFEOEOFA@?$LI?E?$LM?v?C?$LL?$LL?j@	; `string'
PUBLIC	??_C@_0P@DHMEDIHM@?5?$FL?$CFs?$FN?5?$CFs?5?5?$HO?5?$CFs@ ; `string'
PUBLIC	??_C@_05BEBFNOMM@?5?$CF?42f@			; `string'
PUBLIC	??_C@_01FGNFDNOH@?$CF@				; `string'
PUBLIC	??_C@_04GEFJINEE@?$CF?42f@			; `string'
PUBLIC	??_C@_0BF@PNNIFJFE@?2?$LK?$LI?$LA?m?$LM?$KN?9?$LM?$LK?$LA?z?$LK?P?$LM?$KO?4htm@ ; `string'
PUBLIC	??_C@_0CI@CCGFODKP@Do?5Not?5Create?5?$LK?$LI?$LA?m?$LM?$KN?9?$LM?$LK?$LA?z?$LK?P?$LM?$KO?4h@ ; `string'
PUBLIC	??_C@_0O@NLCHHJFD@color?$DN?$CCwhite?$CC@	; `string'
PUBLIC	??_C@_0N@BFBGFLNJ@?5?$CFs?5?$CFs?5?5?$HO?5?$CFs@ ; `string'
PUBLIC	??_C@_06NBGJEFCJ@?$CF?42f?$CF?$CF@		; `string'
PUBLIC	??_C@_0BG@BGDHEHIP@?2?$LK?$LI?$LA?m?$LM?$KN?9?$LM?$LK?$LA?z?$LK?P?$LM?$KO2?4htm@ ; `string'
PUBLIC	??_C@_0CJ@CCHBIPPA@Do?5Not?5Create?5?$LK?$LI?$LA?m?$LM?$KN?9?$LM?$LK?$LA?z?$LK?P?$LM?$KO2?4@ ; `string'
PUBLIC	??_R4CTabResult@@6B@				; CTabResult::`RTTI Complete Object Locator'
PUBLIC	??_R0?AVCTabResult@@@8				; CTabResult `RTTI Type Descriptor'
PUBLIC	??_R3CTabResult@@8				; CTabResult::`RTTI Class Hierarchy Descriptor'
PUBLIC	??_R2CTabResult@@8				; CTabResult::`RTTI Base Class Array'
PUBLIC	??_R1A@?0A@EA@CTabResult@@8			; CTabResult::`RTTI Base Class Descriptor at (0,-1,0,64)'
PUBLIC	??_R1A@?0A@EA@CDlgInterface@@8			; CDlgInterface::`RTTI Base Class Descriptor at (0,-1,0,64)'
PUBLIC	??_R0?AVCDlgInterface@@@8			; CDlgInterface `RTTI Type Descriptor'
PUBLIC	??_R3CDlgInterface@@8				; CDlgInterface::`RTTI Class Hierarchy Descriptor'
PUBLIC	??_R2CDlgInterface@@8				; CDlgInterface::`RTTI Base Class Array'
EXTRN	??_L@YGXPAXIIP6EX0@Z1@Z:PROC			; `eh vector constructor iterator'
EXTRN	??_M@YGXPAXIIP6EX0@Z@Z:PROC			; `eh vector destructor iterator'
EXTRN	??3@YAXPAX@Z:PROC				; operator delete
EXTRN	?__global_delete@@YAXPAXI@Z:PROC		; __global_delete
EXTRN	___std_terminate:PROC
EXTRN	__imp__SetFileAttributesA@8:PROC
EXTRN	__imp__CreateSolidBrush@4:PROC
EXTRN	__imp__RegisterWindowMessageA@4:PROC
EXTRN	__imp__SendMessageA@16:PROC
EXTRN	__imp__GetKeyState@4:PROC
EXTRN	__imp__EnableWindow@8:PROC
EXTRN	__imp__GetClientRect@8:PROC
EXTRN	__imp__GetParent@4:PROC
EXTRN	__imp__atof:PROC
EXTRN	__imp__atoi:PROC
EXTRN	?AfxThrowInvalidArgException@@YGXXZ:PROC	; AfxThrowInvalidArgException
EXTRN	__imp__VariantClear@4:PROC
EXTRN	__imp_?Concatenate@?$CSimpleStringT@D$00@ATL@@KAXAAV12@PBDH1H@Z:PROC
EXTRN	__imp_??0?$CStringT@DV?$StrTraitMFC_DLL@DV?$ChTraitsCRT@D@ATL@@@@@ATL@@QAE@XZ:PROC
EXTRN	__imp_??0?$CStringT@DV?$StrTraitMFC_DLL@DV?$ChTraitsCRT@D@ATL@@@@@ATL@@QAE@PAUIAtlStringMgr@1@@Z:PROC
EXTRN	__imp_??0?$CStringT@DV?$StrTraitMFC_DLL@DV?$ChTraitsCRT@D@ATL@@@@@ATL@@QAE@ABV01@@Z:PROC
EXTRN	__imp_??0?$CStringT@DV?$StrTraitMFC_DLL@DV?$ChTraitsCRT@D@ATL@@@@@ATL@@QAE@PBD@Z:PROC
EXTRN	__imp_??1?$CStringT@DV?$StrTraitMFC_DLL@DV?$ChTraitsCRT@D@ATL@@@@@ATL@@QAE@XZ:PROC
EXTRN	__imp_??4?$CStringT@DV?$StrTraitMFC_DLL@DV?$ChTraitsCRT@D@ATL@@@@@ATL@@QAEAAV01@ABV01@@Z:PROC
EXTRN	__imp_??4?$CStringT@DV?$StrTraitMFC_DLL@DV?$ChTraitsCRT@D@ATL@@@@@ATL@@QAEAAV01@PBD@Z:PROC
EXTRN	__imp_??Y?$CStringT@DV?$StrTraitMFC_DLL@DV?$ChTraitsCRT@D@ATL@@@@@ATL@@QAEAAV01@ABV?$CSimpleStringT@D$00@1@@Z:PROC
EXTRN	__imp_??Y?$CStringT@DV?$StrTraitMFC_DLL@DV?$ChTraitsCRT@D@ATL@@@@@ATL@@QAEAAV01@PBD@Z:PROC
EXTRN	__imp_?GetManager@?$CStringT@DV?$StrTraitMFC_DLL@DV?$ChTraitsCRT@D@ATL@@@@@ATL@@QBEPAUIAtlStringMgr@2@XZ:PROC
EXTRN	__imp_?Compare@?$CStringT@DV?$StrTraitMFC_DLL@DV?$ChTraitsCRT@D@ATL@@@@@ATL@@QBEHPBD@Z:PROC
EXTRN	__imp_?Replace@?$CStringT@DV?$StrTraitMFC_DLL@DV?$ChTraitsCRT@D@ATL@@@@@ATL@@QAEHPBD0@Z:PROC
EXTRN	__imp_?Format@?$CStringT@DV?$StrTraitMFC_DLL@DV?$ChTraitsCRT@D@ATL@@@@@ATL@@QAAXPBDZZ:PROC
EXTRN	??0CFile@@QAE@XZ:PROC				; CFile::CFile
EXTRN	?Open@CFile@@UAEHPBDIPAVCFileException@@@Z:PROC	; CFile::Open
EXTRN	?Read@CFile@@UAEIPAXI@Z:PROC			; CFile::Read
EXTRN	?Close@CFile@@UAEXXZ:PROC			; CFile::Close
EXTRN	??1CFile@@UAE@XZ:PROC				; CFile::~CFile
EXTRN	??0CStdioFile@@QAE@XZ:PROC			; CStdioFile::CStdioFile
EXTRN	?WriteString@CStdioFile@@UAEXPBD@Z:PROC		; CStdioFile::WriteString
EXTRN	?ReadString@CStdioFile@@UAEHAAV?$CStringT@DV?$StrTraitMFC_DLL@DV?$ChTraitsCRT@D@ATL@@@@@ATL@@@Z:PROC ; CStdioFile::ReadString
EXTRN	??1CStdioFile@@UAE@XZ:PROC			; CStdioFile::~CStdioFile
EXTRN	?Open@CStdioFile@@UAEHPBDIPAVCFileException@@@Z:PROC ; CStdioFile::Open
EXTRN	?Close@CStdioFile@@UAEXXZ:PROC			; CStdioFile::Close
EXTRN	?AfxGetModuleState@@YGPAVAFX_MODULE_STATE@@XZ:PROC ; AfxGetModuleState
EXTRN	?GetRuntimeClass@CGdiObject@@UBEPAUCRuntimeClass@@XZ:PROC ; CGdiObject::GetRuntimeClass
EXTRN	?Attach@CGdiObject@@QAEHPAX@Z:PROC		; CGdiObject::Attach
EXTRN	?DeleteObject@CGdiObject@@QAEHXZ:PROC		; CGdiObject::DeleteObject
EXTRN	??_ECGdiObject@@UAEPAXI@Z:PROC			; CGdiObject::`vector deleting destructor'
EXTRN	?GetRuntimeClass@CBrush@@UBEPAUCRuntimeClass@@XZ:PROC ; CBrush::GetRuntimeClass
EXTRN	??_ECBrush@@UAEPAXI@Z:PROC			; CBrush::`vector deleting destructor'
EXTRN	?OnCmdMsg@CCmdTarget@@UAEHIHPAXPAUAFX_CMDHANDLERINFO@@@Z:PROC ; CCmdTarget::OnCmdMsg
EXTRN	?IsInvokeAllowed@CCmdTarget@@UAEHJ@Z:PROC	; CCmdTarget::IsInvokeAllowed
EXTRN	?GetDispatchIID@CCmdTarget@@UAEHPAU_GUID@@@Z:PROC ; CCmdTarget::GetDispatchIID
EXTRN	?GetTypeInfoCount@CCmdTarget@@UAEIXZ:PROC	; CCmdTarget::GetTypeInfoCount
EXTRN	?GetTypeLibCache@CCmdTarget@@UAEPAVCTypeLibCache@@XZ:PROC ; CCmdTarget::GetTypeLibCache
EXTRN	?GetTypeLib@CCmdTarget@@UAEJKPAPAUITypeLib@@@Z:PROC ; CCmdTarget::GetTypeLib
EXTRN	?GetCommandMap@CCmdTarget@@MBEPBUAFX_OLECMDMAP@@XZ:PROC ; CCmdTarget::GetCommandMap
EXTRN	?GetDispatchMap@CCmdTarget@@MBEPBUAFX_DISPMAP@@XZ:PROC ; CCmdTarget::GetDispatchMap
EXTRN	?GetConnectionMap@CCmdTarget@@MBEPBUAFX_CONNECTIONMAP@@XZ:PROC ; CCmdTarget::GetConnectionMap
EXTRN	?GetEventSinkMap@CCmdTarget@@MBEPBUAFX_EVENTSINKMAP@@XZ:PROC ; CCmdTarget::GetEventSinkMap
EXTRN	?OnCreateAggregates@CCmdTarget@@UAEHXZ:PROC	; CCmdTarget::OnCreateAggregates
EXTRN	?GetInterfaceHook@CCmdTarget@@UAEPAUIUnknown@@PBX@Z:PROC ; CCmdTarget::GetInterfaceHook
EXTRN	?GetExtraConnectionPoints@CCmdTarget@@MAEHPAVCPtrArray@@@Z:PROC ; CCmdTarget::GetExtraConnectionPoints
EXTRN	?GetConnectionHook@CCmdTarget@@MAEPAUIConnectionPoint@@ABU_GUID@@@Z:PROC ; CCmdTarget::GetConnectionHook
EXTRN	??0CWnd@@QAE@XZ:PROC				; CWnd::CWnd
EXTRN	?FromHandle@CWnd@@SGPAV1@PAUHWND__@@@Z:PROC	; CWnd::FromHandle
EXTRN	?PreSubclassWindow@CWnd@@UAEXXZ:PROC		; CWnd::PreSubclassWindow
EXTRN	?Create@CWnd@@UAEHPBD0KABUtagRECT@@PAV1@IPAUCCreateContext@@@Z:PROC ; CWnd::Create
EXTRN	?CreateEx@CWnd@@UAEHKPBD0KHHHHPAUHWND__@@PAUHMENU__@@PAX@Z:PROC ; CWnd::CreateEx
EXTRN	?CreateEx@CWnd@@UAEHKPBD0KABUtagRECT@@PAV1@IPAX@Z:PROC ; CWnd::CreateEx
EXTRN	?DestroyWindow@CWnd@@UAEHXZ:PROC		; CWnd::DestroyWindow
EXTRN	?PreCreateWindow@CWnd@@UAEHAAUtagCREATESTRUCTA@@@Z:PROC ; CWnd::PreCreateWindow
EXTRN	?CalcWindowRect@CWnd@@UAEXPAUtagRECT@@I@Z:PROC	; CWnd::CalcWindowRect
EXTRN	?GetMenu@CWnd@@UBEPAVCMenu@@XZ:PROC		; CWnd::GetMenu
EXTRN	?SetMenu@CWnd@@UAEHPAVCMenu@@@Z:PROC		; CWnd::SetMenu
EXTRN	?OnToolHitTest@CWnd@@UBEHVCPoint@@PAUtagTOOLINFOA@@@Z:PROC ; CWnd::OnToolHitTest
EXTRN	?GetScrollBarCtrl@CWnd@@UBEPAVCScrollBar@@H@Z:PROC ; CWnd::GetScrollBarCtrl
EXTRN	?WinHelpA@CWnd@@UAEXKI@Z:PROC			; CWnd::WinHelpA
EXTRN	?HtmlHelpA@CWnd@@UAEXKI@Z:PROC			; CWnd::HtmlHelpA
EXTRN	?WinHelpInternal@CWnd@@UAEXKI@Z:PROC		; CWnd::WinHelpInternal
EXTRN	?ContinueModal@CWnd@@UAEHXZ:PROC		; CWnd::ContinueModal
EXTRN	?EndModalLoop@CWnd@@UAEXH@Z:PROC		; CWnd::EndModalLoop
EXTRN	?OnDrawIconicThumbnailOrLivePreview@CWnd@@UAEXAAVCDC@@VCRect@@VCSize@@HAAH@Z:PROC ; CWnd::OnDrawIconicThumbnailOrLivePreview
EXTRN	?GetInterfaceMap@CWnd@@MBEPBUAFX_INTERFACEMAP@@XZ:PROC ; CWnd::GetInterfaceMap
EXTRN	?EnsureStdObj@CWnd@@UAEJXZ:PROC			; CWnd::EnsureStdObj
EXTRN	?get_accParent@CWnd@@UAEJPAPAUIDispatch@@@Z:PROC ; CWnd::get_accParent
EXTRN	?get_accChildCount@CWnd@@UAEJPAJ@Z:PROC		; CWnd::get_accChildCount
EXTRN	?get_accChild@CWnd@@UAEJUtagVARIANT@@PAPAUIDispatch@@@Z:PROC ; CWnd::get_accChild
EXTRN	?get_accName@CWnd@@UAEJUtagVARIANT@@PAPA_W@Z:PROC ; CWnd::get_accName
EXTRN	?get_accValue@CWnd@@UAEJUtagVARIANT@@PAPA_W@Z:PROC ; CWnd::get_accValue
EXTRN	?get_accDescription@CWnd@@UAEJUtagVARIANT@@PAPA_W@Z:PROC ; CWnd::get_accDescription
EXTRN	?get_accRole@CWnd@@UAEJUtagVARIANT@@PAU2@@Z:PROC ; CWnd::get_accRole
EXTRN	?get_accState@CWnd@@UAEJUtagVARIANT@@PAU2@@Z:PROC ; CWnd::get_accState
EXTRN	?get_accHelp@CWnd@@UAEJUtagVARIANT@@PAPA_W@Z:PROC ; CWnd::get_accHelp
EXTRN	?get_accHelpTopic@CWnd@@UAEJPAPA_WUtagVARIANT@@PAJ@Z:PROC ; CWnd::get_accHelpTopic
EXTRN	?get_accKeyboardShortcut@CWnd@@UAEJUtagVARIANT@@PAPA_W@Z:PROC ; CWnd::get_accKeyboardShortcut
EXTRN	?get_accFocus@CWnd@@UAEJPAUtagVARIANT@@@Z:PROC	; CWnd::get_accFocus
EXTRN	?get_accSelection@CWnd@@UAEJPAUtagVARIANT@@@Z:PROC ; CWnd::get_accSelection
EXTRN	?get_accDefaultAction@CWnd@@UAEJUtagVARIANT@@PAPA_W@Z:PROC ; CWnd::get_accDefaultAction
EXTRN	?accSelect@CWnd@@UAEJJUtagVARIANT@@@Z:PROC	; CWnd::accSelect
EXTRN	?accLocation@CWnd@@UAEJPAJ000UtagVARIANT@@@Z:PROC ; CWnd::accLocation
EXTRN	?accNavigate@CWnd@@UAEJJUtagVARIANT@@PAU2@@Z:PROC ; CWnd::accNavigate
EXTRN	?accHitTest@CWnd@@UAEJJJPAUtagVARIANT@@@Z:PROC	; CWnd::accHitTest
EXTRN	?accDoDefaultAction@CWnd@@UAEJUtagVARIANT@@@Z:PROC ; CWnd::accDoDefaultAction
EXTRN	?put_accName@CWnd@@UAEJUtagVARIANT@@PA_W@Z:PROC	; CWnd::put_accName
EXTRN	?put_accValue@CWnd@@UAEJUtagVARIANT@@PA_W@Z:PROC ; CWnd::put_accValue
EXTRN	?SetProxy@CWnd@@UAEJPAUIAccessibleProxy@@@Z:PROC ; CWnd::SetProxy
EXTRN	?CreateAccessibleProxy@CWnd@@UAEJIJPAJ@Z:PROC	; CWnd::CreateAccessibleProxy
EXTRN	?OnCommand@CWnd@@MAEHIJ@Z:PROC			; CWnd::OnCommand
EXTRN	?OnNotify@CWnd@@MAEHIJPAJ@Z:PROC		; CWnd::OnNotify
EXTRN	?OnCtlColor@CWnd@@IAEPAUHBRUSH__@@PAVCDC@@PAV1@I@Z:PROC ; CWnd::OnCtlColor
EXTRN	?OnDestroy@CWnd@@IAEXXZ:PROC			; CWnd::OnDestroy
EXTRN	?GetSuperWndProcAddr@CWnd@@MAEPAP6GJPAUHWND__@@IIJ@ZXZ:PROC ; CWnd::GetSuperWndProcAddr
EXTRN	?PreTranslateMessage@CWnd@@UAEHPAUtagMSG@@@Z:PROC ; CWnd::PreTranslateMessage
EXTRN	?OnAmbientProperty@CWnd@@UAEHPAVCOleControlSite@@JPAUtagVARIANT@@@Z:PROC ; CWnd::OnAmbientProperty
EXTRN	?WindowProc@CWnd@@MAEJIIJ@Z:PROC		; CWnd::WindowProc
EXTRN	?OnWndMsg@CWnd@@MAEHIIJPAJ@Z:PROC		; CWnd::OnWndMsg
EXTRN	?DefWindowProcA@CWnd@@MAEJIIJ@Z:PROC		; CWnd::DefWindowProcA
EXTRN	?PostNcDestroy@CWnd@@MAEXXZ:PROC		; CWnd::PostNcDestroy
EXTRN	?OnChildNotify@CWnd@@MAEHIIJPAJ@Z:PROC		; CWnd::OnChildNotify
EXTRN	?OnTouchInputs@CWnd@@MAEHIPAUtagTOUCHINPUT@@@Z:PROC ; CWnd::OnTouchInputs
EXTRN	?OnTouchInput@CWnd@@MAEHVCPoint@@HHPAUtagTOUCHINPUT@@@Z:PROC ; CWnd::OnTouchInput
EXTRN	?GetGestureStatus@CWnd@@MAEKVCPoint@@@Z:PROC	; CWnd::GetGestureStatus
EXTRN	?OnGestureZoom@CWnd@@MAEHVCPoint@@J@Z:PROC	; CWnd::OnGestureZoom
EXTRN	?OnGesturePan@CWnd@@MAEHVCPoint@@0@Z:PROC	; CWnd::OnGesturePan
EXTRN	?OnGestureRotate@CWnd@@MAEHVCPoint@@N@Z:PROC	; CWnd::OnGestureRotate
EXTRN	?OnGestureTwoFingerTap@CWnd@@MAEHVCPoint@@@Z:PROC ; CWnd::OnGestureTwoFingerTap
EXTRN	?OnGesturePressAndTap@CWnd@@MAEHVCPoint@@J@Z:PROC ; CWnd::OnGesturePressAndTap
EXTRN	?ResizeDynamicLayout@CWnd@@MAEXXZ:PROC		; CWnd::ResizeDynamicLayout
EXTRN	?CheckAutoCenter@CWnd@@UAEHXZ:PROC		; CWnd::CheckAutoCenter
EXTRN	?IsFrameWnd@CWnd@@UBEHXZ:PROC			; CWnd::IsFrameWnd
EXTRN	?OnFinalRelease@CWnd@@UAEXXZ:PROC		; CWnd::OnFinalRelease
EXTRN	?CreateControlContainer@CWnd@@MAEHPAPAVCOleControlContainer@@@Z:PROC ; CWnd::CreateControlContainer
EXTRN	?CreateControlSite@CWnd@@MAEHPAVCOleControlContainer@@PAPAVCOleControlSite@@IABU_GUID@@@Z:PROC ; CWnd::CreateControlSite
EXTRN	?SetOccDialogInfo@CWnd@@MAEHPAU_AFX_OCC_DIALOG_INFO@@@Z:PROC ; CWnd::SetOccDialogInfo
EXTRN	?GetOccDialogInfo@CWnd@@MAEPAU_AFX_OCC_DIALOG_INFO@@XZ:PROC ; CWnd::GetOccDialogInfo
EXTRN	?GetMessageMap@CWnd@@MBEPBUAFX_MSGMAP@@XZ:PROC	; CWnd::GetMessageMap
EXTRN	?GetRuntimeClass@CDialog@@UBEPAUCRuntimeClass@@XZ:PROC ; CDialog::GetRuntimeClass
EXTRN	?Create@CDialog@@UAEHPBDPAVCWnd@@@Z:PROC	; CDialog::Create
EXTRN	?CreateIndirect@CDialog@@UAEHPBUDLGTEMPLATE@@PAVCWnd@@PAX@Z:PROC ; CDialog::CreateIndirect
EXTRN	?CreateIndirect@CDialog@@UAEHPAXPAVCWnd@@@Z:PROC ; CDialog::CreateIndirect
EXTRN	?DoModal@CDialog@@UAEHXZ:PROC			; CDialog::DoModal
EXTRN	?OnInitDialog@CDialog@@UAEHXZ:PROC		; CDialog::OnInitDialog
EXTRN	?OnSetFont@CDialog@@UAEXPAVCFont@@@Z:PROC	; CDialog::OnSetFont
EXTRN	?OnOK@CDialog@@MAEXXZ:PROC			; CDialog::OnOK
EXTRN	?OnCancel@CDialog@@MAEXXZ:PROC			; CDialog::OnCancel
EXTRN	??1CDialog@@UAE@XZ:PROC				; CDialog::~CDialog
EXTRN	?PreTranslateMessage@CDialog@@UAEHPAUtagMSG@@@Z:PROC ; CDialog::PreTranslateMessage
EXTRN	?OnCmdMsg@CDialog@@UAEHIHPAXPAUAFX_CMDHANDLERINFO@@@Z:PROC ; CDialog::OnCmdMsg
EXTRN	?CheckAutoCenter@CDialog@@UAEHXZ:PROC		; CDialog::CheckAutoCenter
EXTRN	?SetOccDialogInfo@CDialog@@MAEHPAU_AFX_OCC_DIALOG_INFO@@@Z:PROC ; CDialog::SetOccDialogInfo
EXTRN	?GetOccDialogInfo@CDialog@@MAEPAU_AFX_OCC_DIALOG_INFO@@XZ:PROC ; CDialog::GetOccDialogInfo
EXTRN	?PreInitDialog@CDialog@@MAEXXZ:PROC		; CDialog::PreInitDialog
EXTRN	?GetThisMessageMap@CDialog@@KGPBUAFX_MSGMAP@@XZ:PROC ; CDialog::GetThisMessageMap
EXTRN	?GetRuntimeClass@CStatic@@UBEPAUCRuntimeClass@@XZ:PROC ; CStatic::GetRuntimeClass
EXTRN	?Create@CStatic@@UAEHPBDKABUtagRECT@@PAVCWnd@@I@Z:PROC ; CStatic::Create
EXTRN	?DrawItem@CStatic@@UAEXPAUtagDRAWITEMSTRUCT@@@Z:PROC ; CStatic::DrawItem
EXTRN	??1CStatic@@UAE@XZ:PROC				; CStatic::~CStatic
EXTRN	?OnChildNotify@CStatic@@MAEHIIJPAJ@Z:PROC	; CStatic::OnChildNotify
EXTRN	??_ECStatic@@UAEPAXI@Z:PROC			; CStatic::`vector deleting destructor'
EXTRN	?AfxMessageBox@@YGHPBDII@Z:PROC			; AfxMessageBox
EXTRN	??4COleVariant@@QAEABV0@QBD@Z:PROC		; COleVariant::operator=
EXTRN	?AfxVariantInit@@YGXPAUtagVARIANT@@@Z:PROC	; AfxVariantInit
EXTRN	??0CGridCtrl@@QAE@HHHH@Z:PROC			; CGridCtrl::CGridCtrl
EXTRN	?Create@CGridCtrl@@QAEHABUtagRECT@@PAVCWnd@@IK@Z:PROC ; CGridCtrl::Create
EXTRN	?SetRowCount@CGridCtrl@@QAEHH@Z:PROC		; CGridCtrl::SetRowCount
EXTRN	?SetColumnCount@CGridCtrl@@QAEHH@Z:PROC		; CGridCtrl::SetColumnCount
EXTRN	?SetRowHeight@CGridCtrl@@QAEHHH@Z:PROC		; CGridCtrl::SetRowHeight
EXTRN	?SetColumnWidth@CGridCtrl@@QAEHHH@Z:PROC	; CGridCtrl::SetColumnWidth
EXTRN	?SetItemText@CGridCtrl@@QAEHHHPBD@Z:PROC	; CGridCtrl::SetItemText
EXTRN	?SetItemText@CGridCtrl@@QAEHHHPBDK@Z:PROC	; CGridCtrl::SetItemText
EXTRN	?SetItemBkColour@CGridCtrl@@QAEHHHK@Z:PROC	; CGridCtrl::SetItemBkColour
EXTRN	?ExpandColumnsToFit@CGridCtrl@@QAEXH@Z:PROC	; CGridCtrl::ExpandColumnsToFit
EXTRN	?Refresh@CGridCtrl@@QAEXXZ:PROC			; CGridCtrl::Refresh
EXTRN	??1CGridCtrl@@UAE@XZ:PROC			; CGridCtrl::~CGridCtrl
EXTRN	??0CDlgInterface@@QAE@IPAVCWnd@@@Z:PROC		; CDlgInterface::CDlgInterface
EXTRN	?GetComma@CDlgInterface@@SA?AV?$CStringT@DV?$StrTraitMFC_DLL@DV?$ChTraitsCRT@D@ATL@@@@@ATL@@PBD@Z:PROC ; CDlgInterface::GetComma
EXTRN	??_ECTabResult@@UAEPAXI@Z:PROC			; CTabResult::`vector deleting destructor'
EXTRN	?SetText@CExStatic@@QAEXPBD@Z:PROC		; CExStatic::SetText
EXTRN	@__security_check_cookie@4:PROC
EXTRN	___CxxFrameHandler3:PROC
EXTRN	??_7type_info@@6B@:QWORD			; type_info::`vftable'
EXTRN	___security_cookie:DWORD
EXTRN	__fltused:DWORD
_BSS	SEGMENT
?RMSG_GETSIGNAL_REAL@@3IB DD 01H DUP (?)		; RMSG_GETSIGNAL_REAL
?RMSG_SETQUERYOPT@@3IB DD 01H DUP (?)			; RMSG_SETQUERYOPT
?RMSG_CHARTMAIN@@3IB DD 01H DUP (?)			; RMSG_CHARTMAIN
?RMS_ANALYSIS_FUNC@@3IB DD 01H DUP (?)			; RMS_ANALYSIS_FUNC
?RMSG_GET_USERID@@3IB DD 01H DUP (?)			; RMSG_GET_USERID
?RMSG_CHANGE_SKINCOLOR@@3IB DD 01H DUP (?)		; RMSG_CHANGE_SKINCOLOR
?RMSG_GET_SKINCOLOR@@3IB DD 01H DUP (?)			; RMSG_GET_SKINCOLOR
?RMSG_CHANGEVERTSCALETYPE@@3IB DD 01H DUP (?)		; RMSG_CHANGEVERTSCALETYPE
?RMSG_CHANGE_CROSSLINE@@3IB DD 01H DUP (?)		; RMSG_CHANGE_CROSSLINE
?RMSG_ADD_PLATFORM_MENU@@3IB DD 01H DUP (?)		; RMSG_ADD_PLATFORM_MENU
?RMSG_SETINITIALCHARTDATA@@3IB DD 01H DUP (?)		; RMSG_SETINITIALCHARTDATA
?RMSG_GETINFO@@3IB DD 01H DUP (?)			; RMSG_GETINFO
?RMSG_SETINFO@@3IB DD 01H DUP (?)			; RMSG_SETINFO
?RMSG_INTERFACE@@3IB DD 01H DUP (?)			; RMSG_INTERFACE
?RMSG_GETPCTRDATA@@3IB DD 01H DUP (?)			; RMSG_GETPCTRDATA
?RMSG_SETPCTRDATA@@3IB DD 01H DUP (?)			; RMSG_SETPCTRDATA
_BSS	ENDS
CRT$XCU	SEGMENT
?RMSG_GETSIGNAL_REAL$initializer$@@3P6AXXZA DD FLAT:??__ERMSG_GETSIGNAL_REAL@@YAXXZ ; RMSG_GETSIGNAL_REAL$initializer$
CRT$XCU	ENDS
;	COMDAT ??_R2CDlgInterface@@8
rdata$r	SEGMENT
??_R2CDlgInterface@@8 DD FLAT:??_R1A@?0A@EA@CDlgInterface@@8 ; CDlgInterface::`RTTI Base Class Array'
	DD	FLAT:??_R1A@?0A@EA@CEscDialog@@8
	DD	FLAT:??_R1A@?0A@EA@CDialog@@8
	DD	FLAT:??_R1A@?0A@EA@CWnd@@8
	DD	FLAT:??_R1A@?0A@EA@CCmdTarget@@8
	DD	FLAT:??_R1A@?0A@EA@CObject@@8
rdata$r	ENDS
;	COMDAT ??_R3CDlgInterface@@8
rdata$r	SEGMENT
??_R3CDlgInterface@@8 DD 00H				; CDlgInterface::`RTTI Class Hierarchy Descriptor'
	DD	00H
	DD	06H
	DD	FLAT:??_R2CDlgInterface@@8
rdata$r	ENDS
;	COMDAT ??_R0?AVCDlgInterface@@@8
data$rs	SEGMENT
??_R0?AVCDlgInterface@@@8 DD FLAT:??_7type_info@@6B@	; CDlgInterface `RTTI Type Descriptor'
	DD	00H
	DB	'.?AVCDlgInterface@@', 00H
data$rs	ENDS
;	COMDAT ??_R1A@?0A@EA@CDlgInterface@@8
rdata$r	SEGMENT
??_R1A@?0A@EA@CDlgInterface@@8 DD FLAT:??_R0?AVCDlgInterface@@@8 ; CDlgInterface::`RTTI Base Class Descriptor at (0,-1,0,64)'
	DD	05H
	DD	00H
	DD	0ffffffffH
	DD	00H
	DD	040H
	DD	FLAT:??_R3CDlgInterface@@8
rdata$r	ENDS
;	COMDAT ??_R1A@?0A@EA@CTabResult@@8
rdata$r	SEGMENT
??_R1A@?0A@EA@CTabResult@@8 DD FLAT:??_R0?AVCTabResult@@@8 ; CTabResult::`RTTI Base Class Descriptor at (0,-1,0,64)'
	DD	06H
	DD	00H
	DD	0ffffffffH
	DD	00H
	DD	040H
	DD	FLAT:??_R3CTabResult@@8
rdata$r	ENDS
;	COMDAT ??_R2CTabResult@@8
rdata$r	SEGMENT
??_R2CTabResult@@8 DD FLAT:??_R1A@?0A@EA@CTabResult@@8	; CTabResult::`RTTI Base Class Array'
	DD	FLAT:??_R1A@?0A@EA@CDlgInterface@@8
	DD	FLAT:??_R1A@?0A@EA@CEscDialog@@8
	DD	FLAT:??_R1A@?0A@EA@CDialog@@8
	DD	FLAT:??_R1A@?0A@EA@CWnd@@8
	DD	FLAT:??_R1A@?0A@EA@CCmdTarget@@8
	DD	FLAT:??_R1A@?0A@EA@CObject@@8
rdata$r	ENDS
;	COMDAT ??_R3CTabResult@@8
rdata$r	SEGMENT
??_R3CTabResult@@8 DD 00H				; CTabResult::`RTTI Class Hierarchy Descriptor'
	DD	00H
	DD	07H
	DD	FLAT:??_R2CTabResult@@8
rdata$r	ENDS
;	COMDAT ??_R0?AVCTabResult@@@8
data$rs	SEGMENT
??_R0?AVCTabResult@@@8 DD FLAT:??_7type_info@@6B@	; CTabResult `RTTI Type Descriptor'
	DD	00H
	DB	'.?AVCTabResult@@', 00H
data$rs	ENDS
;	COMDAT ??_R4CTabResult@@6B@
rdata$r	SEGMENT
??_R4CTabResult@@6B@ DD 00H				; CTabResult::`RTTI Complete Object Locator'
	DD	00H
	DD	00H
	DD	FLAT:??_R0?AVCTabResult@@@8
	DD	FLAT:??_R3CTabResult@@8
rdata$r	ENDS
;	COMDAT ??_C@_0CJ@CCHBIPPA@Do?5Not?5Create?5?$LK?$LI?$LA?m?$LM?$KN?9?$LM?$LK?$LA?z?$LK?P?$LM?$KO2?4@
CONST	SEGMENT
??_C@_0CJ@CCHBIPPA@Do?5Not?5Create?5?$LK?$LI?$LA?m?$LM?$KN?9?$LM?$LK?$LA?z?$LK?P?$LM?$KO2?4@ DB 'D'
	DB	'o Not Create ', 0baH, 0b8H, 0b0H, 0edH, 0bcH, 0adH, '-', 0bcH
	DB	0baH, 0b0H, 0faH, 0baH, 0d0H, 0bcH, 0aeH, '2.htm File.', 00H ; `string'
CONST	ENDS
;	COMDAT ??_C@_0BG@BGDHEHIP@?2?$LK?$LI?$LA?m?$LM?$KN?9?$LM?$LK?$LA?z?$LK?P?$LM?$KO2?4htm@
CONST	SEGMENT
??_C@_0BG@BGDHEHIP@?2?$LK?$LI?$LA?m?$LM?$KN?9?$LM?$LK?$LA?z?$LK?P?$LM?$KO2?4htm@ DB '\'
	DB	0baH, 0b8H, 0b0H, 0edH, 0bcH, 0adH, '-', 0bcH, 0baH, 0b0H, 0faH
	DB	0baH, 0d0H, 0bcH, 0aeH, '2.htm', 00H		; `string'
CONST	ENDS
;	COMDAT ??_C@_06NBGJEFCJ@?$CF?42f?$CF?$CF@
CONST	SEGMENT
??_C@_06NBGJEFCJ@?$CF?42f?$CF?$CF@ DB '%.2f%%', 00H	; `string'
CONST	ENDS
;	COMDAT ??_C@_0N@BFBGFLNJ@?5?$CFs?5?$CFs?5?5?$HO?5?$CFs@
CONST	SEGMENT
??_C@_0N@BFBGFLNJ@?5?$CFs?5?$CFs?5?5?$HO?5?$CFs@ DB ' %s %s  ~ %s', 00H ; `string'
CONST	ENDS
;	COMDAT ??_C@_0O@NLCHHJFD@color?$DN?$CCwhite?$CC@
CONST	SEGMENT
??_C@_0O@NLCHHJFD@color?$DN?$CCwhite?$CC@ DB 'color="white"', 00H ; `string'
CONST	ENDS
;	COMDAT ??_C@_0CI@CCGFODKP@Do?5Not?5Create?5?$LK?$LI?$LA?m?$LM?$KN?9?$LM?$LK?$LA?z?$LK?P?$LM?$KO?4h@
CONST	SEGMENT
??_C@_0CI@CCGFODKP@Do?5Not?5Create?5?$LK?$LI?$LA?m?$LM?$KN?9?$LM?$LK?$LA?z?$LK?P?$LM?$KO?4h@ DB 'D'
	DB	'o Not Create ', 0baH, 0b8H, 0b0H, 0edH, 0bcH, 0adH, '-', 0bcH
	DB	0baH, 0b0H, 0faH, 0baH, 0d0H, 0bcH, 0aeH, '.htm File.', 00H ; `string'
CONST	ENDS
;	COMDAT ??_C@_0BF@PNNIFJFE@?2?$LK?$LI?$LA?m?$LM?$KN?9?$LM?$LK?$LA?z?$LK?P?$LM?$KO?4htm@
CONST	SEGMENT
??_C@_0BF@PNNIFJFE@?2?$LK?$LI?$LA?m?$LM?$KN?9?$LM?$LK?$LA?z?$LK?P?$LM?$KO?4htm@ DB '\'
	DB	0baH, 0b8H, 0b0H, 0edH, 0bcH, 0adH, '-', 0bcH, 0baH, 0b0H, 0faH
	DB	0baH, 0d0H, 0bcH, 0aeH, '.htm', 00H		; `string'
CONST	ENDS
;	COMDAT ??_C@_04GEFJINEE@?$CF?42f@
CONST	SEGMENT
??_C@_04GEFJINEE@?$CF?42f@ DB '%.2f', 00H		; `string'
CONST	ENDS
;	COMDAT ??_C@_01FGNFDNOH@?$CF@
CONST	SEGMENT
??_C@_01FGNFDNOH@?$CF@ DB '%', 00H			; `string'
CONST	ENDS
;	COMDAT ??_C@_05BEBFNOMM@?5?$CF?42f@
CONST	SEGMENT
??_C@_05BEBFNOMM@?5?$CF?42f@ DB ' %.2f', 00H		; `string'
CONST	ENDS
;	COMDAT ??_C@_0P@DHMEDIHM@?5?$FL?$CFs?$FN?5?$CFs?5?5?$HO?5?$CFs@
CONST	SEGMENT
??_C@_0P@DHMEDIHM@?5?$FL?$CFs?$FN?5?$CFs?5?5?$HO?5?$CFs@ DB ' [%s] %s  ~ '
	DB	'%s', 00H					; `string'
CONST	ENDS
;	COMDAT ??_C@_08PFEOEOFA@?$LI?E?$LM?v?C?$LL?$LL?j@
CONST	SEGMENT
??_C@_08PFEOEOFA@?$LI?E?$LM?v?C?$LL?$LL?j@ DB 0b8H, 0c5H, 0bcH, 0f6H, 0c3H
	DB	0bbH, 0bbH, 0eaH, 00H			; `string'
CONST	ENDS
;	COMDAT ??_C@_08DBKELDO@?$LI?E?$LF?$LF?A?x?$MA?T@
CONST	SEGMENT
??_C@_08DBKELDO@?$LI?E?$LF?$LF?A?x?$MA?T@ DB 0b8H, 0c5H, 0b5H, 0b5H, 0c1H
	DB	0f8H, 0c0H, 0d4H, 00H			; `string'
CONST	ENDS
;	COMDAT ??_C@_08OJBKHDEB@?$LI?E?$LF?$LF?C?$LL?$LL?j@
CONST	SEGMENT
??_C@_08OJBKHDEB@?$LI?E?$LF?$LF?C?$LL?$LL?j@ DB 0b8H, 0c5H, 0b5H, 0b5H, 0c3H
	DB	0bbH, 0bbH, 0eaH, 00H			; `string'
CONST	ENDS
;	COMDAT ??_C@_08BPEOHGCP@?$LI?E?$LM?v?A?x?$MA?T@
CONST	SEGMENT
??_C@_08BPEOHGCP@?$LI?E?$LM?v?A?x?$MA?T@ DB 0b8H, 0c5H, 0bcH, 0f6H, 0c1H, 0f8H
	DB	0c0H, 0d4H, 00H				; `string'
CONST	ENDS
;	COMDAT ??_C@_04OKGDLNCL@NONE@
CONST	SEGMENT
??_C@_04OKGDLNCL@NONE@ DB 'NONE', 00H			; `string'
CONST	ENDS
;	COMDAT ??_C@_0BB@EJJBJOLI@?$LM?U?$LN?G?$LI?E?$LI?E?F?r?$LB?U?$LK?$MA?$LM?v@
CONST	SEGMENT
??_C@_0BB@EJJBJOLI@?$LM?U?$LN?G?$LI?E?$LI?E?F?r?$LB?U?$LK?$MA?$LM?v@ DB 0bcH
	DB	0d5H, 0bdH, 0c7H, 0b8H, 0c5H, 0b8H, 0c5H, 0c6H, 0f2H, 0b1H, 0d5H
	DB	0baH, 0c0H, 0bcH, 0f6H, 00H			; `string'
CONST	ENDS
;	COMDAT ??_C@_0N@NCPIAFBM@?C?$LL?$LL?j?$LL?s?E?B?$LK?$MA?$LM?v@
CONST	SEGMENT
??_C@_0N@NCPIAFBM@?C?$LL?$LL?j?$LL?s?E?B?$LK?$MA?$LM?v@ DB 0c3H, 0bbH, 0bbH
	DB	0eaH, 0bbH, 0f3H, 0c5H, 0c2H, 0baH, 0c0H, 0bcH, 0f6H, 00H ; `string'
CONST	ENDS
;	COMDAT ??_C@_0N@DGJMLGPE@?$LM?U?$LN?G?$LI?E?$LI?E?$LK?$MA?$LM?v@
CONST	SEGMENT
??_C@_0N@DGJMLGPE@?$LM?U?$LN?G?$LI?E?$LI?E?$LK?$MA?$LM?v@ DB 0bcH, 0d5H, 0bdH
	DB	0c7H, 0b8H, 0c5H, 0b8H, 0c5H, 0baH, 0c0H, 0bcH, 0f6H, 00H ; `string'
CONST	ENDS
;	COMDAT ??_C@_0N@FHLHDMCK@?C?V?$LE?k?$LP?$KM?$LM?S?$LM?U?$LN?G@
CONST	SEGMENT
??_C@_0N@FHLHDMCK@?C?V?$LE?k?$LP?$KM?$LM?S?$LM?U?$LN?G@ DB 0c3H, 0d6H, 0b4H
	DB	0ebH, 0bfH, 0acH, 0bcH, 0d3H, 0bcH, 0d5H, 0bdH, 0c7H, 00H ; `string'
CONST	ENDS
;	COMDAT ??_C@_0P@MOKGKGFH@?C?V?$LE?k?$LP?$KM?$LM?S?$LM?U?$LN?G?$LM?v@
CONST	SEGMENT
??_C@_0P@MOKGKGFH@?C?V?$LE?k?$LP?$KM?$LM?S?$LM?U?$LN?G?$LM?v@ DB 0c3H, 0d6H
	DB	0b4H, 0ebH, 0bfH, 0acH, 0bcH, 0d3H, 0bcH, 0d5H, 0bdH, 0c7H, 0bcH
	DB	0f6H, 00H					; `string'
CONST	ENDS
;	COMDAT ??_C@_0BB@DDLIPNDD@?$LM?U?$LN?G?$LI?E?$LI?E?$MA?$LC?$CI?F?P?$MA?$LC?$CJ@
CONST	SEGMENT
??_C@_0BB@DDLIPNDD@?$LM?U?$LN?G?$LI?E?$LI?E?$MA?$LC?$CI?F?P?$MA?$LC?$CJ@ DB 0bcH
	DB	0d5H, 0bdH, 0c7H, 0b8H, 0c5H, 0b8H, 0c5H, 0c0H, 0b2H, '(', 0c6H
	DB	0d0H, 0c0H, 0b2H, ')', 00H			; `string'
CONST	ENDS
;	COMDAT ??_C@_0L@MKABNNA@?$LM?U?$LN?G?$LI?E?$LI?E?$LM?v@
CONST	SEGMENT
??_C@_0L@MKABNNA@?$LM?U?$LN?G?$LI?E?$LI?E?$LM?v@ DB 0bcH, 0d5H, 0bdH, 0c7H
	DB	0b8H, 0c5H, 0b8H, 0c5H, 0bcH, 0f6H, 00H	; `string'
CONST	ENDS
;	COMDAT ??_C@_01CLKCMJKC@?5@
CONST	SEGMENT
??_C@_01CLKCMJKC@?5@ DB ' ', 00H			; `string'
CONST	ENDS
;	COMDAT ??_C@_0N@HPJEMNON@?$LA?G?$LK?$LA?F?r?$LB?U?$LM?U?$LN?G@
CONST	SEGMENT
??_C@_0N@HPJEMNON@?$LA?G?$LK?$LA?F?r?$LB?U?$LM?U?$LN?G@ DB 0b0H, 0c7H, 0baH
	DB	0b0H, 0c6H, 0f2H, 0b1H, 0d5H, 0bcH, 0d5H, 0bdH, 0c7H, 00H ; `string'
CONST	ENDS
;	COMDAT ??_C@_0N@CEHHKNHE@?$LA?G?$LK?$LA?C?V?$LE?k?$LM?U?$LN?G@
CONST	SEGMENT
??_C@_0N@CEHHKNHE@?$LA?G?$LK?$LA?C?V?$LE?k?$LM?U?$LN?G@ DB 0b0H, 0c7H, 0baH
	DB	0b0H, 0c3H, 0d6H, 0b4H, 0ebH, 0bcH, 0d5H, 0bdH, 0c7H, 00H ; `string'
CONST	ENDS
;	COMDAT ??_C@_06MLIEOKGJ@?C?Q?$LM?U?$LN?G@
CONST	SEGMENT
??_C@_06MLIEOKGJ@?C?Q?$LM?U?$LN?G@ DB 0c3H, 0d1H, 0bcH, 0d5H, 0bdH, 0c7H, 00H ; `string'
CONST	ENDS
;	COMDAT ??_C@_0BB@NADIPDBG@?G?v?$MA?g?F?w?A?v?$LM?G?$LM?v?$MA?M?$LH?$PM@
CONST	SEGMENT
??_C@_0BB@NADIPDBG@?G?v?$MA?g?F?w?A?v?$LM?G?$LM?v?$MA?M?$LH?$PM@ DB 0c7H, 0f6H
	DB	0c0H, 0e7H, 0c6H, 0f7H, 0c1H, 0f6H, 0bcH, 0c7H, 0bcH, 0f6H, 0c0H
	DB	0cdH, 0b7H, 0fcH, 00H			; `string'
CONST	ENDS
;	COMDAT ??_C@_0BB@KLAEHKOB@?$MA?L?$MA?M?$LI?E?$LI?E?F?r?$LB?U?$LK?$MA?$LM?v@
CONST	SEGMENT
??_C@_0BB@KLAEHKOB@?$MA?L?$MA?M?$LI?E?$LI?E?F?r?$LB?U?$LK?$MA?$LM?v@ DB 0c0H
	DB	0ccH, 0c0H, 0cdH, 0b8H, 0c5H, 0b8H, 0c5H, 0c6H, 0f2H, 0b1H, 0d5H
	DB	0baH, 0c0H, 0bcH, 0f6H, 00H			; `string'
CONST	ENDS
;	COMDAT ??_C@_0N@FOGALCGL@?A?x?$MA?T?$LL?s?E?B?$LK?$MA?$LM?v@
CONST	SEGMENT
??_C@_0N@FOGALCGL@?A?x?$MA?T?$LL?s?E?B?$LK?$MA?$LM?v@ DB 0c1H, 0f8H, 0c0H
	DB	0d4H, 0bbH, 0f3H, 0c5H, 0c2H, 0baH, 0c0H, 0bcH, 0f6H, 00H ; `string'
CONST	ENDS
;	COMDAT ??_C@_0N@KFPHCLNL@?$MA?L?$MA?M?$LI?E?$LI?E?$LK?$MA?$LM?v@
CONST	SEGMENT
??_C@_0N@KFPHCLNL@?$MA?L?$MA?M?$LI?E?$LI?E?$LK?$MA?$LM?v@ DB 0c0H, 0ccH, 0c0H
	DB	0cdH, 0b8H, 0c5H, 0b8H, 0c5H, 0baH, 0c0H, 0bcH, 0f6H, 00H ; `string'
CONST	ENDS
;	COMDAT ??_C@_0N@OAECDKHI@?C?V?$LE?k?$LP?$KM?$LM?S?$MA?L?$MA?M@
CONST	SEGMENT
??_C@_0N@OAECDKHI@?C?V?$LE?k?$LP?$KM?$LM?S?$MA?L?$MA?M@ DB 0c3H, 0d6H, 0b4H
	DB	0ebH, 0bfH, 0acH, 0bcH, 0d3H, 0c0H, 0ccH, 0c0H, 0cdH, 00H ; `string'
CONST	ENDS
;	COMDAT ??_C@_0P@KPEIILEB@?C?V?$LE?k?$LP?$KM?$LM?S?$MA?L?$MA?M?$LM?v@
CONST	SEGMENT
??_C@_0P@KPEIILEB@?C?V?$LE?k?$LP?$KM?$LM?S?$MA?L?$MA?M?$LM?v@ DB 0c3H, 0d6H
	DB	0b4H, 0ebH, 0bfH, 0acH, 0bcH, 0d3H, 0c0H, 0ccH, 0c0H, 0cdH, 0bcH
	DB	0f6H, 00H					; `string'
CONST	ENDS
;	COMDAT ??_C@_0BB@CGAEBIGF@?$MA?L?$MA?M?$LI?E?$LI?E?$MA?$LC?$CI?$LN?B?$LH?$PM?$CJ@
CONST	SEGMENT
??_C@_0BB@CGAEBIGF@?$MA?L?$MA?M?$LI?E?$LI?E?$MA?$LC?$CI?$LN?B?$LH?$PM?$CJ@ DB 0c0H
	DB	0ccH, 0c0H, 0cdH, 0b8H, 0c5H, 0b8H, 0c5H, 0c0H, 0b2H, '(', 0bdH
	DB	0c2H, 0b7H, 0fcH, ')', 00H			; `string'
CONST	ENDS
;	COMDAT ??_C@_0L@LDAPEPIM@?$MA?L?$MA?M?$LI?E?$LI?E?$LM?v@
CONST	SEGMENT
??_C@_0L@LDAPEPIM@?$MA?L?$MA?M?$LI?E?$LI?E?$LM?v@ DB 0c0H, 0ccH, 0c0H, 0cdH
	DB	0b8H, 0c5H, 0b8H, 0c5H, 0bcH, 0f6H, 00H	; `string'
CONST	ENDS
;	COMDAT ??_C@_0BB@NJCLLDAP@?$LJ?L?C?$LL?$LL?j?F?w?G?T?C?Q?C?$LL?$LL?j@
CONST	SEGMENT
??_C@_0BB@NJCLLDAP@?$LJ?L?C?$LL?$LL?j?F?w?G?T?C?Q?C?$LL?$LL?j@ DB 0b9H, 0ccH
	DB	0c3H, 0bbH, 0bbH, 0eaH, 0c6H, 0f7H, 0c7H, 0d4H, 0c3H, 0d1H, 0c3H
	DB	0bbH, 0bbH, 0eaH, 00H			; `string'
CONST	ENDS
;	COMDAT ??_C@_0N@MIGBMLLP@?$LA?G?$LK?$LA?F?r?$LB?U?$MA?L?$MA?M@
CONST	SEGMENT
??_C@_0N@MIGBMLLP@?$LA?G?$LK?$LA?F?r?$LB?U?$MA?L?$MA?M@ DB 0b0H, 0c7H, 0baH
	DB	0b0H, 0c6H, 0f2H, 0b1H, 0d5H, 0c0H, 0ccH, 0c0H, 0cdH, 00H ; `string'
CONST	ENDS
;	COMDAT ??_C@_0N@JDICKLCG@?$LA?G?$LK?$LA?C?V?$LE?k?$MA?L?$MA?M@
CONST	SEGMENT
??_C@_0N@JDICKLCG@?$LA?G?$LK?$LA?C?V?$LE?k?$MA?L?$MA?M@ DB 0b0H, 0c7H, 0baH
	DB	0b0H, 0c3H, 0d6H, 0b4H, 0ebH, 0c0H, 0ccH, 0c0H, 0cdH, 00H ; `string'
CONST	ENDS
;	COMDAT ??_C@_06HMHBOMDL@?C?Q?$MA?L?$MA?M@
CONST	SEGMENT
??_C@_06HMHBOMDL@?C?Q?$MA?L?$MA?M@ DB 0c3H, 0d1H, 0c0H, 0ccH, 0c0H, 0cdH, 00H ; `string'
CONST	ENDS
;	COMDAT ??_C@_0P@JJNKLJJO@?$LA?G?$LK?$LA?F?r?$LB?U?$LM?v?$MA?M?$LH?$PM@
CONST	SEGMENT
??_C@_0P@JJNKLJJO@?$LA?G?$LK?$LA?F?r?$LB?U?$LM?v?$MA?M?$LH?$PM@ DB 0b0H, 0c7H
	DB	0baH, 0b0H, 0c6H, 0f2H, 0b1H, 0d5H, 0bcH, 0f6H, 0c0H, 0cdH, 0b7H
	DB	0fcH, 00H					; `string'
CONST	ENDS
;	COMDAT ??_C@_0N@PDNPFNDD@?F?r?$LB?U?$LI?E?$LI?E?$LK?$MA?$LM?v@
CONST	SEGMENT
??_C@_0N@PDNPFNDD@?F?r?$LB?U?$LI?E?$LI?E?$LK?$MA?$LM?v@ DB 0c6H, 0f2H, 0b1H
	DB	0d5H, 0b8H, 0c5H, 0b8H, 0c5H, 0baH, 0c0H, 0bcH, 0f6H, 00H ; `string'
CONST	ENDS
;	COMDAT ??_C@_0L@IJLGNGBO@?$LB?b?$LA?$KD?B?$PM?$LP?$KJ?$MA?$LC@
CONST	SEGMENT
??_C@_0L@IJLGNGBO@?$LB?b?$LA?$KD?B?$PM?$LP?$KJ?$MA?$LC@ DB 0b1H, 0e2H, 0b0H
	DB	0a3H, 0c2H, 0fcH, 0bfH, 0a9H, 0c0H, 0b2H, 00H ; `string'
CONST	ENDS
;	COMDAT ??_C@_06OEJMNFOB@?C?Q?$LK?$MA?$LM?v@
CONST	SEGMENT
??_C@_06OEJMNFOB@?C?Q?$LK?$MA?$LM?v@ DB 0c3H, 0d1H, 0baH, 0c0H, 0bcH, 0f6H
	DB	00H						; `string'
CONST	ENDS
;	COMDAT ??_C@_0P@HMJADPNA@?$MA?$PM?$LH?$KL?C?J?$LA?z?$LM?v?$MA?M?$LH?$PM@
CONST	SEGMENT
??_C@_0P@HMJADPNA@?$MA?$PM?$LH?$KL?C?J?$LA?z?$LM?v?$MA?M?$LH?$PM@ DB 0c0H
	DB	0fcH, 0b7H, 0abH, 0c3H, 0caH, 0b0H, 0faH, 0bcH, 0f6H, 0c0H, 0cdH
	DB	0b7H, 0fcH, 00H				; `string'
CONST	ENDS
;	COMDAT ??_C@_0L@OFFEDCHL@?$LB?b?$LA?$KD?$LF?n?$LG?t?$LH?$PM@
CONST	SEGMENT
??_C@_0L@OFFEDCHL@?$LB?b?$LA?$KD?$LF?n?$LG?t?$LH?$PM@ DB 0b1H, 0e2H, 0b0H
	DB	0a3H, 0b5H, 0eeH, 0b6H, 0f4H, 0b7H, 0fcH, 00H ; `string'
CONST	ENDS
;	COMDAT ??_C@_0O@CIHDHIEL@?$MA?L?$MA?M?$LM?v?1?$LM?U?$LN?G?$LM?v@
CONST	SEGMENT
??_C@_0O@CIHDHIEL@?$MA?L?$MA?M?$LM?v?1?$LM?U?$LN?G?$LM?v@ DB 0c0H, 0ccH, 0c0H
	DB	0cdH, 0bcH, 0f6H, '/', 0bcH, 0d5H, 0bdH, 0c7H, 0bcH, 0f6H, 00H ; `string'
CONST	ENDS
;	COMDAT ??_C@_08OPDCDADA@?C?Q?$LI?E?$LI?E?$LM?v@
CONST	SEGMENT
??_C@_08OPDCDADA@?C?Q?$LI?E?$LI?E?$LM?v@ DB 0c3H, 0d1H, 0b8H, 0c5H, 0b8H, 0c5H
	DB	0bcH, 0f6H, 00H				; `string'
CONST	ENDS
;	COMDAT ??_C@_06KFFIADGF@?C?Q?A?x?$MA?T@
CONST	SEGMENT
??_C@_06KFFIADGF@?C?Q?A?x?$MA?T@ DB 0c3H, 0d1H, 0c1H, 0f8H, 0c0H, 0d4H, 00H ; `string'
CONST	ENDS
;	COMDAT ??_C@_0N@NJFCNOGE@?$LA?G?$LK?$LA?F?r?$LB?U?$LM?U?$MA?M@
CONST	SEGMENT
??_C@_0N@NJFCNOGE@?$LA?G?$LK?$LA?F?r?$LB?U?$LM?U?$MA?M@ DB 0b0H, 0c7H, 0baH
	DB	0b0H, 0c6H, 0f2H, 0b1H, 0d5H, 0bcH, 0d5H, 0c0H, 0cdH, 00H ; `string'
CONST	ENDS
;	COMDAT ??_C@_0O@KHPIEGBI@?C?Q?$MA?L?$MA?M?1?C?Q?$LM?U?$LN?G@
CONST	SEGMENT
??_C@_0O@KHPIEGBI@?C?Q?$MA?L?$MA?M?1?C?Q?$LM?U?$LN?G@ DB 0c3H, 0d1H, 0c0H
	DB	0ccH, 0c0H, 0cdH, '/', 0c3H, 0d1H, 0bcH, 0d5H, 0bdH, 0c7H, 00H ; `string'
CONST	ENDS
;	COMDAT ??_C@_06GNECPJOA@?C?Q?$LM?U?$MA?M@
CONST	SEGMENT
??_C@_06GNECPJOA@?C?Q?$LM?U?$MA?M@ DB 0c3H, 0d1H, 0bcH, 0d5H, 0c0H, 0cdH, 00H ; `string'
CONST	ENDS
;	COMDAT ??_C@_0L@FJFCOKJ@?$LE?$KJ?$MA?$PL?$LM?v?$MA?M?$LH?$PM@
CONST	SEGMENT
??_C@_0L@FJFCOKJ@?$LE?$KJ?$MA?$PL?$LM?v?$MA?M?$LH?$PM@ DB 0b4H, 0a9H, 0c0H
	DB	0fbH, 0bcH, 0f6H, 0c0H, 0cdH, 0b7H, 0fcH, 00H ; `string'
CONST	ENDS
;	COMDAT ??_C@_02JINPPBEP@No@
CONST	SEGMENT
??_C@_02JINPPBEP@No@ DB 'No', 00H			; `string'
CONST	ENDS
;	COMDAT ??_C@_0BJ@EJHFGNNM@Do?5Not?5Create?5Html?5File?4@
CONST	SEGMENT
??_C@_0BJ@EJHFGNNM@Do?5Not?5Create?5Html?5File?4@ DB 'Do Not Create Html '
	DB	'File.', 00H					; `string'
CONST	ENDS
;	COMDAT ??_C@_0O@MEHDIMKH@?2?$LM?$LK?$LA?z?$LK?P?$LM?$KO?4htm@
CONST	SEGMENT
??_C@_0O@MEHDIMKH@?2?$LM?$LK?$LA?z?$LK?P?$LM?$KO?4htm@ DB '\', 0bcH, 0baH
	DB	0b0H, 0faH, 0baH, 0d0H, 0bcH, 0aeH, '.htm', 00H ; `string'
CONST	ENDS
;	COMDAT ?messageMap@?1??GetThisMessageMap@CTabResult@@KGPBUAFX_MSGMAP@@XZ@4U3@B
CONST	SEGMENT
?messageMap@?1??GetThisMessageMap@CTabResult@@KGPBUAFX_MSGMAP@@XZ@4U3@B DD FLAT:?GetThisMessageMap@CDialog@@KGPBUAFX_MSGMAP@@XZ ; `CTabResult::GetThisMessageMap'::`2'::messageMap
	DD	FLAT:?_messageEntries@?1??GetThisMessageMap@CTabResult@@KGPBUAFX_MSGMAP@@XZ@4QBUAFX_MSGMAP_ENTRY@@B
CONST	ENDS
;	COMDAT ?_messageEntries@?1??GetThisMessageMap@CTabResult@@KGPBUAFX_MSGMAP@@XZ@4QBUAFX_MSGMAP_ENTRY@@B
CONST	SEGMENT
?_messageEntries@?1??GetThisMessageMap@CTabResult@@KGPBUAFX_MSGMAP@@XZ@4QBUAFX_MSGMAP_ENTRY@@B DD 02H ; `CTabResult::GetThisMessageMap'::`2'::_messageEntries
	DD	00H
	DD	00H
	DD	00H
	DD	013H
	DD	FLAT:?OnDestroy@CTabResult@@IAEXXZ
	DD	019H
	DD	00H
	DD	00H
	DD	00H
	DD	08H
	DD	FLAT:?OnCtlColor@CTabResult@@QAEPAUHBRUSH__@@PAVCDC@@PAVCWnd@@I@Z
	DD	00H
	DD	00H
	DD	00H
	DD	00H
	DD	00H
	DD	00H
CONST	ENDS
;	COMDAT ??_7CTabResult@@6B@
CONST	SEGMENT
??_7CTabResult@@6B@ DD FLAT:??_R4CTabResult@@6B@	; CTabResult::`vftable'
	DD	FLAT:?GetRuntimeClass@CDialog@@UBEPAUCRuntimeClass@@XZ
	DD	FLAT:??_ECTabResult@@UAEPAXI@Z
	DD	FLAT:?Serialize@CObject@@UAEXAAVCArchive@@@Z
	DD	FLAT:?AssertValid@CObject@@UBEXXZ
	DD	FLAT:?Dump@CObject@@UBEXAAVCDumpContext@@@Z
	DD	FLAT:?OnCmdMsg@CDialog@@UAEHIHPAXPAUAFX_CMDHANDLERINFO@@@Z
	DD	FLAT:?OnFinalRelease@CWnd@@UAEXXZ
	DD	FLAT:?IsInvokeAllowed@CCmdTarget@@UAEHJ@Z
	DD	FLAT:?GetDispatchIID@CCmdTarget@@UAEHPAU_GUID@@@Z
	DD	FLAT:?GetTypeInfoCount@CCmdTarget@@UAEIXZ
	DD	FLAT:?GetTypeLibCache@CCmdTarget@@UAEPAVCTypeLibCache@@XZ
	DD	FLAT:?GetTypeLib@CCmdTarget@@UAEJKPAPAUITypeLib@@@Z
	DD	FLAT:?GetMessageMap@CTabResult@@MBEPBUAFX_MSGMAP@@XZ
	DD	FLAT:?GetCommandMap@CCmdTarget@@MBEPBUAFX_OLECMDMAP@@XZ
	DD	FLAT:?GetDispatchMap@CCmdTarget@@MBEPBUAFX_DISPMAP@@XZ
	DD	FLAT:?GetConnectionMap@CCmdTarget@@MBEPBUAFX_CONNECTIONMAP@@XZ
	DD	FLAT:?GetInterfaceMap@CWnd@@MBEPBUAFX_INTERFACEMAP@@XZ
	DD	FLAT:?GetEventSinkMap@CCmdTarget@@MBEPBUAFX_EVENTSINKMAP@@XZ
	DD	FLAT:?OnCreateAggregates@CCmdTarget@@UAEHXZ
	DD	FLAT:?GetInterfaceHook@CCmdTarget@@UAEPAUIUnknown@@PBX@Z
	DD	FLAT:?GetExtraConnectionPoints@CCmdTarget@@MAEHPAVCPtrArray@@@Z
	DD	FLAT:?GetConnectionHook@CCmdTarget@@MAEPAUIConnectionPoint@@ABU_GUID@@@Z
	DD	FLAT:?PreSubclassWindow@CWnd@@UAEXXZ
	DD	FLAT:?Create@CWnd@@UAEHPBD0KABUtagRECT@@PAV1@IPAUCCreateContext@@@Z
	DD	FLAT:?CreateEx@CWnd@@UAEHKPBD0KABUtagRECT@@PAV1@IPAX@Z
	DD	FLAT:?CreateEx@CWnd@@UAEHKPBD0KHHHHPAUHWND__@@PAUHMENU__@@PAX@Z
	DD	FLAT:?DestroyWindow@CWnd@@UAEHXZ
	DD	FLAT:?PreCreateWindow@CWnd@@UAEHAAUtagCREATESTRUCTA@@@Z
	DD	FLAT:?CalcWindowRect@CWnd@@UAEXPAUtagRECT@@I@Z
	DD	FLAT:?GetMenu@CWnd@@UBEPAVCMenu@@XZ
	DD	FLAT:?SetMenu@CWnd@@UAEHPAVCMenu@@@Z
	DD	FLAT:?OnToolHitTest@CWnd@@UBEHVCPoint@@PAUtagTOOLINFOA@@@Z
	DD	FLAT:?GetScrollBarCtrl@CWnd@@UBEPAVCScrollBar@@H@Z
	DD	FLAT:?WinHelpA@CWnd@@UAEXKI@Z
	DD	FLAT:?HtmlHelpA@CWnd@@UAEXKI@Z
	DD	FLAT:?WinHelpInternal@CWnd@@UAEXKI@Z
	DD	FLAT:?ContinueModal@CWnd@@UAEHXZ
	DD	FLAT:?EndModalLoop@CWnd@@UAEXH@Z
	DD	FLAT:?OnDrawIconicThumbnailOrLivePreview@CWnd@@UAEXAAVCDC@@VCRect@@VCSize@@HAAH@Z
	DD	FLAT:?EnsureStdObj@CWnd@@UAEJXZ
	DD	FLAT:?get_accParent@CWnd@@UAEJPAPAUIDispatch@@@Z
	DD	FLAT:?get_accChildCount@CWnd@@UAEJPAJ@Z
	DD	FLAT:?get_accChild@CWnd@@UAEJUtagVARIANT@@PAPAUIDispatch@@@Z
	DD	FLAT:?get_accName@CWnd@@UAEJUtagVARIANT@@PAPA_W@Z
	DD	FLAT:?get_accValue@CWnd@@UAEJUtagVARIANT@@PAPA_W@Z
	DD	FLAT:?get_accDescription@CWnd@@UAEJUtagVARIANT@@PAPA_W@Z
	DD	FLAT:?get_accRole@CWnd@@UAEJUtagVARIANT@@PAU2@@Z
	DD	FLAT:?get_accState@CWnd@@UAEJUtagVARIANT@@PAU2@@Z
	DD	FLAT:?get_accHelp@CWnd@@UAEJUtagVARIANT@@PAPA_W@Z
	DD	FLAT:?get_accHelpTopic@CWnd@@UAEJPAPA_WUtagVARIANT@@PAJ@Z
	DD	FLAT:?get_accKeyboardShortcut@CWnd@@UAEJUtagVARIANT@@PAPA_W@Z
	DD	FLAT:?get_accFocus@CWnd@@UAEJPAUtagVARIANT@@@Z
	DD	FLAT:?get_accSelection@CWnd@@UAEJPAUtagVARIANT@@@Z
	DD	FLAT:?get_accDefaultAction@CWnd@@UAEJUtagVARIANT@@PAPA_W@Z
	DD	FLAT:?accSelect@CWnd@@UAEJJUtagVARIANT@@@Z
	DD	FLAT:?accLocation@CWnd@@UAEJPAJ000UtagVARIANT@@@Z
	DD	FLAT:?accNavigate@CWnd@@UAEJJUtagVARIANT@@PAU2@@Z
	DD	FLAT:?accHitTest@CWnd@@UAEJJJPAUtagVARIANT@@@Z
	DD	FLAT:?accDoDefaultAction@CWnd@@UAEJUtagVARIANT@@@Z
	DD	FLAT:?put_accName@CWnd@@UAEJUtagVARIANT@@PA_W@Z
	DD	FLAT:?put_accValue@CWnd@@UAEJUtagVARIANT@@PA_W@Z
	DD	FLAT:?SetProxy@CWnd@@UAEJPAUIAccessibleProxy@@@Z
	DD	FLAT:?CreateAccessibleProxy@CWnd@@UAEJIJPAJ@Z
	DD	FLAT:?OnCommand@CWnd@@MAEHIJ@Z
	DD	FLAT:?OnNotify@CWnd@@MAEHIJPAJ@Z
	DD	FLAT:?GetSuperWndProcAddr@CWnd@@MAEPAP6GJPAUHWND__@@IIJ@ZXZ
	DD	FLAT:?DoDataExchange@CTabResult@@MAEXPAVCDataExchange@@@Z
	DD	FLAT:?BeginModalState@CWnd@@UAEXXZ
	DD	FLAT:?EndModalState@CWnd@@UAEXXZ
	DD	FLAT:?PreTranslateMessage@CEscDialog@@MAEHPAUtagMSG@@@Z
	DD	FLAT:?OnAmbientProperty@CWnd@@UAEHPAVCOleControlSite@@JPAUtagVARIANT@@@Z
	DD	FLAT:?WindowProc@CWnd@@MAEJIIJ@Z
	DD	FLAT:?OnWndMsg@CWnd@@MAEHIIJPAJ@Z
	DD	FLAT:?DefWindowProcA@CWnd@@MAEJIIJ@Z
	DD	FLAT:?PostNcDestroy@CWnd@@MAEXXZ
	DD	FLAT:?OnChildNotify@CWnd@@MAEHIIJPAJ@Z
	DD	FLAT:?OnTouchInputs@CWnd@@MAEHIPAUtagTOUCHINPUT@@@Z
	DD	FLAT:?OnTouchInput@CWnd@@MAEHVCPoint@@HHPAUtagTOUCHINPUT@@@Z
	DD	FLAT:?GetGestureStatus@CWnd@@MAEKVCPoint@@@Z
	DD	FLAT:?OnGestureZoom@CWnd@@MAEHVCPoint@@J@Z
	DD	FLAT:?OnGesturePan@CWnd@@MAEHVCPoint@@0@Z
	DD	FLAT:?OnGestureRotate@CWnd@@MAEHVCPoint@@N@Z
	DD	FLAT:?OnGestureTwoFingerTap@CWnd@@MAEHVCPoint@@@Z
	DD	FLAT:?OnGesturePressAndTap@CWnd@@MAEHVCPoint@@J@Z
	DD	FLAT:?ResizeDynamicLayout@CWnd@@MAEXXZ
	DD	FLAT:?CheckAutoCenter@CDialog@@UAEHXZ
	DD	FLAT:?IsFrameWnd@CWnd@@UBEHXZ
	DD	FLAT:?CreateControlContainer@CWnd@@MAEHPAPAVCOleControlContainer@@@Z
	DD	FLAT:?CreateControlSite@CWnd@@MAEHPAVCOleControlContainer@@PAPAVCOleControlSite@@IABU_GUID@@@Z
	DD	FLAT:?SetOccDialogInfo@CDialog@@MAEHPAU_AFX_OCC_DIALOG_INFO@@@Z
	DD	FLAT:?GetOccDialogInfo@CDialog@@MAEPAU_AFX_OCC_DIALOG_INFO@@XZ
	DD	FLAT:?Create@CDialog@@UAEHIPAVCWnd@@@Z
	DD	FLAT:?Create@CDialog@@UAEHPBDPAVCWnd@@@Z
	DD	FLAT:?CreateIndirect@CDialog@@UAEHPAXPAVCWnd@@@Z
	DD	FLAT:?CreateIndirect@CDialog@@UAEHPBUDLGTEMPLATE@@PAVCWnd@@PAX@Z
	DD	FLAT:?DoModal@CDialog@@UAEHXZ
	DD	FLAT:?OnInitDialog@CTabResult@@MAEHXZ
	DD	FLAT:?OnSetFont@CDialog@@UAEXPAVCFont@@@Z
	DD	FLAT:?OnOK@CDialog@@MAEXXZ
	DD	FLAT:?OnCancel@CDialog@@MAEXXZ
	DD	FLAT:?PreInitDialog@CDialog@@MAEXXZ
	DD	FLAT:?UpdateDlg@CDlgInterface@@UAEXXZ
	DD	FLAT:?SetChartFocus@CDlgInterface@@UAEXH@Z
	DD	FLAT:?GuganBtnUpdate@CDlgInterface@@UAEXXZ
CONST	ENDS
;	COMDAT ??_R1A@?0A@EA@CEscDialog@@8
rdata$r	SEGMENT
??_R1A@?0A@EA@CEscDialog@@8 DD FLAT:??_R0?AVCEscDialog@@@8 ; CEscDialog::`RTTI Base Class Descriptor at (0,-1,0,64)'
	DD	04H
	DD	00H
	DD	0ffffffffH
	DD	00H
	DD	040H
	DD	FLAT:??_R3CEscDialog@@8
rdata$r	ENDS
;	COMDAT ??_R2CEscDialog@@8
rdata$r	SEGMENT
??_R2CEscDialog@@8 DD FLAT:??_R1A@?0A@EA@CEscDialog@@8	; CEscDialog::`RTTI Base Class Array'
	DD	FLAT:??_R1A@?0A@EA@CDialog@@8
	DD	FLAT:??_R1A@?0A@EA@CWnd@@8
	DD	FLAT:??_R1A@?0A@EA@CCmdTarget@@8
	DD	FLAT:??_R1A@?0A@EA@CObject@@8
rdata$r	ENDS
;	COMDAT ??_R3CEscDialog@@8
rdata$r	SEGMENT
??_R3CEscDialog@@8 DD 00H				; CEscDialog::`RTTI Class Hierarchy Descriptor'
	DD	00H
	DD	05H
	DD	FLAT:??_R2CEscDialog@@8
rdata$r	ENDS
;	COMDAT ??_R0?AVCEscDialog@@@8
data$rs	SEGMENT
??_R0?AVCEscDialog@@@8 DD FLAT:??_7type_info@@6B@	; CEscDialog `RTTI Type Descriptor'
	DD	00H
	DB	'.?AVCEscDialog@@', 00H
data$rs	ENDS
;	COMDAT ??_R2CDialog@@8
rdata$r	SEGMENT
??_R2CDialog@@8 DD FLAT:??_R1A@?0A@EA@CDialog@@8	; CDialog::`RTTI Base Class Array'
	DD	FLAT:??_R1A@?0A@EA@CWnd@@8
	DD	FLAT:??_R1A@?0A@EA@CCmdTarget@@8
	DD	FLAT:??_R1A@?0A@EA@CObject@@8
rdata$r	ENDS
;	COMDAT ??_R3CDialog@@8
rdata$r	SEGMENT
??_R3CDialog@@8 DD 00H					; CDialog::`RTTI Class Hierarchy Descriptor'
	DD	00H
	DD	04H
	DD	FLAT:??_R2CDialog@@8
rdata$r	ENDS
;	COMDAT ??_R0?AVCDialog@@@8
data$rs	SEGMENT
??_R0?AVCDialog@@@8 DD FLAT:??_7type_info@@6B@		; CDialog `RTTI Type Descriptor'
	DD	00H
	DB	'.?AVCDialog@@', 00H
data$rs	ENDS
;	COMDAT ??_R1A@?0A@EA@CDialog@@8
rdata$r	SEGMENT
??_R1A@?0A@EA@CDialog@@8 DD FLAT:??_R0?AVCDialog@@@8	; CDialog::`RTTI Base Class Descriptor at (0,-1,0,64)'
	DD	03H
	DD	00H
	DD	0ffffffffH
	DD	00H
	DD	040H
	DD	FLAT:??_R3CDialog@@8
rdata$r	ENDS
;	COMDAT ??_R2CCmdTarget@@8
rdata$r	SEGMENT
??_R2CCmdTarget@@8 DD FLAT:??_R1A@?0A@EA@CCmdTarget@@8	; CCmdTarget::`RTTI Base Class Array'
	DD	FLAT:??_R1A@?0A@EA@CObject@@8
rdata$r	ENDS
;	COMDAT ??_R3CCmdTarget@@8
rdata$r	SEGMENT
??_R3CCmdTarget@@8 DD 00H				; CCmdTarget::`RTTI Class Hierarchy Descriptor'
	DD	00H
	DD	02H
	DD	FLAT:??_R2CCmdTarget@@8
rdata$r	ENDS
;	COMDAT ??_R0?AVCCmdTarget@@@8
data$rs	SEGMENT
??_R0?AVCCmdTarget@@@8 DD FLAT:??_7type_info@@6B@	; CCmdTarget `RTTI Type Descriptor'
	DD	00H
	DB	'.?AVCCmdTarget@@', 00H
data$rs	ENDS
;	COMDAT ??_R1A@?0A@EA@CCmdTarget@@8
rdata$r	SEGMENT
??_R1A@?0A@EA@CCmdTarget@@8 DD FLAT:??_R0?AVCCmdTarget@@@8 ; CCmdTarget::`RTTI Base Class Descriptor at (0,-1,0,64)'
	DD	01H
	DD	00H
	DD	0ffffffffH
	DD	00H
	DD	040H
	DD	FLAT:??_R3CCmdTarget@@8
rdata$r	ENDS
;	COMDAT ??_R2CWnd@@8
rdata$r	SEGMENT
??_R2CWnd@@8 DD	FLAT:??_R1A@?0A@EA@CWnd@@8		; CWnd::`RTTI Base Class Array'
	DD	FLAT:??_R1A@?0A@EA@CCmdTarget@@8
	DD	FLAT:??_R1A@?0A@EA@CObject@@8
rdata$r	ENDS
;	COMDAT ??_R3CWnd@@8
rdata$r	SEGMENT
??_R3CWnd@@8 DD	00H					; CWnd::`RTTI Class Hierarchy Descriptor'
	DD	00H
	DD	03H
	DD	FLAT:??_R2CWnd@@8
rdata$r	ENDS
;	COMDAT ??_R0?AVCWnd@@@8
data$rs	SEGMENT
??_R0?AVCWnd@@@8 DD FLAT:??_7type_info@@6B@		; CWnd `RTTI Type Descriptor'
	DD	00H
	DB	'.?AVCWnd@@', 00H
data$rs	ENDS
;	COMDAT ??_R1A@?0A@EA@CWnd@@8
rdata$r	SEGMENT
??_R1A@?0A@EA@CWnd@@8 DD FLAT:??_R0?AVCWnd@@@8		; CWnd::`RTTI Base Class Descriptor at (0,-1,0,64)'
	DD	02H
	DD	00H
	DD	0ffffffffH
	DD	00H
	DD	040H
	DD	FLAT:??_R3CWnd@@8
rdata$r	ENDS
;	COMDAT ??_R1A@?0A@EA@CStatic@@8
rdata$r	SEGMENT
??_R1A@?0A@EA@CStatic@@8 DD FLAT:??_R0?AVCStatic@@@8	; CStatic::`RTTI Base Class Descriptor at (0,-1,0,64)'
	DD	03H
	DD	00H
	DD	0ffffffffH
	DD	00H
	DD	040H
	DD	FLAT:??_R3CStatic@@8
rdata$r	ENDS
;	COMDAT ??_R2CStatic@@8
rdata$r	SEGMENT
??_R2CStatic@@8 DD FLAT:??_R1A@?0A@EA@CStatic@@8	; CStatic::`RTTI Base Class Array'
	DD	FLAT:??_R1A@?0A@EA@CWnd@@8
	DD	FLAT:??_R1A@?0A@EA@CCmdTarget@@8
	DD	FLAT:??_R1A@?0A@EA@CObject@@8
rdata$r	ENDS
;	COMDAT ??_R3CStatic@@8
rdata$r	SEGMENT
??_R3CStatic@@8 DD 00H					; CStatic::`RTTI Class Hierarchy Descriptor'
	DD	00H
	DD	04H
	DD	FLAT:??_R2CStatic@@8
rdata$r	ENDS
;	COMDAT ??_R0?AVCStatic@@@8
data$rs	SEGMENT
??_R0?AVCStatic@@@8 DD FLAT:??_7type_info@@6B@		; CStatic `RTTI Type Descriptor'
	DD	00H
	DB	'.?AVCStatic@@', 00H
data$rs	ENDS
;	COMDAT ??_R4CStatic@@6B@
rdata$r	SEGMENT
??_R4CStatic@@6B@ DD 00H				; CStatic::`RTTI Complete Object Locator'
	DD	00H
	DD	00H
	DD	FLAT:??_R0?AVCStatic@@@8
	DD	FLAT:??_R3CStatic@@8
rdata$r	ENDS
;	COMDAT ??_R1A@?0A@EA@CBrush@@8
rdata$r	SEGMENT
??_R1A@?0A@EA@CBrush@@8 DD FLAT:??_R0?AVCBrush@@@8	; CBrush::`RTTI Base Class Descriptor at (0,-1,0,64)'
	DD	02H
	DD	00H
	DD	0ffffffffH
	DD	00H
	DD	040H
	DD	FLAT:??_R3CBrush@@8
rdata$r	ENDS
;	COMDAT ??_R2CBrush@@8
rdata$r	SEGMENT
??_R2CBrush@@8 DD FLAT:??_R1A@?0A@EA@CBrush@@8		; CBrush::`RTTI Base Class Array'
	DD	FLAT:??_R1A@?0A@EA@CGdiObject@@8
	DD	FLAT:??_R1A@?0A@EA@CObject@@8
rdata$r	ENDS
;	COMDAT ??_R3CBrush@@8
rdata$r	SEGMENT
??_R3CBrush@@8 DD 00H					; CBrush::`RTTI Class Hierarchy Descriptor'
	DD	00H
	DD	03H
	DD	FLAT:??_R2CBrush@@8
rdata$r	ENDS
;	COMDAT ??_R0?AVCBrush@@@8
data$rs	SEGMENT
??_R0?AVCBrush@@@8 DD FLAT:??_7type_info@@6B@		; CBrush `RTTI Type Descriptor'
	DD	00H
	DB	'.?AVCBrush@@', 00H
data$rs	ENDS
;	COMDAT ??_R4CBrush@@6B@
rdata$r	SEGMENT
??_R4CBrush@@6B@ DD 00H					; CBrush::`RTTI Complete Object Locator'
	DD	00H
	DD	00H
	DD	FLAT:??_R0?AVCBrush@@@8
	DD	FLAT:??_R3CBrush@@8
rdata$r	ENDS
;	COMDAT ??_R1A@?0A@EA@CGdiObject@@8
rdata$r	SEGMENT
??_R1A@?0A@EA@CGdiObject@@8 DD FLAT:??_R0?AVCGdiObject@@@8 ; CGdiObject::`RTTI Base Class Descriptor at (0,-1,0,64)'
	DD	01H
	DD	00H
	DD	0ffffffffH
	DD	00H
	DD	040H
	DD	FLAT:??_R3CGdiObject@@8
rdata$r	ENDS
;	COMDAT ??_R2CGdiObject@@8
rdata$r	SEGMENT
??_R2CGdiObject@@8 DD FLAT:??_R1A@?0A@EA@CGdiObject@@8	; CGdiObject::`RTTI Base Class Array'
	DD	FLAT:??_R1A@?0A@EA@CObject@@8
rdata$r	ENDS
;	COMDAT ??_R3CGdiObject@@8
rdata$r	SEGMENT
??_R3CGdiObject@@8 DD 00H				; CGdiObject::`RTTI Class Hierarchy Descriptor'
	DD	00H
	DD	02H
	DD	FLAT:??_R2CGdiObject@@8
rdata$r	ENDS
;	COMDAT ??_R0?AVCGdiObject@@@8
data$rs	SEGMENT
??_R0?AVCGdiObject@@@8 DD FLAT:??_7type_info@@6B@	; CGdiObject `RTTI Type Descriptor'
	DD	00H
	DB	'.?AVCGdiObject@@', 00H
data$rs	ENDS
;	COMDAT ??_R4CGdiObject@@6B@
rdata$r	SEGMENT
??_R4CGdiObject@@6B@ DD 00H				; CGdiObject::`RTTI Complete Object Locator'
	DD	00H
	DD	00H
	DD	FLAT:??_R0?AVCGdiObject@@@8
	DD	FLAT:??_R3CGdiObject@@8
rdata$r	ENDS
;	COMDAT ??_R1A@?0A@EA@CObject@@8
rdata$r	SEGMENT
??_R1A@?0A@EA@CObject@@8 DD FLAT:??_R0?AVCObject@@@8	; CObject::`RTTI Base Class Descriptor at (0,-1,0,64)'
	DD	00H
	DD	00H
	DD	0ffffffffH
	DD	00H
	DD	040H
	DD	FLAT:??_R3CObject@@8
rdata$r	ENDS
;	COMDAT ??_R2CObject@@8
rdata$r	SEGMENT
??_R2CObject@@8 DD FLAT:??_R1A@?0A@EA@CObject@@8	; CObject::`RTTI Base Class Array'
rdata$r	ENDS
;	COMDAT ??_R3CObject@@8
rdata$r	SEGMENT
??_R3CObject@@8 DD 00H					; CObject::`RTTI Class Hierarchy Descriptor'
	DD	00H
	DD	01H
	DD	FLAT:??_R2CObject@@8
rdata$r	ENDS
;	COMDAT ??_R0?AVCObject@@@8
data$rs	SEGMENT
??_R0?AVCObject@@@8 DD FLAT:??_7type_info@@6B@		; CObject `RTTI Type Descriptor'
	DD	00H
	DB	'.?AVCObject@@', 00H
data$rs	ENDS
;	COMDAT ??_C@_0N@OMEMOKLE@?$CFTs?5?$CI?$CFTs?3?$CFd?$CJ@
CONST	SEGMENT
??_C@_0N@OMEMOKLE@?$CFTs?5?$CI?$CFTs?3?$CFd?$CJ@ DB '%Ts (%Ts:%d)', 00H ; `string'
CONST	ENDS
;	COMDAT ??_C@_0BB@HBOOMJBF@?$CFTs?5?$CI?$CFTs?3?$CFd?$CJ?6?$CFTs@
CONST	SEGMENT
??_C@_0BB@HBOOMJBF@?$CFTs?5?$CI?$CFTs?3?$CFd?$CJ?6?$CFTs@ DB '%Ts (%Ts:%d'
	DB	')', 0aH, '%Ts', 00H				; `string'
CONST	ENDS
;	COMDAT ??_C@_0BP@OIEOKIDM@Exception?5thrown?5in?5destructor@
CONST	SEGMENT
??_C@_0BP@OIEOKIDM@Exception?5thrown?5in?5destructor@ DB 'Exception throw'
	DB	'n in destructor', 00H			; `string'
CONST	ENDS
;	COMDAT ??_C@_0HD@JJCHHHNK@C?3?2Program?5Files?5?$CIx86?$CJ?2Microsof@
CONST	SEGMENT
??_C@_0HD@JJCHHHNK@C?3?2Program?5Files?5?$CIx86?$CJ?2Microsof@ DB 'C:\Pro'
	DB	'gram Files (x86)\Microsoft Visual Studio\2019\Community\VC\To'
	DB	'ols\MSVC\14.29.30133\atlmfc\include\afxwin1.inl', 00H ; `string'
CONST	ENDS
;	COMDAT ??_7CStatic@@6B@
CONST	SEGMENT
??_7CStatic@@6B@ DD FLAT:??_R4CStatic@@6B@		; CStatic::`vftable'
	DD	FLAT:?GetRuntimeClass@CStatic@@UBEPAUCRuntimeClass@@XZ
	DD	FLAT:??_ECStatic@@UAEPAXI@Z
	DD	FLAT:?Serialize@CObject@@UAEXAAVCArchive@@@Z
	DD	FLAT:?AssertValid@CObject@@UBEXXZ
	DD	FLAT:?Dump@CObject@@UBEXAAVCDumpContext@@@Z
	DD	FLAT:?OnCmdMsg@CCmdTarget@@UAEHIHPAXPAUAFX_CMDHANDLERINFO@@@Z
	DD	FLAT:?OnFinalRelease@CWnd@@UAEXXZ
	DD	FLAT:?IsInvokeAllowed@CCmdTarget@@UAEHJ@Z
	DD	FLAT:?GetDispatchIID@CCmdTarget@@UAEHPAU_GUID@@@Z
	DD	FLAT:?GetTypeInfoCount@CCmdTarget@@UAEIXZ
	DD	FLAT:?GetTypeLibCache@CCmdTarget@@UAEPAVCTypeLibCache@@XZ
	DD	FLAT:?GetTypeLib@CCmdTarget@@UAEJKPAPAUITypeLib@@@Z
	DD	FLAT:?GetMessageMap@CWnd@@MBEPBUAFX_MSGMAP@@XZ
	DD	FLAT:?GetCommandMap@CCmdTarget@@MBEPBUAFX_OLECMDMAP@@XZ
	DD	FLAT:?GetDispatchMap@CCmdTarget@@MBEPBUAFX_DISPMAP@@XZ
	DD	FLAT:?GetConnectionMap@CCmdTarget@@MBEPBUAFX_CONNECTIONMAP@@XZ
	DD	FLAT:?GetInterfaceMap@CWnd@@MBEPBUAFX_INTERFACEMAP@@XZ
	DD	FLAT:?GetEventSinkMap@CCmdTarget@@MBEPBUAFX_EVENTSINKMAP@@XZ
	DD	FLAT:?OnCreateAggregates@CCmdTarget@@UAEHXZ
	DD	FLAT:?GetInterfaceHook@CCmdTarget@@UAEPAUIUnknown@@PBX@Z
	DD	FLAT:?GetExtraConnectionPoints@CCmdTarget@@MAEHPAVCPtrArray@@@Z
	DD	FLAT:?GetConnectionHook@CCmdTarget@@MAEPAUIConnectionPoint@@ABU_GUID@@@Z
	DD	FLAT:?PreSubclassWindow@CWnd@@UAEXXZ
	DD	FLAT:?Create@CWnd@@UAEHPBD0KABUtagRECT@@PAV1@IPAUCCreateContext@@@Z
	DD	FLAT:?CreateEx@CWnd@@UAEHKPBD0KABUtagRECT@@PAV1@IPAX@Z
	DD	FLAT:?CreateEx@CWnd@@UAEHKPBD0KHHHHPAUHWND__@@PAUHMENU__@@PAX@Z
	DD	FLAT:?DestroyWindow@CWnd@@UAEHXZ
	DD	FLAT:?PreCreateWindow@CWnd@@UAEHAAUtagCREATESTRUCTA@@@Z
	DD	FLAT:?CalcWindowRect@CWnd@@UAEXPAUtagRECT@@I@Z
	DD	FLAT:?GetMenu@CWnd@@UBEPAVCMenu@@XZ
	DD	FLAT:?SetMenu@CWnd@@UAEHPAVCMenu@@@Z
	DD	FLAT:?OnToolHitTest@CWnd@@UBEHVCPoint@@PAUtagTOOLINFOA@@@Z
	DD	FLAT:?GetScrollBarCtrl@CWnd@@UBEPAVCScrollBar@@H@Z
	DD	FLAT:?WinHelpA@CWnd@@UAEXKI@Z
	DD	FLAT:?HtmlHelpA@CWnd@@UAEXKI@Z
	DD	FLAT:?WinHelpInternal@CWnd@@UAEXKI@Z
	DD	FLAT:?ContinueModal@CWnd@@UAEHXZ
	DD	FLAT:?EndModalLoop@CWnd@@UAEXH@Z
	DD	FLAT:?OnDrawIconicThumbnailOrLivePreview@CWnd@@UAEXAAVCDC@@VCRect@@VCSize@@HAAH@Z
	DD	FLAT:?EnsureStdObj@CWnd@@UAEJXZ
	DD	FLAT:?get_accParent@CWnd@@UAEJPAPAUIDispatch@@@Z
	DD	FLAT:?get_accChildCount@CWnd@@UAEJPAJ@Z
	DD	FLAT:?get_accChild@CWnd@@UAEJUtagVARIANT@@PAPAUIDispatch@@@Z
	DD	FLAT:?get_accName@CWnd@@UAEJUtagVARIANT@@PAPA_W@Z
	DD	FLAT:?get_accValue@CWnd@@UAEJUtagVARIANT@@PAPA_W@Z
	DD	FLAT:?get_accDescription@CWnd@@UAEJUtagVARIANT@@PAPA_W@Z
	DD	FLAT:?get_accRole@CWnd@@UAEJUtagVARIANT@@PAU2@@Z
	DD	FLAT:?get_accState@CWnd@@UAEJUtagVARIANT@@PAU2@@Z
	DD	FLAT:?get_accHelp@CWnd@@UAEJUtagVARIANT@@PAPA_W@Z
	DD	FLAT:?get_accHelpTopic@CWnd@@UAEJPAPA_WUtagVARIANT@@PAJ@Z
	DD	FLAT:?get_accKeyboardShortcut@CWnd@@UAEJUtagVARIANT@@PAPA_W@Z
	DD	FLAT:?get_accFocus@CWnd@@UAEJPAUtagVARIANT@@@Z
	DD	FLAT:?get_accSelection@CWnd@@UAEJPAUtagVARIANT@@@Z
	DD	FLAT:?get_accDefaultAction@CWnd@@UAEJUtagVARIANT@@PAPA_W@Z
	DD	FLAT:?accSelect@CWnd@@UAEJJUtagVARIANT@@@Z
	DD	FLAT:?accLocation@CWnd@@UAEJPAJ000UtagVARIANT@@@Z
	DD	FLAT:?accNavigate@CWnd@@UAEJJUtagVARIANT@@PAU2@@Z
	DD	FLAT:?accHitTest@CWnd@@UAEJJJPAUtagVARIANT@@@Z
	DD	FLAT:?accDoDefaultAction@CWnd@@UAEJUtagVARIANT@@@Z
	DD	FLAT:?put_accName@CWnd@@UAEJUtagVARIANT@@PA_W@Z
	DD	FLAT:?put_accValue@CWnd@@UAEJUtagVARIANT@@PA_W@Z
	DD	FLAT:?SetProxy@CWnd@@UAEJPAUIAccessibleProxy@@@Z
	DD	FLAT:?CreateAccessibleProxy@CWnd@@UAEJIJPAJ@Z
	DD	FLAT:?OnCommand@CWnd@@MAEHIJ@Z
	DD	FLAT:?OnNotify@CWnd@@MAEHIJPAJ@Z
	DD	FLAT:?GetSuperWndProcAddr@CWnd@@MAEPAP6GJPAUHWND__@@IIJ@ZXZ
	DD	FLAT:?DoDataExchange@CWnd@@MAEXPAVCDataExchange@@@Z
	DD	FLAT:?BeginModalState@CWnd@@UAEXXZ
	DD	FLAT:?EndModalState@CWnd@@UAEXXZ
	DD	FLAT:?PreTranslateMessage@CWnd@@UAEHPAUtagMSG@@@Z
	DD	FLAT:?OnAmbientProperty@CWnd@@UAEHPAVCOleControlSite@@JPAUtagVARIANT@@@Z
	DD	FLAT:?WindowProc@CWnd@@MAEJIIJ@Z
	DD	FLAT:?OnWndMsg@CWnd@@MAEHIIJPAJ@Z
	DD	FLAT:?DefWindowProcA@CWnd@@MAEJIIJ@Z
	DD	FLAT:?PostNcDestroy@CWnd@@MAEXXZ
	DD	FLAT:?OnChildNotify@CStatic@@MAEHIIJPAJ@Z
	DD	FLAT:?OnTouchInputs@CWnd@@MAEHIPAUtagTOUCHINPUT@@@Z
	DD	FLAT:?OnTouchInput@CWnd@@MAEHVCPoint@@HHPAUtagTOUCHINPUT@@@Z
	DD	FLAT:?GetGestureStatus@CWnd@@MAEKVCPoint@@@Z
	DD	FLAT:?OnGestureZoom@CWnd@@MAEHVCPoint@@J@Z
	DD	FLAT:?OnGesturePan@CWnd@@MAEHVCPoint@@0@Z
	DD	FLAT:?OnGestureRotate@CWnd@@MAEHVCPoint@@N@Z
	DD	FLAT:?OnGestureTwoFingerTap@CWnd@@MAEHVCPoint@@@Z
	DD	FLAT:?OnGesturePressAndTap@CWnd@@MAEHVCPoint@@J@Z
	DD	FLAT:?ResizeDynamicLayout@CWnd@@MAEXXZ
	DD	FLAT:?CheckAutoCenter@CWnd@@UAEHXZ
	DD	FLAT:?IsFrameWnd@CWnd@@UBEHXZ
	DD	FLAT:?CreateControlContainer@CWnd@@MAEHPAPAVCOleControlContainer@@@Z
	DD	FLAT:?CreateControlSite@CWnd@@MAEHPAVCOleControlContainer@@PAPAVCOleControlSite@@IABU_GUID@@@Z
	DD	FLAT:?SetOccDialogInfo@CWnd@@MAEHPAU_AFX_OCC_DIALOG_INFO@@@Z
	DD	FLAT:?GetOccDialogInfo@CWnd@@MAEPAU_AFX_OCC_DIALOG_INFO@@XZ
	DD	FLAT:?Create@CStatic@@UAEHPBDKABUtagRECT@@PAVCWnd@@I@Z
	DD	FLAT:?DrawItem@CStatic@@UAEXPAUtagDRAWITEMSTRUCT@@@Z
CONST	ENDS
;	COMDAT ??_7CBrush@@6B@
CONST	SEGMENT
??_7CBrush@@6B@ DD FLAT:??_R4CBrush@@6B@		; CBrush::`vftable'
	DD	FLAT:?GetRuntimeClass@CBrush@@UBEPAUCRuntimeClass@@XZ
	DD	FLAT:??_ECBrush@@UAEPAXI@Z
	DD	FLAT:?Serialize@CObject@@UAEXAAVCArchive@@@Z
	DD	FLAT:?AssertValid@CObject@@UBEXXZ
	DD	FLAT:?Dump@CObject@@UBEXAAVCDumpContext@@@Z
CONST	ENDS
;	COMDAT ??_7CGdiObject@@6B@
CONST	SEGMENT
??_7CGdiObject@@6B@ DD FLAT:??_R4CGdiObject@@6B@	; CGdiObject::`vftable'
	DD	FLAT:?GetRuntimeClass@CGdiObject@@UBEPAUCRuntimeClass@@XZ
	DD	FLAT:??_ECGdiObject@@UAEPAXI@Z
	DD	FLAT:?Serialize@CObject@@UAEXAAVCArchive@@@Z
	DD	FLAT:?AssertValid@CObject@@UBEXXZ
	DD	FLAT:?Dump@CObject@@UBEXAAVCDumpContext@@@Z
CONST	ENDS
;	COMDAT ??_C@_00CNPNBAHC@@
CONST	SEGMENT
??_C@_00CNPNBAHC@@ DB 00H				; `string'
CONST	ENDS
;	COMDAT ??_C@_02DPKJAMEF@?$CFd@
CONST	SEGMENT
??_C@_02DPKJAMEF@?$CFd@ DB '%d', 00H			; `string'
CONST	ENDS
;	COMDAT ??_R0PAVCException@@@8
data$r	SEGMENT
??_R0PAVCException@@@8 DD FLAT:??_7type_info@@6B@	; CException * `RTTI Type Descriptor'
	DD	00H
	DB	'.PAVCException@@', 00H
data$r	ENDS
;	COMDAT xdata$x
xdata$x	SEGMENT
__unwindtable$??_GCTabResult@@UAEPAXI@Z DD 0ffffffffH
	DD	FLAT:___std_terminate
__ehfuncinfo$??_GCTabResult@@UAEPAXI@Z DD 019930522H
	DD	01H
	DD	FLAT:__unwindtable$??_GCTabResult@@UAEPAXI@Z
	DD	2 DUP(00H)
	DD	2 DUP(00H)
	DD	00H
	DD	05H
xdata$x	ENDS
;	COMDAT xdata$x
xdata$x	SEGMENT
__ehfuncinfo$??1CTabResult@@UAE@XZ DD 019930522H
	DD	00H
	DD	00H
	DD	2 DUP(00H)
	DD	2 DUP(00H)
	DD	00H
	DD	05H
xdata$x	ENDS
;	COMDAT xdata$x
xdata$x	SEGMENT
__ehfuncinfo$?SetDataSpreadGrid@CTabResult@@QAEXXZ DD 019930522H
	DD	0dH
	DD	FLAT:__unwindtable$?SetDataSpreadGrid@CTabResult@@QAEXXZ
	DD	2 DUP(00H)
	DD	2 DUP(00H)
	DD	00H
	DD	01H
__unwindtable$?SetDataSpreadGrid@CTabResult@@QAEXXZ DD 0ffffffffH
	DD	FLAT:__unwindfunclet$?SetDataSpreadGrid@CTabResult@@QAEXXZ$0
	DD	00H
	DD	FLAT:__unwindfunclet$?SetDataSpreadGrid@CTabResult@@QAEXXZ$1
	DD	01H
	DD	FLAT:__unwindfunclet$?SetDataSpreadGrid@CTabResult@@QAEXXZ$2
	DD	02H
	DD	FLAT:__unwindfunclet$?SetDataSpreadGrid@CTabResult@@QAEXXZ$14
	DD	02H
	DD	FLAT:__unwindfunclet$?SetDataSpreadGrid@CTabResult@@QAEXXZ$15
	DD	02H
	DD	FLAT:__unwindfunclet$?SetDataSpreadGrid@CTabResult@@QAEXXZ$5
	DD	02H
	DD	FLAT:__unwindfunclet$?SetDataSpreadGrid@CTabResult@@QAEXXZ$16
	DD	02H
	DD	FLAT:__unwindfunclet$?SetDataSpreadGrid@CTabResult@@QAEXXZ$17
	DD	02H
	DD	FLAT:__unwindfunclet$?SetDataSpreadGrid@CTabResult@@QAEXXZ$18
	DD	02H
	DD	FLAT:__unwindfunclet$?SetDataSpreadGrid@CTabResult@@QAEXXZ$19
	DD	02H
	DD	FLAT:__unwindfunclet$?SetDataSpreadGrid@CTabResult@@QAEXXZ$20
	DD	02H
	DD	FLAT:__unwindfunclet$?SetDataSpreadGrid@CTabResult@@QAEXXZ$21
	DD	02H
	DD	FLAT:__unwindfunclet$?SetDataSpreadGrid@CTabResult@@QAEXXZ$22
xdata$x	ENDS
;	COMDAT xdata$x
xdata$x	SEGMENT
__unwindtable$?InitGrid@CTabResult@@QAEXXZ DD 0ffffffffH
	DD	FLAT:__unwindfunclet$?InitGrid@CTabResult@@QAEXXZ$0
	DD	00H
	DD	FLAT:__unwindfunclet$?InitGrid@CTabResult@@QAEXXZ$1
__ehfuncinfo$?InitGrid@CTabResult@@QAEXXZ DD 019930522H
	DD	02H
	DD	FLAT:__unwindtable$?InitGrid@CTabResult@@QAEXXZ
	DD	2 DUP(00H)
	DD	2 DUP(00H)
	DD	00H
	DD	01H
xdata$x	ENDS
;	COMDAT xdata$x
xdata$x	SEGMENT
__unwindtable$?ParsingstrHtml2@CTabResult@@QAEHAAV?$CStringT@DV?$StrTraitMFC_DLL@DV?$ChTraitsCRT@D@ATL@@@@@ATL@@@Z DD 0ffffffffH
	DD	FLAT:__unwindfunclet$?ParsingstrHtml2@CTabResult@@QAEHAAV?$CStringT@DV?$StrTraitMFC_DLL@DV?$ChTraitsCRT@D@ATL@@@@@ATL@@@Z$0
	DD	00H
	DD	FLAT:__unwindfunclet$?ParsingstrHtml2@CTabResult@@QAEHAAV?$CStringT@DV?$StrTraitMFC_DLL@DV?$ChTraitsCRT@D@ATL@@@@@ATL@@@Z$2
__ehfuncinfo$?ParsingstrHtml2@CTabResult@@QAEHAAV?$CStringT@DV?$StrTraitMFC_DLL@DV?$ChTraitsCRT@D@ATL@@@@@ATL@@@Z DD 019930522H
	DD	02H
	DD	FLAT:__unwindtable$?ParsingstrHtml2@CTabResult@@QAEHAAV?$CStringT@DV?$StrTraitMFC_DLL@DV?$ChTraitsCRT@D@ATL@@@@@ATL@@@Z
	DD	2 DUP(00H)
	DD	2 DUP(00H)
	DD	00H
	DD	01H
xdata$x	ENDS
;	COMDAT xdata$x
xdata$x	SEGMENT
__ehfuncinfo$?InsertData2HtmlString@CTabResult@@QAEXFAAV?$CStringT@DV?$StrTraitMFC_DLL@DV?$ChTraitsCRT@D@ATL@@@@@ATL@@PAVCIStrategyItem0001@@@Z DD 019930522H
	DD	08H
	DD	FLAT:__unwindtable$?InsertData2HtmlString@CTabResult@@QAEXFAAV?$CStringT@DV?$StrTraitMFC_DLL@DV?$ChTraitsCRT@D@ATL@@@@@ATL@@PAVCIStrategyItem0001@@@Z
	DD	2 DUP(00H)
	DD	2 DUP(00H)
	DD	00H
	DD	01H
__unwindtable$?InsertData2HtmlString@CTabResult@@QAEXFAAV?$CStringT@DV?$StrTraitMFC_DLL@DV?$ChTraitsCRT@D@ATL@@@@@ATL@@PAVCIStrategyItem0001@@@Z DD 0ffffffffH
	DD	FLAT:__unwindfunclet$?InsertData2HtmlString@CTabResult@@QAEXFAAV?$CStringT@DV?$StrTraitMFC_DLL@DV?$ChTraitsCRT@D@ATL@@@@@ATL@@PAVCIStrategyItem0001@@@Z$3
	DD	00H
	DD	FLAT:__unwindfunclet$?InsertData2HtmlString@CTabResult@@QAEXFAAV?$CStringT@DV?$StrTraitMFC_DLL@DV?$ChTraitsCRT@D@ATL@@@@@ATL@@PAVCIStrategyItem0001@@@Z$4
	DD	01H
	DD	FLAT:__unwindfunclet$?InsertData2HtmlString@CTabResult@@QAEXFAAV?$CStringT@DV?$StrTraitMFC_DLL@DV?$ChTraitsCRT@D@ATL@@@@@ATL@@PAVCIStrategyItem0001@@@Z$5
	DD	02H
	DD	FLAT:__unwindfunclet$?InsertData2HtmlString@CTabResult@@QAEXFAAV?$CStringT@DV?$StrTraitMFC_DLL@DV?$ChTraitsCRT@D@ATL@@@@@ATL@@PAVCIStrategyItem0001@@@Z$6
	DD	03H
	DD	FLAT:__unwindfunclet$?InsertData2HtmlString@CTabResult@@QAEXFAAV?$CStringT@DV?$StrTraitMFC_DLL@DV?$ChTraitsCRT@D@ATL@@@@@ATL@@PAVCIStrategyItem0001@@@Z$7
	DD	0ffffffffH
	DD	FLAT:__unwindfunclet$?InsertData2HtmlString@CTabResult@@QAEXFAAV?$CStringT@DV?$StrTraitMFC_DLL@DV?$ChTraitsCRT@D@ATL@@@@@ATL@@PAVCIStrategyItem0001@@@Z$0
	DD	0ffffffffH
	DD	FLAT:__unwindfunclet$?InsertData2HtmlString@CTabResult@@QAEXFAAV?$CStringT@DV?$StrTraitMFC_DLL@DV?$ChTraitsCRT@D@ATL@@@@@ATL@@PAVCIStrategyItem0001@@@Z$1
	DD	06H
	DD	FLAT:__unwindfunclet$?InsertData2HtmlString@CTabResult@@QAEXFAAV?$CStringT@DV?$StrTraitMFC_DLL@DV?$ChTraitsCRT@D@ATL@@@@@ATL@@PAVCIStrategyItem0001@@@Z$2
xdata$x	ENDS
;	COMDAT xdata$x
xdata$x	SEGMENT
__unwindtable$?InitHtml@CTabResult@@QAEXXZ DD 0ffffffffH
	DD	FLAT:__unwindfunclet$?InitHtml@CTabResult@@QAEXXZ$0
	DD	00H
	DD	FLAT:__unwindfunclet$?InitHtml@CTabResult@@QAEXXZ$1
	DD	01H
	DD	FLAT:__unwindfunclet$?InitHtml@CTabResult@@QAEXXZ$3
__ehfuncinfo$?InitHtml@CTabResult@@QAEXXZ DD 019930522H
	DD	03H
	DD	FLAT:__unwindtable$?InitHtml@CTabResult@@QAEXXZ
	DD	2 DUP(00H)
	DD	2 DUP(00H)
	DD	00H
	DD	01H
xdata$x	ENDS
;	COMDAT xdata$x
xdata$x	SEGMENT
__unwindtable$?ParsingstrHtml@CTabResult@@QAE?AV?$CStringT@DV?$StrTraitMFC_DLL@DV?$ChTraitsCRT@D@ATL@@@@@ATL@@V23@@Z DD 0ffffffffH
	DD	FLAT:__unwindfunclet$?ParsingstrHtml@CTabResult@@QAE?AV?$CStringT@DV?$StrTraitMFC_DLL@DV?$ChTraitsCRT@D@ATL@@@@@ATL@@V23@@Z$0
__ehfuncinfo$?ParsingstrHtml@CTabResult@@QAE?AV?$CStringT@DV?$StrTraitMFC_DLL@DV?$ChTraitsCRT@D@ATL@@@@@ATL@@V23@@Z DD 019930522H
	DD	01H
	DD	FLAT:__unwindtable$?ParsingstrHtml@CTabResult@@QAE?AV?$CStringT@DV?$StrTraitMFC_DLL@DV?$ChTraitsCRT@D@ATL@@@@@ATL@@V23@@Z
	DD	2 DUP(00H)
	DD	2 DUP(00H)
	DD	00H
	DD	01H
xdata$x	ENDS
;	COMDAT xdata$x
xdata$x	SEGMENT
__ehfuncinfo$?MakeHtmlFile@CTabResult@@QAEXXZ DD 019930522H
	DD	0dH
	DD	FLAT:__unwindtable$?MakeHtmlFile@CTabResult@@QAEXXZ
	DD	2 DUP(00H)
	DD	2 DUP(00H)
	DD	00H
	DD	01H
__unwindtable$?MakeHtmlFile@CTabResult@@QAEXXZ DD 0ffffffffH
	DD	FLAT:__unwindfunclet$?MakeHtmlFile@CTabResult@@QAEXXZ$0
	DD	00H
	DD	FLAT:__unwindfunclet$?MakeHtmlFile@CTabResult@@QAEXXZ$1
	DD	01H
	DD	FLAT:__unwindfunclet$?MakeHtmlFile@CTabResult@@QAEXXZ$7
	DD	02H
	DD	FLAT:__unwindfunclet$?MakeHtmlFile@CTabResult@@QAEXXZ$8
	DD	03H
	DD	FLAT:__unwindfunclet$?MakeHtmlFile@CTabResult@@QAEXXZ$10
	DD	01H
	DD	FLAT:__unwindfunclet$?MakeHtmlFile@CTabResult@@QAEXXZ$11
	DD	01H
	DD	FLAT:__unwindfunclet$?MakeHtmlFile@CTabResult@@QAEXXZ$3
	DD	01H
	DD	FLAT:__unwindfunclet$?MakeHtmlFile@CTabResult@@QAEXXZ$13
	DD	01H
	DD	FLAT:__unwindfunclet$?MakeHtmlFile@CTabResult@@QAEXXZ$14
	DD	01H
	DD	FLAT:__unwindfunclet$?MakeHtmlFile@CTabResult@@QAEXXZ$15
	DD	09H
	DD	FLAT:__unwindfunclet$?MakeHtmlFile@CTabResult@@QAEXXZ$16
	DD	0aH
	DD	FLAT:__unwindfunclet$?MakeHtmlFile@CTabResult@@QAEXXZ$17
	DD	0bH
	DD	FLAT:__unwindfunclet$?MakeHtmlFile@CTabResult@@QAEXXZ$21
xdata$x	ENDS
;	COMDAT xdata$x
xdata$x	SEGMENT
__unwindtable$?OpenWebView@CTabResult@@QAEXV?$CStringT@DV?$StrTraitMFC_DLL@DV?$ChTraitsCRT@D@ATL@@@@@ATL@@@Z DD 0ffffffffH
	DD	FLAT:__unwindfunclet$?OpenWebView@CTabResult@@QAEXV?$CStringT@DV?$StrTraitMFC_DLL@DV?$ChTraitsCRT@D@ATL@@@@@ATL@@@Z$0
	DD	00H
	DD	FLAT:__unwindfunclet$?OpenWebView@CTabResult@@QAEXV?$CStringT@DV?$StrTraitMFC_DLL@DV?$ChTraitsCRT@D@ATL@@@@@ATL@@@Z$1
	DD	01H
	DD	FLAT:__unwindfunclet$?OpenWebView@CTabResult@@QAEXV?$CStringT@DV?$StrTraitMFC_DLL@DV?$ChTraitsCRT@D@ATL@@@@@ATL@@@Z$2
	DD	02H
	DD	FLAT:__unwindfunclet$?OpenWebView@CTabResult@@QAEXV?$CStringT@DV?$StrTraitMFC_DLL@DV?$ChTraitsCRT@D@ATL@@@@@ATL@@@Z$6
__ehfuncinfo$?OpenWebView@CTabResult@@QAEXV?$CStringT@DV?$StrTraitMFC_DLL@DV?$ChTraitsCRT@D@ATL@@@@@ATL@@@Z DD 019930522H
	DD	04H
	DD	FLAT:__unwindtable$?OpenWebView@CTabResult@@QAEXV?$CStringT@DV?$StrTraitMFC_DLL@DV?$ChTraitsCRT@D@ATL@@@@@ATL@@@Z
	DD	2 DUP(00H)
	DD	2 DUP(00H)
	DD	00H
	DD	01H
xdata$x	ENDS
;	COMDAT xdata$x
xdata$x	SEGMENT
__ehfuncinfo$??0CTabResult@@QAE@PAVCWnd@@@Z DD 019930522H
	DD	0bH
	DD	FLAT:__unwindtable$??0CTabResult@@QAE@PAVCWnd@@@Z
	DD	2 DUP(00H)
	DD	2 DUP(00H)
	DD	00H
	DD	01H
__unwindtable$??0CTabResult@@QAE@PAVCWnd@@@Z DD 0ffffffffH
	DD	FLAT:__unwindfunclet$??0CTabResult@@QAE@PAVCWnd@@@Z$0
	DD	00H
	DD	FLAT:__unwindfunclet$??0CTabResult@@QAE@PAVCWnd@@@Z$1
	DD	01H
	DD	FLAT:__unwindfunclet$??0CTabResult@@QAE@PAVCWnd@@@Z$2
	DD	02H
	DD	FLAT:__unwindfunclet$??0CTabResult@@QAE@PAVCWnd@@@Z$3
	DD	03H
	DD	FLAT:__unwindfunclet$??0CTabResult@@QAE@PAVCWnd@@@Z$4
	DD	04H
	DD	FLAT:__unwindfunclet$??0CTabResult@@QAE@PAVCWnd@@@Z$5
	DD	05H
	DD	FLAT:__unwindfunclet$??0CTabResult@@QAE@PAVCWnd@@@Z$6
	DD	06H
	DD	FLAT:__unwindfunclet$??0CTabResult@@QAE@PAVCWnd@@@Z$7
	DD	07H
	DD	FLAT:__unwindfunclet$??0CTabResult@@QAE@PAVCWnd@@@Z$8
	DD	08H
	DD	FLAT:__unwindfunclet$??0CTabResult@@QAE@PAVCWnd@@@Z$9
	DD	09H
	DD	FLAT:__unwindfunclet$??0CTabResult@@QAE@PAVCWnd@@@Z$10
xdata$x	ENDS
;	COMDAT xdata$x
xdata$x	SEGMENT
__ehfuncinfo$??0ST_DATAINDEX@@QAE@ABU0@@Z DD 019930522H
	DD	05H
	DD	FLAT:__unwindtable$??0ST_DATAINDEX@@QAE@ABU0@@Z
	DD	2 DUP(00H)
	DD	2 DUP(00H)
	DD	00H
	DD	01H
__unwindtable$??0ST_DATAINDEX@@QAE@ABU0@@Z DD 0ffffffffH
	DD	FLAT:__unwindfunclet$??0ST_DATAINDEX@@QAE@ABU0@@Z$0
	DD	00H
	DD	FLAT:__unwindfunclet$??0ST_DATAINDEX@@QAE@ABU0@@Z$1
	DD	01H
	DD	FLAT:__unwindfunclet$??0ST_DATAINDEX@@QAE@ABU0@@Z$2
	DD	02H
	DD	FLAT:__unwindfunclet$??0ST_DATAINDEX@@QAE@ABU0@@Z$3
	DD	03H
	DD	FLAT:__unwindfunclet$??0ST_DATAINDEX@@QAE@ABU0@@Z$4
xdata$x	ENDS
;	COMDAT xdata$x
xdata$x	SEGMENT
__catchsym$??1CGdiObject@@UAE@XZ$3 DD 00H
	DD	FLAT:??_R0PAVCException@@@8
	DD	0fffffde4H
	DD	FLAT:__catch$??1CGdiObject@@UAE@XZ$0
__tryblocktable$??1CGdiObject@@UAE@XZ DD 00H
	DD	00H
	DD	02H
	DD	01H
	DD	FLAT:__catchsym$??1CGdiObject@@UAE@XZ$3
__unwindtable$??1CGdiObject@@UAE@XZ DD 0ffffffffH
	DD	00H
	DD	0ffffffffH
	DD	00H
	DD	01H
	DD	FLAT:__unwindfunclet$??1CGdiObject@@UAE@XZ$2
__ehfuncinfo$??1CGdiObject@@UAE@XZ DD 019930522H
	DD	03H
	DD	FLAT:__unwindtable$??1CGdiObject@@UAE@XZ
	DD	01H
	DD	FLAT:__tryblocktable$??1CGdiObject@@UAE@XZ
	DD	2 DUP(00H)
	DD	00H
	DD	05H
xdata$x	ENDS
;	COMDAT xdata$x
xdata$x	SEGMENT
__unwindtable$??HATL@@YA?AV?$CStringT@DV?$StrTraitMFC_DLL@DV?$ChTraitsCRT@D@ATL@@@@@0@ABV10@PBD@Z DD 0ffffffffH
	DD	FLAT:__unwindfunclet$??HATL@@YA?AV?$CStringT@DV?$StrTraitMFC_DLL@DV?$ChTraitsCRT@D@ATL@@@@@0@ABV10@PBD@Z$0
__ehfuncinfo$??HATL@@YA?AV?$CStringT@DV?$StrTraitMFC_DLL@DV?$ChTraitsCRT@D@ATL@@@@@0@ABV10@PBD@Z DD 019930522H
	DD	01H
	DD	FLAT:__unwindtable$??HATL@@YA?AV?$CStringT@DV?$StrTraitMFC_DLL@DV?$ChTraitsCRT@D@ATL@@@@@0@ABV10@PBD@Z
	DD	2 DUP(00H)
	DD	2 DUP(00H)
	DD	00H
	DD	01H
xdata$x	ENDS
;	COMDAT xdata$x
xdata$x	SEGMENT
__unwindtable$??HATL@@YA?AV?$CStringT@DV?$StrTraitMFC_DLL@DV?$ChTraitsCRT@D@ATL@@@@@0@ABV10@0@Z DD 0ffffffffH
	DD	FLAT:__unwindfunclet$??HATL@@YA?AV?$CStringT@DV?$StrTraitMFC_DLL@DV?$ChTraitsCRT@D@ATL@@@@@0@ABV10@0@Z$0
__ehfuncinfo$??HATL@@YA?AV?$CStringT@DV?$StrTraitMFC_DLL@DV?$ChTraitsCRT@D@ATL@@@@@0@ABV10@0@Z DD 019930522H
	DD	01H
	DD	FLAT:__unwindtable$??HATL@@YA?AV?$CStringT@DV?$StrTraitMFC_DLL@DV?$ChTraitsCRT@D@ATL@@@@@0@ABV10@0@Z
	DD	2 DUP(00H)
	DD	2 DUP(00H)
	DD	00H
	DD	01H
xdata$x	ENDS
CRT$XCU	SEGMENT
?RMSG_SETQUERYOPT$initializer$@@3P6AXXZA DD FLAT:??__ERMSG_SETQUERYOPT@@YAXXZ ; RMSG_SETQUERYOPT$initializer$
CRT$XCU	ENDS
CRT$XCU	SEGMENT
?RMSG_CHARTMAIN$initializer$@@3P6AXXZA DD FLAT:??__ERMSG_CHARTMAIN@@YAXXZ ; RMSG_CHARTMAIN$initializer$
CRT$XCU	ENDS
CRT$XCU	SEGMENT
?RMS_ANALYSIS_FUNC$initializer$@@3P6AXXZA DD FLAT:??__ERMS_ANALYSIS_FUNC@@YAXXZ ; RMS_ANALYSIS_FUNC$initializer$
CRT$XCU	ENDS
CRT$XCU	SEGMENT
?RMSG_GET_USERID$initializer$@@3P6AXXZA DD FLAT:??__ERMSG_GET_USERID@@YAXXZ ; RMSG_GET_USERID$initializer$
CRT$XCU	ENDS
CRT$XCU	SEGMENT
?RMSG_CHANGE_SKINCOLOR$initializer$@@3P6AXXZA DD FLAT:??__ERMSG_CHANGE_SKINCOLOR@@YAXXZ ; RMSG_CHANGE_SKINCOLOR$initializer$
CRT$XCU	ENDS
CRT$XCU	SEGMENT
?RMSG_GET_SKINCOLOR$initializer$@@3P6AXXZA DD FLAT:??__ERMSG_GET_SKINCOLOR@@YAXXZ ; RMSG_GET_SKINCOLOR$initializer$
CRT$XCU	ENDS
CRT$XCU	SEGMENT
?RMSG_CHANGEVERTSCALETYPE$initializer$@@3P6AXXZA DD FLAT:??__ERMSG_CHANGEVERTSCALETYPE@@YAXXZ ; RMSG_CHANGEVERTSCALETYPE$initializer$
CRT$XCU	ENDS
CRT$XCU	SEGMENT
?RMSG_CHANGE_CROSSLINE$initializer$@@3P6AXXZA DD FLAT:??__ERMSG_CHANGE_CROSSLINE@@YAXXZ ; RMSG_CHANGE_CROSSLINE$initializer$
CRT$XCU	ENDS
CRT$XCU	SEGMENT
?RMSG_ADD_PLATFORM_MENU$initializer$@@3P6AXXZA DD FLAT:??__ERMSG_ADD_PLATFORM_MENU@@YAXXZ ; RMSG_ADD_PLATFORM_MENU$initializer$
CRT$XCU	ENDS
CRT$XCU	SEGMENT
?RMSG_SETINITIALCHARTDATA$initializer$@@3P6AXXZA DD FLAT:??__ERMSG_SETINITIALCHARTDATA@@YAXXZ ; RMSG_SETINITIALCHARTDATA$initializer$
CRT$XCU	ENDS
CRT$XCU	SEGMENT
?RMSG_GETINFO$initializer$@@3P6AXXZA DD FLAT:??__ERMSG_GETINFO@@YAXXZ ; RMSG_GETINFO$initializer$
CRT$XCU	ENDS
CRT$XCU	SEGMENT
?RMSG_SETINFO$initializer$@@3P6AXXZA DD FLAT:??__ERMSG_SETINFO@@YAXXZ ; RMSG_SETINFO$initializer$
CRT$XCU	ENDS
CRT$XCU	SEGMENT
?RMSG_INTERFACE$initializer$@@3P6AXXZA DD FLAT:??__ERMSG_INTERFACE@@YAXXZ ; RMSG_INTERFACE$initializer$
CRT$XCU	ENDS
CRT$XCU	SEGMENT
?RMSG_GETPCTRDATA$initializer$@@3P6AXXZA DD FLAT:??__ERMSG_GETPCTRDATA@@YAXXZ ; RMSG_GETPCTRDATA$initializer$
CRT$XCU	ENDS
CRT$XCU	SEGMENT
?RMSG_SETPCTRDATA$initializer$@@3P6AXXZA DD FLAT:??__ERMSG_SETPCTRDATA@@YAXXZ ; RMSG_SETPCTRDATA$initializer$
CRT$XCU	ENDS
; Function compile flags: /Ogtp
; File C:\Program Files (x86)\Microsoft Visual Studio\2019\Community\VC\Tools\MSVC\14.29.30133\atlmfc\include\afxtempl.h
;	COMDAT ?GetAt@?$CArray@UST_DATAINDEX@@U1@@@QAEAAUST_DATAINDEX@@H@Z
_TEXT	SEGMENT
_nIndex$ = 8						; size = 4
?GetAt@?$CArray@UST_DATAINDEX@@U1@@@QAEAAUST_DATAINDEX@@H@Z PROC ; CArray<ST_DATAINDEX,ST_DATAINDEX>::GetAt, COMDAT
; _this$ = ecx

; 286  : {

  00000	55		 push	 ebp
  00001	8b ec		 mov	 ebp, esp

; 287  : 	ASSERT(nIndex >= 0 && nIndex < m_nSize);
; 288  : 	if(nIndex >= 0 && nIndex < m_nSize)

  00003	8b 45 08	 mov	 eax, DWORD PTR _nIndex$[ebp]
  00006	85 c0		 test	 eax, eax
  00008	78 0f		 js	 SHORT $LN2@GetAt
  0000a	3b 41 08	 cmp	 eax, DWORD PTR [ecx+8]
  0000d	7d 0a		 jge	 SHORT $LN2@GetAt

; 289  : 		return m_pData[nIndex];

  0000f	c1 e0 05	 shl	 eax, 5
  00012	03 41 04	 add	 eax, DWORD PTR [ecx+4]

; 291  : }

  00015	5d		 pop	 ebp
  00016	c2 04 00	 ret	 4
$LN2@GetAt:

; 290  : 	AfxThrowInvalidArgException();

  00019	e8 00 00 00 00	 call	 ?AfxThrowInvalidArgException@@YGXXZ ; AfxThrowInvalidArgException
$LN4@GetAt:
  0001e	cc		 int	 3
?GetAt@?$CArray@UST_DATAINDEX@@U1@@@QAEAAUST_DATAINDEX@@H@Z ENDP ; CArray<ST_DATAINDEX,ST_DATAINDEX>::GetAt
_TEXT	ENDS
; Function compile flags: /Ogtp
; File D:\git\src\IBK\IBK_DRFN\ProjSrc\SrcDrfn\inc\IBaseDefine.h
;	COMDAT ??__ERMSG_SETPCTRDATA@@YAXXZ
text$di	SEGMENT
??__ERMSG_SETPCTRDATA@@YAXXZ PROC			; `dynamic initializer for 'RMSG_SETPCTRDATA'', COMDAT

; 172  : const UINT RMSG_SETPCTRDATA = ::RegisterWindowMessage("RMSG_SETPCTRDATA");

  00000	68 00 00 00 00	 push	 OFFSET ??_C@_0BB@JPACFCL@RMSG_SETPCTRDATA@
  00005	ff 15 00 00 00
	00		 call	 DWORD PTR __imp__RegisterWindowMessageA@4
  0000b	a3 00 00 00 00	 mov	 DWORD PTR ?RMSG_SETPCTRDATA@@3IB, eax
  00010	c3		 ret	 0
??__ERMSG_SETPCTRDATA@@YAXXZ ENDP			; `dynamic initializer for 'RMSG_SETPCTRDATA''
text$di	ENDS
; Function compile flags: /Ogtp
; File D:\git\src\IBK\IBK_DRFN\ProjSrc\SrcDrfn\inc\IBaseDefine.h
;	COMDAT ??__ERMSG_GETPCTRDATA@@YAXXZ
text$di	SEGMENT
??__ERMSG_GETPCTRDATA@@YAXXZ PROC			; `dynamic initializer for 'RMSG_GETPCTRDATA'', COMDAT

; 171  : const UINT RMSG_GETPCTRDATA = ::RegisterWindowMessage("RMSG_GETPCTRDATA");

  00000	68 00 00 00 00	 push	 OFFSET ??_C@_0BB@GOOPDKI@RMSG_GETPCTRDATA@
  00005	ff 15 00 00 00
	00		 call	 DWORD PTR __imp__RegisterWindowMessageA@4
  0000b	a3 00 00 00 00	 mov	 DWORD PTR ?RMSG_GETPCTRDATA@@3IB, eax
  00010	c3		 ret	 0
??__ERMSG_GETPCTRDATA@@YAXXZ ENDP			; `dynamic initializer for 'RMSG_GETPCTRDATA''
text$di	ENDS
; Function compile flags: /Ogtp
; File D:\git\src\IBK\IBK_DRFN\ProjSrc\SrcDrfn\inc\IBaseDefine.h
;	COMDAT ??__ERMSG_INTERFACE@@YAXXZ
text$di	SEGMENT
??__ERMSG_INTERFACE@@YAXXZ PROC				; `dynamic initializer for 'RMSG_INTERFACE'', COMDAT

; 170  : const UINT RMSG_INTERFACE = ::RegisterWindowMessage("RMSG_INTERFACE");

  00000	68 00 00 00 00	 push	 OFFSET ??_C@_0P@BKKCOCLK@RMSG_INTERFACE@
  00005	ff 15 00 00 00
	00		 call	 DWORD PTR __imp__RegisterWindowMessageA@4
  0000b	a3 00 00 00 00	 mov	 DWORD PTR ?RMSG_INTERFACE@@3IB, eax
  00010	c3		 ret	 0
??__ERMSG_INTERFACE@@YAXXZ ENDP				; `dynamic initializer for 'RMSG_INTERFACE''
text$di	ENDS
; Function compile flags: /Ogtp
; File D:\git\src\IBK\IBK_DRFN\ProjSrc\SrcDrfn\Chart\MultiChart\define\ChartMsgDef.h
;	COMDAT ??__ERMSG_SETINFO@@YAXXZ
text$di	SEGMENT
??__ERMSG_SETINFO@@YAXXZ PROC				; `dynamic initializer for 'RMSG_SETINFO'', COMDAT

; 238  : const UINT RMSG_SETINFO = ::RegisterWindowMessage(_T("RMSG_SETINFO"));

  00000	68 00 00 00 00	 push	 OFFSET ??_C@_0N@HABLPHJG@RMSG_SETINFO@
  00005	ff 15 00 00 00
	00		 call	 DWORD PTR __imp__RegisterWindowMessageA@4
  0000b	a3 00 00 00 00	 mov	 DWORD PTR ?RMSG_SETINFO@@3IB, eax
  00010	c3		 ret	 0
??__ERMSG_SETINFO@@YAXXZ ENDP				; `dynamic initializer for 'RMSG_SETINFO''
text$di	ENDS
; Function compile flags: /Ogtp
; File D:\git\src\IBK\IBK_DRFN\ProjSrc\SrcDrfn\Chart\MultiChart\define\ChartMsgDef.h
;	COMDAT ??__ERMSG_GETINFO@@YAXXZ
text$di	SEGMENT
??__ERMSG_GETINFO@@YAXXZ PROC				; `dynamic initializer for 'RMSG_GETINFO'', COMDAT

; 237  : const UINT RMSG_GETINFO = ::RegisterWindowMessage(_T("RMSG_GETINFO"));

  00000	68 00 00 00 00	 push	 OFFSET ??_C@_0N@IIOKMIEH@RMSG_GETINFO@
  00005	ff 15 00 00 00
	00		 call	 DWORD PTR __imp__RegisterWindowMessageA@4
  0000b	a3 00 00 00 00	 mov	 DWORD PTR ?RMSG_GETINFO@@3IB, eax
  00010	c3		 ret	 0
??__ERMSG_GETINFO@@YAXXZ ENDP				; `dynamic initializer for 'RMSG_GETINFO''
text$di	ENDS
; Function compile flags: /Ogtp
; File D:\git\src\IBK\IBK_DRFN\ProjSrc\SrcDrfn\Chart\MultiChart\define\ChartMsgDef.h
;	COMDAT ??__ERMSG_SETINITIALCHARTDATA@@YAXXZ
text$di	SEGMENT
??__ERMSG_SETINITIALCHARTDATA@@YAXXZ PROC		; `dynamic initializer for 'RMSG_SETINITIALCHARTDATA'', COMDAT

; 235  : const UINT RMSG_SETINITIALCHARTDATA = ::RegisterWindowMessage(_T("RMSG_SETINITIALCHARTDATA"));

  00000	68 00 00 00 00	 push	 OFFSET ??_C@_0BJ@OGNAJHHI@RMSG_SETINITIALCHARTDATA@
  00005	ff 15 00 00 00
	00		 call	 DWORD PTR __imp__RegisterWindowMessageA@4
  0000b	a3 00 00 00 00	 mov	 DWORD PTR ?RMSG_SETINITIALCHARTDATA@@3IB, eax
  00010	c3		 ret	 0
??__ERMSG_SETINITIALCHARTDATA@@YAXXZ ENDP		; `dynamic initializer for 'RMSG_SETINITIALCHARTDATA''
text$di	ENDS
; Function compile flags: /Ogtp
; File D:\git\src\IBK\IBK_DRFN\ProjSrc\SrcDrfn\Chart\MultiChart\define\ChartMsgDef.h
;	COMDAT ??__ERMSG_ADD_PLATFORM_MENU@@YAXXZ
text$di	SEGMENT
??__ERMSG_ADD_PLATFORM_MENU@@YAXXZ PROC			; `dynamic initializer for 'RMSG_ADD_PLATFORM_MENU'', COMDAT

; 233  : const UINT RMSG_ADD_PLATFORM_MENU = ::RegisterWindowMessage(_T("RMSG_ADD_PLATFORM_MENU"));

  00000	68 00 00 00 00	 push	 OFFSET ??_C@_0BH@IFDMIMBP@RMSG_ADD_PLATFORM_MENU@
  00005	ff 15 00 00 00
	00		 call	 DWORD PTR __imp__RegisterWindowMessageA@4
  0000b	a3 00 00 00 00	 mov	 DWORD PTR ?RMSG_ADD_PLATFORM_MENU@@3IB, eax
  00010	c3		 ret	 0
??__ERMSG_ADD_PLATFORM_MENU@@YAXXZ ENDP			; `dynamic initializer for 'RMSG_ADD_PLATFORM_MENU''
text$di	ENDS
; Function compile flags: /Ogtp
; File D:\git\src\IBK\IBK_DRFN\ProjSrc\SrcDrfn\Chart\MultiChart\define\ChartMsgDef.h
;	COMDAT ??__ERMSG_CHANGE_CROSSLINE@@YAXXZ
text$di	SEGMENT
??__ERMSG_CHANGE_CROSSLINE@@YAXXZ PROC			; `dynamic initializer for 'RMSG_CHANGE_CROSSLINE'', COMDAT

; 231  : const UINT RMSG_CHANGE_CROSSLINE = ::RegisterWindowMessage(_T("RMSG_CHANGE_CROSSLINE"));

  00000	68 00 00 00 00	 push	 OFFSET ??_C@_0BG@LNLCJKPF@RMSG_CHANGE_CROSSLINE@
  00005	ff 15 00 00 00
	00		 call	 DWORD PTR __imp__RegisterWindowMessageA@4
  0000b	a3 00 00 00 00	 mov	 DWORD PTR ?RMSG_CHANGE_CROSSLINE@@3IB, eax
  00010	c3		 ret	 0
??__ERMSG_CHANGE_CROSSLINE@@YAXXZ ENDP			; `dynamic initializer for 'RMSG_CHANGE_CROSSLINE''
text$di	ENDS
; Function compile flags: /Ogtp
; File D:\git\src\IBK\IBK_DRFN\ProjSrc\SrcDrfn\Chart\MultiChart\define\ChartMsgDef.h
;	COMDAT ??__ERMSG_CHANGEVERTSCALETYPE@@YAXXZ
text$di	SEGMENT
??__ERMSG_CHANGEVERTSCALETYPE@@YAXXZ PROC		; `dynamic initializer for 'RMSG_CHANGEVERTSCALETYPE'', COMDAT

; 229  : const UINT RMSG_CHANGEVERTSCALETYPE = ::RegisterWindowMessage(_T("RMSG_CHANGEVERTSCALETYPE"));

  00000	68 00 00 00 00	 push	 OFFSET ??_C@_0BJ@JLKHIBIK@RMSG_CHANGEVERTSCALETYPE@
  00005	ff 15 00 00 00
	00		 call	 DWORD PTR __imp__RegisterWindowMessageA@4
  0000b	a3 00 00 00 00	 mov	 DWORD PTR ?RMSG_CHANGEVERTSCALETYPE@@3IB, eax
  00010	c3		 ret	 0
??__ERMSG_CHANGEVERTSCALETYPE@@YAXXZ ENDP		; `dynamic initializer for 'RMSG_CHANGEVERTSCALETYPE''
text$di	ENDS
; Function compile flags: /Ogtp
; File D:\git\src\IBK\IBK_DRFN\ProjSrc\SrcDrfn\Chart\MultiChart\define\ChartMsgDef.h
;	COMDAT ??__ERMSG_GET_SKINCOLOR@@YAXXZ
text$di	SEGMENT
??__ERMSG_GET_SKINCOLOR@@YAXXZ PROC			; `dynamic initializer for 'RMSG_GET_SKINCOLOR'', COMDAT

; 226  : const UINT RMSG_GET_SKINCOLOR = ::RegisterWindowMessage(_T("RMSG_GET_SKINCOLOR"));

  00000	68 00 00 00 00	 push	 OFFSET ??_C@_0BD@FLDNDDHK@RMSG_GET_SKINCOLOR@
  00005	ff 15 00 00 00
	00		 call	 DWORD PTR __imp__RegisterWindowMessageA@4
  0000b	a3 00 00 00 00	 mov	 DWORD PTR ?RMSG_GET_SKINCOLOR@@3IB, eax
  00010	c3		 ret	 0
??__ERMSG_GET_SKINCOLOR@@YAXXZ ENDP			; `dynamic initializer for 'RMSG_GET_SKINCOLOR''
text$di	ENDS
; Function compile flags: /Ogtp
; File D:\git\src\IBK\IBK_DRFN\ProjSrc\SrcDrfn\Chart\MultiChart\define\ChartMsgDef.h
;	COMDAT ??__ERMSG_CHANGE_SKINCOLOR@@YAXXZ
text$di	SEGMENT
??__ERMSG_CHANGE_SKINCOLOR@@YAXXZ PROC			; `dynamic initializer for 'RMSG_CHANGE_SKINCOLOR'', COMDAT

; 225  : const UINT RMSG_CHANGE_SKINCOLOR = ::RegisterWindowMessage(_T("RMSG_CHANGE_SKINCOLOR"));

  00000	68 00 00 00 00	 push	 OFFSET ??_C@_0BG@CNPAHNGG@RMSG_CHANGE_SKINCOLOR@
  00005	ff 15 00 00 00
	00		 call	 DWORD PTR __imp__RegisterWindowMessageA@4
  0000b	a3 00 00 00 00	 mov	 DWORD PTR ?RMSG_CHANGE_SKINCOLOR@@3IB, eax
  00010	c3		 ret	 0
??__ERMSG_CHANGE_SKINCOLOR@@YAXXZ ENDP			; `dynamic initializer for 'RMSG_CHANGE_SKINCOLOR''
text$di	ENDS
; Function compile flags: /Ogtp
; File D:\git\src\IBK\IBK_DRFN\ProjSrc\SrcDrfn\Chart\MultiChart\define\ChartMsgDef.h
;	COMDAT ??__ERMSG_GET_USERID@@YAXXZ
text$di	SEGMENT
??__ERMSG_GET_USERID@@YAXXZ PROC			; `dynamic initializer for 'RMSG_GET_USERID'', COMDAT

; 215  : const UINT RMSG_GET_USERID = ::RegisterWindowMessage(_T("RMSG_GET_USERID"));	// User ID 

  00000	68 00 00 00 00	 push	 OFFSET ??_C@_0BA@HKNFENJL@RMSG_GET_USERID@
  00005	ff 15 00 00 00
	00		 call	 DWORD PTR __imp__RegisterWindowMessageA@4
  0000b	a3 00 00 00 00	 mov	 DWORD PTR ?RMSG_GET_USERID@@3IB, eax
  00010	c3		 ret	 0
??__ERMSG_GET_USERID@@YAXXZ ENDP			; `dynamic initializer for 'RMSG_GET_USERID''
text$di	ENDS
; Function compile flags: /Ogtp
; File D:\git\src\IBK\IBK_DRFN\ProjSrc\SrcDrfn\Chart\MultiChart\define\ChartMsgDef.h
;	COMDAT ??__ERMS_ANALYSIS_FUNC@@YAXXZ
text$di	SEGMENT
??__ERMS_ANALYSIS_FUNC@@YAXXZ PROC			; `dynamic initializer for 'RMS_ANALYSIS_FUNC'', COMDAT

; 211  : const UINT RMS_ANALYSIS_FUNC	= ::RegisterWindowMessage(_T("RMS_ANALYSIS_FUNC"));

  00000	68 00 00 00 00	 push	 OFFSET ??_C@_0BC@MMPGLPDH@RMS_ANALYSIS_FUNC@
  00005	ff 15 00 00 00
	00		 call	 DWORD PTR __imp__RegisterWindowMessageA@4
  0000b	a3 00 00 00 00	 mov	 DWORD PTR ?RMS_ANALYSIS_FUNC@@3IB, eax
  00010	c3		 ret	 0
??__ERMS_ANALYSIS_FUNC@@YAXXZ ENDP			; `dynamic initializer for 'RMS_ANALYSIS_FUNC''
text$di	ENDS
; Function compile flags: /Ogtp
; File D:\git\src\IBK\IBK_DRFN\ProjSrc\SrcDrfn\Chart\MultiChart\define\ChartMsgDef.h
;	COMDAT ??__ERMSG_CHARTMAIN@@YAXXZ
text$di	SEGMENT
??__ERMSG_CHARTMAIN@@YAXXZ PROC				; `dynamic initializer for 'RMSG_CHARTMAIN'', COMDAT

; 208  : const UINT RMSG_CHARTMAIN		= ::RegisterWindowMessage(_T("RMSG_CHARTMAIN"));

  00000	68 00 00 00 00	 push	 OFFSET ??_C@_0P@KHFCBIOH@RMSG_CHARTMAIN@
  00005	ff 15 00 00 00
	00		 call	 DWORD PTR __imp__RegisterWindowMessageA@4
  0000b	a3 00 00 00 00	 mov	 DWORD PTR ?RMSG_CHARTMAIN@@3IB, eax
  00010	c3		 ret	 0
??__ERMSG_CHARTMAIN@@YAXXZ ENDP				; `dynamic initializer for 'RMSG_CHARTMAIN''
text$di	ENDS
; Function compile flags: /Ogtp
; File D:\git\src\IBK\IBK_DRFN\ProjSrc\SrcDrfn\Chart\MultiChart\define\ChartMsgDef.h
;	COMDAT ??__ERMSG_SETQUERYOPT@@YAXXZ
text$di	SEGMENT
??__ERMSG_SETQUERYOPT@@YAXXZ PROC			; `dynamic initializer for 'RMSG_SETQUERYOPT'', COMDAT

; 183  : const UINT RMSG_SETQUERYOPT = ::RegisterWindowMessage(_T("RMSG_SETQUERYOPT"));

  00000	68 00 00 00 00	 push	 OFFSET ??_C@_0BB@CNOFPEHG@RMSG_SETQUERYOPT@
  00005	ff 15 00 00 00
	00		 call	 DWORD PTR __imp__RegisterWindowMessageA@4
  0000b	a3 00 00 00 00	 mov	 DWORD PTR ?RMSG_SETQUERYOPT@@3IB, eax
  00010	c3		 ret	 0
??__ERMSG_SETQUERYOPT@@YAXXZ ENDP			; `dynamic initializer for 'RMSG_SETQUERYOPT''
text$di	ENDS
; Function compile flags: /Ogtp
; File D:\git\src\IBK\IBK_DRFN\ProjSrc\SrcDrfn\Chart\commontr\TRDefine.h
;	COMDAT ??__ERMSG_GETSIGNAL_REAL@@YAXXZ
text$di	SEGMENT
??__ERMSG_GETSIGNAL_REAL@@YAXXZ PROC			; `dynamic initializer for 'RMSG_GETSIGNAL_REAL'', COMDAT

; 213  : const UINT RMSG_GETSIGNAL_REAL = ::RegisterWindowMessage(_T("RMSG_GETSIGNAL_REAL"));

  00000	68 00 00 00 00	 push	 OFFSET ??_C@_0BE@FJPKENOB@RMSG_GETSIGNAL_REAL@
  00005	ff 15 00 00 00
	00		 call	 DWORD PTR __imp__RegisterWindowMessageA@4
  0000b	a3 00 00 00 00	 mov	 DWORD PTR ?RMSG_GETSIGNAL_REAL@@3IB, eax
  00010	c3		 ret	 0
??__ERMSG_GETSIGNAL_REAL@@YAXXZ ENDP			; `dynamic initializer for 'RMSG_GETSIGNAL_REAL''
text$di	ENDS
; Function compile flags: /Ogtp
; File C:\Program Files (x86)\Microsoft Visual Studio\2019\Community\VC\Tools\MSVC\14.29.30133\atlmfc\include\afxwin1.inl
; File C:\Program Files (x86)\Microsoft Visual Studio\2019\Community\VC\Tools\MSVC\14.29.30133\atlmfc\include\afx.inl
;	COMDAT ??_GCTabResult@@UAEPAXI@Z
_TEXT	SEGMENT
__$EHRec$ = -12						; size = 12
___flags$ = 8						; size = 4
??_GCTabResult@@UAEPAXI@Z PROC				; CTabResult::`scalar deleting destructor', COMDAT
; _this$ = ecx
  00000	55		 push	 ebp
  00001	8b ec		 mov	 ebp, esp
  00003	6a ff		 push	 -1
  00005	68 00 00 00 00	 push	 __ehhandler$??_GCTabResult@@UAEPAXI@Z
  0000a	64 a1 00 00 00
	00		 mov	 eax, DWORD PTR fs:0
  00010	50		 push	 eax
  00011	56		 push	 esi
  00012	a1 00 00 00 00	 mov	 eax, DWORD PTR ___security_cookie
  00017	33 c5		 xor	 eax, ebp
  00019	50		 push	 eax
  0001a	8d 45 f4	 lea	 eax, DWORD PTR __$EHRec$[ebp]
  0001d	64 a3 00 00 00
	00		 mov	 DWORD PTR fs:0, eax
  00023	8b f1		 mov	 esi, ecx
  00025	8d 8e 88 02 00
	00		 lea	 ecx, DWORD PTR [esi+648]
  0002b	c7 45 fc 00 00
	00 00		 mov	 DWORD PTR __$EHRec$[ebp+8], 0
  00032	e8 00 00 00 00	 call	 ??1CGridCtrl@@UAE@XZ	; CGridCtrl::~CGridCtrl
  00037	8d 8e 80 02 00
	00		 lea	 ecx, DWORD PTR [esi+640]
; File C:\Program Files (x86)\Microsoft Visual Studio\2019\Community\VC\Tools\MSVC\14.29.30133\atlmfc\include\afxwin1.inl

; 130  : 	{ }

  0003d	c7 01 00 00 00
	00		 mov	 DWORD PTR [ecx], OFFSET ??_7CBrush@@6B@
  00043	e8 00 00 00 00	 call	 ??1CGdiObject@@UAE@XZ	; CGdiObject::~CGdiObject
  00048	ff 35 00 00 00
	00		 push	 DWORD PTR __imp_??1?$CStringT@DV?$StrTraitMFC_DLL@DV?$ChTraitsCRT@D@ATL@@@@@ATL@@QAE@XZ
  0004e	8d 86 60 01 00
	00		 lea	 eax, DWORD PTR [esi+352]
  00054	6a 24		 push	 36			; 00000024H
  00056	6a 04		 push	 4
  00058	50		 push	 eax
  00059	e8 00 00 00 00	 call	 ??_M@YGXPAXIIP6EX0@Z@Z
  0005e	8d 8e 5c 01 00
	00		 lea	 ecx, DWORD PTR [esi+348]
  00064	ff 15 00 00 00
	00		 call	 DWORD PTR __imp_??1?$CStringT@DV?$StrTraitMFC_DLL@DV?$ChTraitsCRT@D@ATL@@@@@ATL@@QAE@XZ
  0006a	8d 8e 58 01 00
	00		 lea	 ecx, DWORD PTR [esi+344]
  00070	ff 15 00 00 00
	00		 call	 DWORD PTR __imp_??1?$CStringT@DV?$StrTraitMFC_DLL@DV?$ChTraitsCRT@D@ATL@@@@@ATL@@QAE@XZ
  00076	8d 8e 54 01 00
	00		 lea	 ecx, DWORD PTR [esi+340]
  0007c	ff 15 00 00 00
	00		 call	 DWORD PTR __imp_??1?$CStringT@DV?$StrTraitMFC_DLL@DV?$ChTraitsCRT@D@ATL@@@@@ATL@@QAE@XZ
  00082	8d 8e 50 01 00
	00		 lea	 ecx, DWORD PTR [esi+336]
  00088	ff 15 00 00 00
	00		 call	 DWORD PTR __imp_??1?$CStringT@DV?$StrTraitMFC_DLL@DV?$ChTraitsCRT@D@ATL@@@@@ATL@@QAE@XZ
  0008e	8d 8e 4c 01 00
	00		 lea	 ecx, DWORD PTR [esi+332]
  00094	ff 15 00 00 00
	00		 call	 DWORD PTR __imp_??1?$CStringT@DV?$StrTraitMFC_DLL@DV?$ChTraitsCRT@D@ATL@@@@@ATL@@QAE@XZ
  0009a	8d 8e 48 01 00
	00		 lea	 ecx, DWORD PTR [esi+328]
  000a0	ff 15 00 00 00
	00		 call	 DWORD PTR __imp_??1?$CStringT@DV?$StrTraitMFC_DLL@DV?$ChTraitsCRT@D@ATL@@@@@ATL@@QAE@XZ
  000a6	8d 8e 44 01 00
	00		 lea	 ecx, DWORD PTR [esi+324]
  000ac	ff 15 00 00 00
	00		 call	 DWORD PTR __imp_??1?$CStringT@DV?$StrTraitMFC_DLL@DV?$ChTraitsCRT@D@ATL@@@@@ATL@@QAE@XZ
  000b2	8d 8e b8 00 00
	00		 lea	 ecx, DWORD PTR [esi+184]
  000b8	e8 00 00 00 00	 call	 ??1CStatic@@UAE@XZ	; CStatic::~CStatic
  000bd	8b ce		 mov	 ecx, esi
  000bf	e8 00 00 00 00	 call	 ??1CDialog@@UAE@XZ	; CDialog::~CDialog
  000c4	8b 45 08	 mov	 eax, DWORD PTR ___flags$[ebp]
  000c7	a8 01		 test	 al, 1
  000c9	74 2f		 je	 SHORT $LN21@scalar
  000cb	a8 04		 test	 al, 4
  000cd	75 1d		 jne	 SHORT $LN3@scalar
; File C:\Program Files (x86)\Microsoft Visual Studio\2019\Community\VC\Tools\MSVC\14.29.30133\atlmfc\include\afx.inl

; 112  : 	{ ::operator delete(p); }

  000cf	56		 push	 esi
  000d0	e8 00 00 00 00	 call	 ??3@YAXPAX@Z		; operator delete
  000d5	83 c4 04	 add	 esp, 4
  000d8	8b c6		 mov	 eax, esi
  000da	8b 4d f4	 mov	 ecx, DWORD PTR __$EHRec$[ebp]
  000dd	64 89 0d 00 00
	00 00		 mov	 DWORD PTR fs:0, ecx
  000e4	59		 pop	 ecx
  000e5	5e		 pop	 esi
  000e6	8b e5		 mov	 esp, ebp
  000e8	5d		 pop	 ebp
  000e9	c2 04 00	 ret	 4
$LN3@scalar:
  000ec	68 20 07 00 00	 push	 1824			; 00000720H
  000f1	56		 push	 esi
  000f2	e8 00 00 00 00	 call	 ?__global_delete@@YAXPAXI@Z ; __global_delete
  000f7	83 c4 08	 add	 esp, 8
$LN21@scalar:
  000fa	8b c6		 mov	 eax, esi
  000fc	8b 4d f4	 mov	 ecx, DWORD PTR __$EHRec$[ebp]
  000ff	64 89 0d 00 00
	00 00		 mov	 DWORD PTR fs:0, ecx
  00106	59		 pop	 ecx
  00107	5e		 pop	 esi
  00108	8b e5		 mov	 esp, ebp
  0010a	5d		 pop	 ebp
  0010b	c2 04 00	 ret	 4
  0010e	cc		 int	 3
  0010f	cc		 int	 3
  00110	cc		 int	 3
  00111	cc		 int	 3
  00112	cc		 int	 3
_TEXT	ENDS
;	COMDAT text$x
text$x	SEGMENT
__ehhandler$??_GCTabResult@@UAEPAXI@Z:
  00000	90		 npad	 1
  00001	90		 npad	 1
  00002	8b 54 24 08	 mov	 edx, DWORD PTR [esp+8]
  00006	8d 42 0c	 lea	 eax, DWORD PTR [edx+12]
  00009	8b 4a f8	 mov	 ecx, DWORD PTR [edx-8]
  0000c	33 c8		 xor	 ecx, eax
  0000e	e8 00 00 00 00	 call	 @__security_check_cookie@4
  00013	b8 00 00 00 00	 mov	 eax, OFFSET __ehfuncinfo$??_GCTabResult@@UAEPAXI@Z
  00018	e9 00 00 00 00	 jmp	 ___CxxFrameHandler3
text$x	ENDS
??_GCTabResult@@UAEPAXI@Z ENDP				; CTabResult::`scalar deleting destructor'
; Function compile flags: /Ogtp
; File D:\git\src\IBK\IBK_DRFN\ProjSrc\SrcDrfn\Chart\HWSTRATEGYANALYSIS\TabResult.cpp
; File C:\Program Files (x86)\Microsoft Visual Studio\2019\Community\VC\Tools\MSVC\14.29.30133\atlmfc\include\afxwin1.inl
; File D:\git\src\IBK\IBK_DRFN\ProjSrc\SrcDrfn\Chart\HWSTRATEGYANALYSIS\TabResult.cpp
;	COMDAT ?OnCtlColor@CTabResult@@QAEPAUHBRUSH__@@PAVCDC@@PAVCWnd@@I@Z
_TEXT	SEGMENT
_pDC$ = 8						; size = 4
_pWnd$ = 12						; size = 4
_nCtlColor$ = 16					; size = 4
?OnCtlColor@CTabResult@@QAEPAUHBRUSH__@@PAVCDC@@PAVCWnd@@I@Z PROC ; CTabResult::OnCtlColor, COMDAT
; _this$ = ecx

; 623  : {

  00000	55		 push	 ebp
  00001	8b ec		 mov	 ebp, esp
  00003	56		 push	 esi

; 624  : 	HBRUSH hbr = CDlgInterface::OnCtlColor(pDC, pWnd, nCtlColor);

  00004	8b 75 08	 mov	 esi, DWORD PTR _pDC$[ebp]
  00007	57		 push	 edi
  00008	ff 75 10	 push	 DWORD PTR _nCtlColor$[ebp]
  0000b	8b f9		 mov	 edi, ecx
  0000d	ff 75 0c	 push	 DWORD PTR _pWnd$[ebp]
  00010	56		 push	 esi
  00011	e8 00 00 00 00	 call	 ?OnCtlColor@CWnd@@IAEPAUHBRUSH__@@PAVCDC@@PAV1@I@Z ; CWnd::OnCtlColor

; 625  : 
; 626  : 	// TODO:   DC  .
; 627  : 	pDC->SetBkColor( RGB(255,255,255));//CLR_BACKGROUND;

  00016	8b 06		 mov	 eax, DWORD PTR [esi]
  00018	8b ce		 mov	 ecx, esi
  0001a	68 ff ff ff 00	 push	 16777215		; 00ffffffH
  0001f	ff 50 34	 call	 DWORD PTR [eax+52]

; 628  : 	// TODO:       .
; 629  : 	return m_brBackground;

  00022	8d 87 80 02 00
	00		 lea	 eax, DWORD PTR [edi+640]
  00028	5f		 pop	 edi
  00029	5e		 pop	 esi
; File C:\Program Files (x86)\Microsoft Visual Studio\2019\Community\VC\Tools\MSVC\14.29.30133\atlmfc\include\afxwin1.inl

; 124  : 	{ return (HBRUSH)(this == NULL ? NULL : m_hObject); }

  0002a	85 c0		 test	 eax, eax
  0002c	75 04		 jne	 SHORT $LN5@OnCtlColor
; File D:\git\src\IBK\IBK_DRFN\ProjSrc\SrcDrfn\Chart\HWSTRATEGYANALYSIS\TabResult.cpp

; 630  : }

  0002e	5d		 pop	 ebp
  0002f	c2 0c 00	 ret	 12			; 0000000cH
$LN5@OnCtlColor:

; 628  : 	// TODO:       .
; 629  : 	return m_brBackground;

  00032	8b 40 04	 mov	 eax, DWORD PTR [eax+4]

; 630  : }

  00035	5d		 pop	 ebp
  00036	c2 0c 00	 ret	 12			; 0000000cH
?OnCtlColor@CTabResult@@QAEPAUHBRUSH__@@PAVCDC@@PAVCWnd@@I@Z ENDP ; CTabResult::OnCtlColor
_TEXT	ENDS
; Function compile flags: /Ogtp
; File D:\git\src\IBK\IBK_DRFN\ProjSrc\SrcDrfn\Chart\HWSTRATEGYANALYSIS\TabResult.cpp
; File C:\Program Files (x86)\Microsoft Visual Studio\2019\Community\VC\Tools\MSVC\14.29.30133\atlmfc\include\afxtempl.h
; File D:\git\src\IBK\IBK_DRFN\ProjSrc\SrcDrfn\Chart\HWSTRATEGYANALYSIS\TabResult.cpp
; File C:\Program Files (x86)\Microsoft Visual Studio\2019\Community\VC\Tools\MSVC\14.29.30133\atlmfc\include\cstringt.h
; File D:\git\src\IBK\IBK_DRFN\ProjSrc\SrcDrfn\Chart\HWSTRATEGYANALYSIS\TabResult.cpp
; File C:\Program Files (x86)\Microsoft Visual Studio\2019\Community\VC\Tools\MSVC\14.29.30133\atlmfc\include\cstringt.h
; File C:\Program Files (x86)\Microsoft Visual Studio\2019\Community\VC\Tools\MSVC\14.29.30133\atlmfc\include\atlsimpstr.h
; File C:\Program Files (x86)\Microsoft Visual Studio\2019\Community\VC\Tools\MSVC\14.29.30133\atlmfc\include\cstringt.h
; File D:\git\src\IBK\IBK_DRFN\ProjSrc\SrcDrfn\Chart\HWSTRATEGYANALYSIS\TabResult.cpp
; File C:\Program Files (x86)\Microsoft Visual Studio\2019\Community\VC\Tools\MSVC\14.29.30133\atlmfc\include\cstringt.h
; File D:\git\src\IBK\IBK_DRFN\ProjSrc\SrcDrfn\Chart\HWSTRATEGYANALYSIS\TabResult.cpp
; File C:\Program Files (x86)\Microsoft Visual Studio\2019\Community\VC\Tools\MSVC\14.29.30133\atlmfc\include\cstringt.h
; File C:\Program Files (x86)\Microsoft Visual Studio\2019\Community\VC\Tools\MSVC\14.29.30133\atlmfc\include\atlsimpstr.h
; File C:\Program Files (x86)\Microsoft Visual Studio\2019\Community\VC\Tools\MSVC\14.29.30133\atlmfc\include\cstringt.h
; File D:\git\src\IBK\IBK_DRFN\ProjSrc\SrcDrfn\Chart\HWSTRATEGYANALYSIS\TabResult.cpp
; File C:\Program Files (x86)\Microsoft Visual Studio\2019\Community\VC\Tools\MSVC\14.29.30133\atlmfc\include\cstringt.h
; File D:\git\src\IBK\IBK_DRFN\ProjSrc\SrcDrfn\Chart\HWSTRATEGYANALYSIS\TabResult.cpp
; File C:\Program Files (x86)\Microsoft Visual Studio\2019\Community\VC\Tools\MSVC\14.29.30133\atlmfc\include\cstringt.h
; File D:\git\src\IBK\IBK_DRFN\ProjSrc\SrcDrfn\Chart\HWSTRATEGYANALYSIS\TabResult.cpp
; File C:\Program Files (x86)\Microsoft Visual Studio\2019\Community\VC\Tools\MSVC\14.29.30133\atlmfc\include\cstringt.h
; File C:\Program Files (x86)\Microsoft Visual Studio\2019\Community\VC\Tools\MSVC\14.29.30133\atlmfc\include\atlsimpstr.h
; File C:\Program Files (x86)\Microsoft Visual Studio\2019\Community\VC\Tools\MSVC\14.29.30133\atlmfc\include\cstringt.h
; File D:\git\src\IBK\IBK_DRFN\ProjSrc\SrcDrfn\Chart\HWSTRATEGYANALYSIS\TabResult.cpp
; File C:\Program Files (x86)\Microsoft Visual Studio\2019\Community\VC\Tools\MSVC\14.29.30133\atlmfc\include\cstringt.h
; File D:\git\src\IBK\IBK_DRFN\ProjSrc\SrcDrfn\Chart\HWSTRATEGYANALYSIS\TabResult.cpp
; File C:\Program Files (x86)\Microsoft Visual Studio\2019\Community\VC\Tools\MSVC\14.29.30133\atlmfc\include\cstringt.h
; File C:\Program Files (x86)\Microsoft Visual Studio\2019\Community\VC\Tools\MSVC\14.29.30133\atlmfc\include\atlsimpstr.h
; File C:\Program Files (x86)\Microsoft Visual Studio\2019\Community\VC\Tools\MSVC\14.29.30133\atlmfc\include\cstringt.h
; File D:\git\src\IBK\IBK_DRFN\ProjSrc\SrcDrfn\Chart\HWSTRATEGYANALYSIS\TabResult.cpp
; File C:\Program Files (x86)\Microsoft Visual Studio\2019\Community\VC\Tools\MSVC\14.29.30133\atlmfc\include\cstringt.h
; File D:\git\src\IBK\IBK_DRFN\ProjSrc\SrcDrfn\Chart\HWSTRATEGYANALYSIS\TabResult.cpp
; File C:\Program Files (x86)\Microsoft Visual Studio\2019\Community\VC\Tools\MSVC\14.29.30133\atlmfc\include\cstringt.h
; File C:\Program Files (x86)\Microsoft Visual Studio\2019\Community\VC\Tools\MSVC\14.29.30133\atlmfc\include\atlsimpstr.h
; File C:\Program Files (x86)\Microsoft Visual Studio\2019\Community\VC\Tools\MSVC\14.29.30133\atlmfc\include\cstringt.h
; File D:\git\src\IBK\IBK_DRFN\ProjSrc\SrcDrfn\Chart\HWSTRATEGYANALYSIS\TabResult.cpp
; File C:\Program Files (x86)\Microsoft Visual Studio\2019\Community\VC\Tools\MSVC\14.29.30133\atlmfc\include\cstringt.h
; File D:\git\src\IBK\IBK_DRFN\ProjSrc\SrcDrfn\Chart\HWSTRATEGYANALYSIS\TabResult.cpp
; File C:\Program Files (x86)\Microsoft Visual Studio\2019\Community\VC\Tools\MSVC\14.29.30133\atlmfc\include\cstringt.h
; File C:\Program Files (x86)\Microsoft Visual Studio\2019\Community\VC\Tools\MSVC\14.29.30133\atlmfc\include\atlsimpstr.h
; File C:\Program Files (x86)\Microsoft Visual Studio\2019\Community\VC\Tools\MSVC\14.29.30133\atlmfc\include\cstringt.h
; File D:\git\src\IBK\IBK_DRFN\ProjSrc\SrcDrfn\Chart\HWSTRATEGYANALYSIS\TabResult.cpp
; File C:\Program Files (x86)\Microsoft Visual Studio\2019\Community\VC\Tools\MSVC\14.29.30133\atlmfc\include\cstringt.h
; File D:\git\src\IBK\IBK_DRFN\ProjSrc\SrcDrfn\Chart\HWSTRATEGYANALYSIS\TabResult.cpp
; File C:\Program Files (x86)\Microsoft Visual Studio\2019\Community\VC\Tools\MSVC\14.29.30133\atlmfc\include\cstringt.h
; File C:\Program Files (x86)\Microsoft Visual Studio\2019\Community\VC\Tools\MSVC\14.29.30133\atlmfc\include\atlsimpstr.h
; File C:\Program Files (x86)\Microsoft Visual Studio\2019\Community\VC\Tools\MSVC\14.29.30133\atlmfc\include\cstringt.h
; File D:\git\src\IBK\IBK_DRFN\ProjSrc\SrcDrfn\Chart\HWSTRATEGYANALYSIS\TabResult.cpp
; File C:\Program Files (x86)\Microsoft Visual Studio\2019\Community\VC\Tools\MSVC\14.29.30133\atlmfc\include\cstringt.h
; File D:\git\src\IBK\IBK_DRFN\ProjSrc\SrcDrfn\Chart\HWSTRATEGYANALYSIS\TabResult.cpp
; File C:\Program Files (x86)\Microsoft Visual Studio\2019\Community\VC\Tools\MSVC\14.29.30133\atlmfc\include\cstringt.h
; File C:\Program Files (x86)\Microsoft Visual Studio\2019\Community\VC\Tools\MSVC\14.29.30133\atlmfc\include\atlsimpstr.h
; File C:\Program Files (x86)\Microsoft Visual Studio\2019\Community\VC\Tools\MSVC\14.29.30133\atlmfc\include\cstringt.h
; File D:\git\src\IBK\IBK_DRFN\ProjSrc\SrcDrfn\Chart\HWSTRATEGYANALYSIS\TabResult.cpp
; File C:\Program Files (x86)\Microsoft Visual Studio\2019\Community\VC\Tools\MSVC\14.29.30133\atlmfc\include\cstringt.h
; File D:\git\src\IBK\IBK_DRFN\ProjSrc\SrcDrfn\Chart\HWSTRATEGYANALYSIS\TabResult.cpp
; File C:\Program Files (x86)\Microsoft Visual Studio\2019\Community\VC\Tools\MSVC\14.29.30133\atlmfc\include\cstringt.h
; File C:\Program Files (x86)\Microsoft Visual Studio\2019\Community\VC\Tools\MSVC\14.29.30133\atlmfc\include\atlsimpstr.h
; File C:\Program Files (x86)\Microsoft Visual Studio\2019\Community\VC\Tools\MSVC\14.29.30133\atlmfc\include\cstringt.h
; File D:\git\src\IBK\IBK_DRFN\ProjSrc\SrcDrfn\Chart\HWSTRATEGYANALYSIS\TabResult.cpp
; File C:\Program Files (x86)\Microsoft Visual Studio\2019\Community\VC\Tools\MSVC\14.29.30133\atlmfc\include\afxtempl.h
; File D:\git\src\IBK\IBK_DRFN\ProjSrc\SrcDrfn\Chart\HWSTRATEGYANALYSIS\TabResult.cpp
;	COMDAT ?SetDataSpreadGrid@CTabResult@@QAEXXZ
_TEXT	SEGMENT
_stData$ = -100						; size = 32
$T2 = -68						; size = 4
_str1$1$ = -64						; size = 4
_Strate$1$ = -60					; size = 4
_this$1$ = -56						; size = 4
$T3 = -56						; size = 4
$T4 = -52						; size = 4
$T5 = -48						; size = 4
$T6 = -44						; size = 4
$T7 = -40						; size = 4
$T8 = -36						; size = 4
$T9 = -32						; size = 4
$T10 = -32						; size = 4
$T11 = -32						; size = 4
tv1551 = -28						; size = 8
_Data$ = -28						; size = 8
$T12 = -24						; size = 4
_strName$ = -20						; size = 4
_strData$ = -16						; size = 4
__$EHRec$ = -12						; size = 12
?SetDataSpreadGrid@CTabResult@@QAEXXZ PROC		; CTabResult::SetDataSpreadGrid, COMDAT
; _this$ = ecx

; 280  : {

  00000	55		 push	 ebp
  00001	8b ec		 mov	 ebp, esp
  00003	6a ff		 push	 -1
  00005	68 00 00 00 00	 push	 __ehhandler$?SetDataSpreadGrid@CTabResult@@QAEXXZ
  0000a	64 a1 00 00 00
	00		 mov	 eax, DWORD PTR fs:0
  00010	50		 push	 eax
  00011	83 ec 58	 sub	 esp, 88			; 00000058H
  00014	53		 push	 ebx
  00015	56		 push	 esi
  00016	57		 push	 edi
  00017	a1 00 00 00 00	 mov	 eax, DWORD PTR ___security_cookie
  0001c	33 c5		 xor	 eax, ebp
  0001e	50		 push	 eax
  0001f	8d 45 f4	 lea	 eax, DWORD PTR __$EHRec$[ebp]
  00022	64 a3 00 00 00
	00		 mov	 DWORD PTR fs:0, eax
  00028	8b f9		 mov	 edi, ecx
  0002a	89 7d c8	 mov	 DWORD PTR _this$1$[ebp], edi

; 281  : 	CString strName;

  0002d	8d 4d ec	 lea	 ecx, DWORD PTR _strName$[ebp]
  00030	c7 45 e8 00 00
	00 00		 mov	 DWORD PTR $T12[ebp], 0
  00037	ff 15 00 00 00
	00		 call	 DWORD PTR __imp_??0?$CStringT@DV?$StrTraitMFC_DLL@DV?$ChTraitsCRT@D@ATL@@@@@ATL@@QAE@XZ
  0003d	8d 4d a4	 lea	 ecx, DWORD PTR _stData$[ebp+8]
  00040	c7 45 fc 00 00
	00 00		 mov	 DWORD PTR __$EHRec$[ebp+8], 0
  00047	ff 15 00 00 00
	00		 call	 DWORD PTR __imp_??0?$CStringT@DV?$StrTraitMFC_DLL@DV?$ChTraitsCRT@D@ATL@@@@@ATL@@QAE@XZ
  0004d	8d 4d a8	 lea	 ecx, DWORD PTR _stData$[ebp+12]
  00050	ff 15 00 00 00
	00		 call	 DWORD PTR __imp_??0?$CStringT@DV?$StrTraitMFC_DLL@DV?$ChTraitsCRT@D@ATL@@@@@ATL@@QAE@XZ
  00056	8d 4d ac	 lea	 ecx, DWORD PTR _stData$[ebp+16]
  00059	ff 15 00 00 00
	00		 call	 DWORD PTR __imp_??0?$CStringT@DV?$StrTraitMFC_DLL@DV?$ChTraitsCRT@D@ATL@@@@@ATL@@QAE@XZ
  0005f	8d 4d b0	 lea	 ecx, DWORD PTR _stData$[ebp+20]
  00062	ff 15 00 00 00
	00		 call	 DWORD PTR __imp_??0?$CStringT@DV?$StrTraitMFC_DLL@DV?$ChTraitsCRT@D@ATL@@@@@ATL@@QAE@XZ
  00068	8d 4d b4	 lea	 ecx, DWORD PTR _stData$[ebp+24]
  0006b	ff 15 00 00 00
	00		 call	 DWORD PTR __imp_??0?$CStringT@DV?$StrTraitMFC_DLL@DV?$ChTraitsCRT@D@ATL@@@@@ATL@@QAE@XZ
  00071	8d 4d b8	 lea	 ecx, DWORD PTR _stData$[ebp+28]
  00074	ff 15 00 00 00
	00		 call	 DWORD PTR __imp_??0?$CStringT@DV?$StrTraitMFC_DLL@DV?$ChTraitsCRT@D@ATL@@@@@ATL@@QAE@XZ

; 282  : 	CStrategyResult* Result;
; 283  : 	ST_DATAINDEX stData;
; 284  : 	double Data;
; 285  : 	CString strData;

  0007a	8d 4d f0	 lea	 ecx, DWORD PTR _strData$[ebp]
  0007d	ff 15 00 00 00
	00		 call	 DWORD PTR __imp_??0?$CStringT@DV?$StrTraitMFC_DLL@DV?$ChTraitsCRT@D@ATL@@@@@ATL@@QAE@XZ

; 286  : 	DWORD nFormat = DT_RIGHT|DT_VCENTER|DT_SINGLELINE|DT_NOPREFIX;// 
; 287  : 
; 288  : 	CIStrategyItem* Strate = m_pDlgAnalysis->GetStrategyItem();

  00083	8b 87 ac 00 00
	00		 mov	 eax, DWORD PTR [edi+172]
  00089	c6 45 fc 02	 mov	 BYTE PTR __$EHRec$[ebp+8], 2
  0008d	8b 98 c4 00 00
	00		 mov	 ebx, DWORD PTR [eax+196]

; 289  : 	int nSize = Strate->GetCntStrategyResult();

  00093	8b cb		 mov	 ecx, ebx
  00095	89 5d c4	 mov	 DWORD PTR _Strate$1$[ebp], ebx
  00098	8b 03		 mov	 eax, DWORD PTR [ebx]
  0009a	ff 50 48	 call	 DWORD PTR [eax+72]

; 290  : 	if(nSize > 0)

  0009d	85 c0		 test	 eax, eax
  0009f	7e 34		 jle	 SHORT $LN9@SetDataSpr

; 291  : 	{
; 292  : 		Result = Strate->GetStrategyResult(nSize-1);

  000a1	8b 13		 mov	 edx, DWORD PTR [ebx]
  000a3	48		 dec	 eax
  000a4	50		 push	 eax
  000a5	8b cb		 mov	 ecx, ebx
  000a7	ff 52 4c	 call	 DWORD PTR [edx+76]

; 293  : 		switch(Result->m_DealType) {

  000aa	8b 40 04	 mov	 eax, DWORD PTR [eax+4]
  000ad	83 f8 04	 cmp	 eax, 4
  000b0	77 31		 ja	 SHORT $LN10@SetDataSpr
  000b2	ff 24 85 00 00
	00 00		 jmp	 DWORD PTR $LN295@SetDataSpr[eax*4]
$LN12@SetDataSpr:

; 294  : 			case CStrategyResult::NONE:strName = "NONE";
; 295  : 				break;
; 296  : 			case CStrategyResult::BUY:strName  = "";

  000b9	68 00 00 00 00	 push	 OFFSET ??_C@_08BPEOHGCP@?$LI?E?$LM?v?A?x?$MA?T@

; 297  : 				break;

  000be	eb 1a		 jmp	 SHORT $LN299@SetDataSpr
$LN13@SetDataSpr:

; 298  : 			case CStrategyResult::EXITSHORT:strName  = "";

  000c0	68 00 00 00 00	 push	 OFFSET ??_C@_08OJBKHDEB@?$LI?E?$LF?$LF?C?$LL?$LL?j@

; 299  : 				break;

  000c5	eb 13		 jmp	 SHORT $LN299@SetDataSpr
$LN14@SetDataSpr:

; 300  : 			case CStrategyResult::SELL:strName  = "";

  000c7	68 00 00 00 00	 push	 OFFSET ??_C@_08DBKELDO@?$LI?E?$LF?$LF?A?x?$MA?T@

; 301  : 				break;

  000cc	eb 0c		 jmp	 SHORT $LN299@SetDataSpr
$LN15@SetDataSpr:

; 302  : 			case CStrategyResult::EXITLONG: strName = "";

  000ce	68 00 00 00 00	 push	 OFFSET ??_C@_08PFEOEOFA@?$LI?E?$LM?v?C?$LL?$LL?j@

; 303  : 				break;
; 304  : 		}
; 305  : 	}

  000d3	eb 05		 jmp	 SHORT $LN299@SetDataSpr
$LN9@SetDataSpr:

; 306  : 	else
; 307  : 		strName = "NONE";
; 308  : 
; 309  : 	m_strCurrentPos = strName;

  000d5	68 00 00 00 00	 push	 OFFSET ??_C@_04OKGDLNCL@NONE@
$LN299@SetDataSpr:
  000da	8d 4d ec	 lea	 ecx, DWORD PTR _strName$[ebp]
  000dd	ff 15 00 00 00
	00		 call	 DWORD PTR __imp_??4?$CStringT@DV?$StrTraitMFC_DLL@DV?$ChTraitsCRT@D@ATL@@@@@ATL@@QAEAAV01@PBD@Z
$LN10@SetDataSpr:
  000e3	8d 45 ec	 lea	 eax, DWORD PTR _strName$[ebp]
  000e6	50		 push	 eax
  000e7	8d 8f 58 01 00
	00		 lea	 ecx, DWORD PTR [edi+344]
  000ed	ff 15 00 00 00
	00		 call	 DWORD PTR __imp_??4?$CStringT@DV?$StrTraitMFC_DLL@DV?$ChTraitsCRT@D@ATL@@@@@ATL@@QAEAAV01@ABV01@@Z

; 310  : 	m_pDlgAnalysis->m_pdlgInfo->m_ctlstPosition.SetText(m_strCurrentPos);

  000f3	8b 87 ac 00 00
	00		 mov	 eax, DWORD PTR [edi+172]
  000f9	ff b7 58 01 00
	00		 push	 DWORD PTR [edi+344]
  000ff	8b 88 dc 00 00
	00		 mov	 ecx, DWORD PTR [eax+220]
  00105	81 c1 d0 05 00
	00		 add	 ecx, 1488		; 000005d0H
  0010b	e8 00 00 00 00	 call	 ?SetText@CExStatic@@QAEXPBD@Z ; CExStatic::SetText

; 311  : 
; 312  : 	strName = m_pDlgAnalysis->m_stSTName;

  00110	8b 87 ac 00 00
	00		 mov	 eax, DWORD PTR [edi+172]
  00116	8d 4d ec	 lea	 ecx, DWORD PTR _strName$[ebp]
  00119	05 ec 00 00 00	 add	 eax, 236		; 000000ecH
  0011e	50		 push	 eax
  0011f	ff 15 00 00 00
	00		 call	 DWORD PTR __imp_??4?$CStringT@DV?$StrTraitMFC_DLL@DV?$ChTraitsCRT@D@ATL@@@@@ATL@@QAEAAV01@ABV01@@Z

; 313  : 	m_strStrategyName = strName;

  00125	8d 45 ec	 lea	 eax, DWORD PTR _strName$[ebp]
  00128	50		 push	 eax
  00129	8d 8f 50 01 00
	00		 lea	 ecx, DWORD PTR [edi+336]
  0012f	ff 15 00 00 00
	00		 call	 DWORD PTR __imp_??4?$CStringT@DV?$StrTraitMFC_DLL@DV?$ChTraitsCRT@D@ATL@@@@@ATL@@QAEAAV01@ABV01@@Z

; 314  : 	m_pDlgAnalysis->m_pdlgInfo->m_ctlSTFILENAME.SetText(m_strStrategyName);

  00135	8b 87 ac 00 00
	00		 mov	 eax, DWORD PTR [edi+172]
  0013b	ff b7 50 01 00
	00		 push	 DWORD PTR [edi+336]
  00141	8b 88 dc 00 00
	00		 mov	 ecx, DWORD PTR [eax+220]
  00147	81 c1 48 05 00
	00		 add	 ecx, 1352		; 00000548H
  0014d	e8 00 00 00 00	 call	 ?SetText@CExStatic@@QAEXPBD@Z ; CExStatic::SetText

; 315  : 
; 316  : 	m_strItemName = m_pDlgAnalysis->m_stCodeName;

  00152	8b 87 ac 00 00
	00		 mov	 eax, DWORD PTR [edi+172]
  00158	8d 8f 4c 01 00
	00		 lea	 ecx, DWORD PTR [edi+332]
  0015e	05 e8 00 00 00	 add	 eax, 232		; 000000e8H
  00163	50		 push	 eax
  00164	ff 15 00 00 00
	00		 call	 DWORD PTR __imp_??4?$CStringT@DV?$StrTraitMFC_DLL@DV?$ChTraitsCRT@D@ATL@@@@@ATL@@QAEAAV01@ABV01@@Z

; 317  : 	m_pDlgAnalysis->m_pdlgInfo->m_ctlstName.SetText(m_strItemName);

  0016a	8b 87 ac 00 00
	00		 mov	 eax, DWORD PTR [edi+172]
  00170	ff b7 4c 01 00
	00		 push	 DWORD PTR [edi+332]
  00176	8b 88 dc 00 00
	00		 mov	 ecx, DWORD PTR [eax+220]
  0017c	81 c1 c0 04 00
	00		 add	 ecx, 1216		; 000004c0H
  00182	e8 00 00 00 00	 call	 ?SetText@CExStatic@@QAEXPBD@Z ; CExStatic::SetText

; 318  : 
; 319  : 	if(m_iDateIndex < m_pDlgAnalysis->m_stDataIndex.GetSize())

  00187	8b 8f ac 00 00
	00		 mov	 ecx, DWORD PTR [edi+172]
  0018d	8b b7 40 01 00
	00		 mov	 esi, DWORD PTR [edi+320]
  00193	3b b1 44 01 00
	00		 cmp	 esi, DWORD PTR [ecx+324]
  00199	0f 8d b2 00 00
	00		 jge	 $LN16@SetDataSpr
; File C:\Program Files (x86)\Microsoft Visual Studio\2019\Community\VC\Tools\MSVC\14.29.30133\atlmfc\include\afxtempl.h

; 288  : 	if(nIndex >= 0 && nIndex < m_nSize)

  0019f	85 f6		 test	 esi, esi
  001a1	0f 88 89 07 00
	00		 js	 $LN81@SetDataSpr

; 289  : 		return m_pData[nIndex];

  001a7	c1 e6 05	 shl	 esi, 5
  001aa	03 b1 40 01 00
	00		 add	 esi, DWORD PTR [ecx+320]
  001b0	8d 4d a4	 lea	 ecx, DWORD PTR _stData$[ebp+8]
  001b3	8b 06		 mov	 eax, DWORD PTR [esi]
  001b5	89 45 9c	 mov	 DWORD PTR _stData$[ebp], eax
  001b8	8b 46 04	 mov	 eax, DWORD PTR [esi+4]
  001bb	89 45 a0	 mov	 DWORD PTR _stData$[ebp+4], eax
  001be	8d 46 08	 lea	 eax, DWORD PTR [esi+8]
  001c1	50		 push	 eax
  001c2	ff 15 00 00 00
	00		 call	 DWORD PTR __imp_??4?$CStringT@DV?$StrTraitMFC_DLL@DV?$ChTraitsCRT@D@ATL@@@@@ATL@@QAEAAV01@ABV01@@Z
  001c8	8d 46 0c	 lea	 eax, DWORD PTR [esi+12]
  001cb	50		 push	 eax
  001cc	8d 4d a8	 lea	 ecx, DWORD PTR _stData$[ebp+12]
  001cf	ff 15 00 00 00
	00		 call	 DWORD PTR __imp_??4?$CStringT@DV?$StrTraitMFC_DLL@DV?$ChTraitsCRT@D@ATL@@@@@ATL@@QAEAAV01@ABV01@@Z
  001d5	8d 46 10	 lea	 eax, DWORD PTR [esi+16]
  001d8	50		 push	 eax
  001d9	8d 4d ac	 lea	 ecx, DWORD PTR _stData$[ebp+16]
  001dc	ff 15 00 00 00
	00		 call	 DWORD PTR __imp_??4?$CStringT@DV?$StrTraitMFC_DLL@DV?$ChTraitsCRT@D@ATL@@@@@ATL@@QAEAAV01@ABV01@@Z
  001e2	8d 46 14	 lea	 eax, DWORD PTR [esi+20]
  001e5	50		 push	 eax
  001e6	8d 4d b0	 lea	 ecx, DWORD PTR _stData$[ebp+20]
  001e9	ff 15 00 00 00
	00		 call	 DWORD PTR __imp_??4?$CStringT@DV?$StrTraitMFC_DLL@DV?$ChTraitsCRT@D@ATL@@@@@ATL@@QAEAAV01@ABV01@@Z
  001ef	8d 46 18	 lea	 eax, DWORD PTR [esi+24]
  001f2	50		 push	 eax
  001f3	8d 4d b4	 lea	 ecx, DWORD PTR _stData$[ebp+24]
  001f6	ff 15 00 00 00
	00		 call	 DWORD PTR __imp_??4?$CStringT@DV?$StrTraitMFC_DLL@DV?$ChTraitsCRT@D@ATL@@@@@ATL@@QAEAAV01@ABV01@@Z
  001fc	8d 46 1c	 lea	 eax, DWORD PTR [esi+28]
  001ff	50		 push	 eax
  00200	8d 4d b8	 lea	 ecx, DWORD PTR _stData$[ebp+28]
  00203	ff 15 00 00 00
	00		 call	 DWORD PTR __imp_??4?$CStringT@DV?$StrTraitMFC_DLL@DV?$ChTraitsCRT@D@ATL@@@@@ATL@@QAEAAV01@ABV01@@Z
; File D:\git\src\IBK\IBK_DRFN\ProjSrc\SrcDrfn\Chart\HWSTRATEGYANALYSIS\TabResult.cpp

; 322  : 		strName.Format(" [%s] %s  ~ %s", stData.strGubun, stData.strStartDate,stData.strEndDate);

  00209	ff 75 a8	 push	 DWORD PTR _stData$[ebp+12]
  0020c	8d 45 ec	 lea	 eax, DWORD PTR _strName$[ebp]
  0020f	ff 75 a4	 push	 DWORD PTR _stData$[ebp+8]
  00212	ff 75 ac	 push	 DWORD PTR _stData$[ebp+16]
  00215	68 00 00 00 00	 push	 OFFSET ??_C@_0P@DHMEDIHM@?5?$FL?$CFs?$FN?5?$CFs?5?5?$HO?5?$CFs@
  0021a	50		 push	 eax
  0021b	ff 15 00 00 00
	00		 call	 DWORD PTR __imp_?Format@?$CStringT@DV?$StrTraitMFC_DLL@DV?$ChTraitsCRT@D@ATL@@@@@ATL@@QAAXPBDZZ
  00221	83 c4 14	 add	 esp, 20			; 00000014H

; 323  : 		m_strPriod = strName;

  00224	8d 45 ec	 lea	 eax, DWORD PTR _strName$[ebp]
  00227	8d 8f 54 01 00
	00		 lea	 ecx, DWORD PTR [edi+340]
  0022d	50		 push	 eax
  0022e	ff 15 00 00 00
	00		 call	 DWORD PTR __imp_??4?$CStringT@DV?$StrTraitMFC_DLL@DV?$ChTraitsCRT@D@ATL@@@@@ATL@@QAEAAV01@ABV01@@Z

; 324  : 		m_pDlgAnalysis->m_pdlgInfo->m_ctlstPeriod.SetText(m_strPriod);

  00234	8b 87 ac 00 00
	00		 mov	 eax, DWORD PTR [edi+172]
  0023a	ff b7 54 01 00
	00		 push	 DWORD PTR [edi+340]
  00240	8b 88 dc 00 00
	00		 mov	 ecx, DWORD PTR [eax+220]
  00246	81 c1 58 06 00
	00		 add	 ecx, 1624		; 00000658H
  0024c	e8 00 00 00 00	 call	 ?SetText@CExStatic@@QAEXPBD@Z ; CExStatic::SetText
$LN16@SetDataSpr:

; 325  : 	}
; 326  : 
; 327  : 	//   
; 328  : 	Data = Strate->GetStatisticalInfo(0);

  00251	8b 03		 mov	 eax, DWORD PTR [ebx]
  00253	8b cb		 mov	 ecx, ebx
  00255	6a 00		 push	 0
  00257	8b 40 50	 mov	 eax, DWORD PTR [eax+80]
  0025a	ff d0		 call	 eax

; 329  : 	strData.Format(" %.2f", Data);

  0025c	83 ec 08	 sub	 esp, 8
  0025f	8d 45 f0	 lea	 eax, DWORD PTR _strData$[ebp]
  00262	dd 5d e4	 fstp	 QWORD PTR _Data$[ebp]
  00265	f2 0f 10 45 e4	 movsd	 xmm0, QWORD PTR _Data$[ebp]
  0026a	f2 0f 11 04 24	 movsd	 QWORD PTR [esp], xmm0
  0026f	68 00 00 00 00	 push	 OFFSET ??_C@_05BEBFNOMM@?5?$CF?42f@
  00274	50		 push	 eax
  00275	ff 15 00 00 00
	00		 call	 DWORD PTR __imp_?Format@?$CStringT@DV?$StrTraitMFC_DLL@DV?$ChTraitsCRT@D@ATL@@@@@ATL@@QAAXPBDZZ
  0027b	83 c4 10	 add	 esp, 16			; 00000010H

; 330  : 	m_strACCumProf = strData;

  0027e	8d 9f 5c 01 00
	00		 lea	 ebx, DWORD PTR [edi+348]
  00284	8d 45 f0	 lea	 eax, DWORD PTR _strData$[ebp]
  00287	89 5d c0	 mov	 DWORD PTR _str1$1$[ebp], ebx
  0028a	8b cb		 mov	 ecx, ebx
  0028c	50		 push	 eax
  0028d	ff 15 00 00 00
	00		 call	 DWORD PTR __imp_??4?$CStringT@DV?$StrTraitMFC_DLL@DV?$ChTraitsCRT@D@ATL@@@@@ATL@@QAEAAV01@ABV01@@Z
; File C:\Program Files (x86)\Microsoft Visual Studio\2019\Community\VC\Tools\MSVC\14.29.30133\atlmfc\include\cstringt.h

; 2401 : 		CStringT strResult( str1.GetManager() );

  00293	8b cb		 mov	 ecx, ebx
; File D:\git\src\IBK\IBK_DRFN\ProjSrc\SrcDrfn\Chart\HWSTRATEGYANALYSIS\TabResult.cpp

; 331  : 	m_GridResult.SetItemText(0,1,m_strACCumProf+"%",nFormat);//Grid

  00295	c6 45 fc 03	 mov	 BYTE PTR __$EHRec$[ebp+8], 3
; File C:\Program Files (x86)\Microsoft Visual Studio\2019\Community\VC\Tools\MSVC\14.29.30133\atlmfc\include\cstringt.h

; 2401 : 		CStringT strResult( str1.GetManager() );

  00299	ff 15 00 00 00
	00		 call	 DWORD PTR __imp_?GetManager@?$CStringT@DV?$StrTraitMFC_DLL@DV?$ChTraitsCRT@D@ATL@@@@@ATL@@QBEPAUIAtlStringMgr@2@XZ
  0029f	50		 push	 eax
  002a0	8d 4d e0	 lea	 ecx, DWORD PTR $T11[ebp]
  002a3	ff 15 00 00 00
	00		 call	 DWORD PTR __imp_??0?$CStringT@DV?$StrTraitMFC_DLL@DV?$ChTraitsCRT@D@ATL@@@@@ATL@@QAE@PAUIAtlStringMgr@1@@Z
; File C:\Program Files (x86)\Microsoft Visual Studio\2019\Community\VC\Tools\MSVC\14.29.30133\atlmfc\include\atlsimpstr.h

; 519  : 		return( GetData()->nDataLength );

  002a9	8b 03		 mov	 eax, DWORD PTR [ebx]
; File C:\Program Files (x86)\Microsoft Visual Studio\2019\Community\VC\Tools\MSVC\14.29.30133\atlmfc\include\cstringt.h

; 2403 : 		CThisSimpleString::Concatenate( strResult, str1, str1.GetLength(), psz2, CThisSimpleString::StringLength( psz2 ) );

  002ab	6a 01		 push	 1
  002ad	68 00 00 00 00	 push	 OFFSET ??_C@_01FGNFDNOH@?$CF@

; 2405 : 		return( strResult );

  002b2	c7 45 e8 01 00
	00 00		 mov	 DWORD PTR $T12[ebp], 1
  002b9	ff 70 f4	 push	 DWORD PTR [eax-12]
  002bc	50		 push	 eax
  002bd	8d 45 e0	 lea	 eax, DWORD PTR $T11[ebp]
  002c0	50		 push	 eax
  002c1	ff 15 00 00 00
	00		 call	 DWORD PTR __imp_?Concatenate@?$CSimpleStringT@D$00@ATL@@KAXAAV12@PBDH1H@Z
  002c7	83 c4 14	 add	 esp, 20			; 00000014H
; File D:\git\src\IBK\IBK_DRFN\ProjSrc\SrcDrfn\Chart\HWSTRATEGYANALYSIS\TabResult.cpp

; 331  : 	m_GridResult.SetItemText(0,1,m_strACCumProf+"%",nFormat);//Grid

  002ca	81 c7 88 02 00
	00		 add	 edi, 648		; 00000288H
  002d0	8b cf		 mov	 ecx, edi
  002d2	68 26 08 00 00	 push	 2086			; 00000826H
  002d7	ff 75 e0	 push	 DWORD PTR $T11[ebp]
  002da	6a 01		 push	 1
  002dc	6a 00		 push	 0
  002de	e8 00 00 00 00	 call	 ?SetItemText@CGridCtrl@@QAEHHHPBDK@Z ; CGridCtrl::SetItemText
  002e3	8d 4d e0	 lea	 ecx, DWORD PTR $T11[ebp]
  002e6	ff 15 00 00 00
	00		 call	 DWORD PTR __imp_??1?$CStringT@DV?$StrTraitMFC_DLL@DV?$ChTraitsCRT@D@ATL@@@@@ATL@@QAE@XZ
; File C:\Program Files (x86)\Microsoft Visual Studio\2019\Community\VC\Tools\MSVC\14.29.30133\atlmfc\include\cstringt.h

; 2401 : 		CStringT strResult( str1.GetManager() );

  002ec	8b cb		 mov	 ecx, ebx
; File D:\git\src\IBK\IBK_DRFN\ProjSrc\SrcDrfn\Chart\HWSTRATEGYANALYSIS\TabResult.cpp

; 332  : 	m_pDlgAnalysis->m_pdlgInfo->m_ctlstNujuk.SetText(m_strACCumProf+"%");

  002ee	c6 45 fc 04	 mov	 BYTE PTR __$EHRec$[ebp+8], 4
; File C:\Program Files (x86)\Microsoft Visual Studio\2019\Community\VC\Tools\MSVC\14.29.30133\atlmfc\include\cstringt.h

; 2401 : 		CStringT strResult( str1.GetManager() );

  002f2	ff 15 00 00 00
	00		 call	 DWORD PTR __imp_?GetManager@?$CStringT@DV?$StrTraitMFC_DLL@DV?$ChTraitsCRT@D@ATL@@@@@ATL@@QBEPAUIAtlStringMgr@2@XZ
  002f8	50		 push	 eax
  002f9	8d 4d e0	 lea	 ecx, DWORD PTR $T10[ebp]
  002fc	ff 15 00 00 00
	00		 call	 DWORD PTR __imp_??0?$CStringT@DV?$StrTraitMFC_DLL@DV?$ChTraitsCRT@D@ATL@@@@@ATL@@QAE@PAUIAtlStringMgr@1@@Z
; File C:\Program Files (x86)\Microsoft Visual Studio\2019\Community\VC\Tools\MSVC\14.29.30133\atlmfc\include\atlsimpstr.h

; 519  : 		return( GetData()->nDataLength );

  00302	8b 03		 mov	 eax, DWORD PTR [ebx]
; File C:\Program Files (x86)\Microsoft Visual Studio\2019\Community\VC\Tools\MSVC\14.29.30133\atlmfc\include\cstringt.h

; 2403 : 		CThisSimpleString::Concatenate( strResult, str1, str1.GetLength(), psz2, CThisSimpleString::StringLength( psz2 ) );

  00304	6a 01		 push	 1
  00306	68 00 00 00 00	 push	 OFFSET ??_C@_01FGNFDNOH@?$CF@

; 2405 : 		return( strResult );

  0030b	c7 45 e8 02 00
	00 00		 mov	 DWORD PTR $T12[ebp], 2
  00312	ff 70 f4	 push	 DWORD PTR [eax-12]
  00315	50		 push	 eax
  00316	8d 45 e0	 lea	 eax, DWORD PTR $T10[ebp]
  00319	50		 push	 eax
  0031a	ff 15 00 00 00
	00		 call	 DWORD PTR __imp_?Concatenate@?$CSimpleStringT@D$00@ATL@@KAXAAV12@PBDH1H@Z
; File D:\git\src\IBK\IBK_DRFN\ProjSrc\SrcDrfn\Chart\HWSTRATEGYANALYSIS\TabResult.cpp

; 332  : 	m_pDlgAnalysis->m_pdlgInfo->m_ctlstNujuk.SetText(m_strACCumProf+"%");

  00320	8b 45 c8	 mov	 eax, DWORD PTR _this$1$[ebp]
; File C:\Program Files (x86)\Microsoft Visual Studio\2019\Community\VC\Tools\MSVC\14.29.30133\atlmfc\include\cstringt.h

; 2403 : 		CThisSimpleString::Concatenate( strResult, str1, str1.GetLength(), psz2, CThisSimpleString::StringLength( psz2 ) );

  00323	83 c4 14	 add	 esp, 20			; 00000014H
; File D:\git\src\IBK\IBK_DRFN\ProjSrc\SrcDrfn\Chart\HWSTRATEGYANALYSIS\TabResult.cpp

; 332  : 	m_pDlgAnalysis->m_pdlgInfo->m_ctlstNujuk.SetText(m_strACCumProf+"%");

  00326	8b 80 ac 00 00
	00		 mov	 eax, DWORD PTR [eax+172]
  0032c	ff 75 e0	 push	 DWORD PTR $T10[ebp]
  0032f	8b 88 dc 00 00
	00		 mov	 ecx, DWORD PTR [eax+220]
  00335	81 c1 e0 06 00
	00		 add	 ecx, 1760		; 000006e0H
  0033b	e8 00 00 00 00	 call	 ?SetText@CExStatic@@QAEXPBD@Z ; CExStatic::SetText
  00340	8d 4d e0	 lea	 ecx, DWORD PTR $T10[ebp]
  00343	c6 45 fc 02	 mov	 BYTE PTR __$EHRec$[ebp+8], 2
  00347	33 db		 xor	 ebx, ebx
  00349	ff 15 00 00 00
	00		 call	 DWORD PTR __imp_??1?$CStringT@DV?$StrTraitMFC_DLL@DV?$ChTraitsCRT@D@ATL@@@@@ATL@@QAE@XZ

; 333  : 	
; 334  : 	///////////////////////
; 335  : 	////   : 8  6   //////////////////////////////////////////////////////////////	
; 336  : 	
; 337  : 	for(int i = 1; i<MAXDATANUM;i++)

  0034f	be 01 00 00 00	 mov	 esi, 1
$LL6@SetDataSpr:

; 338  : 	{
; 339  : 		if(i==14) continue;//   .

  00354	83 fe 0e	 cmp	 esi, 14			; 0000000eH
  00357	0f 84 68 05 00
	00		 je	 $LN4@SetDataSpr

; 340  : 		if(i==24)// : -  !

  0035d	83 fe 18	 cmp	 esi, 24			; 00000018H
  00360	75 7f		 jne	 SHORT $LN18@SetDataSpr

; 341  : 		{
; 342  : 			Data =atof(m_strACCumProf)-Strate->GetStatisticalInfo(21);

  00362	8b 45 c0	 mov	 eax, DWORD PTR _str1$1$[ebp]
  00365	ff 30		 push	 DWORD PTR [eax]
  00367	ff 15 00 00 00
	00		 call	 DWORD PTR __imp__atof
  0036d	8b 4d c4	 mov	 ecx, DWORD PTR _Strate$1$[ebp]
  00370	83 c4 04	 add	 esp, 4
  00373	dd 5d e4	 fstp	 QWORD PTR tv1551[ebp]
  00376	8b 01		 mov	 eax, DWORD PTR [ecx]
  00378	6a 15		 push	 21			; 00000015H
  0037a	8b 40 50	 mov	 eax, DWORD PTR [eax+80]
  0037d	ff d0		 call	 eax
  0037f	dc 6d e4	 fsubr	 QWORD PTR tv1551[ebp]
  00382	dd 5d e4	 fstp	 QWORD PTR _Data$[ebp]
$LN22@SetDataSpr:

; 348  : 			strData.Format("%.2f", Data);

  00385	f2 0f 10 45 e4	 movsd	 xmm0, QWORD PTR _Data$[ebp]
  0038a	8d 45 f0	 lea	 eax, DWORD PTR _strData$[ebp]
  0038d	83 ec 08	 sub	 esp, 8
  00390	f2 0f 11 04 24	 movsd	 QWORD PTR [esp], xmm0
  00395	68 00 00 00 00	 push	 OFFSET ??_C@_04GEFJINEE@?$CF?42f@
  0039a	50		 push	 eax
  0039b	ff 15 00 00 00
	00		 call	 DWORD PTR __imp_?Format@?$CStringT@DV?$StrTraitMFC_DLL@DV?$ChTraitsCRT@D@ATL@@@@@ATL@@QAAXPBDZZ
  003a1	83 c4 10	 add	 esp, 16			; 00000010H
$LN21@SetDataSpr:

; 352  : 		}
; 353  : 		strData = GetComma(strData);//Comma

  003a4	ff 75 f0	 push	 DWORD PTR _strData$[ebp]
  003a7	8d 45 bc	 lea	 eax, DWORD PTR $T2[ebp]
  003aa	50		 push	 eax
  003ab	e8 00 00 00 00	 call	 ?GetComma@CDlgInterface@@SA?AV?$CStringT@DV?$StrTraitMFC_DLL@DV?$ChTraitsCRT@D@ATL@@@@@ATL@@PBD@Z ; CDlgInterface::GetComma
  003b0	83 c4 08	 add	 esp, 8
  003b3	50		 push	 eax
  003b4	8d 4d f0	 lea	 ecx, DWORD PTR _strData$[ebp]
  003b7	c6 45 fc 05	 mov	 BYTE PTR __$EHRec$[ebp+8], 5
  003bb	ff 15 00 00 00
	00		 call	 DWORD PTR __imp_??4?$CStringT@DV?$StrTraitMFC_DLL@DV?$ChTraitsCRT@D@ATL@@@@@ATL@@QAEAAV01@ABV01@@Z
  003c1	8d 4d bc	 lea	 ecx, DWORD PTR $T2[ebp]
  003c4	c6 45 fc 02	 mov	 BYTE PTR __$EHRec$[ebp+8], 2
  003c8	ff 15 00 00 00
	00		 call	 DWORD PTR __imp_??1?$CStringT@DV?$StrTraitMFC_DLL@DV?$ChTraitsCRT@D@ATL@@@@@ATL@@QAE@XZ

; 354  : 
; 355  : 		switch(i) 

  003ce	8d 46 ff	 lea	 eax, DWORD PTR [esi-1]
  003d1	83 f8 22	 cmp	 eax, 34			; 00000022H
  003d4	0f 87 eb 04 00
	00		 ja	 $LN4@SetDataSpr
  003da	ff 24 85 00 00
	00 00		 jmp	 DWORD PTR $LN296@SetDataSpr[eax*4]
$LN18@SetDataSpr:

; 343  : 		}
; 344  : 		else
; 345  : 			Data = Strate->GetStatisticalInfo(i);

  003e1	8b 4d c4	 mov	 ecx, DWORD PTR _Strate$1$[ebp]
  003e4	56		 push	 esi
  003e5	8b 01		 mov	 eax, DWORD PTR [ecx]
  003e7	8b 40 50	 mov	 eax, DWORD PTR [eax+80]
  003ea	ff d0		 call	 eax
  003ec	dd 5d e4	 fstp	 QWORD PTR _Data$[ebp]

; 346  : 		//   Default!! 
; 347  : 		if(i==1||i==2||i==6||i==18||i==19||i==20||i==21||i==24||i==30||i==33||i==34||i==35)

  003ef	83 fe 01	 cmp	 esi, 1
  003f2	74 91		 je	 SHORT $LN22@SetDataSpr
  003f4	83 fe 02	 cmp	 esi, 2
  003f7	74 8c		 je	 SHORT $LN22@SetDataSpr
  003f9	83 fe 06	 cmp	 esi, 6
  003fc	74 87		 je	 SHORT $LN22@SetDataSpr
  003fe	83 fe 12	 cmp	 esi, 18			; 00000012H
  00401	74 82		 je	 SHORT $LN22@SetDataSpr
  00403	83 fe 13	 cmp	 esi, 19			; 00000013H
  00406	0f 84 79 ff ff
	ff		 je	 $LN22@SetDataSpr
  0040c	83 fe 14	 cmp	 esi, 20			; 00000014H
  0040f	0f 84 70 ff ff
	ff		 je	 $LN22@SetDataSpr
  00415	83 fe 15	 cmp	 esi, 21			; 00000015H
  00418	0f 84 67 ff ff
	ff		 je	 $LN22@SetDataSpr
  0041e	83 fe 1e	 cmp	 esi, 30			; 0000001eH
  00421	0f 84 5e ff ff
	ff		 je	 $LN22@SetDataSpr
  00427	83 fe 21	 cmp	 esi, 33			; 00000021H
  0042a	0f 84 55 ff ff
	ff		 je	 $LN22@SetDataSpr
  00430	83 fe 22	 cmp	 esi, 34			; 00000022H
  00433	0f 84 4c ff ff
	ff		 je	 $LN22@SetDataSpr
  00439	83 fe 23	 cmp	 esi, 35			; 00000023H
  0043c	0f 84 43 ff ff
	ff		 je	 $LN22@SetDataSpr

; 349  : 		else
; 350  : 		{
; 351  : 			strData.Format("%d", (INT)Data);

  00442	f2 0f 2c 45 e4	 cvttsd2si eax, QWORD PTR _Data$[ebp]
  00447	50		 push	 eax
  00448	8d 45 f0	 lea	 eax, DWORD PTR _strData$[ebp]
  0044b	68 00 00 00 00	 push	 OFFSET ??_C@_02DPKJAMEF@?$CFd@
  00450	50		 push	 eax
  00451	ff 15 00 00 00
	00		 call	 DWORD PTR __imp_?Format@?$CStringT@DV?$StrTraitMFC_DLL@DV?$ChTraitsCRT@D@ATL@@@@@ATL@@QAAXPBDZZ
  00457	83 c4 0c	 add	 esp, 12			; 0000000cH
  0045a	e9 45 ff ff ff	 jmp	 $LN21@SetDataSpr
$LN23@SetDataSpr:
; File C:\Program Files (x86)\Microsoft Visual Studio\2019\Community\VC\Tools\MSVC\14.29.30133\atlmfc\include\cstringt.h

; 2401 : 		CStringT strResult( str1.GetManager() );

  0045f	8d 4d f0	 lea	 ecx, DWORD PTR _strData$[ebp]
; File D:\git\src\IBK\IBK_DRFN\ProjSrc\SrcDrfn\Chart\HWSTRATEGYANALYSIS\TabResult.cpp

; 358  : 				m_GridResult.SetItemText(0,3,strData+"%",nFormat);//Grid

  00462	c6 45 fc 06	 mov	 BYTE PTR __$EHRec$[ebp+8], 6
; File C:\Program Files (x86)\Microsoft Visual Studio\2019\Community\VC\Tools\MSVC\14.29.30133\atlmfc\include\cstringt.h

; 2401 : 		CStringT strResult( str1.GetManager() );

  00466	ff 15 00 00 00
	00		 call	 DWORD PTR __imp_?GetManager@?$CStringT@DV?$StrTraitMFC_DLL@DV?$ChTraitsCRT@D@ATL@@@@@ATL@@QBEPAUIAtlStringMgr@2@XZ
  0046c	50		 push	 eax
  0046d	8d 4d e0	 lea	 ecx, DWORD PTR $T9[ebp]
  00470	ff 15 00 00 00
	00		 call	 DWORD PTR __imp_??0?$CStringT@DV?$StrTraitMFC_DLL@DV?$ChTraitsCRT@D@ATL@@@@@ATL@@QAE@PAUIAtlStringMgr@1@@Z
; File C:\Program Files (x86)\Microsoft Visual Studio\2019\Community\VC\Tools\MSVC\14.29.30133\atlmfc\include\atlsimpstr.h

; 519  : 		return( GetData()->nDataLength );

  00476	8b 45 f0	 mov	 eax, DWORD PTR _strData$[ebp]
; File C:\Program Files (x86)\Microsoft Visual Studio\2019\Community\VC\Tools\MSVC\14.29.30133\atlmfc\include\cstringt.h

; 2405 : 		return( strResult );

  00479	83 cb 04	 or	 ebx, 4
  0047c	6a 01		 push	 1
  0047e	68 00 00 00 00	 push	 OFFSET ??_C@_01FGNFDNOH@?$CF@
  00483	89 5d e8	 mov	 DWORD PTR $T12[ebp], ebx
  00486	ff 70 f4	 push	 DWORD PTR [eax-12]
  00489	50		 push	 eax
  0048a	8d 45 e0	 lea	 eax, DWORD PTR $T9[ebp]
  0048d	50		 push	 eax
  0048e	ff 15 00 00 00
	00		 call	 DWORD PTR __imp_?Concatenate@?$CSimpleStringT@D$00@ATL@@KAXAAV12@PBDH1H@Z
  00494	83 c4 14	 add	 esp, 20			; 00000014H
; File D:\git\src\IBK\IBK_DRFN\ProjSrc\SrcDrfn\Chart\HWSTRATEGYANALYSIS\TabResult.cpp

; 358  : 				m_GridResult.SetItemText(0,3,strData+"%",nFormat);//Grid

  00497	8b cf		 mov	 ecx, edi
  00499	68 26 08 00 00	 push	 2086			; 00000826H
  0049e	ff 75 e0	 push	 DWORD PTR $T9[ebp]
  004a1	6a 03		 push	 3
  004a3	6a 00		 push	 0
  004a5	e8 00 00 00 00	 call	 ?SetItemText@CGridCtrl@@QAEHHHPBDK@Z ; CGridCtrl::SetItemText
  004aa	8d 4d e0	 lea	 ecx, DWORD PTR $T9[ebp]
  004ad	c6 45 fc 02	 mov	 BYTE PTR __$EHRec$[ebp+8], 2
  004b1	83 e3 fb	 and	 ebx, -5			; fffffffbH
  004b4	ff 15 00 00 00
	00		 call	 DWORD PTR __imp_??1?$CStringT@DV?$StrTraitMFC_DLL@DV?$ChTraitsCRT@D@ATL@@@@@ATL@@QAE@XZ

; 359  : 			break;

  004ba	e9 06 04 00 00	 jmp	 $LN4@SetDataSpr
$LN24@SetDataSpr:
; File C:\Program Files (x86)\Microsoft Visual Studio\2019\Community\VC\Tools\MSVC\14.29.30133\atlmfc\include\cstringt.h

; 2401 : 		CStringT strResult( str1.GetManager() );

  004bf	8d 4d f0	 lea	 ecx, DWORD PTR _strData$[ebp]
; File D:\git\src\IBK\IBK_DRFN\ProjSrc\SrcDrfn\Chart\HWSTRATEGYANALYSIS\TabResult.cpp

; 361  : 				m_GridResult.SetItemText(0,5,strData+"%",nFormat);//Grid		

  004c2	c6 45 fc 07	 mov	 BYTE PTR __$EHRec$[ebp+8], 7
; File C:\Program Files (x86)\Microsoft Visual Studio\2019\Community\VC\Tools\MSVC\14.29.30133\atlmfc\include\cstringt.h

; 2401 : 		CStringT strResult( str1.GetManager() );

  004c6	ff 15 00 00 00
	00		 call	 DWORD PTR __imp_?GetManager@?$CStringT@DV?$StrTraitMFC_DLL@DV?$ChTraitsCRT@D@ATL@@@@@ATL@@QBEPAUIAtlStringMgr@2@XZ
  004cc	50		 push	 eax
  004cd	8d 4d dc	 lea	 ecx, DWORD PTR $T8[ebp]
  004d0	ff 15 00 00 00
	00		 call	 DWORD PTR __imp_??0?$CStringT@DV?$StrTraitMFC_DLL@DV?$ChTraitsCRT@D@ATL@@@@@ATL@@QAE@PAUIAtlStringMgr@1@@Z
; File C:\Program Files (x86)\Microsoft Visual Studio\2019\Community\VC\Tools\MSVC\14.29.30133\atlmfc\include\atlsimpstr.h

; 519  : 		return( GetData()->nDataLength );

  004d6	8b 45 f0	 mov	 eax, DWORD PTR _strData$[ebp]
; File C:\Program Files (x86)\Microsoft Visual Studio\2019\Community\VC\Tools\MSVC\14.29.30133\atlmfc\include\cstringt.h

; 2405 : 		return( strResult );

  004d9	83 cb 08	 or	 ebx, 8
  004dc	6a 01		 push	 1
  004de	68 00 00 00 00	 push	 OFFSET ??_C@_01FGNFDNOH@?$CF@
  004e3	89 5d e8	 mov	 DWORD PTR $T12[ebp], ebx
  004e6	ff 70 f4	 push	 DWORD PTR [eax-12]
  004e9	50		 push	 eax
  004ea	8d 45 dc	 lea	 eax, DWORD PTR $T8[ebp]
  004ed	50		 push	 eax
  004ee	ff 15 00 00 00
	00		 call	 DWORD PTR __imp_?Concatenate@?$CSimpleStringT@D$00@ATL@@KAXAAV12@PBDH1H@Z
  004f4	83 c4 14	 add	 esp, 20			; 00000014H
; File D:\git\src\IBK\IBK_DRFN\ProjSrc\SrcDrfn\Chart\HWSTRATEGYANALYSIS\TabResult.cpp

; 361  : 				m_GridResult.SetItemText(0,5,strData+"%",nFormat);//Grid		

  004f7	8b cf		 mov	 ecx, edi
  004f9	68 26 08 00 00	 push	 2086			; 00000826H
  004fe	ff 75 dc	 push	 DWORD PTR $T8[ebp]
  00501	6a 05		 push	 5
  00503	6a 00		 push	 0
  00505	e8 00 00 00 00	 call	 ?SetItemText@CGridCtrl@@QAEHHHPBDK@Z ; CGridCtrl::SetItemText
  0050a	8d 4d dc	 lea	 ecx, DWORD PTR $T8[ebp]
  0050d	c6 45 fc 02	 mov	 BYTE PTR __$EHRec$[ebp+8], 2
  00511	83 e3 f7	 and	 ebx, -9			; fffffff7H
  00514	ff 15 00 00 00
	00		 call	 DWORD PTR __imp_??1?$CStringT@DV?$StrTraitMFC_DLL@DV?$ChTraitsCRT@D@ATL@@@@@ATL@@QAE@XZ

; 362  : 			break;

  0051a	e9 a6 03 00 00	 jmp	 $LN4@SetDataSpr
$LN25@SetDataSpr:

; 363  : 		case PROFITLOSSALL:
; 364  : 				m_GridResult.SetItemText(1,1,strData,nFormat);//Grid

  0051f	68 26 08 00 00	 push	 2086			; 00000826H
  00524	ff 75 f0	 push	 DWORD PTR _strData$[ebp]
  00527	6a 01		 push	 1
  00529	6a 01		 push	 1

; 365  : 			break;

  0052b	e9 8e 03 00 00	 jmp	 $LN300@SetDataSpr
$LN26@SetDataSpr:

; 366  : 		case PROFITALL:
; 367  : 				m_GridResult.SetItemText(1,3,strData,nFormat);//Grid

  00530	68 26 08 00 00	 push	 2086			; 00000826H
  00535	ff 75 f0	 push	 DWORD PTR _strData$[ebp]
  00538	6a 03		 push	 3
  0053a	6a 01		 push	 1

; 368  : 			break;

  0053c	e9 7d 03 00 00	 jmp	 $LN300@SetDataSpr
$LN27@SetDataSpr:

; 369  : 		case LOSSALL:
; 370  : 				m_GridResult.SetItemText(1,5,strData,nFormat);//Grid

  00541	68 26 08 00 00	 push	 2086			; 00000826H
  00546	ff 75 f0	 push	 DWORD PTR _strData$[ebp]
  00549	6a 05		 push	 5
  0054b	6a 01		 push	 1

; 371  : 			break;

  0054d	e9 6c 03 00 00	 jmp	 $LN300@SetDataSpr
$LN28@SetDataSpr:

; 372  : 		case PROFITLOSSRATEALL:
; 373  : 				m_GridResult.SetItemText(2,1,strData,nFormat);//Grid

  00552	68 26 08 00 00	 push	 2086			; 00000826H
  00557	ff 75 f0	 push	 DWORD PTR _strData$[ebp]
  0055a	6a 01		 push	 1
  0055c	6a 02		 push	 2

; 374  : 			break;

  0055e	e9 5b 03 00 00	 jmp	 $LN300@SetDataSpr
$LN29@SetDataSpr:

; 375  : 		case MAXPROFIT:
; 376  : 				m_GridResult.SetItemText(2,3,strData,nFormat);//Gridi

  00563	68 26 08 00 00	 push	 2086			; 00000826H
  00568	ff 75 f0	 push	 DWORD PTR _strData$[ebp]
  0056b	6a 03		 push	 3
  0056d	6a 02		 push	 2

; 377  : 			break;

  0056f	e9 4a 03 00 00	 jmp	 $LN300@SetDataSpr
$LN30@SetDataSpr:

; 378  : 		case MAXLOSS:
; 379  : 				m_GridResult.SetItemText(2,5,strData,nFormat);//Grid

  00574	68 26 08 00 00	 push	 2086			; 00000826H
  00579	ff 75 f0	 push	 DWORD PTR _strData$[ebp]
  0057c	6a 05		 push	 5
  0057e	6a 02		 push	 2

; 380  : 			break;

  00580	e9 39 03 00 00	 jmp	 $LN300@SetDataSpr
$LN31@SetDataSpr:

; 381  : 		case PROFITLOSSAVG:
; 382  : 				m_GridResult.SetItemText(3,1,strData,nFormat);//Grid

  00585	68 26 08 00 00	 push	 2086			; 00000826H
  0058a	ff 75 f0	 push	 DWORD PTR _strData$[ebp]
  0058d	6a 01		 push	 1
  0058f	6a 03		 push	 3

; 383  : 			break;

  00591	e9 28 03 00 00	 jmp	 $LN300@SetDataSpr
$LN32@SetDataSpr:

; 384  : 		case PROFITAVG:
; 385  : 				m_GridResult.SetItemText(3,3,strData,nFormat);//Grid

  00596	68 26 08 00 00	 push	 2086			; 00000826H
  0059b	ff 75 f0	 push	 DWORD PTR _strData$[ebp]
  0059e	6a 03		 push	 3
  005a0	6a 03		 push	 3

; 386  : 			break;

  005a2	e9 17 03 00 00	 jmp	 $LN300@SetDataSpr
$LN33@SetDataSpr:

; 387  : 		case LOSSAVG:
; 388  : 				m_GridResult.SetItemText(3,5,strData,nFormat);//Grid

  005a7	68 26 08 00 00	 push	 2086			; 00000826H
  005ac	ff 75 f0	 push	 DWORD PTR _strData$[ebp]
  005af	6a 05		 push	 5
  005b1	6a 03		 push	 3

; 389  : 			break;

  005b3	e9 06 03 00 00	 jmp	 $LN300@SetDataSpr
$LN34@SetDataSpr:

; 390  : 		case AMOUNTENTEREDALL:
; 391  : 				m_GridResult.SetItemText(4,1,strData,nFormat);//Grid

  005b8	68 26 08 00 00	 push	 2086			; 00000826H
  005bd	ff 75 f0	 push	 DWORD PTR _strData$[ebp]
  005c0	6a 01		 push	 1
  005c2	6a 04		 push	 4

; 392  : 			break;

  005c4	e9 f5 02 00 00	 jmp	 $LN300@SetDataSpr
$LN35@SetDataSpr:

; 393  : 		case AMOUNTEXITALL:
; 394  : 				m_GridResult.SetItemText(4,3,strData,nFormat);//Grid

  005c9	68 26 08 00 00	 push	 2086			; 00000826H
  005ce	ff 75 f0	 push	 DWORD PTR _strData$[ebp]
  005d1	6a 03		 push	 3
  005d3	6a 04		 push	 4

; 395  : 			break;

  005d5	e9 e4 02 00 00	 jmp	 $LN300@SetDataSpr
$LN36@SetDataSpr:

; 396  : 		//  
; 397  : 		case CNTALL:
; 398  : 				m_GridResult.SetItemText(6,1,strData,nFormat);//Grid

  005da	68 26 08 00 00	 push	 2086			; 00000826H
  005df	ff 75 f0	 push	 DWORD PTR _strData$[ebp]
  005e2	6a 01		 push	 1
  005e4	6a 06		 push	 6

; 399  : 			break;

  005e6	e9 d3 02 00 00	 jmp	 $LN300@SetDataSpr
$LN37@SetDataSpr:

; 400  : 		case CNTPROFIT:
; 401  : 				m_GridResult.SetItemText(6,3,strData,nFormat);//Grid

  005eb	68 26 08 00 00	 push	 2086			; 00000826H
  005f0	ff 75 f0	 push	 DWORD PTR _strData$[ebp]
  005f3	6a 03		 push	 3
  005f5	6a 06		 push	 6

; 402  : 			break;

  005f7	e9 c2 02 00 00	 jmp	 $LN300@SetDataSpr
$LN38@SetDataSpr:

; 403  : 		case CNTLOSS:
; 404  : 				m_GridResult.SetItemText(6,5,strData,nFormat);//Grid

  005fc	68 26 08 00 00	 push	 2086			; 00000826H
  00601	ff 75 f0	 push	 DWORD PTR _strData$[ebp]
  00604	6a 05		 push	 5
  00606	6a 06		 push	 6

; 405  : 			break;

  00608	e9 b1 02 00 00	 jmp	 $LN300@SetDataSpr
$LN39@SetDataSpr:

; 406  : 		case RATEPROFITLOSS:
; 407  : 				m_GridResult.SetItemText(7,1,strData,nFormat);//Grid

  0060d	68 26 08 00 00	 push	 2086			; 00000826H
  00612	ff 75 f0	 push	 DWORD PTR _strData$[ebp]
  00615	6a 01		 push	 1
  00617	6a 07		 push	 7

; 408  : 			break;

  00619	e9 a0 02 00 00	 jmp	 $LN300@SetDataSpr
$LN40@SetDataSpr:
; File C:\Program Files (x86)\Microsoft Visual Studio\2019\Community\VC\Tools\MSVC\14.29.30133\atlmfc\include\cstringt.h

; 2401 : 		CStringT strResult( str1.GetManager() );

  0061e	8d 4d f0	 lea	 ecx, DWORD PTR _strData$[ebp]
; File D:\git\src\IBK\IBK_DRFN\ProjSrc\SrcDrfn\Chart\HWSTRATEGYANALYSIS\TabResult.cpp

; 410  : 				m_GridResult.SetItemText(7,3,strData+"%",nFormat);//Grid

  00621	c6 45 fc 08	 mov	 BYTE PTR __$EHRec$[ebp+8], 8
; File C:\Program Files (x86)\Microsoft Visual Studio\2019\Community\VC\Tools\MSVC\14.29.30133\atlmfc\include\cstringt.h

; 2401 : 		CStringT strResult( str1.GetManager() );

  00625	ff 15 00 00 00
	00		 call	 DWORD PTR __imp_?GetManager@?$CStringT@DV?$StrTraitMFC_DLL@DV?$ChTraitsCRT@D@ATL@@@@@ATL@@QBEPAUIAtlStringMgr@2@XZ
  0062b	50		 push	 eax
  0062c	8d 4d d8	 lea	 ecx, DWORD PTR $T7[ebp]
  0062f	ff 15 00 00 00
	00		 call	 DWORD PTR __imp_??0?$CStringT@DV?$StrTraitMFC_DLL@DV?$ChTraitsCRT@D@ATL@@@@@ATL@@QAE@PAUIAtlStringMgr@1@@Z
; File C:\Program Files (x86)\Microsoft Visual Studio\2019\Community\VC\Tools\MSVC\14.29.30133\atlmfc\include\atlsimpstr.h

; 519  : 		return( GetData()->nDataLength );

  00635	8b 45 f0	 mov	 eax, DWORD PTR _strData$[ebp]
; File C:\Program Files (x86)\Microsoft Visual Studio\2019\Community\VC\Tools\MSVC\14.29.30133\atlmfc\include\cstringt.h

; 2405 : 		return( strResult );

  00638	83 cb 10	 or	 ebx, 16			; 00000010H
  0063b	6a 01		 push	 1
  0063d	68 00 00 00 00	 push	 OFFSET ??_C@_01FGNFDNOH@?$CF@
  00642	89 5d e8	 mov	 DWORD PTR $T12[ebp], ebx
  00645	ff 70 f4	 push	 DWORD PTR [eax-12]
  00648	50		 push	 eax
  00649	8d 45 d8	 lea	 eax, DWORD PTR $T7[ebp]
  0064c	50		 push	 eax
  0064d	ff 15 00 00 00
	00		 call	 DWORD PTR __imp_?Concatenate@?$CSimpleStringT@D$00@ATL@@KAXAAV12@PBDH1H@Z
  00653	83 c4 14	 add	 esp, 20			; 00000014H
; File D:\git\src\IBK\IBK_DRFN\ProjSrc\SrcDrfn\Chart\HWSTRATEGYANALYSIS\TabResult.cpp

; 410  : 				m_GridResult.SetItemText(7,3,strData+"%",nFormat);//Grid

  00656	8b cf		 mov	 ecx, edi
  00658	68 26 08 00 00	 push	 2086			; 00000826H
  0065d	ff 75 d8	 push	 DWORD PTR $T7[ebp]
  00660	6a 03		 push	 3
  00662	6a 07		 push	 7
  00664	e8 00 00 00 00	 call	 ?SetItemText@CGridCtrl@@QAEHHHPBDK@Z ; CGridCtrl::SetItemText
  00669	8d 4d d8	 lea	 ecx, DWORD PTR $T7[ebp]
  0066c	c6 45 fc 02	 mov	 BYTE PTR __$EHRec$[ebp+8], 2
  00670	83 e3 ef	 and	 ebx, -17		; ffffffefH
  00673	ff 15 00 00 00
	00		 call	 DWORD PTR __imp_??1?$CStringT@DV?$StrTraitMFC_DLL@DV?$ChTraitsCRT@D@ATL@@@@@ATL@@QAE@XZ

; 411  : 			break;

  00679	e9 47 02 00 00	 jmp	 $LN4@SetDataSpr
$LN41@SetDataSpr:
; File C:\Program Files (x86)\Microsoft Visual Studio\2019\Community\VC\Tools\MSVC\14.29.30133\atlmfc\include\cstringt.h

; 2401 : 		CStringT strResult( str1.GetManager() );

  0067e	8d 4d f0	 lea	 ecx, DWORD PTR _strData$[ebp]
; File D:\git\src\IBK\IBK_DRFN\ProjSrc\SrcDrfn\Chart\HWSTRATEGYANALYSIS\TabResult.cpp

; 413  : 				m_GridResult.SetItemText(7,5,strData+"%",nFormat);//Grid

  00681	c6 45 fc 09	 mov	 BYTE PTR __$EHRec$[ebp+8], 9
; File C:\Program Files (x86)\Microsoft Visual Studio\2019\Community\VC\Tools\MSVC\14.29.30133\atlmfc\include\cstringt.h

; 2401 : 		CStringT strResult( str1.GetManager() );

  00685	ff 15 00 00 00
	00		 call	 DWORD PTR __imp_?GetManager@?$CStringT@DV?$StrTraitMFC_DLL@DV?$ChTraitsCRT@D@ATL@@@@@ATL@@QBEPAUIAtlStringMgr@2@XZ
  0068b	50		 push	 eax
  0068c	8d 4d d4	 lea	 ecx, DWORD PTR $T6[ebp]
  0068f	ff 15 00 00 00
	00		 call	 DWORD PTR __imp_??0?$CStringT@DV?$StrTraitMFC_DLL@DV?$ChTraitsCRT@D@ATL@@@@@ATL@@QAE@PAUIAtlStringMgr@1@@Z
; File C:\Program Files (x86)\Microsoft Visual Studio\2019\Community\VC\Tools\MSVC\14.29.30133\atlmfc\include\atlsimpstr.h

; 519  : 		return( GetData()->nDataLength );

  00695	8b 45 f0	 mov	 eax, DWORD PTR _strData$[ebp]
; File C:\Program Files (x86)\Microsoft Visual Studio\2019\Community\VC\Tools\MSVC\14.29.30133\atlmfc\include\cstringt.h

; 2405 : 		return( strResult );

  00698	83 cb 20	 or	 ebx, 32			; 00000020H
  0069b	6a 01		 push	 1
  0069d	68 00 00 00 00	 push	 OFFSET ??_C@_01FGNFDNOH@?$CF@
  006a2	89 5d e8	 mov	 DWORD PTR $T12[ebp], ebx
  006a5	ff 70 f4	 push	 DWORD PTR [eax-12]
  006a8	50		 push	 eax
  006a9	8d 45 d4	 lea	 eax, DWORD PTR $T6[ebp]
  006ac	50		 push	 eax
  006ad	ff 15 00 00 00
	00		 call	 DWORD PTR __imp_?Concatenate@?$CSimpleStringT@D$00@ATL@@KAXAAV12@PBDH1H@Z
  006b3	83 c4 14	 add	 esp, 20			; 00000014H
; File D:\git\src\IBK\IBK_DRFN\ProjSrc\SrcDrfn\Chart\HWSTRATEGYANALYSIS\TabResult.cpp

; 413  : 				m_GridResult.SetItemText(7,5,strData+"%",nFormat);//Grid

  006b6	8b cf		 mov	 ecx, edi
  006b8	68 26 08 00 00	 push	 2086			; 00000826H
  006bd	ff 75 d4	 push	 DWORD PTR $T6[ebp]
  006c0	6a 05		 push	 5
  006c2	6a 07		 push	 7
  006c4	e8 00 00 00 00	 call	 ?SetItemText@CGridCtrl@@QAEHHHPBDK@Z ; CGridCtrl::SetItemText
  006c9	8d 4d d4	 lea	 ecx, DWORD PTR $T6[ebp]
  006cc	c6 45 fc 02	 mov	 BYTE PTR __$EHRec$[ebp+8], 2
  006d0	83 e3 df	 and	 ebx, -33		; ffffffdfH
  006d3	ff 15 00 00 00
	00		 call	 DWORD PTR __imp_??1?$CStringT@DV?$StrTraitMFC_DLL@DV?$ChTraitsCRT@D@ATL@@@@@ATL@@QAE@XZ

; 414  : 			break;

  006d9	e9 e7 01 00 00	 jmp	 $LN4@SetDataSpr
$LN42@SetDataSpr:
; File C:\Program Files (x86)\Microsoft Visual Studio\2019\Community\VC\Tools\MSVC\14.29.30133\atlmfc\include\cstringt.h

; 2401 : 		CStringT strResult( str1.GetManager() );

  006de	8d 4d f0	 lea	 ecx, DWORD PTR _strData$[ebp]
; File D:\git\src\IBK\IBK_DRFN\ProjSrc\SrcDrfn\Chart\HWSTRATEGYANALYSIS\TabResult.cpp

; 416  : 				m_GridResult.SetItemText(8,1,strData+"%",nFormat);//Grid

  006e1	c6 45 fc 0a	 mov	 BYTE PTR __$EHRec$[ebp+8], 10 ; 0000000aH
; File C:\Program Files (x86)\Microsoft Visual Studio\2019\Community\VC\Tools\MSVC\14.29.30133\atlmfc\include\cstringt.h

; 2401 : 		CStringT strResult( str1.GetManager() );

  006e5	ff 15 00 00 00
	00		 call	 DWORD PTR __imp_?GetManager@?$CStringT@DV?$StrTraitMFC_DLL@DV?$ChTraitsCRT@D@ATL@@@@@ATL@@QBEPAUIAtlStringMgr@2@XZ
  006eb	50		 push	 eax
  006ec	8d 4d d0	 lea	 ecx, DWORD PTR $T5[ebp]
  006ef	ff 15 00 00 00
	00		 call	 DWORD PTR __imp_??0?$CStringT@DV?$StrTraitMFC_DLL@DV?$ChTraitsCRT@D@ATL@@@@@ATL@@QAE@PAUIAtlStringMgr@1@@Z
; File C:\Program Files (x86)\Microsoft Visual Studio\2019\Community\VC\Tools\MSVC\14.29.30133\atlmfc\include\atlsimpstr.h

; 519  : 		return( GetData()->nDataLength );

  006f5	8b 45 f0	 mov	 eax, DWORD PTR _strData$[ebp]
; File C:\Program Files (x86)\Microsoft Visual Studio\2019\Community\VC\Tools\MSVC\14.29.30133\atlmfc\include\cstringt.h

; 2405 : 		return( strResult );

  006f8	83 cb 40	 or	 ebx, 64			; 00000040H
  006fb	6a 01		 push	 1
  006fd	68 00 00 00 00	 push	 OFFSET ??_C@_01FGNFDNOH@?$CF@
  00702	89 5d e8	 mov	 DWORD PTR $T12[ebp], ebx
  00705	ff 70 f4	 push	 DWORD PTR [eax-12]
  00708	50		 push	 eax
  00709	8d 45 d0	 lea	 eax, DWORD PTR $T5[ebp]
  0070c	50		 push	 eax
  0070d	ff 15 00 00 00
	00		 call	 DWORD PTR __imp_?Concatenate@?$CSimpleStringT@D$00@ATL@@KAXAAV12@PBDH1H@Z
  00713	83 c4 14	 add	 esp, 20			; 00000014H
; File D:\git\src\IBK\IBK_DRFN\ProjSrc\SrcDrfn\Chart\HWSTRATEGYANALYSIS\TabResult.cpp

; 416  : 				m_GridResult.SetItemText(8,1,strData+"%",nFormat);//Grid

  00716	8b cf		 mov	 ecx, edi
  00718	68 26 08 00 00	 push	 2086			; 00000826H
  0071d	ff 75 d0	 push	 DWORD PTR $T5[ebp]
  00720	6a 01		 push	 1
  00722	6a 08		 push	 8
  00724	e8 00 00 00 00	 call	 ?SetItemText@CGridCtrl@@QAEHHHPBDK@Z ; CGridCtrl::SetItemText
  00729	8d 4d d0	 lea	 ecx, DWORD PTR $T5[ebp]
  0072c	c6 45 fc 02	 mov	 BYTE PTR __$EHRec$[ebp+8], 2
  00730	83 e3 bf	 and	 ebx, -65		; ffffffbfH
  00733	ff 15 00 00 00
	00		 call	 DWORD PTR __imp_??1?$CStringT@DV?$StrTraitMFC_DLL@DV?$ChTraitsCRT@D@ATL@@@@@ATL@@QAE@XZ

; 417  : 			break;

  00739	e9 87 01 00 00	 jmp	 $LN4@SetDataSpr
$LN43@SetDataSpr:

; 418  : 		case MAXPROFITSTRAIGHT:
; 419  : 				m_GridResult.SetItemText(8,3,strData,nFormat);//Grid

  0073e	68 26 08 00 00	 push	 2086			; 00000826H
  00743	ff 75 f0	 push	 DWORD PTR _strData$[ebp]
  00746	6a 03		 push	 3
  00748	6a 08		 push	 8

; 420  : 			break;

  0074a	e9 6f 01 00 00	 jmp	 $LN300@SetDataSpr
$LN44@SetDataSpr:

; 421  : 		case MAXLOSSSTRAIGHT:
; 422  : 				m_GridResult.SetItemText(8,5,strData,nFormat);//Grid

  0074f	68 26 08 00 00	 push	 2086			; 00000826H
  00754	ff 75 f0	 push	 DWORD PTR _strData$[ebp]
  00757	6a 05		 push	 5
  00759	6a 08		 push	 8

; 423  : 			break;

  0075b	e9 5e 01 00 00	 jmp	 $LN300@SetDataSpr
$LN45@SetDataSpr:
; File C:\Program Files (x86)\Microsoft Visual Studio\2019\Community\VC\Tools\MSVC\14.29.30133\atlmfc\include\cstringt.h

; 2401 : 		CStringT strResult( str1.GetManager() );

  00760	8d 4d f0	 lea	 ecx, DWORD PTR _strData$[ebp]
; File D:\git\src\IBK\IBK_DRFN\ProjSrc\SrcDrfn\Chart\HWSTRATEGYANALYSIS\TabResult.cpp

; 425  : 				m_GridResult.SetItemText(9,1,strData+"%",nFormat);//Grid

  00763	c6 45 fc 0b	 mov	 BYTE PTR __$EHRec$[ebp+8], 11 ; 0000000bH
; File C:\Program Files (x86)\Microsoft Visual Studio\2019\Community\VC\Tools\MSVC\14.29.30133\atlmfc\include\cstringt.h

; 2401 : 		CStringT strResult( str1.GetManager() );

  00767	ff 15 00 00 00
	00		 call	 DWORD PTR __imp_?GetManager@?$CStringT@DV?$StrTraitMFC_DLL@DV?$ChTraitsCRT@D@ATL@@@@@ATL@@QBEPAUIAtlStringMgr@2@XZ
  0076d	50		 push	 eax
  0076e	8d 4d cc	 lea	 ecx, DWORD PTR $T4[ebp]
  00771	ff 15 00 00 00
	00		 call	 DWORD PTR __imp_??0?$CStringT@DV?$StrTraitMFC_DLL@DV?$ChTraitsCRT@D@ATL@@@@@ATL@@QAE@PAUIAtlStringMgr@1@@Z
; File C:\Program Files (x86)\Microsoft Visual Studio\2019\Community\VC\Tools\MSVC\14.29.30133\atlmfc\include\atlsimpstr.h

; 519  : 		return( GetData()->nDataLength );

  00777	8b 45 f0	 mov	 eax, DWORD PTR _strData$[ebp]
; File C:\Program Files (x86)\Microsoft Visual Studio\2019\Community\VC\Tools\MSVC\14.29.30133\atlmfc\include\cstringt.h

; 2405 : 		return( strResult );

  0077a	81 cb 80 00 00
	00		 or	 ebx, 128		; 00000080H
  00780	6a 01		 push	 1
  00782	68 00 00 00 00	 push	 OFFSET ??_C@_01FGNFDNOH@?$CF@
  00787	89 5d e8	 mov	 DWORD PTR $T12[ebp], ebx
  0078a	ff 70 f4	 push	 DWORD PTR [eax-12]
  0078d	50		 push	 eax
  0078e	8d 45 cc	 lea	 eax, DWORD PTR $T4[ebp]
  00791	50		 push	 eax
  00792	ff 15 00 00 00
	00		 call	 DWORD PTR __imp_?Concatenate@?$CSimpleStringT@D$00@ATL@@KAXAAV12@PBDH1H@Z
  00798	83 c4 14	 add	 esp, 20			; 00000014H
; File D:\git\src\IBK\IBK_DRFN\ProjSrc\SrcDrfn\Chart\HWSTRATEGYANALYSIS\TabResult.cpp

; 425  : 				m_GridResult.SetItemText(9,1,strData+"%",nFormat);//Grid

  0079b	8b cf		 mov	 ecx, edi
  0079d	68 26 08 00 00	 push	 2086			; 00000826H
  007a2	ff 75 cc	 push	 DWORD PTR $T4[ebp]
  007a5	6a 01		 push	 1
  007a7	6a 09		 push	 9
  007a9	e8 00 00 00 00	 call	 ?SetItemText@CGridCtrl@@QAEHHHPBDK@Z ; CGridCtrl::SetItemText
  007ae	8d 4d cc	 lea	 ecx, DWORD PTR $T4[ebp]
  007b1	c6 45 fc 02	 mov	 BYTE PTR __$EHRec$[ebp+8], 2
  007b5	81 e3 7f ff ff
	ff		 and	 ebx, -129		; ffffff7fH
  007bb	ff 15 00 00 00
	00		 call	 DWORD PTR __imp_??1?$CStringT@DV?$StrTraitMFC_DLL@DV?$ChTraitsCRT@D@ATL@@@@@ATL@@QAE@XZ

; 426  : 			break;

  007c1	e9 ff 00 00 00	 jmp	 $LN4@SetDataSpr
$LN46@SetDataSpr:

; 427  : 		case PROFITSTRAIGHT:
; 428  : 				m_GridResult.SetItemText(9,3,strData,nFormat);//Grid

  007c6	68 26 08 00 00	 push	 2086			; 00000826H
  007cb	ff 75 f0	 push	 DWORD PTR _strData$[ebp]
  007ce	6a 03		 push	 3
  007d0	6a 09		 push	 9

; 429  : 			break;

  007d2	e9 e7 00 00 00	 jmp	 $LN300@SetDataSpr
$LN47@SetDataSpr:

; 430  : 		case LOSSSTRAIGHT:
; 431  : 				m_GridResult.SetItemText(9,5,strData,nFormat);//Grid

  007d7	68 26 08 00 00	 push	 2086			; 00000826H
  007dc	ff 75 f0	 push	 DWORD PTR _strData$[ebp]
  007df	6a 05		 push	 5
  007e1	6a 09		 push	 9

; 432  : 			break;

  007e3	e9 d6 00 00 00	 jmp	 $LN300@SetDataSpr
$LN48@SetDataSpr:

; 433  : 			//
; 434  : 		case CNTCANDLE:
; 435  : 				m_GridResult.SetItemText(11,1,strData,nFormat);//Grid

  007e8	68 26 08 00 00	 push	 2086			; 00000826H
  007ed	ff 75 f0	 push	 DWORD PTR _strData$[ebp]
  007f0	6a 01		 push	 1
  007f2	6a 0b		 push	 11			; 0000000bH

; 436  : 			break;

  007f4	e9 c5 00 00 00	 jmp	 $LN300@SetDataSpr
$LN49@SetDataSpr:

; 437  : 		case CNTCANDLEPROFIT:
; 438  : 				m_GridResult.SetItemText(11,3,strData,nFormat);//Grid

  007f9	68 26 08 00 00	 push	 2086			; 00000826H
  007fe	ff 75 f0	 push	 DWORD PTR _strData$[ebp]
  00801	6a 03		 push	 3
  00803	6a 0b		 push	 11			; 0000000bH

; 439  : 			break;

  00805	e9 b4 00 00 00	 jmp	 $LN300@SetDataSpr
$LN50@SetDataSpr:

; 440  : 		case CNTCANDLELOSS:
; 441  : 				m_GridResult.SetItemText(11,5,strData,nFormat);//Grid

  0080a	68 26 08 00 00	 push	 2086			; 00000826H
  0080f	ff 75 f0	 push	 DWORD PTR _strData$[ebp]
  00812	6a 05		 push	 5
  00814	6a 0b		 push	 11			; 0000000bH

; 442  : 			break;

  00816	e9 a3 00 00 00	 jmp	 $LN300@SetDataSpr
$LN51@SetDataSpr:
; File C:\Program Files (x86)\Microsoft Visual Studio\2019\Community\VC\Tools\MSVC\14.29.30133\atlmfc\include\cstringt.h

; 2401 : 		CStringT strResult( str1.GetManager() );

  0081b	8d 4d f0	 lea	 ecx, DWORD PTR _strData$[ebp]
; File D:\git\src\IBK\IBK_DRFN\ProjSrc\SrcDrfn\Chart\HWSTRATEGYANALYSIS\TabResult.cpp

; 444  : 				m_GridResult.SetItemText(12,1,strData+"%",nFormat);//Grid

  0081e	c6 45 fc 0c	 mov	 BYTE PTR __$EHRec$[ebp+8], 12 ; 0000000cH
; File C:\Program Files (x86)\Microsoft Visual Studio\2019\Community\VC\Tools\MSVC\14.29.30133\atlmfc\include\cstringt.h

; 2401 : 		CStringT strResult( str1.GetManager() );

  00822	ff 15 00 00 00
	00		 call	 DWORD PTR __imp_?GetManager@?$CStringT@DV?$StrTraitMFC_DLL@DV?$ChTraitsCRT@D@ATL@@@@@ATL@@QBEPAUIAtlStringMgr@2@XZ
  00828	50		 push	 eax
  00829	8d 4d c8	 lea	 ecx, DWORD PTR $T3[ebp]
  0082c	ff 15 00 00 00
	00		 call	 DWORD PTR __imp_??0?$CStringT@DV?$StrTraitMFC_DLL@DV?$ChTraitsCRT@D@ATL@@@@@ATL@@QAE@PAUIAtlStringMgr@1@@Z
; File C:\Program Files (x86)\Microsoft Visual Studio\2019\Community\VC\Tools\MSVC\14.29.30133\atlmfc\include\atlsimpstr.h

; 519  : 		return( GetData()->nDataLength );

  00832	8b 45 f0	 mov	 eax, DWORD PTR _strData$[ebp]
; File C:\Program Files (x86)\Microsoft Visual Studio\2019\Community\VC\Tools\MSVC\14.29.30133\atlmfc\include\cstringt.h

; 2405 : 		return( strResult );

  00835	81 cb 00 01 00
	00		 or	 ebx, 256		; 00000100H
  0083b	6a 01		 push	 1
  0083d	68 00 00 00 00	 push	 OFFSET ??_C@_01FGNFDNOH@?$CF@
  00842	89 5d e8	 mov	 DWORD PTR $T12[ebp], ebx
  00845	ff 70 f4	 push	 DWORD PTR [eax-12]
  00848	50		 push	 eax
  00849	8d 45 c8	 lea	 eax, DWORD PTR $T3[ebp]
  0084c	50		 push	 eax
  0084d	ff 15 00 00 00
	00		 call	 DWORD PTR __imp_?Concatenate@?$CSimpleStringT@D$00@ATL@@KAXAAV12@PBDH1H@Z
  00853	83 c4 14	 add	 esp, 20			; 00000014H
; File D:\git\src\IBK\IBK_DRFN\ProjSrc\SrcDrfn\Chart\HWSTRATEGYANALYSIS\TabResult.cpp

; 444  : 				m_GridResult.SetItemText(12,1,strData+"%",nFormat);//Grid

  00856	8b cf		 mov	 ecx, edi
  00858	68 26 08 00 00	 push	 2086			; 00000826H
  0085d	ff 75 c8	 push	 DWORD PTR $T3[ebp]
  00860	6a 01		 push	 1
  00862	6a 0c		 push	 12			; 0000000cH
  00864	e8 00 00 00 00	 call	 ?SetItemText@CGridCtrl@@QAEHHHPBDK@Z ; CGridCtrl::SetItemText
  00869	8d 4d c8	 lea	 ecx, DWORD PTR $T3[ebp]
  0086c	c6 45 fc 02	 mov	 BYTE PTR __$EHRec$[ebp+8], 2
  00870	81 e3 ff fe ff
	ff		 and	 ebx, -257		; fffffeffH
  00876	ff 15 00 00 00
	00		 call	 DWORD PTR __imp_??1?$CStringT@DV?$StrTraitMFC_DLL@DV?$ChTraitsCRT@D@ATL@@@@@ATL@@QAE@XZ

; 445  : 			break;

  0087c	eb 47		 jmp	 SHORT $LN4@SetDataSpr
$LN52@SetDataSpr:

; 446  : 		case CNTCANDLEACCESS:
; 447  : 				m_GridResult.SetItemText(12,3,strData,nFormat);//Grid

  0087e	68 26 08 00 00	 push	 2086			; 00000826H
  00883	ff 75 f0	 push	 DWORD PTR _strData$[ebp]
  00886	6a 03		 push	 3
  00888	6a 0c		 push	 12			; 0000000cH

; 448  : 			break;

  0088a	eb 32		 jmp	 SHORT $LN300@SetDataSpr
$LN53@SetDataSpr:

; 449  : 		case CNTCANDLEEXIT:
; 450  : 				m_GridResult.SetItemText(12,5,strData,nFormat);//Grid

  0088c	68 26 08 00 00	 push	 2086			; 00000826H
  00891	ff 75 f0	 push	 DWORD PTR _strData$[ebp]
  00894	6a 05		 push	 5
  00896	6a 0c		 push	 12			; 0000000cH

; 451  : 			break;

  00898	eb 24		 jmp	 SHORT $LN300@SetDataSpr
$LN54@SetDataSpr:

; 452  : 		case CNTCANDLEAVGDEAL:
; 453  : 				m_GridResult.SetItemText(13,1,strData,nFormat);//Grid

  0089a	68 26 08 00 00	 push	 2086			; 00000826H
  0089f	ff 75 f0	 push	 DWORD PTR _strData$[ebp]
  008a2	6a 01		 push	 1

; 454  : 			break;

  008a4	eb 16		 jmp	 SHORT $LN301@SetDataSpr
$LN55@SetDataSpr:

; 455  : 		case CNTCANDLEAVGPROFIT:
; 456  : 				m_GridResult.SetItemText(13,3,strData,nFormat);//Grid

  008a6	68 26 08 00 00	 push	 2086			; 00000826H
  008ab	ff 75 f0	 push	 DWORD PTR _strData$[ebp]
  008ae	6a 03		 push	 3

; 457  : 			break;

  008b0	eb 0a		 jmp	 SHORT $LN301@SetDataSpr
$LN56@SetDataSpr:

; 458  : 		case CNTCANDLEAVGLOSS:
; 459  : 				m_GridResult.SetItemText(13,5,strData,nFormat);//Grid

  008b2	68 26 08 00 00	 push	 2086			; 00000826H
  008b7	ff 75 f0	 push	 DWORD PTR _strData$[ebp]
  008ba	6a 05		 push	 5
$LN301@SetDataSpr:

; 333  : 	
; 334  : 	///////////////////////
; 335  : 	////   : 8  6   //////////////////////////////////////////////////////////////	
; 336  : 	
; 337  : 	for(int i = 1; i<MAXDATANUM;i++)

  008bc	6a 0d		 push	 13			; 0000000dH
$LN300@SetDataSpr:
  008be	8b cf		 mov	 ecx, edi
  008c0	e8 00 00 00 00	 call	 ?SetItemText@CGridCtrl@@QAEHHHPBDK@Z ; CGridCtrl::SetItemText
$LN4@SetDataSpr:
  008c5	46		 inc	 esi
  008c6	83 fe 24	 cmp	 esi, 36			; 00000024H
  008c9	0f 8c 85 fa ff
	ff		 jl	 $LL6@SetDataSpr

; 460  : 			break;
; 461  : 		}
; 462  : 	}
; 463  : 	m_GridResult.Refresh();

  008cf	8b cf		 mov	 ecx, edi
  008d1	e8 00 00 00 00	 call	 ?Refresh@CGridCtrl@@QAEXXZ ; CGridCtrl::Refresh

; 464  : }

  008d6	8d 4d f0	 lea	 ecx, DWORD PTR _strData$[ebp]
  008d9	ff 15 00 00 00
	00		 call	 DWORD PTR __imp_??1?$CStringT@DV?$StrTraitMFC_DLL@DV?$ChTraitsCRT@D@ATL@@@@@ATL@@QAE@XZ
  008df	8d 4d b8	 lea	 ecx, DWORD PTR _stData$[ebp+28]
  008e2	ff 15 00 00 00
	00		 call	 DWORD PTR __imp_??1?$CStringT@DV?$StrTraitMFC_DLL@DV?$ChTraitsCRT@D@ATL@@@@@ATL@@QAE@XZ
  008e8	8d 4d b4	 lea	 ecx, DWORD PTR _stData$[ebp+24]
  008eb	ff 15 00 00 00
	00		 call	 DWORD PTR __imp_??1?$CStringT@DV?$StrTraitMFC_DLL@DV?$ChTraitsCRT@D@ATL@@@@@ATL@@QAE@XZ
  008f1	8d 4d b0	 lea	 ecx, DWORD PTR _stData$[ebp+20]
  008f4	ff 15 00 00 00
	00		 call	 DWORD PTR __imp_??1?$CStringT@DV?$StrTraitMFC_DLL@DV?$ChTraitsCRT@D@ATL@@@@@ATL@@QAE@XZ
  008fa	8d 4d ac	 lea	 ecx, DWORD PTR _stData$[ebp+16]
  008fd	ff 15 00 00 00
	00		 call	 DWORD PTR __imp_??1?$CStringT@DV?$StrTraitMFC_DLL@DV?$ChTraitsCRT@D@ATL@@@@@ATL@@QAE@XZ
  00903	8d 4d a8	 lea	 ecx, DWORD PTR _stData$[ebp+12]
  00906	ff 15 00 00 00
	00		 call	 DWORD PTR __imp_??1?$CStringT@DV?$StrTraitMFC_DLL@DV?$ChTraitsCRT@D@ATL@@@@@ATL@@QAE@XZ
  0090c	8d 4d a4	 lea	 ecx, DWORD PTR _stData$[ebp+8]
  0090f	ff 15 00 00 00
	00		 call	 DWORD PTR __imp_??1?$CStringT@DV?$StrTraitMFC_DLL@DV?$ChTraitsCRT@D@ATL@@@@@ATL@@QAE@XZ
  00915	8d 4d ec	 lea	 ecx, DWORD PTR _strName$[ebp]
  00918	ff 15 00 00 00
	00		 call	 DWORD PTR __imp_??1?$CStringT@DV?$StrTraitMFC_DLL@DV?$ChTraitsCRT@D@ATL@@@@@ATL@@QAE@XZ
  0091e	8b 4d f4	 mov	 ecx, DWORD PTR __$EHRec$[ebp]
  00921	64 89 0d 00 00
	00 00		 mov	 DWORD PTR fs:0, ecx
  00928	59		 pop	 ecx
  00929	5f		 pop	 edi
  0092a	5e		 pop	 esi
  0092b	5b		 pop	 ebx
  0092c	8b e5		 mov	 esp, ebp
  0092e	5d		 pop	 ebp
  0092f	c3		 ret	 0
$LN81@SetDataSpr:
; File C:\Program Files (x86)\Microsoft Visual Studio\2019\Community\VC\Tools\MSVC\14.29.30133\atlmfc\include\afxtempl.h

; 290  : 	AfxThrowInvalidArgException();

  00930	e8 00 00 00 00	 call	 ?AfxThrowInvalidArgException@@YGXXZ ; AfxThrowInvalidArgException
$LN298@SetDataSpr:
  00935	0f 1f 00	 npad	 3
$LN295@SetDataSpr:
; File D:\git\src\IBK\IBK_DRFN\ProjSrc\SrcDrfn\Chart\HWSTRATEGYANALYSIS\TabResult.cpp

; 464  : }

  00938	00 00 00 00	 DD	 $LN9@SetDataSpr
  0093c	00 00 00 00	 DD	 $LN12@SetDataSpr
  00940	00 00 00 00	 DD	 $LN13@SetDataSpr
  00944	00 00 00 00	 DD	 $LN14@SetDataSpr
  00948	00 00 00 00	 DD	 $LN15@SetDataSpr
$LN296@SetDataSpr:
  0094c	00 00 00 00	 DD	 $LN23@SetDataSpr
  00950	00 00 00 00	 DD	 $LN24@SetDataSpr
  00954	00 00 00 00	 DD	 $LN25@SetDataSpr
  00958	00 00 00 00	 DD	 $LN26@SetDataSpr
  0095c	00 00 00 00	 DD	 $LN27@SetDataSpr
  00960	00 00 00 00	 DD	 $LN28@SetDataSpr
  00964	00 00 00 00	 DD	 $LN29@SetDataSpr
  00968	00 00 00 00	 DD	 $LN30@SetDataSpr
  0096c	00 00 00 00	 DD	 $LN31@SetDataSpr
  00970	00 00 00 00	 DD	 $LN32@SetDataSpr
  00974	00 00 00 00	 DD	 $LN33@SetDataSpr
  00978	00 00 00 00	 DD	 $LN34@SetDataSpr
  0097c	00 00 00 00	 DD	 $LN35@SetDataSpr
  00980	00 00 00 00	 DD	 $LN4@SetDataSpr
  00984	00 00 00 00	 DD	 $LN36@SetDataSpr
  00988	00 00 00 00	 DD	 $LN37@SetDataSpr
  0098c	00 00 00 00	 DD	 $LN38@SetDataSpr
  00990	00 00 00 00	 DD	 $LN39@SetDataSpr
  00994	00 00 00 00	 DD	 $LN40@SetDataSpr
  00998	00 00 00 00	 DD	 $LN41@SetDataSpr
  0099c	00 00 00 00	 DD	 $LN42@SetDataSpr
  009a0	00 00 00 00	 DD	 $LN43@SetDataSpr
  009a4	00 00 00 00	 DD	 $LN44@SetDataSpr
  009a8	00 00 00 00	 DD	 $LN45@SetDataSpr
  009ac	00 00 00 00	 DD	 $LN46@SetDataSpr
  009b0	00 00 00 00	 DD	 $LN47@SetDataSpr
  009b4	00 00 00 00	 DD	 $LN48@SetDataSpr
  009b8	00 00 00 00	 DD	 $LN49@SetDataSpr
  009bc	00 00 00 00	 DD	 $LN50@SetDataSpr
  009c0	00 00 00 00	 DD	 $LN51@SetDataSpr
  009c4	00 00 00 00	 DD	 $LN52@SetDataSpr
  009c8	00 00 00 00	 DD	 $LN53@SetDataSpr
  009cc	00 00 00 00	 DD	 $LN54@SetDataSpr
  009d0	00 00 00 00	 DD	 $LN55@SetDataSpr
  009d4	00 00 00 00	 DD	 $LN56@SetDataSpr
_TEXT	ENDS
;	COMDAT text$x
text$x	SEGMENT
__unwindfunclet$?SetDataSpreadGrid@CTabResult@@QAEXXZ$0:
  00000	8d 4d ec	 lea	 ecx, DWORD PTR _strName$[ebp]
  00003	ff 25 00 00 00
	00		 jmp	 DWORD PTR __imp_??1?$CStringT@DV?$StrTraitMFC_DLL@DV?$ChTraitsCRT@D@ATL@@@@@ATL@@QAE@XZ
__unwindfunclet$?SetDataSpreadGrid@CTabResult@@QAEXXZ$1:
  00009	8d 4d 9c	 lea	 ecx, DWORD PTR _stData$[ebp]
  0000c	e9 00 00 00 00	 jmp	 ??1ST_DATAINDEX@@QAE@XZ
__unwindfunclet$?SetDataSpreadGrid@CTabResult@@QAEXXZ$2:
  00011	8d 4d f0	 lea	 ecx, DWORD PTR _strData$[ebp]
  00014	ff 25 00 00 00
	00		 jmp	 DWORD PTR __imp_??1?$CStringT@DV?$StrTraitMFC_DLL@DV?$ChTraitsCRT@D@ATL@@@@@ATL@@QAE@XZ
__unwindfunclet$?SetDataSpreadGrid@CTabResult@@QAEXXZ$14:
  0001a	8b 45 e8	 mov	 eax, DWORD PTR $T12[ebp]
  0001d	83 e0 01	 and	 eax, 1
  00020	0f 84 0d 00 00
	00		 je	 $LN91@SetDataSpr
  00026	83 65 e8 fe	 and	 DWORD PTR $T12[ebp], -2	; fffffffeH
  0002a	8d 4d e0	 lea	 ecx, DWORD PTR $T11[ebp]
  0002d	ff 25 00 00 00
	00		 jmp	 DWORD PTR __imp_??1?$CStringT@DV?$StrTraitMFC_DLL@DV?$ChTraitsCRT@D@ATL@@@@@ATL@@QAE@XZ
$LN91@SetDataSpr:
  00033	c3		 ret	 0
__unwindfunclet$?SetDataSpreadGrid@CTabResult@@QAEXXZ$15:
  00034	8b 45 e8	 mov	 eax, DWORD PTR $T12[ebp]
  00037	83 e0 02	 and	 eax, 2
  0003a	0f 84 0d 00 00
	00		 je	 $LN106@SetDataSpr
  00040	83 65 e8 fd	 and	 DWORD PTR $T12[ebp], -3	; fffffffdH
  00044	8d 4d e0	 lea	 ecx, DWORD PTR $T10[ebp]
  00047	ff 25 00 00 00
	00		 jmp	 DWORD PTR __imp_??1?$CStringT@DV?$StrTraitMFC_DLL@DV?$ChTraitsCRT@D@ATL@@@@@ATL@@QAE@XZ
$LN106@SetDataSpr:
  0004d	c3		 ret	 0
__unwindfunclet$?SetDataSpreadGrid@CTabResult@@QAEXXZ$5:
  0004e	8d 4d bc	 lea	 ecx, DWORD PTR $T2[ebp]
  00051	ff 25 00 00 00
	00		 jmp	 DWORD PTR __imp_??1?$CStringT@DV?$StrTraitMFC_DLL@DV?$ChTraitsCRT@D@ATL@@@@@ATL@@QAE@XZ
__unwindfunclet$?SetDataSpreadGrid@CTabResult@@QAEXXZ$16:
  00057	8b 45 e8	 mov	 eax, DWORD PTR $T12[ebp]
  0005a	83 e0 04	 and	 eax, 4
  0005d	0f 84 0d 00 00
	00		 je	 $LN125@SetDataSpr
  00063	83 65 e8 fb	 and	 DWORD PTR $T12[ebp], -5	; fffffffbH
  00067	8d 4d e0	 lea	 ecx, DWORD PTR $T9[ebp]
  0006a	ff 25 00 00 00
	00		 jmp	 DWORD PTR __imp_??1?$CStringT@DV?$StrTraitMFC_DLL@DV?$ChTraitsCRT@D@ATL@@@@@ATL@@QAE@XZ
$LN125@SetDataSpr:
  00070	c3		 ret	 0
__unwindfunclet$?SetDataSpreadGrid@CTabResult@@QAEXXZ$17:
  00071	8b 45 e8	 mov	 eax, DWORD PTR $T12[ebp]
  00074	83 e0 08	 and	 eax, 8
  00077	0f 84 0d 00 00
	00		 je	 $LN140@SetDataSpr
  0007d	83 65 e8 f7	 and	 DWORD PTR $T12[ebp], -9	; fffffff7H
  00081	8d 4d dc	 lea	 ecx, DWORD PTR $T8[ebp]
  00084	ff 25 00 00 00
	00		 jmp	 DWORD PTR __imp_??1?$CStringT@DV?$StrTraitMFC_DLL@DV?$ChTraitsCRT@D@ATL@@@@@ATL@@QAE@XZ
$LN140@SetDataSpr:
  0008a	c3		 ret	 0
__unwindfunclet$?SetDataSpreadGrid@CTabResult@@QAEXXZ$18:
  0008b	8b 45 e8	 mov	 eax, DWORD PTR $T12[ebp]
  0008e	83 e0 10	 and	 eax, 16			; 00000010H
  00091	0f 84 0d 00 00
	00		 je	 $LN185@SetDataSpr
  00097	83 65 e8 ef	 and	 DWORD PTR $T12[ebp], -17 ; ffffffefH
  0009b	8d 4d d8	 lea	 ecx, DWORD PTR $T7[ebp]
  0009e	ff 25 00 00 00
	00		 jmp	 DWORD PTR __imp_??1?$CStringT@DV?$StrTraitMFC_DLL@DV?$ChTraitsCRT@D@ATL@@@@@ATL@@QAE@XZ
$LN185@SetDataSpr:
  000a4	c3		 ret	 0
__unwindfunclet$?SetDataSpreadGrid@CTabResult@@QAEXXZ$19:
  000a5	8b 45 e8	 mov	 eax, DWORD PTR $T12[ebp]
  000a8	83 e0 20	 and	 eax, 32			; 00000020H
  000ab	0f 84 0d 00 00
	00		 je	 $LN200@SetDataSpr
  000b1	83 65 e8 df	 and	 DWORD PTR $T12[ebp], -33 ; ffffffdfH
  000b5	8d 4d d4	 lea	 ecx, DWORD PTR $T6[ebp]
  000b8	ff 25 00 00 00
	00		 jmp	 DWORD PTR __imp_??1?$CStringT@DV?$StrTraitMFC_DLL@DV?$ChTraitsCRT@D@ATL@@@@@ATL@@QAE@XZ
$LN200@SetDataSpr:
  000be	c3		 ret	 0
__unwindfunclet$?SetDataSpreadGrid@CTabResult@@QAEXXZ$20:
  000bf	8b 45 e8	 mov	 eax, DWORD PTR $T12[ebp]
  000c2	83 e0 40	 and	 eax, 64			; 00000040H
  000c5	0f 84 0d 00 00
	00		 je	 $LN215@SetDataSpr
  000cb	83 65 e8 bf	 and	 DWORD PTR $T12[ebp], -65 ; ffffffbfH
  000cf	8d 4d d0	 lea	 ecx, DWORD PTR $T5[ebp]
  000d2	ff 25 00 00 00
	00		 jmp	 DWORD PTR __imp_??1?$CStringT@DV?$StrTraitMFC_DLL@DV?$ChTraitsCRT@D@ATL@@@@@ATL@@QAE@XZ
$LN215@SetDataSpr:
  000d8	c3		 ret	 0
__unwindfunclet$?SetDataSpreadGrid@CTabResult@@QAEXXZ$21:
  000d9	8b 45 e8	 mov	 eax, DWORD PTR $T12[ebp]
  000dc	25 80 00 00 00	 and	 eax, 128		; 00000080H
  000e1	0f 84 10 00 00
	00		 je	 $LN234@SetDataSpr
  000e7	81 65 e8 7f ff
	ff ff		 and	 DWORD PTR $T12[ebp], -129 ; ffffff7fH
  000ee	8d 4d cc	 lea	 ecx, DWORD PTR $T4[ebp]
  000f1	ff 25 00 00 00
	00		 jmp	 DWORD PTR __imp_??1?$CStringT@DV?$StrTraitMFC_DLL@DV?$ChTraitsCRT@D@ATL@@@@@ATL@@QAE@XZ
$LN234@SetDataSpr:
  000f7	c3		 ret	 0
__unwindfunclet$?SetDataSpreadGrid@CTabResult@@QAEXXZ$22:
  000f8	8b 45 e8	 mov	 eax, DWORD PTR $T12[ebp]
  000fb	25 00 01 00 00	 and	 eax, 256		; 00000100H
  00100	0f 84 10 00 00
	00		 je	 $LN259@SetDataSpr
  00106	81 65 e8 ff fe
	ff ff		 and	 DWORD PTR $T12[ebp], -257 ; fffffeffH
  0010d	8d 4d c8	 lea	 ecx, DWORD PTR $T3[ebp]
  00110	ff 25 00 00 00
	00		 jmp	 DWORD PTR __imp_??1?$CStringT@DV?$StrTraitMFC_DLL@DV?$ChTraitsCRT@D@ATL@@@@@ATL@@QAE@XZ
$LN259@SetDataSpr:
  00116	c3		 ret	 0
  00117	cc		 int	 3
  00118	cc		 int	 3
  00119	cc		 int	 3
  0011a	cc		 int	 3
  0011b	cc		 int	 3
__ehhandler$?SetDataSpreadGrid@CTabResult@@QAEXXZ:
  0011c	90		 npad	 1
  0011d	90		 npad	 1
  0011e	8b 54 24 08	 mov	 edx, DWORD PTR [esp+8]
  00122	8d 42 0c	 lea	 eax, DWORD PTR [edx+12]
  00125	8b 4a 98	 mov	 ecx, DWORD PTR [edx-104]
  00128	33 c8		 xor	 ecx, eax
  0012a	e8 00 00 00 00	 call	 @__security_check_cookie@4
  0012f	b8 00 00 00 00	 mov	 eax, OFFSET __ehfuncinfo$?SetDataSpreadGrid@CTabResult@@QAEXXZ
  00134	e9 00 00 00 00	 jmp	 ___CxxFrameHandler3
text$x	ENDS
?SetDataSpreadGrid@CTabResult@@QAEXXZ ENDP		; CTabResult::SetDataSpreadGrid
; Function compile flags: /Ogtp
; File D:\git\src\IBK\IBK_DRFN\ProjSrc\SrcDrfn\Chart\HWSTRATEGYANALYSIS\TabResult.cpp
; File C:\Program Files (x86)\Microsoft Visual Studio\2019\Community\VC\Tools\MSVC\14.29.30133\atlmfc\include\afxwin2.inl
; File D:\git\src\IBK\IBK_DRFN\ProjSrc\SrcDrfn\Chart\HWSTRATEGYANALYSIS\TabResult.cpp
; File C:\Program Files (x86)\Microsoft Visual Studio\2019\Community\VC\Tools\MSVC\14.29.30133\atlmfc\include\afxwin2.inl
; File C:\Program Files (x86)\Microsoft Visual Studio\2019\Community\VC\Tools\MSVC\14.29.30133\atlmfc\include\atltypes.h
; File C:\Program Files (x86)\Microsoft Visual Studio\2019\Community\VC\Tools\MSVC\14.29.30133\atlmfc\include\afxwin2.inl
; File D:\git\src\IBK\IBK_DRFN\ProjSrc\SrcDrfn\Chart\HWSTRATEGYANALYSIS\TabResult.cpp
; File C:\Program Files (x86)\Microsoft Visual Studio\2019\Community\VC\Tools\MSVC\14.29.30133\atlmfc\include\afxwin1.inl
; File D:\git\src\IBK\IBK_DRFN\ProjSrc\SrcDrfn\Chart\HWSTRATEGYANALYSIS\TabResult.cpp
; File C:\Program Files (x86)\Microsoft Visual Studio\2019\Community\VC\Tools\MSVC\14.29.30133\atlmfc\include\afxwin1.inl
; File D:\git\src\IBK\IBK_DRFN\ProjSrc\SrcDrfn\Chart\HWSTRATEGYANALYSIS\TabResult.cpp
; File C:\Program Files (x86)\Microsoft Visual Studio\2019\Community\VC\Tools\MSVC\14.29.30133\atlmfc\include\afxwin1.inl
; File D:\git\src\IBK\IBK_DRFN\ProjSrc\SrcDrfn\Chart\HWSTRATEGYANALYSIS\TabResult.cpp
; File D:\git\src\IBK\IBK_DRFN\ProjSrc\SrcDrfn\Chart\HWSTRATEGYANALYSIS\GridCtrl_src\GridCtrl.h
; File D:\git\src\IBK\IBK_DRFN\ProjSrc\SrcDrfn\Chart\HWSTRATEGYANALYSIS\TabResult.cpp
; File C:\Program Files (x86)\Microsoft Visual Studio\2019\Community\VC\Tools\MSVC\14.29.30133\atlmfc\include\afxwin2.inl
; File D:\git\src\IBK\IBK_DRFN\ProjSrc\SrcDrfn\Chart\HWSTRATEGYANALYSIS\TabResult.cpp
; File C:\Program Files (x86)\Microsoft Visual Studio\2019\Community\VC\Tools\MSVC\14.29.30133\atlmfc\include\afxwin1.inl
; File D:\git\src\IBK\IBK_DRFN\ProjSrc\SrcDrfn\Chart\HWSTRATEGYANALYSIS\TabResult.cpp
;	COMDAT ?InitGrid@CTabResult@@QAEXXZ
_TEXT	SEGMENT
_str$2 = -348						; size = 4
_hInst$1$ = -344					; size = 4
_nWidth$1$ = -340					; size = 4
_nRowIndex$1$ = -336					; size = 4
_this$1$ = -332						; size = 4
_this$GSCopy$1$ = -328					; size = 4
_col$1$ = -328						; size = 4
_Item$3 = -324						; size = 104
_rect1$4 = -220						; size = 16
_IndexName$5 = -204					; size = 188
__$ArrayPad$ = -16					; size = 4
__$EHRec$ = -12						; size = 12
?InitGrid@CTabResult@@QAEXXZ PROC			; CTabResult::InitGrid, COMDAT
; _this$ = ecx

; 219  : {

  00000	55		 push	 ebp
  00001	8b ec		 mov	 ebp, esp
  00003	6a ff		 push	 -1
  00005	68 00 00 00 00	 push	 __ehhandler$?InitGrid@CTabResult@@QAEXXZ
  0000a	64 a1 00 00 00
	00		 mov	 eax, DWORD PTR fs:0
  00010	50		 push	 eax
  00011	81 ec 50 01 00
	00		 sub	 esp, 336		; 00000150H
  00017	a1 00 00 00 00	 mov	 eax, DWORD PTR ___security_cookie
  0001c	33 c5		 xor	 eax, ebp
  0001e	89 45 f0	 mov	 DWORD PTR __$ArrayPad$[ebp], eax
  00021	56		 push	 esi
  00022	57		 push	 edi
  00023	50		 push	 eax
  00024	8d 45 f4	 lea	 eax, DWORD PTR __$EHRec$[ebp]
  00027	64 a3 00 00 00
	00		 mov	 DWORD PTR fs:0, eax
  0002d	8b f1		 mov	 esi, ecx
  0002f	89 b5 b8 fe ff
	ff		 mov	 DWORD PTR _this$GSCopy$1$[ebp], esi

; 221  : 	if(!m_GridResult.GetSafeHwnd())

  00035	8d be 88 02 00
	00		 lea	 edi, DWORD PTR [esi+648]
  0003b	89 bd b4 fe ff
	ff		 mov	 DWORD PTR _this$1$[ebp], edi
; File C:\Program Files (x86)\Microsoft Visual Studio\2019\Community\VC\Tools\MSVC\14.29.30133\atlmfc\include\afxwin2.inl

; 25   : 	{ return this == NULL ? NULL : m_hWnd; }

  00041	85 ff		 test	 edi, edi
  00043	74 0a		 je	 SHORT $LN56@InitGrid
; File D:\git\src\IBK\IBK_DRFN\ProjSrc\SrcDrfn\Chart\HWSTRATEGYANALYSIS\TabResult.cpp

; 221  : 	if(!m_GridResult.GetSafeHwnd())

  00045	83 7f 20 00	 cmp	 DWORD PTR [edi+32], 0
  00049	0f 85 9a 03 00
	00		 jne	 $LN8@InitGrid
$LN56@InitGrid:
; File C:\Program Files (x86)\Microsoft Visual Studio\2019\Community\VC\Tools\MSVC\14.29.30133\atlmfc\include\afxwin2.inl

; 86   : 	{ ASSERT(::IsWindow(m_hWnd)); ::GetClientRect(m_hWnd, lpRect); }

  0004f	8d 85 24 ff ff
	ff		 lea	 eax, DWORD PTR _rect1$4[ebp]
  00055	0f 57 c0	 xorps	 xmm0, xmm0
  00058	50		 push	 eax
  00059	ff 76 20	 push	 DWORD PTR [esi+32]
; File C:\Program Files (x86)\Microsoft Visual Studio\2019\Community\VC\Tools\MSVC\14.29.30133\atlmfc\include\atltypes.h

; 528  : 	left = 0;

  0005c	0f 11 85 24 ff
	ff ff		 movups	 XMMWORD PTR _rect1$4[ebp], xmm0
; File C:\Program Files (x86)\Microsoft Visual Studio\2019\Community\VC\Tools\MSVC\14.29.30133\atlmfc\include\afxwin2.inl

; 86   : 	{ ASSERT(::IsWindow(m_hWnd)); ::GetClientRect(m_hWnd, lpRect); }

  00063	ff 15 00 00 00
	00		 call	 DWORD PTR __imp__GetClientRect@8
; File D:\git\src\IBK\IBK_DRFN\ProjSrc\SrcDrfn\Chart\HWSTRATEGYANALYSIS\TabResult.cpp

; 226  : 		rect1.left +=1;

  00069	ff 85 24 ff ff
	ff		 inc	 DWORD PTR _rect1$4[ebp]

; 227  : 		rect1.right-=10;

  0006f	83 ad 2c ff ff
	ff 0a		 sub	 DWORD PTR _rect1$4[ebp+8], 10 ; 0000000aH
  00076	c7 85 28 ff ff
	ff 01 00 00 00	 mov	 DWORD PTR _rect1$4[ebp+4], 1
; File C:\Program Files (x86)\Microsoft Visual Studio\2019\Community\VC\Tools\MSVC\14.29.30133\atlmfc\include\afxwin1.inl

; 25   : 		return afxCurrentResourceHandle; }

  00080	e8 00 00 00 00	 call	 ?AfxGetModuleState@@YGPAVAFX_MODULE_STATE@@XZ ; AfxGetModuleState
  00085	8b 40 0c	 mov	 eax, DWORD PTR [eax+12]
  00088	89 85 a8 fe ff
	ff		 mov	 DWORD PTR _hInst$1$[ebp], eax
; File D:\git\src\IBK\IBK_DRFN\ProjSrc\SrcDrfn\Chart\HWSTRATEGYANALYSIS\TabResult.cpp

; 229  : 		AfxSetResourceHandle(m_pDlgAnalysis->m_hRsc);

  0008e	8b 86 ac 00 00
	00		 mov	 eax, DWORD PTR [esi+172]
  00094	8b b0 f8 00 00
	00		 mov	 esi, DWORD PTR [eax+248]
; File C:\Program Files (x86)\Microsoft Visual Studio\2019\Community\VC\Tools\MSVC\14.29.30133\atlmfc\include\afxwin1.inl

; 27   : 	{ ASSERT(hInstResource != NULL); afxCurrentResourceHandle = hInstResource; }

  0009a	e8 00 00 00 00	 call	 ?AfxGetModuleState@@YGPAVAFX_MODULE_STATE@@XZ ; AfxGetModuleState
; File D:\git\src\IBK\IBK_DRFN\ProjSrc\SrcDrfn\Chart\HWSTRATEGYANALYSIS\TabResult.cpp

; 230  : 		if(!m_GridResult.Create(rect1,this,IDC_STATIC_RESULT,WS_CHILD | WS_TABSTOP | WS_VISIBLE ))

  0009f	68 00 00 01 50	 push	 1342242816		; 50010000H
  000a4	68 f3 0b 00 00	 push	 3059			; 00000bf3H
  000a9	8b cf		 mov	 ecx, edi
; File C:\Program Files (x86)\Microsoft Visual Studio\2019\Community\VC\Tools\MSVC\14.29.30133\atlmfc\include\afxwin1.inl

; 27   : 	{ ASSERT(hInstResource != NULL); afxCurrentResourceHandle = hInstResource; }

  000ab	89 70 0c	 mov	 DWORD PTR [eax+12], esi
; File D:\git\src\IBK\IBK_DRFN\ProjSrc\SrcDrfn\Chart\HWSTRATEGYANALYSIS\TabResult.cpp

; 230  : 		if(!m_GridResult.Create(rect1,this,IDC_STATIC_RESULT,WS_CHILD | WS_TABSTOP | WS_VISIBLE ))

  000ae	8d 85 24 ff ff
	ff		 lea	 eax, DWORD PTR _rect1$4[ebp]
  000b4	8b b5 b8 fe ff
	ff		 mov	 esi, DWORD PTR _this$GSCopy$1$[ebp]
  000ba	56		 push	 esi
  000bb	50		 push	 eax
  000bc	e8 00 00 00 00	 call	 ?Create@CGridCtrl@@QAEHABUtagRECT@@PAVCWnd@@IK@Z ; CGridCtrl::Create
  000c1	85 c0		 test	 eax, eax
  000c3	75 11		 jne	 SHORT $LN9@InitGrid

; 231  : 		{
; 232  : 			AfxMessageBox("No");

  000c5	50		 push	 eax
  000c6	50		 push	 eax
  000c7	68 00 00 00 00	 push	 OFFSET ??_C@_02JINPPBEP@No@
  000cc	e8 00 00 00 00	 call	 ?AfxMessageBox@@YGHPBDII@Z ; AfxMessageBox

; 233  : 			return;

  000d1	e9 13 03 00 00	 jmp	 $LN8@InitGrid
$LN9@InitGrid:
; File D:\git\src\IBK\IBK_DRFN\ProjSrc\SrcDrfn\Chart\HWSTRATEGYANALYSIS\GridCtrl_src\GridCtrl.h

; 793  :     return (CGridCellBase*) &m_cellDefault;

  000d6	8d 8f 5c 01 00
	00		 lea	 ecx, DWORD PTR [edi+348]
; File D:\git\src\IBK\IBK_DRFN\ProjSrc\SrcDrfn\Chart\HWSTRATEGYANALYSIS\TabResult.cpp

; 235  : 		m_GridResult.SetEditable(FALSE);

  000dc	c7 86 40 03 00
	00 00 00 00 00	 mov	 DWORD PTR [esi+832], 0

; 236  : 		m_GridResult.GetDefaultCell(FALSE, FALSE)->SetBackClr(RGB(255, 255, 255));

  000e6	8b 01		 mov	 eax, DWORD PTR [ecx]
  000e8	68 ff ff ff 00	 push	 16777215		; 00ffffffH
  000ed	ff 50 2c	 call	 DWORD PTR [eax+44]

; 237  : 		m_GridResult.SetGridLineColor(RGB(204,210,224));
; 238  : 		m_GridResult.SetColumnCount(6);

  000f0	6a 06		 push	 6
  000f2	8b cf		 mov	 ecx, edi
  000f4	c7 86 14 03 00
	00 cc d2 e0 00	 mov	 DWORD PTR [esi+788], 14734028 ; 00e0d2ccH
  000fe	e8 00 00 00 00	 call	 ?SetColumnCount@CGridCtrl@@QAEHH@Z ; CGridCtrl::SetColumnCount

; 239  : 		m_GridResult.SetRowCount(14);

  00103	6a 0e		 push	 14			; 0000000eH
  00105	8b cf		 mov	 ecx, edi
  00107	e8 00 00 00 00	 call	 ?SetRowCount@CGridCtrl@@QAEHH@Z ; CGridCtrl::SetRowCount

; 240  : 		m_GridResult.SetBkColor(CLR_BACKGROUND);
; 241  : 		if(m_pFont)

  0010c	8b 86 18 07 00
	00		 mov	 eax, DWORD PTR [esi+1816]
  00112	c7 86 10 03 00
	00 ff ff ff 00	 mov	 DWORD PTR [esi+784], 16777215 ; 00ffffffH
  0011c	85 c0		 test	 eax, eax
  0011e	74 13		 je	 SHORT $LN10@InitGrid
; File C:\Program Files (x86)\Microsoft Visual Studio\2019\Community\VC\Tools\MSVC\14.29.30133\atlmfc\include\afxwin2.inl

; 43   : 	{ ASSERT(::IsWindow(m_hWnd)); ::SendMessage(m_hWnd, WM_SETFONT, (WPARAM)pFont->GetSafeHandle(), bRedraw); }

  00120	6a 01		 push	 1
  00122	ff 70 04	 push	 DWORD PTR [eax+4]
  00125	6a 30		 push	 48			; 00000030H
  00127	ff b6 a8 02 00
	00		 push	 DWORD PTR [esi+680]
  0012d	ff 15 00 00 00
	00		 call	 DWORD PTR __imp__SendMessageA@16
$LN10@InitGrid:
; File D:\git\src\IBK\IBK_DRFN\ProjSrc\SrcDrfn\Chart\HWSTRATEGYANALYSIS\TabResult.cpp

; 244  : 		CString str;

  00133	8d 8d a4 fe ff
	ff		 lea	 ecx, DWORD PTR _str$2[ebp]
  00139	ff 15 00 00 00
	00		 call	 DWORD PTR __imp_??0?$CStringT@DV?$StrTraitMFC_DLL@DV?$ChTraitsCRT@D@ATL@@@@@ATL@@QAE@XZ
  0013f	8d 8d 20 ff ff
	ff		 lea	 ecx, DWORD PTR _Item$3[ebp+100]
  00145	c7 45 fc 00 00
	00 00		 mov	 DWORD PTR __$EHRec$[ebp+8], 0
  0014c	ff 15 00 00 00
	00		 call	 DWORD PTR __imp_??0?$CStringT@DV?$StrTraitMFC_DLL@DV?$ChTraitsCRT@D@ATL@@@@@ATL@@QAE@XZ

; 245  : 		GV_ITEM Item;
; 246  : 		int nWidth = (rect1.right/6) -3;

  00152	b8 ab aa aa 2a	 mov	 eax, 715827883		; 2aaaaaabH
  00157	c6 45 fc 01	 mov	 BYTE PTR __$EHRec$[ebp+8], 1
  0015b	f7 ad 2c ff ff
	ff		 imul	 DWORD PTR _rect1$4[ebp+8]
  00161	0f 57 c0	 xorps	 xmm0, xmm0

; 247  : 		char* IndexName[47]={"","","/","","","","","/","","","","","","",
; 248  : 										"","","","","","","","()","","","","","","",
; 249  : 										"","","",""," ","","","()","","","","","",""};

  00164	0f 11 45 dc	 movups	 XMMWORD PTR _IndexName$5[ebp+168], xmm0
  00168	c7 85 34 ff ff
	ff 00 00 00 00	 mov	 DWORD PTR _IndexName$5[ebp], OFFSET ??_C@_0L@FJFCOKJ@?$LE?$KJ?$MA?$PL?$LM?v?$MA?M?$LH?$PM@
  00172	8b ca		 mov	 ecx, edx
  00174	c7 85 38 ff ff
	ff 00 00 00 00	 mov	 DWORD PTR _IndexName$5[ebp+4], OFFSET ??_C@_06GNECPJOA@?C?Q?$LM?U?$MA?M@
  0017e	c1 e9 1f	 shr	 ecx, 31			; 0000001fH
  00181	83 c1 fd	 add	 ecx, -3			; fffffffdH
  00184	c7 85 3c ff ff
	ff 00 00 00 00	 mov	 DWORD PTR _IndexName$5[ebp+8], OFFSET ??_C@_0O@KHPIEGBI@?C?Q?$MA?L?$MA?M?1?C?Q?$LM?U?$LN?G@
  0018e	03 ca		 add	 ecx, edx
  00190	c7 85 40 ff ff
	ff 00 00 00 00	 mov	 DWORD PTR _IndexName$5[ebp+12], OFFSET ??_C@_0N@NJFCNOGE@?$LA?G?$LK?$LA?F?r?$LB?U?$LM?U?$MA?M@
  0019a	33 c0		 xor	 eax, eax
  0019c	89 8d ac fe ff
	ff		 mov	 DWORD PTR _nWidth$1$[ebp], ecx
  001a2	c7 85 44 ff ff
	ff 00 00 00 00	 mov	 DWORD PTR _IndexName$5[ebp+16], OFFSET ??_C@_06KFFIADGF@?C?Q?A?x?$MA?T@
  001ac	c7 85 48 ff ff
	ff 00 00 00 00	 mov	 DWORD PTR _IndexName$5[ebp+20], OFFSET ??_C@_00CNPNBAHC@@
  001b6	c7 85 4c ff ff
	ff 00 00 00 00	 mov	 DWORD PTR _IndexName$5[ebp+24], OFFSET ??_C@_08OPDCDADA@?C?Q?$LI?E?$LI?E?$LM?v@
  001c0	c7 85 50 ff ff
	ff 00 00 00 00	 mov	 DWORD PTR _IndexName$5[ebp+28], OFFSET ??_C@_0O@CIHDHIEL@?$MA?L?$MA?M?$LM?v?1?$LM?U?$LN?G?$LM?v@
  001ca	c7 85 54 ff ff
	ff 00 00 00 00	 mov	 DWORD PTR _IndexName$5[ebp+32], OFFSET ??_C@_0L@OFFEDCHL@?$LB?b?$LA?$KD?$LF?n?$LG?t?$LH?$PM@
  001d4	c7 85 58 ff ff
	ff 00 00 00 00	 mov	 DWORD PTR _IndexName$5[ebp+36], OFFSET ??_C@_0P@HMJADPNA@?$MA?$PM?$LH?$KL?C?J?$LA?z?$LM?v?$MA?M?$LH?$PM@
  001de	c7 85 5c ff ff
	ff 00 00 00 00	 mov	 DWORD PTR _IndexName$5[ebp+40], OFFSET ??_C@_00CNPNBAHC@@
  001e8	c7 85 60 ff ff
	ff 00 00 00 00	 mov	 DWORD PTR _IndexName$5[ebp+44], OFFSET ??_C@_06OEJMNFOB@?C?Q?$LK?$MA?$LM?v@
  001f2	c7 85 64 ff ff
	ff 00 00 00 00	 mov	 DWORD PTR _IndexName$5[ebp+48], OFFSET ??_C@_0L@IJLGNGBO@?$LB?b?$LA?$KD?B?$PM?$LP?$KJ?$MA?$LC@
  001fc	c7 85 68 ff ff
	ff 00 00 00 00	 mov	 DWORD PTR _IndexName$5[ebp+52], OFFSET ??_C@_0N@PDNPFNDD@?F?r?$LB?U?$LI?E?$LI?E?$LK?$MA?$LM?v@
  00206	c7 85 6c ff ff
	ff 00 00 00 00	 mov	 DWORD PTR _IndexName$5[ebp+56], OFFSET ??_C@_0P@JJNKLJJO@?$LA?G?$LK?$LA?F?r?$LB?U?$LM?v?$MA?M?$LH?$PM@
  00210	c7 85 70 ff ff
	ff 00 00 00 00	 mov	 DWORD PTR _IndexName$5[ebp+60], OFFSET ??_C@_06HMHBOMDL@?C?Q?$MA?L?$MA?M@
  0021a	c7 85 74 ff ff
	ff 00 00 00 00	 mov	 DWORD PTR _IndexName$5[ebp+64], OFFSET ??_C@_0N@JDICKLCG@?$LA?G?$LK?$LA?C?V?$LE?k?$MA?L?$MA?M@
  00224	c7 85 78 ff ff
	ff 00 00 00 00	 mov	 DWORD PTR _IndexName$5[ebp+68], OFFSET ??_C@_0N@MIGBMLLP@?$LA?G?$LK?$LA?F?r?$LB?U?$MA?L?$MA?M@
  0022e	c7 85 7c ff ff
	ff 00 00 00 00	 mov	 DWORD PTR _IndexName$5[ebp+72], OFFSET ??_C@_0BB@NJCLLDAP@?$LJ?L?C?$LL?$LL?j?F?w?G?T?C?Q?C?$LL?$LL?j@
  00238	c7 45 80 00 00
	00 00		 mov	 DWORD PTR _IndexName$5[ebp+76], OFFSET ??_C@_00CNPNBAHC@@
  0023f	c7 45 84 00 00
	00 00		 mov	 DWORD PTR _IndexName$5[ebp+80], OFFSET ??_C@_0L@LDAPEPIM@?$MA?L?$MA?M?$LI?E?$LI?E?$LM?v@
  00246	c7 45 88 00 00
	00 00		 mov	 DWORD PTR _IndexName$5[ebp+84], OFFSET ??_C@_0BB@CGAEBIGF@?$MA?L?$MA?M?$LI?E?$LI?E?$MA?$LC?$CI?$LN?B?$LH?$PM?$CJ@
  0024d	c7 45 8c 00 00
	00 00		 mov	 DWORD PTR _IndexName$5[ebp+88], OFFSET ??_C@_0P@KPEIILEB@?C?V?$LE?k?$LP?$KM?$LM?S?$MA?L?$MA?M?$LM?v@
  00254	c7 45 90 00 00
	00 00		 mov	 DWORD PTR _IndexName$5[ebp+92], OFFSET ??_C@_0N@OAECDKHI@?C?V?$LE?k?$LP?$KM?$LM?S?$MA?L?$MA?M@
  0025b	c7 45 94 00 00
	00 00		 mov	 DWORD PTR _IndexName$5[ebp+96], OFFSET ??_C@_00CNPNBAHC@@
  00262	c7 45 98 00 00
	00 00		 mov	 DWORD PTR _IndexName$5[ebp+100], OFFSET ??_C@_0N@KFPHCLNL@?$MA?L?$MA?M?$LI?E?$LI?E?$LK?$MA?$LM?v@
  00269	c7 45 9c 00 00
	00 00		 mov	 DWORD PTR _IndexName$5[ebp+104], OFFSET ??_C@_0N@FOGALCGL@?A?x?$MA?T?$LL?s?E?B?$LK?$MA?$LM?v@
  00270	c7 45 a0 00 00
	00 00		 mov	 DWORD PTR _IndexName$5[ebp+108], OFFSET ??_C@_0BB@KLAEHKOB@?$MA?L?$MA?M?$LI?E?$LI?E?F?r?$LB?U?$LK?$MA?$LM?v@
  00277	c7 45 a4 00 00
	00 00		 mov	 DWORD PTR _IndexName$5[ebp+112], OFFSET ??_C@_0BB@NADIPDBG@?G?v?$MA?g?F?w?A?v?$LM?G?$LM?v?$MA?M?$LH?$PM@
  0027e	c7 45 a8 00 00
	00 00		 mov	 DWORD PTR _IndexName$5[ebp+116], OFFSET ??_C@_06MLIEOKGJ@?C?Q?$LM?U?$LN?G@
  00285	c7 45 ac 00 00
	00 00		 mov	 DWORD PTR _IndexName$5[ebp+120], OFFSET ??_C@_0N@CEHHKNHE@?$LA?G?$LK?$LA?C?V?$LE?k?$LM?U?$LN?G@
  0028c	c7 45 b0 00 00
	00 00		 mov	 DWORD PTR _IndexName$5[ebp+124], OFFSET ??_C@_0N@HPJEMNON@?$LA?G?$LK?$LA?F?r?$LB?U?$LM?U?$LN?G@
  00293	c7 45 b4 00 00
	00 00		 mov	 DWORD PTR _IndexName$5[ebp+128], OFFSET ??_C@_01CLKCMJKC@?5@
  0029a	c7 45 b8 00 00
	00 00		 mov	 DWORD PTR _IndexName$5[ebp+132], OFFSET ??_C@_00CNPNBAHC@@
  002a1	c7 45 bc 00 00
	00 00		 mov	 DWORD PTR _IndexName$5[ebp+136], OFFSET ??_C@_0L@MKABNNA@?$LM?U?$LN?G?$LI?E?$LI?E?$LM?v@
  002a8	c7 45 c0 00 00
	00 00		 mov	 DWORD PTR _IndexName$5[ebp+140], OFFSET ??_C@_0BB@DDLIPNDD@?$LM?U?$LN?G?$LI?E?$LI?E?$MA?$LC?$CI?F?P?$MA?$LC?$CJ@
  002af	c7 45 c4 00 00
	00 00		 mov	 DWORD PTR _IndexName$5[ebp+144], OFFSET ??_C@_0P@MOKGKGFH@?C?V?$LE?k?$LP?$KM?$LM?S?$LM?U?$LN?G?$LM?v@
  002b6	c7 45 c8 00 00
	00 00		 mov	 DWORD PTR _IndexName$5[ebp+148], OFFSET ??_C@_0N@FHLHDMCK@?C?V?$LE?k?$LP?$KM?$LM?S?$LM?U?$LN?G@
  002bd	c7 45 cc 00 00
	00 00		 mov	 DWORD PTR _IndexName$5[ebp+152], OFFSET ??_C@_00CNPNBAHC@@
  002c4	c7 45 d0 00 00
	00 00		 mov	 DWORD PTR _IndexName$5[ebp+156], OFFSET ??_C@_0N@DGJMLGPE@?$LM?U?$LN?G?$LI?E?$LI?E?$LK?$MA?$LM?v@
  002cb	c7 45 d4 00 00
	00 00		 mov	 DWORD PTR _IndexName$5[ebp+160], OFFSET ??_C@_0N@NCPIAFBM@?C?$LL?$LL?j?$LL?s?E?B?$LK?$MA?$LM?v@
  002d2	c7 45 d8 00 00
	00 00		 mov	 DWORD PTR _IndexName$5[ebp+164], OFFSET ??_C@_0BB@EJJBJOLI@?$LM?U?$LN?G?$LI?E?$LI?E?F?r?$LB?U?$LK?$MA?$LM?v@
  002d9	c7 45 ec 00 00
	00 00		 mov	 DWORD PTR _IndexName$5[ebp+184], 0

; 250  : 		int nRowIndex =0;

  002e0	c7 85 b0 fe ff
	ff 00 00 00 00	 mov	 DWORD PTR _nRowIndex$1$[ebp], 0
  002ea	89 85 b8 fe ff
	ff		 mov	 DWORD PTR _col$1$[ebp], eax
$LL4@InitGrid:

; 252  : 		{
; 253  : 			Item.mask = GVIF_TEXT;
; 254  : 			m_GridResult.SetColumnWidth(col,nWidth);

  002f0	51		 push	 ecx
  002f1	50		 push	 eax
  002f2	8b cf		 mov	 ecx, edi
  002f4	c7 85 c4 fe ff
	ff 01 00 00 00	 mov	 DWORD PTR _Item$3[ebp+8], 1
  002fe	e8 00 00 00 00	 call	 ?SetColumnWidth@CGridCtrl@@QAEHHH@Z ; CGridCtrl::SetColumnWidth

; 255  : 			if(!(col%2))

  00303	8b 85 b8 fe ff
	ff		 mov	 eax, DWORD PTR _col$1$[ebp]
  00309	a8 01		 test	 al, 1
  0030b	0f 85 93 00 00
	00		 jne	 $LN2@InitGrid

; 256  : 			{
; 257  : 				Item.nFormat = DT_CENTER;

  00311	c7 85 cc fe ff
	ff 01 00 00 00	 mov	 DWORD PTR _Item$3[ebp+16], 1
  0031b	33 f6		 xor	 esi, esi
  0031d	8b f8		 mov	 edi, eax
  0031f	90		 npad	 1
$LL7@InitGrid:

; 258  : 				for(int row = 0; row<14;row++)
; 259  : 				{
; 260  : 					m_GridResult.SetRowHeight(row,23);

  00320	8b 8d b4 fe ff
	ff		 mov	 ecx, DWORD PTR _this$1$[ebp]
  00326	6a 17		 push	 23			; 00000017H
  00328	56		 push	 esi
  00329	e8 00 00 00 00	 call	 ?SetRowHeight@CGridCtrl@@QAEHHH@Z ; CGridCtrl::SetRowHeight

; 261  : 					if(IndexName[nRowIndex]=="")

  0032e	8b 85 b0 fe ff
	ff		 mov	 eax, DWORD PTR _nRowIndex$1$[ebp]
  00334	81 bc 85 34 ff
	ff ff 00 00 00
	00		 cmp	 DWORD PTR _IndexName$5[ebp+eax*4], OFFSET ??_C@_00CNPNBAHC@@
  0033f	75 1c		 jne	 SHORT $LN12@InitGrid

; 262  : 					{
; 263  : 						m_GridResult.SetItemBkColour(row,col,RGB(204,210,224));

  00341	8b 8d b4 fe ff
	ff		 mov	 ecx, DWORD PTR _this$1$[ebp]
  00347	68 cc d2 e0 00	 push	 14734028		; 00e0d2ccH
  0034c	57		 push	 edi
  0034d	56		 push	 esi
  0034e	e8 00 00 00 00	 call	 ?SetItemBkColour@CGridCtrl@@QAEHHHK@Z ; CGridCtrl::SetItemBkColour

; 264  : 						m_GridResult.SetItemBkColour(row,col+1,RGB(204,210,224));

  00353	8d 47 01	 lea	 eax, DWORD PTR [edi+1]
  00356	b9 cc d2 e0 00	 mov	 ecx, 14734028		; 00e0d2ccH

; 265  : 					}

  0035b	eb 07		 jmp	 SHORT $LN13@InitGrid
$LN12@InitGrid:

; 266  : 					else
; 267  : 						m_GridResult.SetItemBkColour(row,col,RGB(242,248,254));

  0035d	8b c7		 mov	 eax, edi
  0035f	b9 f2 f8 fe 00	 mov	 ecx, 16709874		; 00fef8f2H
$LN13@InitGrid:

; 268  : 					m_GridResult.SetItemText(row,col,IndexName[nRowIndex]);

  00364	51		 push	 ecx
  00365	8b 8d b4 fe ff
	ff		 mov	 ecx, DWORD PTR _this$1$[ebp]
  0036b	50		 push	 eax
  0036c	56		 push	 esi
  0036d	e8 00 00 00 00	 call	 ?SetItemBkColour@CGridCtrl@@QAEHHHK@Z ; CGridCtrl::SetItemBkColour
  00372	8b 85 b0 fe ff
	ff		 mov	 eax, DWORD PTR _nRowIndex$1$[ebp]
  00378	8b 8d b4 fe ff
	ff		 mov	 ecx, DWORD PTR _this$1$[ebp]
  0037e	ff b4 85 34 ff
	ff ff		 push	 DWORD PTR _IndexName$5[ebp+eax*4]
  00385	57		 push	 edi
  00386	56		 push	 esi
  00387	e8 00 00 00 00	 call	 ?SetItemText@CGridCtrl@@QAEHHHPBD@Z ; CGridCtrl::SetItemText

; 269  : 					++nRowIndex;

  0038c	ff 85 b0 fe ff
	ff		 inc	 DWORD PTR _nRowIndex$1$[ebp]
  00392	46		 inc	 esi
  00393	83 fe 0e	 cmp	 esi, 14			; 0000000eH
  00396	7c 88		 jl	 SHORT $LL7@InitGrid
  00398	8b 85 b8 fe ff
	ff		 mov	 eax, DWORD PTR _col$1$[ebp]
  0039e	8b bd b4 fe ff
	ff		 mov	 edi, DWORD PTR _this$1$[ebp]
$LN2@InitGrid:

; 251  : 		for (int col = 0; col < 6; col++)

  003a4	8b 8d ac fe ff
	ff		 mov	 ecx, DWORD PTR _nWidth$1$[ebp]
  003aa	40		 inc	 eax
  003ab	89 85 b8 fe ff
	ff		 mov	 DWORD PTR _col$1$[ebp], eax
  003b1	83 f8 06	 cmp	 eax, 6
  003b4	0f 8c 36 ff ff
	ff		 jl	 $LL4@InitGrid

; 270  : 				}
; 271  : 			}
; 272  : 
; 273  : 		}
; 274  : 		m_GridResult.ExpandColumnsToFit();

  003ba	6a 01		 push	 1
  003bc	8b cf		 mov	 ecx, edi
  003be	e8 00 00 00 00	 call	 ?ExpandColumnsToFit@CGridCtrl@@QAEXH@Z ; CGridCtrl::ExpandColumnsToFit
; File C:\Program Files (x86)\Microsoft Visual Studio\2019\Community\VC\Tools\MSVC\14.29.30133\atlmfc\include\afxwin1.inl

; 27   : 	{ ASSERT(hInstResource != NULL); afxCurrentResourceHandle = hInstResource; }

  003c3	e8 00 00 00 00	 call	 ?AfxGetModuleState@@YGPAVAFX_MODULE_STATE@@XZ ; AfxGetModuleState
  003c8	8b 8d a8 fe ff
	ff		 mov	 ecx, DWORD PTR _hInst$1$[ebp]
  003ce	89 48 0c	 mov	 DWORD PTR [eax+12], ecx
  003d1	8d 8d 20 ff ff
	ff		 lea	 ecx, DWORD PTR _Item$3[ebp+100]
  003d7	ff 15 00 00 00
	00		 call	 DWORD PTR __imp_??1?$CStringT@DV?$StrTraitMFC_DLL@DV?$ChTraitsCRT@D@ATL@@@@@ATL@@QAE@XZ
; File D:\git\src\IBK\IBK_DRFN\ProjSrc\SrcDrfn\Chart\HWSTRATEGYANALYSIS\TabResult.cpp

; 276  : 	}

  003dd	8d 8d a4 fe ff
	ff		 lea	 ecx, DWORD PTR _str$2[ebp]
  003e3	ff 15 00 00 00
	00		 call	 DWORD PTR __imp_??1?$CStringT@DV?$StrTraitMFC_DLL@DV?$ChTraitsCRT@D@ATL@@@@@ATL@@QAE@XZ
$LN8@InitGrid:

; 277  : }

  003e9	8b 4d f4	 mov	 ecx, DWORD PTR __$EHRec$[ebp]
  003ec	64 89 0d 00 00
	00 00		 mov	 DWORD PTR fs:0, ecx
  003f3	59		 pop	 ecx
  003f4	5f		 pop	 edi
  003f5	5e		 pop	 esi
  003f6	8b 4d f0	 mov	 ecx, DWORD PTR __$ArrayPad$[ebp]
  003f9	33 cd		 xor	 ecx, ebp
  003fb	e8 00 00 00 00	 call	 @__security_check_cookie@4
  00400	8b e5		 mov	 esp, ebp
  00402	5d		 pop	 ebp
  00403	c3		 ret	 0
_TEXT	ENDS
;	COMDAT text$x
text$x	SEGMENT
__unwindfunclet$?InitGrid@CTabResult@@QAEXXZ$0:
  00000	8d 8d a4 fe ff
	ff		 lea	 ecx, DWORD PTR _str$2[ebp]
  00006	ff 25 00 00 00
	00		 jmp	 DWORD PTR __imp_??1?$CStringT@DV?$StrTraitMFC_DLL@DV?$ChTraitsCRT@D@ATL@@@@@ATL@@QAE@XZ
__unwindfunclet$?InitGrid@CTabResult@@QAEXXZ$1:
  0000c	8d 8d bc fe ff
	ff		 lea	 ecx, DWORD PTR _Item$3[ebp]
  00012	e9 00 00 00 00	 jmp	 ??1_GV_ITEM@@QAE@XZ
  00017	cc		 int	 3
  00018	cc		 int	 3
  00019	cc		 int	 3
  0001a	cc		 int	 3
  0001b	cc		 int	 3
__ehhandler$?InitGrid@CTabResult@@QAEXXZ:
  0001c	90		 npad	 1
  0001d	90		 npad	 1
  0001e	8b 54 24 08	 mov	 edx, DWORD PTR [esp+8]
  00022	8d 42 0c	 lea	 eax, DWORD PTR [edx+12]
  00025	8b 8a a4 fe ff
	ff		 mov	 ecx, DWORD PTR [edx-348]
  0002b	33 c8		 xor	 ecx, eax
  0002d	e8 00 00 00 00	 call	 @__security_check_cookie@4
  00032	8b 4a fc	 mov	 ecx, DWORD PTR [edx-4]
  00035	33 c8		 xor	 ecx, eax
  00037	e8 00 00 00 00	 call	 @__security_check_cookie@4
  0003c	b8 00 00 00 00	 mov	 eax, OFFSET __ehfuncinfo$?InitGrid@CTabResult@@QAEXXZ
  00041	e9 00 00 00 00	 jmp	 ___CxxFrameHandler3
text$x	ENDS
?InitGrid@CTabResult@@QAEXXZ ENDP			; CTabResult::InitGrid
; Function compile flags: /Ogtp
; File D:\git\src\IBK\IBK_DRFN\ProjSrc\SrcDrfn\Chart\HWSTRATEGYANALYSIS\TabResult.cpp
; File C:\Program Files (x86)\Microsoft Visual Studio\2019\Community\VC\Tools\MSVC\14.29.30133\atlmfc\include\cstringt.h
; File D:\git\src\IBK\IBK_DRFN\ProjSrc\SrcDrfn\Chart\HWSTRATEGYANALYSIS\TabResult.cpp
; File C:\Program Files (x86)\Microsoft Visual Studio\2019\Community\VC\Tools\MSVC\14.29.30133\atlmfc\include\cstringt.h
; File C:\Program Files (x86)\Microsoft Visual Studio\2019\Community\VC\Tools\MSVC\14.29.30133\atlmfc\include\atlsimpstr.h
; File C:\Program Files (x86)\Microsoft Visual Studio\2019\Community\VC\Tools\MSVC\14.29.30133\atlmfc\include\cstringt.h
; File D:\git\src\IBK\IBK_DRFN\ProjSrc\SrcDrfn\Chart\HWSTRATEGYANALYSIS\TabResult.cpp
;	COMDAT ?ParsingstrHtml2@CTabResult@@QAEHAAV?$CStringT@DV?$StrTraitMFC_DLL@DV?$ChTraitsCRT@D@ATL@@@@@ATL@@@Z
_TEXT	SEGMENT
_DefaultFile$ = -48					; size = 20
_Strate$1$ = -28					; size = 4
$T2 = -28						; size = 4
$T3 = -24						; size = 4
_szIndex$ = -20						; size = 3
_chRead$ = -16						; size = 2
__$EHRec$ = -12						; size = 12
_strHtml$ = 8						; size = 4
?ParsingstrHtml2@CTabResult@@QAEHAAV?$CStringT@DV?$StrTraitMFC_DLL@DV?$ChTraitsCRT@D@ATL@@@@@ATL@@@Z PROC ; CTabResult::ParsingstrHtml2, COMDAT
; _this$ = ecx

; 578  : {

  00000	55		 push	 ebp
  00001	8b ec		 mov	 ebp, esp
  00003	6a ff		 push	 -1
  00005	68 00 00 00 00	 push	 __ehhandler$?ParsingstrHtml2@CTabResult@@QAEHAAV?$CStringT@DV?$StrTraitMFC_DLL@DV?$ChTraitsCRT@D@ATL@@@@@ATL@@@Z
  0000a	64 a1 00 00 00
	00		 mov	 eax, DWORD PTR fs:0
  00010	50		 push	 eax
  00011	83 ec 24	 sub	 esp, 36			; 00000024H
  00014	53		 push	 ebx
  00015	56		 push	 esi
  00016	57		 push	 edi
  00017	a1 00 00 00 00	 mov	 eax, DWORD PTR ___security_cookie
  0001c	33 c5		 xor	 eax, ebp
  0001e	50		 push	 eax
  0001f	8d 45 f4	 lea	 eax, DWORD PTR __$EHRec$[ebp]
  00022	64 a3 00 00 00
	00		 mov	 DWORD PTR fs:0, eax
  00028	8b f9		 mov	 edi, ecx

; 579  : 	CFile DefaultFile;

  0002a	8d 4d d0	 lea	 ecx, DWORD PTR _DefaultFile$[ebp]
  0002d	c7 45 e4 00 00
	00 00		 mov	 DWORD PTR $T2[ebp], 0
  00034	e8 00 00 00 00	 call	 ??0CFile@@QAE@XZ	; CFile::CFile
  00039	c7 45 fc 00 00
	00 00		 mov	 DWORD PTR __$EHRec$[ebp+8], 0
; File C:\Program Files (x86)\Microsoft Visual Studio\2019\Community\VC\Tools\MSVC\14.29.30133\atlmfc\include\cstringt.h

; 2401 : 		CStringT strResult( str1.GetManager() );

  00040	8d 8f 44 01 00
	00		 lea	 ecx, DWORD PTR [edi+324]
; File D:\git\src\IBK\IBK_DRFN\ProjSrc\SrcDrfn\Chart\HWSTRATEGYANALYSIS\TabResult.cpp

; 580  : 	if(!DefaultFile.Open(m_strFilePath+"\\-2.htm",CFile::modeRead))

  00046	c6 45 fc 01	 mov	 BYTE PTR __$EHRec$[ebp+8], 1
; File C:\Program Files (x86)\Microsoft Visual Studio\2019\Community\VC\Tools\MSVC\14.29.30133\atlmfc\include\cstringt.h

; 2401 : 		CStringT strResult( str1.GetManager() );

  0004a	ff 15 00 00 00
	00		 call	 DWORD PTR __imp_?GetManager@?$CStringT@DV?$StrTraitMFC_DLL@DV?$ChTraitsCRT@D@ATL@@@@@ATL@@QBEPAUIAtlStringMgr@2@XZ
  00050	50		 push	 eax
  00051	8d 4d e8	 lea	 ecx, DWORD PTR $T3[ebp]
  00054	ff 15 00 00 00
	00		 call	 DWORD PTR __imp_??0?$CStringT@DV?$StrTraitMFC_DLL@DV?$ChTraitsCRT@D@ATL@@@@@ATL@@QAE@PAUIAtlStringMgr@1@@Z
; File C:\Program Files (x86)\Microsoft Visual Studio\2019\Community\VC\Tools\MSVC\14.29.30133\atlmfc\include\atlsimpstr.h

; 519  : 		return( GetData()->nDataLength );

  0005a	8b 87 44 01 00
	00		 mov	 eax, DWORD PTR [edi+324]
; File C:\Program Files (x86)\Microsoft Visual Studio\2019\Community\VC\Tools\MSVC\14.29.30133\atlmfc\include\cstringt.h

; 2403 : 		CThisSimpleString::Concatenate( strResult, str1, str1.GetLength(), psz2, CThisSimpleString::StringLength( psz2 ) );

  00060	6a 15		 push	 21			; 00000015H
  00062	68 00 00 00 00	 push	 OFFSET ??_C@_0BG@BGDHEHIP@?2?$LK?$LI?$LA?m?$LM?$KN?9?$LM?$LK?$LA?z?$LK?P?$LM?$KO2?4htm@

; 2404 : 
; 2405 : 		return( strResult );

  00067	c7 45 e4 01 00
	00 00		 mov	 DWORD PTR $T2[ebp], 1
  0006e	ff 70 f4	 push	 DWORD PTR [eax-12]
  00071	50		 push	 eax
  00072	8d 45 e8	 lea	 eax, DWORD PTR $T3[ebp]
  00075	50		 push	 eax
  00076	ff 15 00 00 00
	00		 call	 DWORD PTR __imp_?Concatenate@?$CSimpleStringT@D$00@ATL@@KAXAAV12@PBDH1H@Z
  0007c	83 c4 14	 add	 esp, 20			; 00000014H
; File D:\git\src\IBK\IBK_DRFN\ProjSrc\SrcDrfn\Chart\HWSTRATEGYANALYSIS\TabResult.cpp

; 580  : 	if(!DefaultFile.Open(m_strFilePath+"\\-2.htm",CFile::modeRead))

  0007f	8d 4d d0	 lea	 ecx, DWORD PTR _DefaultFile$[ebp]
  00082	6a 00		 push	 0
  00084	6a 00		 push	 0
  00086	ff 75 e8	 push	 DWORD PTR $T3[ebp]
  00089	e8 00 00 00 00	 call	 ?Open@CFile@@UAEHPBDIPAVCFileException@@@Z ; CFile::Open
  0008e	8d 4d e8	 lea	 ecx, DWORD PTR $T3[ebp]
  00091	c6 45 fc 00	 mov	 BYTE PTR __$EHRec$[ebp+8], 0
  00095	8b f0		 mov	 esi, eax
  00097	ff 15 00 00 00
	00		 call	 DWORD PTR __imp_??1?$CStringT@DV?$StrTraitMFC_DLL@DV?$ChTraitsCRT@D@ATL@@@@@ATL@@QAE@XZ
  0009d	85 f6		 test	 esi, esi
  0009f	75 11		 jne	 SHORT $LN4@Parsingstr

; 581  : 	{
; 582  : 		AfxMessageBox("Do Not Create -2.htm File.");

  000a1	56		 push	 esi
  000a2	56		 push	 esi
  000a3	68 00 00 00 00	 push	 OFFSET ??_C@_0CJ@CCHBIPPA@Do?5Not?5Create?5?$LK?$LI?$LA?m?$LM?$KN?9?$LM?$LK?$LA?z?$LK?P?$LM?$KO2?4@
  000a8	e8 00 00 00 00	 call	 ?AfxMessageBox@@YGHPBDII@Z ; AfxMessageBox
  000ad	e9 d7 00 00 00	 jmp	 $LN15@Parsingstr
$LN4@Parsingstr:

; 583  : 		return FALSE;
; 584  : 	}
; 585  : 
; 586  : 	CIStrategyItem* Strate = m_pDlgAnalysis->GetStrategyItem();

  000b2	8b 87 ac 00 00
	00		 mov	 eax, DWORD PTR [edi+172]

; 587  : 
; 588  : 	char chRead[2] = {NULL, };
; 589  : 	char szIndex[3] = {NULL, };
; 590  : 	while(DefaultFile.Read(chRead, 1))

  000b8	8d 4d d0	 lea	 ecx, DWORD PTR _DefaultFile$[ebp]
  000bb	6a 01		 push	 1
  000bd	8b 80 c4 00 00
	00		 mov	 eax, DWORD PTR [eax+196]
  000c3	89 45 e4	 mov	 DWORD PTR _Strate$1$[ebp], eax
  000c6	33 c0		 xor	 eax, eax
  000c8	66 89 45 f0	 mov	 WORD PTR _chRead$[ebp], ax
  000cc	66 89 45 ec	 mov	 WORD PTR _szIndex$[ebp], ax
  000d0	88 45 ee	 mov	 BYTE PTR _szIndex$[ebp+2], al
  000d3	8d 45 f0	 lea	 eax, DWORD PTR _chRead$[ebp]
  000d6	50		 push	 eax
  000d7	e8 00 00 00 00	 call	 ?Read@CFile@@UAEIPAXI@Z	; CFile::Read
  000dc	8b 75 08	 mov	 esi, DWORD PTR _strHtml$[ebp]
  000df	85 c0		 test	 eax, eax
  000e1	0f 84 83 00 00
	00		 je	 $LN32@Parsingstr
  000e7	8b 1d 00 00 00
	00		 mov	 ebx, DWORD PTR __imp__atoi
  000ed	0f 1f 00	 npad	 3
$LL2@Parsingstr:

; 591  : 	{
; 592  : 		if(*chRead == _T('K'))

  000f0	80 7d f0 4b	 cmp	 BYTE PTR _chRead$[ebp], 75 ; 0000004bH
  000f4	8d 45 f0	 lea	 eax, DWORD PTR _chRead$[ebp]
  000f7	75 56		 jne	 SHORT $LN5@Parsingstr

; 593  : 		{
; 594  : 			if(!DefaultFile.Read(chRead, 1))

  000f9	6a 01		 push	 1
  000fb	50		 push	 eax
  000fc	8d 4d d0	 lea	 ecx, DWORD PTR _DefaultFile$[ebp]
  000ff	e8 00 00 00 00	 call	 ?Read@CFile@@UAEIPAXI@Z	; CFile::Read
  00104	85 c0		 test	 eax, eax
  00106	74 62		 je	 SHORT $LN32@Parsingstr

; 595  : 				break;
; 596  : 
; 597  : 			if(*chRead == _T('H'))

  00108	80 7d f0 48	 cmp	 BYTE PTR _chRead$[ebp], 72 ; 00000048H
  0010c	75 4a		 jne	 SHORT $LN6@Parsingstr

; 598  : 			{
; 599  : 				if(!DefaultFile.Read(chRead, 1))

  0010e	6a 01		 push	 1
  00110	8d 45 f0	 lea	 eax, DWORD PTR _chRead$[ebp]
  00113	50		 push	 eax
  00114	8d 4d d0	 lea	 ecx, DWORD PTR _DefaultFile$[ebp]
  00117	e8 00 00 00 00	 call	 ?Read@CFile@@UAEIPAXI@Z	; CFile::Read
  0011c	85 c0		 test	 eax, eax
  0011e	74 4a		 je	 SHORT $LN32@Parsingstr

; 600  : 					break;
; 601  : 
; 602  : 				if(*chRead == _T('D'))

  00120	80 7d f0 44	 cmp	 BYTE PTR _chRead$[ebp], 68 ; 00000044H
  00124	75 32		 jne	 SHORT $LN6@Parsingstr

; 603  : 				{
; 604  : 					if(!DefaultFile.Read(szIndex, 2))

  00126	6a 02		 push	 2
  00128	8d 45 ec	 lea	 eax, DWORD PTR _szIndex$[ebp]
  0012b	50		 push	 eax
  0012c	8d 4d d0	 lea	 ecx, DWORD PTR _DefaultFile$[ebp]
  0012f	e8 00 00 00 00	 call	 ?Read@CFile@@UAEIPAXI@Z	; CFile::Read
  00134	85 c0		 test	 eax, eax
  00136	74 32		 je	 SHORT $LN32@Parsingstr

; 605  : 						break;
; 606  : 
; 607  : 					//  
; 608  : 					InsertData2HtmlString(atoi(szIndex), strHtml, Strate);						

  00138	ff 75 e4	 push	 DWORD PTR _Strate$1$[ebp]
  0013b	8d 45 ec	 lea	 eax, DWORD PTR _szIndex$[ebp]
  0013e	56		 push	 esi
  0013f	50		 push	 eax
  00140	ff d3		 call	 ebx
  00142	83 c4 04	 add	 esp, 4
  00145	8b cf		 mov	 ecx, edi
  00147	50		 push	 eax
  00148	e8 00 00 00 00	 call	 ?InsertData2HtmlString@CTabResult@@QAEXFAAV?$CStringT@DV?$StrTraitMFC_DLL@DV?$ChTraitsCRT@D@ATL@@@@@ATL@@PAVCIStrategyItem0001@@@Z ; CTabResult::InsertData2HtmlString

; 609  : 				}
; 610  : 			}
; 611  : 		}

  0014d	eb 09		 jmp	 SHORT $LN6@Parsingstr
$LN5@Parsingstr:

; 612  : 		else
; 613  : 			strHtml += chRead;

  0014f	50		 push	 eax
  00150	8b ce		 mov	 ecx, esi
  00152	ff 15 00 00 00
	00		 call	 DWORD PTR __imp_??Y?$CStringT@DV?$StrTraitMFC_DLL@DV?$ChTraitsCRT@D@ATL@@@@@ATL@@QAEAAV01@PBD@Z
$LN6@Parsingstr:

; 587  : 
; 588  : 	char chRead[2] = {NULL, };
; 589  : 	char szIndex[3] = {NULL, };
; 590  : 	while(DefaultFile.Read(chRead, 1))

  00158	6a 01		 push	 1
  0015a	8d 45 f0	 lea	 eax, DWORD PTR _chRead$[ebp]
  0015d	50		 push	 eax
  0015e	8d 4d d0	 lea	 ecx, DWORD PTR _DefaultFile$[ebp]
  00161	e8 00 00 00 00	 call	 ?Read@CFile@@UAEIPAXI@Z	; CFile::Read
  00166	85 c0		 test	 eax, eax
  00168	75 86		 jne	 SHORT $LL2@Parsingstr
$LN32@Parsingstr:

; 614  : 
; 615  : 	}
; 616  : 
; 617  : 	strHtml.Replace("color=\"white\"", "");//

  0016a	68 00 00 00 00	 push	 OFFSET ??_C@_00CNPNBAHC@@
  0016f	68 00 00 00 00	 push	 OFFSET ??_C@_0O@NLCHHJFD@color?$DN?$CCwhite?$CC@
  00174	8b ce		 mov	 ecx, esi
  00176	ff 15 00 00 00
	00		 call	 DWORD PTR __imp_?Replace@?$CStringT@DV?$StrTraitMFC_DLL@DV?$ChTraitsCRT@D@ATL@@@@@ATL@@QAEHPBD0@Z

; 618  : 	DefaultFile.Close();

  0017c	8d 4d d0	 lea	 ecx, DWORD PTR _DefaultFile$[ebp]
  0017f	e8 00 00 00 00	 call	 ?Close@CFile@@UAEXXZ	; CFile::Close

; 619  : 
; 620  : 	return TRUE;

  00184	be 01 00 00 00	 mov	 esi, 1
$LN15@Parsingstr:
  00189	8d 4d d0	 lea	 ecx, DWORD PTR _DefaultFile$[ebp]
  0018c	e8 00 00 00 00	 call	 ??1CFile@@UAE@XZ	; CFile::~CFile
  00191	8b c6		 mov	 eax, esi

; 621  : }

  00193	8b 4d f4	 mov	 ecx, DWORD PTR __$EHRec$[ebp]
  00196	64 89 0d 00 00
	00 00		 mov	 DWORD PTR fs:0, ecx
  0019d	59		 pop	 ecx
  0019e	5f		 pop	 edi
  0019f	5e		 pop	 esi
  001a0	5b		 pop	 ebx
  001a1	8b e5		 mov	 esp, ebp
  001a3	5d		 pop	 ebp
  001a4	c2 04 00	 ret	 4
_TEXT	ENDS
;	COMDAT text$x
text$x	SEGMENT
__unwindfunclet$?ParsingstrHtml2@CTabResult@@QAEHAAV?$CStringT@DV?$StrTraitMFC_DLL@DV?$ChTraitsCRT@D@ATL@@@@@ATL@@@Z$0:
  00000	8d 4d d0	 lea	 ecx, DWORD PTR _DefaultFile$[ebp]
  00003	e9 00 00 00 00	 jmp	 ??1CFile@@UAE@XZ	; CFile::~CFile
__unwindfunclet$?ParsingstrHtml2@CTabResult@@QAEHAAV?$CStringT@DV?$StrTraitMFC_DLL@DV?$ChTraitsCRT@D@ATL@@@@@ATL@@@Z$2:
  00008	8b 45 e4	 mov	 eax, DWORD PTR $T2[ebp]
  0000b	83 e0 01	 and	 eax, 1
  0000e	0f 84 0d 00 00
	00		 je	 $LN19@Parsingstr
  00014	83 65 e4 fe	 and	 DWORD PTR $T2[ebp], -2	; fffffffeH
  00018	8d 4d e8	 lea	 ecx, DWORD PTR $T3[ebp]
  0001b	ff 25 00 00 00
	00		 jmp	 DWORD PTR __imp_??1?$CStringT@DV?$StrTraitMFC_DLL@DV?$ChTraitsCRT@D@ATL@@@@@ATL@@QAE@XZ
$LN19@Parsingstr:
  00021	c3		 ret	 0
  00022	cc		 int	 3
  00023	cc		 int	 3
  00024	cc		 int	 3
  00025	cc		 int	 3
  00026	cc		 int	 3
__ehhandler$?ParsingstrHtml2@CTabResult@@QAEHAAV?$CStringT@DV?$StrTraitMFC_DLL@DV?$ChTraitsCRT@D@ATL@@@@@ATL@@@Z:
  00027	90		 npad	 1
  00028	90		 npad	 1
  00029	8b 54 24 08	 mov	 edx, DWORD PTR [esp+8]
  0002d	8d 42 0c	 lea	 eax, DWORD PTR [edx+12]
  00030	8b 4a cc	 mov	 ecx, DWORD PTR [edx-52]
  00033	33 c8		 xor	 ecx, eax
  00035	e8 00 00 00 00	 call	 @__security_check_cookie@4
  0003a	b8 00 00 00 00	 mov	 eax, OFFSET __ehfuncinfo$?ParsingstrHtml2@CTabResult@@QAEHAAV?$CStringT@DV?$StrTraitMFC_DLL@DV?$ChTraitsCRT@D@ATL@@@@@ATL@@@Z
  0003f	e9 00 00 00 00	 jmp	 ___CxxFrameHandler3
text$x	ENDS
?ParsingstrHtml2@CTabResult@@QAEHAAV?$CStringT@DV?$StrTraitMFC_DLL@DV?$ChTraitsCRT@D@ATL@@@@@ATL@@@Z ENDP ; CTabResult::ParsingstrHtml2
; Function compile flags: /Ogtp
; File D:\git\src\IBK\IBK_DRFN\ProjSrc\SrcDrfn\Chart\HWSTRATEGYANALYSIS\TabResult.cpp
;	COMDAT ?InsertData2HtmlString@CTabResult@@QAEXFAAV?$CStringT@DV?$StrTraitMFC_DLL@DV?$ChTraitsCRT@D@ATL@@@@@ATL@@PAVCIStrategyItem0001@@@Z
_TEXT	SEGMENT
_stData$2 = -52						; size = 32
_dData$3 = -20						; size = 8
__$EHRec$ = -12						; size = 12
_strData$4 = 8						; size = 4
_nIndex$ = 8						; size = 2
_strHtml$ = 12						; size = 4
$T5 = 16						; size = 4
_pStrategy$ = 16					; size = 4
?InsertData2HtmlString@CTabResult@@QAEXFAAV?$CStringT@DV?$StrTraitMFC_DLL@DV?$ChTraitsCRT@D@ATL@@@@@ATL@@PAVCIStrategyItem0001@@@Z PROC ; CTabResult::InsertData2HtmlString, COMDAT
; _this$ = ecx

; 491  : {

  00000	55		 push	 ebp
  00001	8b ec		 mov	 ebp, esp
  00003	6a ff		 push	 -1
  00005	68 00 00 00 00	 push	 __ehhandler$?InsertData2HtmlString@CTabResult@@QAEXFAAV?$CStringT@DV?$StrTraitMFC_DLL@DV?$ChTraitsCRT@D@ATL@@@@@ATL@@PAVCIStrategyItem0001@@@Z
  0000a	64 a1 00 00 00
	00		 mov	 eax, DWORD PTR fs:0
  00010	50		 push	 eax
  00011	83 ec 28	 sub	 esp, 40			; 00000028H
  00014	56		 push	 esi
  00015	57		 push	 edi
  00016	a1 00 00 00 00	 mov	 eax, DWORD PTR ___security_cookie
  0001b	33 c5		 xor	 eax, ebp
  0001d	50		 push	 eax
  0001e	8d 45 f4	 lea	 eax, DWORD PTR __$EHRec$[ebp]
  00021	64 a3 00 00 00
	00		 mov	 DWORD PTR fs:0, eax
  00027	8b f9		 mov	 edi, ecx

; 492  : 	if(nIndex < 0)

  00029	66 8b 75 08	 mov	 si, WORD PTR _nIndex$[ebp]
  0002d	66 85 f6	 test	 si, si
  00030	0f 89 2a 02 00
	00		 jns	 $LN43@InsertData

; 493  : 	{
; 494  : 		switch(nIndex)

  00036	0f bf c6	 movsx	 eax, si
  00039	83 c0 05	 add	 eax, 5
  0003c	83 f8 04	 cmp	 eax, 4
  0003f	0f 87 ef 02 00
	00		 ja	 $LN21@InsertData
  00045	ff 24 85 00 00
	00 00		 jmp	 DWORD PTR $LN40@InsertData[eax*4]
$LN8@InsertData:

; 495  : 		{
; 496  : 		case -1:	// CurrentPos
; 497  : 			{
; 498  : 				int nSize = pStrategy->GetCntStrategyResult();

  0004c	8b 75 10	 mov	 esi, DWORD PTR _pStrategy$[ebp]
  0004f	8b ce		 mov	 ecx, esi
  00051	8b 06		 mov	 eax, DWORD PTR [esi]
  00053	ff 50 48	 call	 DWORD PTR [eax+72]

; 499  : 				if(nSize > 0)

  00056	85 c0		 test	 eax, eax
  00058	7e 68		 jle	 SHORT $LN9@InsertData

; 500  : 				{
; 501  : 					CStrategyResult* Result = pStrategy->GetStrategyResult(nSize-1);

  0005a	8b 16		 mov	 edx, DWORD PTR [esi]
  0005c	48		 dec	 eax
  0005d	50		 push	 eax
  0005e	8b ce		 mov	 ecx, esi
  00060	ff 52 4c	 call	 DWORD PTR [edx+76]

; 502  : 					switch(Result->m_DealType) 

  00063	8b 40 04	 mov	 eax, DWORD PTR [eax+4]
  00066	83 f8 04	 cmp	 eax, 4
  00069	77 34		 ja	 SHORT $LN4@InsertData
  0006b	ff 24 85 00 00
	00 00		 jmp	 DWORD PTR $LN41@InsertData[eax*4]
$LN11@InsertData:

; 503  : 					{
; 504  : 					case CStrategyResult::NONE:
; 505  : 						m_strCurrentPos = "NONE";

  00072	68 00 00 00 00	 push	 OFFSET ??_C@_04OKGDLNCL@NONE@

; 506  : 						break;

  00077	eb 1a		 jmp	 SHORT $LN44@InsertData
$LN12@InsertData:

; 507  : 					case CStrategyResult::BUY:
; 508  : 						m_strCurrentPos  = "";

  00079	68 00 00 00 00	 push	 OFFSET ??_C@_08BPEOHGCP@?$LI?E?$LM?v?A?x?$MA?T@

; 509  : 						break;

  0007e	eb 13		 jmp	 SHORT $LN44@InsertData
$LN13@InsertData:

; 510  : 					case CStrategyResult::EXITSHORT:
; 511  : 						m_strCurrentPos  = "";

  00080	68 00 00 00 00	 push	 OFFSET ??_C@_08OJBKHDEB@?$LI?E?$LF?$LF?C?$LL?$LL?j@

; 512  : 						break;

  00085	eb 0c		 jmp	 SHORT $LN44@InsertData
$LN14@InsertData:

; 513  : 					case CStrategyResult::SELL:
; 514  : 						m_strCurrentPos  = "";

  00087	68 00 00 00 00	 push	 OFFSET ??_C@_08DBKELDO@?$LI?E?$LF?$LF?A?x?$MA?T@

; 515  : 						break;

  0008c	eb 05		 jmp	 SHORT $LN44@InsertData
$LN15@InsertData:

; 516  : 					case CStrategyResult::EXITLONG: 
; 517  : 						m_strCurrentPos = "";

  0008e	68 00 00 00 00	 push	 OFFSET ??_C@_08PFEOEOFA@?$LI?E?$LM?v?C?$LL?$LL?j@
$LN44@InsertData:

; 518  : 						break;
; 519  : 					}
; 520  : 				}

  00093	8d 8f 58 01 00
	00		 lea	 ecx, DWORD PTR [edi+344]
  00099	ff 15 00 00 00
	00		 call	 DWORD PTR __imp_??4?$CStringT@DV?$StrTraitMFC_DLL@DV?$ChTraitsCRT@D@ATL@@@@@ATL@@QAEAAV01@PBD@Z
$LN4@InsertData:

; 523  : 
; 524  : 				strHtml += m_strCurrentPos;

  0009f	8b 4d 0c	 mov	 ecx, DWORD PTR _strHtml$[ebp]
  000a2	81 c7 58 01 00
	00		 add	 edi, 344		; 00000158H
  000a8	57		 push	 edi
  000a9	ff 15 00 00 00
	00		 call	 DWORD PTR __imp_??Y?$CStringT@DV?$StrTraitMFC_DLL@DV?$ChTraitsCRT@D@ATL@@@@@ATL@@QAEAAV01@ABV?$CSimpleStringT@D$00@1@@Z

; 575  : }

  000af	8b 4d f4	 mov	 ecx, DWORD PTR __$EHRec$[ebp]
  000b2	64 89 0d 00 00
	00 00		 mov	 DWORD PTR fs:0, ecx
  000b9	59		 pop	 ecx
  000ba	5f		 pop	 edi
  000bb	5e		 pop	 esi
  000bc	8b e5		 mov	 esp, ebp
  000be	5d		 pop	 ebp
  000bf	c2 0c 00	 ret	 12			; 0000000cH
$LN9@InsertData:

; 521  : 				else
; 522  : 					m_strCurrentPos = "NONE";

  000c2	81 c7 58 01 00
	00		 add	 edi, 344		; 00000158H
  000c8	68 00 00 00 00	 push	 OFFSET ??_C@_04OKGDLNCL@NONE@
  000cd	8b cf		 mov	 ecx, edi
  000cf	ff 15 00 00 00
	00		 call	 DWORD PTR __imp_??4?$CStringT@DV?$StrTraitMFC_DLL@DV?$ChTraitsCRT@D@ATL@@@@@ATL@@QAEAAV01@PBD@Z

; 523  : 
; 524  : 				strHtml += m_strCurrentPos;

  000d5	8b 4d 0c	 mov	 ecx, DWORD PTR _strHtml$[ebp]
  000d8	57		 push	 edi
  000d9	ff 15 00 00 00
	00		 call	 DWORD PTR __imp_??Y?$CStringT@DV?$StrTraitMFC_DLL@DV?$ChTraitsCRT@D@ATL@@@@@ATL@@QAEAAV01@ABV?$CSimpleStringT@D$00@1@@Z

; 575  : }

  000df	8b 4d f4	 mov	 ecx, DWORD PTR __$EHRec$[ebp]
  000e2	64 89 0d 00 00
	00 00		 mov	 DWORD PTR fs:0, ecx
  000e9	59		 pop	 ecx
  000ea	5f		 pop	 edi
  000eb	5e		 pop	 esi
  000ec	8b e5		 mov	 esp, ebp
  000ee	5d		 pop	 ebp
  000ef	c2 0c 00	 ret	 12			; 0000000cH
$LN16@InsertData:

; 525  : 			}
; 526  : 			break;
; 527  : 		case -2:	// StrategyName
; 528  : 			{
; 529  : 				m_strStrategyName = m_pDlgAnalysis->m_stSTName;

  000f2	8b 87 ac 00 00
	00		 mov	 eax, DWORD PTR [edi+172]
  000f8	8d b7 50 01 00
	00		 lea	 esi, DWORD PTR [edi+336]
  000fe	05 ec 00 00 00	 add	 eax, 236		; 000000ecH
$LN45@InsertData:

; 575  : }

  00103	50		 push	 eax
  00104	8b ce		 mov	 ecx, esi
  00106	ff 15 00 00 00
	00		 call	 DWORD PTR __imp_??4?$CStringT@DV?$StrTraitMFC_DLL@DV?$ChTraitsCRT@D@ATL@@@@@ATL@@QAEAAV01@ABV01@@Z
  0010c	8b 4d 0c	 mov	 ecx, DWORD PTR _strHtml$[ebp]
  0010f	56		 push	 esi
  00110	ff 15 00 00 00
	00		 call	 DWORD PTR __imp_??Y?$CStringT@DV?$StrTraitMFC_DLL@DV?$ChTraitsCRT@D@ATL@@@@@ATL@@QAEAAV01@ABV?$CSimpleStringT@D$00@1@@Z
  00116	8b 4d f4	 mov	 ecx, DWORD PTR __$EHRec$[ebp]
  00119	64 89 0d 00 00
	00 00		 mov	 DWORD PTR fs:0, ecx
  00120	59		 pop	 ecx
  00121	5f		 pop	 edi
  00122	5e		 pop	 esi
  00123	8b e5		 mov	 esp, ebp
  00125	5d		 pop	 ebp
  00126	c2 0c 00	 ret	 12			; 0000000cH
$LN17@InsertData:

; 530  : 				strHtml += m_strStrategyName;
; 531  : 			}
; 532  : 			break;
; 533  : 		case -3:	// ItemName
; 534  : 			{
; 535  : 				m_strItemName = m_pDlgAnalysis->m_stCodeName;

  00129	8b 87 ac 00 00
	00		 mov	 eax, DWORD PTR [edi+172]
  0012f	8d b7 4c 01 00
	00		 lea	 esi, DWORD PTR [edi+332]
  00135	05 e8 00 00 00	 add	 eax, 232		; 000000e8H

; 536  : 				strHtml += m_strItemName;
; 537  : 			}
; 538  : 			break;

  0013a	eb c7		 jmp	 SHORT $LN45@InsertData
$LN18@InsertData:

; 539  : 		case -4:	// Priod
; 540  : 			{
; 541  : 				if(m_iDateIndex < m_pDlgAnalysis->m_stDataIndex.GetSize())

  0013c	8b 8f ac 00 00
	00		 mov	 ecx, DWORD PTR [edi+172]
  00142	8b 87 40 01 00
	00		 mov	 eax, DWORD PTR [edi+320]
  00148	3b 81 44 01 00
	00		 cmp	 eax, DWORD PTR [ecx+324]
  0014e	0f 8d e0 01 00
	00		 jge	 $LN21@InsertData

; 542  : 				{
; 543  : 					ST_DATAINDEX stData = m_pDlgAnalysis->m_stDataIndex.GetAt(m_iDateIndex);

  00154	50		 push	 eax
  00155	81 c1 3c 01 00
	00		 add	 ecx, 316		; 0000013cH
  0015b	e8 00 00 00 00	 call	 ?GetAt@?$CArray@UST_DATAINDEX@@U1@@@QAEAAUST_DATAINDEX@@H@Z ; CArray<ST_DATAINDEX,ST_DATAINDEX>::GetAt
  00160	8b f0		 mov	 esi, eax
  00162	8b 0e		 mov	 ecx, DWORD PTR [esi]
  00164	89 4d cc	 mov	 DWORD PTR _stData$2[ebp], ecx
  00167	8b 4e 04	 mov	 ecx, DWORD PTR [esi+4]
  0016a	89 4d d0	 mov	 DWORD PTR _stData$2[ebp+4], ecx
  0016d	8d 4e 08	 lea	 ecx, DWORD PTR [esi+8]
  00170	51		 push	 ecx
  00171	8d 4d d4	 lea	 ecx, DWORD PTR _stData$2[ebp+8]
  00174	ff 15 00 00 00
	00		 call	 DWORD PTR __imp_??0?$CStringT@DV?$StrTraitMFC_DLL@DV?$ChTraitsCRT@D@ATL@@@@@ATL@@QAE@ABV01@@Z
  0017a	8d 46 0c	 lea	 eax, DWORD PTR [esi+12]
  0017d	c7 45 fc 00 00
	00 00		 mov	 DWORD PTR __$EHRec$[ebp+8], 0
  00184	50		 push	 eax
  00185	8d 4d d8	 lea	 ecx, DWORD PTR _stData$2[ebp+12]
  00188	ff 15 00 00 00
	00		 call	 DWORD PTR __imp_??0?$CStringT@DV?$StrTraitMFC_DLL@DV?$ChTraitsCRT@D@ATL@@@@@ATL@@QAE@ABV01@@Z
  0018e	8d 46 10	 lea	 eax, DWORD PTR [esi+16]
  00191	c6 45 fc 01	 mov	 BYTE PTR __$EHRec$[ebp+8], 1
  00195	50		 push	 eax
  00196	8d 4d dc	 lea	 ecx, DWORD PTR _stData$2[ebp+16]
  00199	ff 15 00 00 00
	00		 call	 DWORD PTR __imp_??0?$CStringT@DV?$StrTraitMFC_DLL@DV?$ChTraitsCRT@D@ATL@@@@@ATL@@QAE@ABV01@@Z
  0019f	8d 46 14	 lea	 eax, DWORD PTR [esi+20]
  001a2	c6 45 fc 02	 mov	 BYTE PTR __$EHRec$[ebp+8], 2
  001a6	50		 push	 eax
  001a7	8d 4d e0	 lea	 ecx, DWORD PTR _stData$2[ebp+20]
  001aa	ff 15 00 00 00
	00		 call	 DWORD PTR __imp_??0?$CStringT@DV?$StrTraitMFC_DLL@DV?$ChTraitsCRT@D@ATL@@@@@ATL@@QAE@ABV01@@Z
  001b0	8d 46 18	 lea	 eax, DWORD PTR [esi+24]
  001b3	c6 45 fc 03	 mov	 BYTE PTR __$EHRec$[ebp+8], 3
  001b7	50		 push	 eax
  001b8	8d 4d e4	 lea	 ecx, DWORD PTR _stData$2[ebp+24]
  001bb	ff 15 00 00 00
	00		 call	 DWORD PTR __imp_??0?$CStringT@DV?$StrTraitMFC_DLL@DV?$ChTraitsCRT@D@ATL@@@@@ATL@@QAE@ABV01@@Z
  001c1	8d 46 1c	 lea	 eax, DWORD PTR [esi+28]
  001c4	c6 45 fc 04	 mov	 BYTE PTR __$EHRec$[ebp+8], 4
  001c8	50		 push	 eax
  001c9	8d 4d e8	 lea	 ecx, DWORD PTR _stData$2[ebp+28]
  001cc	ff 15 00 00 00
	00		 call	 DWORD PTR __imp_??0?$CStringT@DV?$StrTraitMFC_DLL@DV?$ChTraitsCRT@D@ATL@@@@@ATL@@QAE@ABV01@@Z

; 544  : 
; 545  : 					m_strPriod.Format(" %s %s  ~ %s", stData.strGubun, stData.strStartDate,stData.strEndDate);

  001d2	ff 75 d8	 push	 DWORD PTR _stData$2[ebp+12]
  001d5	8d b7 54 01 00
	00		 lea	 esi, DWORD PTR [edi+340]
  001db	c7 45 fc 05 00
	00 00		 mov	 DWORD PTR __$EHRec$[ebp+8], 5
  001e2	ff 75 d4	 push	 DWORD PTR _stData$2[ebp+8]
  001e5	ff 75 dc	 push	 DWORD PTR _stData$2[ebp+16]
  001e8	68 00 00 00 00	 push	 OFFSET ??_C@_0N@BFBGFLNJ@?5?$CFs?5?$CFs?5?5?$HO?5?$CFs@
  001ed	56		 push	 esi
  001ee	ff 15 00 00 00
	00		 call	 DWORD PTR __imp_?Format@?$CStringT@DV?$StrTraitMFC_DLL@DV?$ChTraitsCRT@D@ATL@@@@@ATL@@QAAXPBDZZ

; 546  : 					strHtml += m_strPriod;

  001f4	8b 4d 0c	 mov	 ecx, DWORD PTR _strHtml$[ebp]
  001f7	83 c4 14	 add	 esp, 20			; 00000014H
  001fa	56		 push	 esi
  001fb	ff 15 00 00 00
	00		 call	 DWORD PTR __imp_??Y?$CStringT@DV?$StrTraitMFC_DLL@DV?$ChTraitsCRT@D@ATL@@@@@ATL@@QAEAAV01@ABV?$CSimpleStringT@D$00@1@@Z

; 547  : 				}

  00201	8d 4d cc	 lea	 ecx, DWORD PTR _stData$2[ebp]
  00204	e8 00 00 00 00	 call	 ??1ST_DATAINDEX@@QAE@XZ

; 575  : }

  00209	8b 4d f4	 mov	 ecx, DWORD PTR __$EHRec$[ebp]
  0020c	64 89 0d 00 00
	00 00		 mov	 DWORD PTR fs:0, ecx
  00213	59		 pop	 ecx
  00214	5f		 pop	 edi
  00215	5e		 pop	 esi
  00216	8b e5		 mov	 esp, ebp
  00218	5d		 pop	 ebp
  00219	c2 0c 00	 ret	 12			; 0000000cH
$LN20@InsertData:

; 548  : 			}
; 549  : 			break;
; 550  : 		case -5:	// AccumProf
; 551  : 			{
; 552  : 				m_strACCumProf.Format("%.2f%%", pStrategy->GetStatisticalInfo(0));

  0021c	8b 4d 10	 mov	 ecx, DWORD PTR _pStrategy$[ebp]
  0021f	8d b7 5c 01 00
	00		 lea	 esi, DWORD PTR [edi+348]
  00225	6a 00		 push	 0
  00227	8b 01		 mov	 eax, DWORD PTR [ecx]
  00229	8b 40 50	 mov	 eax, DWORD PTR [eax+80]
  0022c	ff d0		 call	 eax
  0022e	83 ec 08	 sub	 esp, 8
  00231	dd 1c 24	 fstp	 QWORD PTR [esp]
  00234	68 00 00 00 00	 push	 OFFSET ??_C@_06NBGJEFCJ@?$CF?42f?$CF?$CF@
  00239	56		 push	 esi
  0023a	ff 15 00 00 00
	00		 call	 DWORD PTR __imp_?Format@?$CStringT@DV?$StrTraitMFC_DLL@DV?$ChTraitsCRT@D@ATL@@@@@ATL@@QAAXPBDZZ

; 553  : 				strHtml += m_strACCumProf;

  00240	8b 4d 0c	 mov	 ecx, DWORD PTR _strHtml$[ebp]
  00243	83 c4 10	 add	 esp, 16			; 00000010H
  00246	56		 push	 esi
  00247	ff 15 00 00 00
	00		 call	 DWORD PTR __imp_??Y?$CStringT@DV?$StrTraitMFC_DLL@DV?$ChTraitsCRT@D@ATL@@@@@ATL@@QAEAAV01@ABV?$CSimpleStringT@D$00@1@@Z

; 575  : }

  0024d	8b 4d f4	 mov	 ecx, DWORD PTR __$EHRec$[ebp]
  00250	64 89 0d 00 00
	00 00		 mov	 DWORD PTR fs:0, ecx
  00257	59		 pop	 ecx
  00258	5f		 pop	 edi
  00259	5e		 pop	 esi
  0025a	8b e5		 mov	 esp, ebp
  0025c	5d		 pop	 ebp
  0025d	c2 0c 00	 ret	 12			; 0000000cH
$LN43@InsertData:

; 554  : 			}
; 555  : 		}
; 556  : 	}
; 557  : 	else if(nIndex > 0)

  00260	0f 8e ce 00 00
	00		 jle	 $LN21@InsertData

; 558  : 	{
; 559  : 		//		if(nIndex == 14)	//    .
; 560  : 		//			return;
; 561  : 
; 562  : 		CString strData;

  00266	8d 4d 08	 lea	 ecx, DWORD PTR _strData$4[ebp]
  00269	ff 15 00 00 00
	00		 call	 DWORD PTR __imp_??0?$CStringT@DV?$StrTraitMFC_DLL@DV?$ChTraitsCRT@D@ATL@@@@@ATL@@QAE@XZ

; 563  : 		double dData = pStrategy->GetStatisticalInfo(nIndex);

  0026f	8b 4d 10	 mov	 ecx, DWORD PTR _pStrategy$[ebp]
  00272	0f bf c6	 movsx	 eax, si
  00275	50		 push	 eax
  00276	c7 45 fc 06 00
	00 00		 mov	 DWORD PTR __$EHRec$[ebp+8], 6
  0027d	8b 11		 mov	 edx, DWORD PTR [ecx]
  0027f	8b 42 50	 mov	 eax, DWORD PTR [edx+80]
  00282	ff d0		 call	 eax

; 564  : 
; 565  : 		//   ....   ...
; 566  : 		//, , , , ,, , 
; 567  : 		//, , 
; 568  : 		if(m_bIsJusik && nIndex==1||nIndex==2||nIndex==6||nIndex==9||nIndex==10||nIndex==11||nIndex==19||nIndex==20||nIndex==21||nIndex==30)

  00284	83 bf b0 00 00
	00 00		 cmp	 DWORD PTR [edi+176], 0
  0028b	dd 5d ec	 fstp	 QWORD PTR _dData$3[ebp]
  0028e	74 06		 je	 SHORT $LN25@InsertData
  00290	66 83 fe 01	 cmp	 si, 1
  00294	74 50		 je	 SHORT $LN24@InsertData
$LN25@InsertData:
  00296	66 83 fe 02	 cmp	 si, 2
  0029a	74 4a		 je	 SHORT $LN24@InsertData
  0029c	66 83 fe 06	 cmp	 si, 6
  002a0	74 44		 je	 SHORT $LN24@InsertData
  002a2	66 83 fe 09	 cmp	 si, 9
  002a6	74 3e		 je	 SHORT $LN24@InsertData
  002a8	66 83 fe 0a	 cmp	 si, 10			; 0000000aH
  002ac	74 38		 je	 SHORT $LN24@InsertData
  002ae	66 83 fe 0b	 cmp	 si, 11			; 0000000bH
  002b2	74 32		 je	 SHORT $LN24@InsertData
  002b4	66 83 fe 13	 cmp	 si, 19			; 00000013H
  002b8	74 2c		 je	 SHORT $LN24@InsertData
  002ba	66 83 fe 14	 cmp	 si, 20			; 00000014H
  002be	74 26		 je	 SHORT $LN24@InsertData
  002c0	66 83 fe 15	 cmp	 si, 21			; 00000015H
  002c4	74 20		 je	 SHORT $LN24@InsertData
  002c6	66 83 fe 1e	 cmp	 si, 30			; 0000001eH
  002ca	74 1a		 je	 SHORT $LN24@InsertData

; 570  : 		else
; 571  : 			strData.Format("%d", (INT)dData);

  002cc	f2 0f 2c 45 ec	 cvttsd2si eax, QWORD PTR _dData$3[ebp]
  002d1	50		 push	 eax
  002d2	8d 45 08	 lea	 eax, DWORD PTR _strData$4[ebp]
  002d5	68 00 00 00 00	 push	 OFFSET ??_C@_02DPKJAMEF@?$CFd@
  002da	50		 push	 eax
  002db	ff 15 00 00 00
	00		 call	 DWORD PTR __imp_?Format@?$CStringT@DV?$StrTraitMFC_DLL@DV?$ChTraitsCRT@D@ATL@@@@@ATL@@QAAXPBDZZ
  002e1	83 c4 0c	 add	 esp, 12			; 0000000cH
  002e4	eb 1f		 jmp	 SHORT $LN23@InsertData
$LN24@InsertData:

; 569  : 			strData.Format("%.2f", dData);

  002e6	f2 0f 10 45 ec	 movsd	 xmm0, QWORD PTR _dData$3[ebp]
  002eb	8d 45 08	 lea	 eax, DWORD PTR _strData$4[ebp]
  002ee	83 ec 08	 sub	 esp, 8
  002f1	f2 0f 11 04 24	 movsd	 QWORD PTR [esp], xmm0
  002f6	68 00 00 00 00	 push	 OFFSET ??_C@_04GEFJINEE@?$CF?42f@
  002fb	50		 push	 eax
  002fc	ff 15 00 00 00
	00		 call	 DWORD PTR __imp_?Format@?$CStringT@DV?$StrTraitMFC_DLL@DV?$ChTraitsCRT@D@ATL@@@@@ATL@@QAAXPBDZZ
  00302	83 c4 10	 add	 esp, 16			; 00000010H
$LN23@InsertData:

; 572  : 
; 573  : 		strHtml += GetComma(strData);//Comma

  00305	ff 75 08	 push	 DWORD PTR _strData$4[ebp]
  00308	8d 45 10	 lea	 eax, DWORD PTR $T5[ebp]
  0030b	50		 push	 eax
  0030c	e8 00 00 00 00	 call	 ?GetComma@CDlgInterface@@SA?AV?$CStringT@DV?$StrTraitMFC_DLL@DV?$ChTraitsCRT@D@ATL@@@@@ATL@@PBD@Z ; CDlgInterface::GetComma
  00311	83 c4 08	 add	 esp, 8
  00314	8b 4d 0c	 mov	 ecx, DWORD PTR _strHtml$[ebp]
  00317	50		 push	 eax
  00318	c6 45 fc 07	 mov	 BYTE PTR __$EHRec$[ebp+8], 7
  0031c	ff 15 00 00 00
	00		 call	 DWORD PTR __imp_??Y?$CStringT@DV?$StrTraitMFC_DLL@DV?$ChTraitsCRT@D@ATL@@@@@ATL@@QAEAAV01@ABV?$CSimpleStringT@D$00@1@@Z
  00322	8d 4d 10	 lea	 ecx, DWORD PTR $T5[ebp]
  00325	ff 15 00 00 00
	00		 call	 DWORD PTR __imp_??1?$CStringT@DV?$StrTraitMFC_DLL@DV?$ChTraitsCRT@D@ATL@@@@@ATL@@QAE@XZ

; 574  : 	}

  0032b	8d 4d 08	 lea	 ecx, DWORD PTR _strData$4[ebp]
  0032e	ff 15 00 00 00
	00		 call	 DWORD PTR __imp_??1?$CStringT@DV?$StrTraitMFC_DLL@DV?$ChTraitsCRT@D@ATL@@@@@ATL@@QAE@XZ
$LN21@InsertData:

; 575  : }

  00334	8b 4d f4	 mov	 ecx, DWORD PTR __$EHRec$[ebp]
  00337	64 89 0d 00 00
	00 00		 mov	 DWORD PTR fs:0, ecx
  0033e	59		 pop	 ecx
  0033f	5f		 pop	 edi
  00340	5e		 pop	 esi
  00341	8b e5		 mov	 esp, ebp
  00343	5d		 pop	 ebp
  00344	c2 0c 00	 ret	 12			; 0000000cH
  00347	90		 npad	 1
$LN40@InsertData:
  00348	00 00 00 00	 DD	 $LN20@InsertData
  0034c	00 00 00 00	 DD	 $LN18@InsertData
  00350	00 00 00 00	 DD	 $LN17@InsertData
  00354	00 00 00 00	 DD	 $LN16@InsertData
  00358	00 00 00 00	 DD	 $LN8@InsertData
$LN41@InsertData:
  0035c	00 00 00 00	 DD	 $LN11@InsertData
  00360	00 00 00 00	 DD	 $LN12@InsertData
  00364	00 00 00 00	 DD	 $LN13@InsertData
  00368	00 00 00 00	 DD	 $LN14@InsertData
  0036c	00 00 00 00	 DD	 $LN15@InsertData
_TEXT	ENDS
;	COMDAT text$x
text$x	SEGMENT
__unwindfunclet$?InsertData2HtmlString@CTabResult@@QAEXFAAV?$CStringT@DV?$StrTraitMFC_DLL@DV?$ChTraitsCRT@D@ATL@@@@@ATL@@PAVCIStrategyItem0001@@@Z$3:
  00000	8d 4d d4	 lea	 ecx, DWORD PTR _stData$2[ebp+8]
  00003	ff 25 00 00 00
	00		 jmp	 DWORD PTR __imp_??1?$CStringT@DV?$StrTraitMFC_DLL@DV?$ChTraitsCRT@D@ATL@@@@@ATL@@QAE@XZ
__unwindfunclet$?InsertData2HtmlString@CTabResult@@QAEXFAAV?$CStringT@DV?$StrTraitMFC_DLL@DV?$ChTraitsCRT@D@ATL@@@@@ATL@@PAVCIStrategyItem0001@@@Z$4:
  00009	8d 4d d8	 lea	 ecx, DWORD PTR _stData$2[ebp+12]
  0000c	ff 25 00 00 00
	00		 jmp	 DWORD PTR __imp_??1?$CStringT@DV?$StrTraitMFC_DLL@DV?$ChTraitsCRT@D@ATL@@@@@ATL@@QAE@XZ
__unwindfunclet$?InsertData2HtmlString@CTabResult@@QAEXFAAV?$CStringT@DV?$StrTraitMFC_DLL@DV?$ChTraitsCRT@D@ATL@@@@@ATL@@PAVCIStrategyItem0001@@@Z$5:
  00012	8d 4d dc	 lea	 ecx, DWORD PTR _stData$2[ebp+16]
  00015	ff 25 00 00 00
	00		 jmp	 DWORD PTR __imp_??1?$CStringT@DV?$StrTraitMFC_DLL@DV?$ChTraitsCRT@D@ATL@@@@@ATL@@QAE@XZ
__unwindfunclet$?InsertData2HtmlString@CTabResult@@QAEXFAAV?$CStringT@DV?$StrTraitMFC_DLL@DV?$ChTraitsCRT@D@ATL@@@@@ATL@@PAVCIStrategyItem0001@@@Z$6:
  0001b	8d 4d e0	 lea	 ecx, DWORD PTR _stData$2[ebp+20]
  0001e	ff 25 00 00 00
	00		 jmp	 DWORD PTR __imp_??1?$CStringT@DV?$StrTraitMFC_DLL@DV?$ChTraitsCRT@D@ATL@@@@@ATL@@QAE@XZ
__unwindfunclet$?InsertData2HtmlString@CTabResult@@QAEXFAAV?$CStringT@DV?$StrTraitMFC_DLL@DV?$ChTraitsCRT@D@ATL@@@@@ATL@@PAVCIStrategyItem0001@@@Z$7:
  00024	8d 4d e4	 lea	 ecx, DWORD PTR _stData$2[ebp+24]
  00027	ff 25 00 00 00
	00		 jmp	 DWORD PTR __imp_??1?$CStringT@DV?$StrTraitMFC_DLL@DV?$ChTraitsCRT@D@ATL@@@@@ATL@@QAE@XZ
__unwindfunclet$?InsertData2HtmlString@CTabResult@@QAEXFAAV?$CStringT@DV?$StrTraitMFC_DLL@DV?$ChTraitsCRT@D@ATL@@@@@ATL@@PAVCIStrategyItem0001@@@Z$0:
  0002d	8d 4d cc	 lea	 ecx, DWORD PTR _stData$2[ebp]
  00030	e9 00 00 00 00	 jmp	 ??1ST_DATAINDEX@@QAE@XZ
__unwindfunclet$?InsertData2HtmlString@CTabResult@@QAEXFAAV?$CStringT@DV?$StrTraitMFC_DLL@DV?$ChTraitsCRT@D@ATL@@@@@ATL@@PAVCIStrategyItem0001@@@Z$1:
  00035	8d 4d 08	 lea	 ecx, DWORD PTR _strData$4[ebp]
  00038	ff 25 00 00 00
	00		 jmp	 DWORD PTR __imp_??1?$CStringT@DV?$StrTraitMFC_DLL@DV?$ChTraitsCRT@D@ATL@@@@@ATL@@QAE@XZ
__unwindfunclet$?InsertData2HtmlString@CTabResult@@QAEXFAAV?$CStringT@DV?$StrTraitMFC_DLL@DV?$ChTraitsCRT@D@ATL@@@@@ATL@@PAVCIStrategyItem0001@@@Z$2:
  0003e	8d 4d 10	 lea	 ecx, DWORD PTR $T5[ebp]
  00041	ff 25 00 00 00
	00		 jmp	 DWORD PTR __imp_??1?$CStringT@DV?$StrTraitMFC_DLL@DV?$ChTraitsCRT@D@ATL@@@@@ATL@@QAE@XZ
  00047	cc		 int	 3
  00048	cc		 int	 3
  00049	cc		 int	 3
  0004a	cc		 int	 3
  0004b	cc		 int	 3
__ehhandler$?InsertData2HtmlString@CTabResult@@QAEXFAAV?$CStringT@DV?$StrTraitMFC_DLL@DV?$ChTraitsCRT@D@ATL@@@@@ATL@@PAVCIStrategyItem0001@@@Z:
  0004c	90		 npad	 1
  0004d	90		 npad	 1
  0004e	8b 54 24 08	 mov	 edx, DWORD PTR [esp+8]
  00052	8d 42 0c	 lea	 eax, DWORD PTR [edx+12]
  00055	8b 4a cc	 mov	 ecx, DWORD PTR [edx-52]
  00058	33 c8		 xor	 ecx, eax
  0005a	e8 00 00 00 00	 call	 @__security_check_cookie@4
  0005f	b8 00 00 00 00	 mov	 eax, OFFSET __ehfuncinfo$?InsertData2HtmlString@CTabResult@@QAEXFAAV?$CStringT@DV?$StrTraitMFC_DLL@DV?$ChTraitsCRT@D@ATL@@@@@ATL@@PAVCIStrategyItem0001@@@Z
  00064	e9 00 00 00 00	 jmp	 ___CxxFrameHandler3
text$x	ENDS
?InsertData2HtmlString@CTabResult@@QAEXFAAV?$CStringT@DV?$StrTraitMFC_DLL@DV?$ChTraitsCRT@D@ATL@@@@@ATL@@PAVCIStrategyItem0001@@@Z ENDP ; CTabResult::InsertData2HtmlString
; Function compile flags: /Ogtp
; File D:\git\src\IBK\IBK_DRFN\ProjSrc\SrcDrfn\Chart\HWSTRATEGYANALYSIS\TabResult.cpp
;	COMDAT ?InitPasingData@CTabResult@@QAEXXZ
_TEXT	SEGMENT
?InitPasingData@CTabResult@@QAEXXZ PROC			; CTabResult::InitPasingData, COMDAT
; _this$ = ecx

; 61   : //	m_nViewPointIndex = {1,3,};
; 62   : 	
; 63   : }

  00000	c2 00 00	 ret	 0
?InitPasingData@CTabResult@@QAEXXZ ENDP			; CTabResult::InitPasingData
_TEXT	ENDS
; Function compile flags: /Ogtp
; File D:\git\src\IBK\IBK_DRFN\ProjSrc\SrcDrfn\Chart\HWSTRATEGYANALYSIS\TabResult.cpp
; File C:\Program Files (x86)\Microsoft Visual Studio\2019\Community\VC\Tools\MSVC\14.29.30133\atlmfc\include\cstringt.h
; File D:\git\src\IBK\IBK_DRFN\ProjSrc\SrcDrfn\Chart\HWSTRATEGYANALYSIS\TabResult.cpp
; File C:\Program Files (x86)\Microsoft Visual Studio\2019\Community\VC\Tools\MSVC\14.29.30133\atlmfc\include\cstringt.h
; File D:\git\src\IBK\IBK_DRFN\ProjSrc\SrcDrfn\Chart\HWSTRATEGYANALYSIS\TabResult.cpp
; File C:\Program Files (x86)\Microsoft Visual Studio\2019\Community\VC\Tools\MSVC\14.29.30133\atlmfc\include\cstringt.h
; File C:\Program Files (x86)\Microsoft Visual Studio\2019\Community\VC\Tools\MSVC\14.29.30133\atlmfc\include\atlsimpstr.h
; File C:\Program Files (x86)\Microsoft Visual Studio\2019\Community\VC\Tools\MSVC\14.29.30133\atlmfc\include\cstringt.h
; File D:\git\src\IBK\IBK_DRFN\ProjSrc\SrcDrfn\Chart\HWSTRATEGYANALYSIS\TabResult.cpp
;	COMDAT ?InitHtml@CTabResult@@QAEXXZ
_TEXT	SEGMENT
_DefaultFile$ = -48					; size = 24
$T2 = -24						; size = 4
$T3 = -20						; size = 4
_str$ = -16						; size = 4
__$EHRec$ = -12						; size = 12
?InitHtml@CTabResult@@QAEXXZ PROC			; CTabResult::InitHtml, COMDAT
; _this$ = ecx

; 468  : {

  00000	55		 push	 ebp
  00001	8b ec		 mov	 ebp, esp
  00003	6a ff		 push	 -1
  00005	68 00 00 00 00	 push	 __ehhandler$?InitHtml@CTabResult@@QAEXXZ
  0000a	64 a1 00 00 00
	00		 mov	 eax, DWORD PTR fs:0
  00010	50		 push	 eax
  00011	83 ec 24	 sub	 esp, 36			; 00000024H
  00014	56		 push	 esi
  00015	57		 push	 edi
  00016	a1 00 00 00 00	 mov	 eax, DWORD PTR ___security_cookie
  0001b	33 c5		 xor	 eax, ebp
  0001d	50		 push	 eax
  0001e	8d 45 f4	 lea	 eax, DWORD PTR __$EHRec$[ebp]
  00021	64 a3 00 00 00
	00		 mov	 DWORD PTR fs:0, eax
  00027	8b f1		 mov	 esi, ecx

; 469  : 	if(m_strHtml!="")return;

  00029	8d be 48 01 00
	00		 lea	 edi, DWORD PTR [esi+328]
  0002f	c7 45 e8 00 00
	00 00		 mov	 DWORD PTR $T2[ebp], 0
; File C:\Program Files (x86)\Microsoft Visual Studio\2019\Community\VC\Tools\MSVC\14.29.30133\atlmfc\include\cstringt.h

; 2567 : 		return( str1.Compare( psz2 ) != 0 );

  00036	68 00 00 00 00	 push	 OFFSET ??_C@_00CNPNBAHC@@
  0003b	8b cf		 mov	 ecx, edi
  0003d	ff 15 00 00 00
	00		 call	 DWORD PTR __imp_?Compare@?$CStringT@DV?$StrTraitMFC_DLL@DV?$ChTraitsCRT@D@ATL@@@@@ATL@@QBEHPBD@Z
  00043	85 c0		 test	 eax, eax
; File D:\git\src\IBK\IBK_DRFN\ProjSrc\SrcDrfn\Chart\HWSTRATEGYANALYSIS\TabResult.cpp

; 469  : 	if(m_strHtml!="")return;

  00045	0f 85 de 00 00
	00		 jne	 $LN1@InitHtml

; 470  : 	CStdioFile DefaultFile;

  0004b	8d 4d d0	 lea	 ecx, DWORD PTR _DefaultFile$[ebp]
  0004e	e8 00 00 00 00	 call	 ??0CStdioFile@@QAE@XZ	; CStdioFile::CStdioFile

; 471  : 	CString str;

  00053	8d 4d f0	 lea	 ecx, DWORD PTR _str$[ebp]
  00056	c7 45 fc 00 00
	00 00		 mov	 DWORD PTR __$EHRec$[ebp+8], 0
  0005d	ff 15 00 00 00
	00		 call	 DWORD PTR __imp_??0?$CStringT@DV?$StrTraitMFC_DLL@DV?$ChTraitsCRT@D@ATL@@@@@ATL@@QAE@XZ
; File C:\Program Files (x86)\Microsoft Visual Studio\2019\Community\VC\Tools\MSVC\14.29.30133\atlmfc\include\cstringt.h

; 2401 : 		CStringT strResult( str1.GetManager() );

  00063	8d 8e 44 01 00
	00		 lea	 ecx, DWORD PTR [esi+324]
; File D:\git\src\IBK\IBK_DRFN\ProjSrc\SrcDrfn\Chart\HWSTRATEGYANALYSIS\TabResult.cpp

; 473  : 	if(!DefaultFile.Open(m_strFilePath+"\\-.htm",CFile::modeRead))

  00069	c6 45 fc 02	 mov	 BYTE PTR __$EHRec$[ebp+8], 2
; File C:\Program Files (x86)\Microsoft Visual Studio\2019\Community\VC\Tools\MSVC\14.29.30133\atlmfc\include\cstringt.h

; 2401 : 		CStringT strResult( str1.GetManager() );

  0006d	ff 15 00 00 00
	00		 call	 DWORD PTR __imp_?GetManager@?$CStringT@DV?$StrTraitMFC_DLL@DV?$ChTraitsCRT@D@ATL@@@@@ATL@@QBEPAUIAtlStringMgr@2@XZ
  00073	50		 push	 eax
  00074	8d 4d ec	 lea	 ecx, DWORD PTR $T3[ebp]
  00077	ff 15 00 00 00
	00		 call	 DWORD PTR __imp_??0?$CStringT@DV?$StrTraitMFC_DLL@DV?$ChTraitsCRT@D@ATL@@@@@ATL@@QAE@PAUIAtlStringMgr@1@@Z
; File C:\Program Files (x86)\Microsoft Visual Studio\2019\Community\VC\Tools\MSVC\14.29.30133\atlmfc\include\atlsimpstr.h

; 519  : 		return( GetData()->nDataLength );

  0007d	8b 86 44 01 00
	00		 mov	 eax, DWORD PTR [esi+324]
; File C:\Program Files (x86)\Microsoft Visual Studio\2019\Community\VC\Tools\MSVC\14.29.30133\atlmfc\include\cstringt.h

; 2403 : 		CThisSimpleString::Concatenate( strResult, str1, str1.GetLength(), psz2, CThisSimpleString::StringLength( psz2 ) );

  00083	6a 14		 push	 20			; 00000014H
  00085	68 00 00 00 00	 push	 OFFSET ??_C@_0BF@PNNIFJFE@?2?$LK?$LI?$LA?m?$LM?$KN?9?$LM?$LK?$LA?z?$LK?P?$LM?$KO?4htm@

; 2404 : 
; 2405 : 		return( strResult );

  0008a	c7 45 e8 01 00
	00 00		 mov	 DWORD PTR $T2[ebp], 1
  00091	ff 70 f4	 push	 DWORD PTR [eax-12]
  00094	50		 push	 eax
  00095	8d 45 ec	 lea	 eax, DWORD PTR $T3[ebp]
  00098	50		 push	 eax
  00099	ff 15 00 00 00
	00		 call	 DWORD PTR __imp_?Concatenate@?$CSimpleStringT@D$00@ATL@@KAXAAV12@PBDH1H@Z
  0009f	83 c4 14	 add	 esp, 20			; 00000014H
; File D:\git\src\IBK\IBK_DRFN\ProjSrc\SrcDrfn\Chart\HWSTRATEGYANALYSIS\TabResult.cpp

; 473  : 	if(!DefaultFile.Open(m_strFilePath+"\\-.htm",CFile::modeRead))

  000a2	8d 4d d0	 lea	 ecx, DWORD PTR _DefaultFile$[ebp]
  000a5	6a 00		 push	 0
  000a7	6a 00		 push	 0
  000a9	ff 75 ec	 push	 DWORD PTR $T3[ebp]
  000ac	e8 00 00 00 00	 call	 ?Open@CStdioFile@@UAEHPBDIPAVCFileException@@@Z ; CStdioFile::Open
  000b1	8d 4d ec	 lea	 ecx, DWORD PTR $T3[ebp]
  000b4	c6 45 fc 01	 mov	 BYTE PTR __$EHRec$[ebp+8], 1
  000b8	8b f0		 mov	 esi, eax
  000ba	ff 15 00 00 00
	00		 call	 DWORD PTR __imp_??1?$CStringT@DV?$StrTraitMFC_DLL@DV?$ChTraitsCRT@D@ATL@@@@@ATL@@QAE@XZ
  000c0	85 f6		 test	 esi, esi
  000c2	75 0e		 jne	 SHORT $LN6@InitHtml

; 474  : 	{
; 475  : 		AfxMessageBox("Do Not Create -.htm File.");

  000c4	56		 push	 esi
  000c5	56		 push	 esi
  000c6	68 00 00 00 00	 push	 OFFSET ??_C@_0CI@CCGFODKP@Do?5Not?5Create?5?$LK?$LI?$LA?m?$LM?$KN?9?$LM?$LK?$LA?z?$LK?P?$LM?$KO?4h@
  000cb	e8 00 00 00 00	 call	 ?AfxMessageBox@@YGHPBDII@Z ; AfxMessageBox
  000d0	eb 46		 jmp	 SHORT $LN13@InitHtml
$LN6@InitHtml:

; 476  : 		return;
; 477  : 	}
; 478  : 
; 479  : 	for(;;){
; 480  : 		if(DefaultFile.ReadString(str))

  000d2	8d 45 f0	 lea	 eax, DWORD PTR _str$[ebp]
  000d5	50		 push	 eax
  000d6	8d 4d d0	 lea	 ecx, DWORD PTR _DefaultFile$[ebp]
  000d9	e8 00 00 00 00	 call	 ?ReadString@CStdioFile@@UAEHAAV?$CStringT@DV?$StrTraitMFC_DLL@DV?$ChTraitsCRT@D@ATL@@@@@ATL@@@Z ; CStdioFile::ReadString
  000de	85 c0		 test	 eax, eax
  000e0	74 1c		 je	 SHORT $LN7@InitHtml
$LL2@InitHtml:

; 481  : 			m_strHtml+=str;

  000e2	8d 45 f0	 lea	 eax, DWORD PTR _str$[ebp]
  000e5	8b cf		 mov	 ecx, edi
  000e7	50		 push	 eax
  000e8	ff 15 00 00 00
	00		 call	 DWORD PTR __imp_??Y?$CStringT@DV?$StrTraitMFC_DLL@DV?$ChTraitsCRT@D@ATL@@@@@ATL@@QAEAAV01@ABV?$CSimpleStringT@D$00@1@@Z
  000ee	8d 45 f0	 lea	 eax, DWORD PTR _str$[ebp]
  000f1	50		 push	 eax
  000f2	8d 4d d0	 lea	 ecx, DWORD PTR _DefaultFile$[ebp]
  000f5	e8 00 00 00 00	 call	 ?ReadString@CStdioFile@@UAEHAAV?$CStringT@DV?$StrTraitMFC_DLL@DV?$ChTraitsCRT@D@ATL@@@@@ATL@@@Z ; CStdioFile::ReadString
  000fa	85 c0		 test	 eax, eax
  000fc	75 e4		 jne	 SHORT $LL2@InitHtml
$LN7@InitHtml:

; 482  : 		else
; 483  : 			break;
; 484  : 	}
; 485  : 	m_strHtml.Replace("color=\"white\"", "");//

  000fe	68 00 00 00 00	 push	 OFFSET ??_C@_00CNPNBAHC@@
  00103	68 00 00 00 00	 push	 OFFSET ??_C@_0O@NLCHHJFD@color?$DN?$CCwhite?$CC@
  00108	8b cf		 mov	 ecx, edi
  0010a	ff 15 00 00 00
	00		 call	 DWORD PTR __imp_?Replace@?$CStringT@DV?$StrTraitMFC_DLL@DV?$ChTraitsCRT@D@ATL@@@@@ATL@@QAEHPBD0@Z

; 486  : 
; 487  : 	DefaultFile.Close();

  00110	8d 4d d0	 lea	 ecx, DWORD PTR _DefaultFile$[ebp]
  00113	e8 00 00 00 00	 call	 ?Close@CStdioFile@@UAEXXZ ; CStdioFile::Close
$LN13@InitHtml:

; 488  : }

  00118	8d 4d f0	 lea	 ecx, DWORD PTR _str$[ebp]
  0011b	ff 15 00 00 00
	00		 call	 DWORD PTR __imp_??1?$CStringT@DV?$StrTraitMFC_DLL@DV?$ChTraitsCRT@D@ATL@@@@@ATL@@QAE@XZ
  00121	8d 4d d0	 lea	 ecx, DWORD PTR _DefaultFile$[ebp]
  00124	e8 00 00 00 00	 call	 ??1CStdioFile@@UAE@XZ	; CStdioFile::~CStdioFile
$LN1@InitHtml:
  00129	8b 4d f4	 mov	 ecx, DWORD PTR __$EHRec$[ebp]
  0012c	64 89 0d 00 00
	00 00		 mov	 DWORD PTR fs:0, ecx
  00133	59		 pop	 ecx
  00134	5f		 pop	 edi
  00135	5e		 pop	 esi
  00136	8b e5		 mov	 esp, ebp
  00138	5d		 pop	 ebp
  00139	c3		 ret	 0
_TEXT	ENDS
;	COMDAT text$x
text$x	SEGMENT
__unwindfunclet$?InitHtml@CTabResult@@QAEXXZ$0:
  00000	8d 4d d0	 lea	 ecx, DWORD PTR _DefaultFile$[ebp]
  00003	e9 00 00 00 00	 jmp	 ??1CStdioFile@@UAE@XZ	; CStdioFile::~CStdioFile
__unwindfunclet$?InitHtml@CTabResult@@QAEXXZ$1:
  00008	8d 4d f0	 lea	 ecx, DWORD PTR _str$[ebp]
  0000b	ff 25 00 00 00
	00		 jmp	 DWORD PTR __imp_??1?$CStringT@DV?$StrTraitMFC_DLL@DV?$ChTraitsCRT@D@ATL@@@@@ATL@@QAE@XZ
__unwindfunclet$?InitHtml@CTabResult@@QAEXXZ$3:
  00011	8b 45 e8	 mov	 eax, DWORD PTR $T2[ebp]
  00014	83 e0 01	 and	 eax, 1
  00017	0f 84 0d 00 00
	00		 je	 $LN19@InitHtml
  0001d	83 65 e8 fe	 and	 DWORD PTR $T2[ebp], -2	; fffffffeH
  00021	8d 4d ec	 lea	 ecx, DWORD PTR $T3[ebp]
  00024	ff 25 00 00 00
	00		 jmp	 DWORD PTR __imp_??1?$CStringT@DV?$StrTraitMFC_DLL@DV?$ChTraitsCRT@D@ATL@@@@@ATL@@QAE@XZ
$LN19@InitHtml:
  0002a	c3		 ret	 0
  0002b	cc		 int	 3
  0002c	cc		 int	 3
  0002d	cc		 int	 3
  0002e	cc		 int	 3
  0002f	cc		 int	 3
__ehhandler$?InitHtml@CTabResult@@QAEXXZ:
  00030	90		 npad	 1
  00031	90		 npad	 1
  00032	8b 54 24 08	 mov	 edx, DWORD PTR [esp+8]
  00036	8d 42 0c	 lea	 eax, DWORD PTR [edx+12]
  00039	8b 4a d0	 mov	 ecx, DWORD PTR [edx-48]
  0003c	33 c8		 xor	 ecx, eax
  0003e	e8 00 00 00 00	 call	 @__security_check_cookie@4
  00043	b8 00 00 00 00	 mov	 eax, OFFSET __ehfuncinfo$?InitHtml@CTabResult@@QAEXXZ
  00048	e9 00 00 00 00	 jmp	 ___CxxFrameHandler3
text$x	ENDS
?InitHtml@CTabResult@@QAEXXZ ENDP			; CTabResult::InitHtml
; Function compile flags: /Ogtp
; File D:\git\src\IBK\IBK_DRFN\ProjSrc\SrcDrfn\Chart\HWSTRATEGYANALYSIS\TabResult.cpp
;	COMDAT ?ParsingstrHtml@CTabResult@@QAE?AV?$CStringT@DV?$StrTraitMFC_DLL@DV?$ChTraitsCRT@D@ATL@@@@@ATL@@V23@@Z
_TEXT	SEGMENT
__$EHRec$ = -12						; size = 12
___$ReturnUdt$ = 8					; size = 4
_strHtml$ = 12						; size = 4
?ParsingstrHtml@CTabResult@@QAE?AV?$CStringT@DV?$StrTraitMFC_DLL@DV?$ChTraitsCRT@D@ATL@@@@@ATL@@V23@@Z PROC ; CTabResult::ParsingstrHtml, COMDAT
; _this$ = ecx

; 103  : {

  00000	55		 push	 ebp
  00001	8b ec		 mov	 ebp, esp
  00003	6a ff		 push	 -1
  00005	68 00 00 00 00	 push	 __ehhandler$?ParsingstrHtml@CTabResult@@QAE?AV?$CStringT@DV?$StrTraitMFC_DLL@DV?$ChTraitsCRT@D@ATL@@@@@ATL@@V23@@Z
  0000a	64 a1 00 00 00
	00		 mov	 eax, DWORD PTR fs:0
  00010	50		 push	 eax
  00011	a1 00 00 00 00	 mov	 eax, DWORD PTR ___security_cookie
  00016	33 c5		 xor	 eax, ebp
  00018	50		 push	 eax
  00019	8d 45 f4	 lea	 eax, DWORD PTR __$EHRec$[ebp]
  0001c	64 a3 00 00 00
	00		 mov	 DWORD PTR fs:0, eax

; 104  : 	//try
; 105  : 	//{
; 106  : 	//	//        //
; 107  : 	//	double Data;
; 108  : 	//	CString strData;
; 109  : 	//	CString m_pHtmlCodeNameArray[MAXDATANUM] = 
; 110  : 	//	{"AccumProf","AAverProf","CurPosRate","TotalSon","TotalProf",
; 111  : 	//	"Totalloss","TotalPL","MaxProf","MaxLoss","AverSon","AverProf",
; 112  : 	//	"AverLoss",	"TotalEnt","NoCleanTotal","NoClean","TotalTrade",
; 113  : 	//	"ProfTrade","LossTrade","PnLn","PTRate","LTRate",
; 114  : 	//	"PrdSign","MaxConProfN","MaxConLossN","SOverRate","MaxConProf",
; 115  : 	//	"MaxConLoss","TotalStick","PTStick","LTStick","PrdParty",
; 116  : 	//	"EntryStick","CleanStick","ATStick","PTAStick","PLTAStick"};
; 117  : 	//	int m_nViewPointIndex[11] = {15,16,17,18,22,23,27,28,29,31,32}; 
; 118  : 	//	/////////////////////////////////
; 119  : 	//	
; 120  : 	//	CString strName;
; 121  : 	//	CStrategyResult* Result;
; 122  : 	//	ST_DATAINDEX stData;
; 123  : 	//	CIStrategyItem* Strate = m_pDlgAnalysis->GetStrategyItem();
; 124  : 	//
; 125  : 	//	int nSize = Strate->GetCntStrategyResult();
; 126  : 	//	if(nSize > 0)
; 127  : 	//	{
; 128  : 	//		Result = Strate->GetStrategyResult(nSize-1);
; 129  : 	//		switch(Result->m_DealType) {
; 130  : 	//		case CStrategyResult::NONE:strName = "NONE";
; 131  : 	//			break;
; 132  : 	//		case CStrategyResult::BUY:strName  = "";
; 133  : 	//			break;
; 134  : 	//		case CStrategyResult::EXITSHORT:strName  = "";
; 135  : 	//			break;
; 136  : 	//		case CStrategyResult::SELL:strName  = "";
; 137  : 	//			break;
; 138  : 	//		case CStrategyResult::EXITLONG: strName = "";
; 139  : 	//			break;
; 140  : 	//		}
; 141  : 	//	}
; 142  : 	//	else
; 143  : 	//		strName = "NONE";
; 144  : 	//	
; 145  : 	//	m_strCurrentPos = strName;
; 146  : 	//	strHtml.Replace("CurrentPos",strName);
; 147  : 	//	m_pDlgAnalysis->m_pdlgInfo->m_ctlstPosition.SetText(m_strCurrentPos);
; 148  : 
; 149  : 	//	strName = m_pDlgAnalysis->m_stSTName;
; 150  : 	//	m_strStrategyName = strName;
; 151  : 	//	strHtml.Replace("StrategyName",strName);
; 152  : 	//	m_pDlgAnalysis->m_pdlgInfo->m_ctlSTFILENAME.SetText(m_strStrategyName);
; 153  : 
; 154  : 	//	m_strItemName = m_pDlgAnalysis->m_stCodeName;
; 155  : 	//	strHtml.Replace("ItemName", m_strItemName);
; 156  : 	//	m_pDlgAnalysis->m_pdlgInfo->m_ctlstName.SetText(m_strItemName);
; 157  : 	//	
; 158  : 	//	if(m_iDateIndex < m_pDlgAnalysis->m_stDataIndex.GetCount())
; 159  : 	//	{
; 160  : 	//		stData = m_pDlgAnalysis->m_stDataIndex.GetAt(m_iDateIndex);
; 161  : 
; 162  : 	//		strName.Format(" %s %s  ~ %s", stData.strGubun, stData.strStartDate,stData.strEndDate);
; 163  : 	//		m_strPriod = strName;
; 164  : 	//		strHtml.Replace("Priod", strName);
; 165  : 	//		m_pDlgAnalysis->m_pdlgInfo->m_ctlstPeriod.SetText(m_strPriod);
; 166  : 	//	}
; 167  : 
; 168  : 	//	//   
; 169  : 	//	Data = Strate->GetStatisticalInfo(0);
; 170  : 	//	strData.Format("%.2f", Data);
; 171  : 	//	m_strACCumProf = strData;
; 172  : 	//	strHtml.Replace("AccumProf",strData);
; 173  : 	//	m_pDlgAnalysis->m_pdlgInfo->m_ctlstNujuk.SetText("dd");//m_strACCumProf);
; 174  : 
; 175  : 	//	///////////////////////
; 176  : 	//////   : 8  6   //////////////////////////////////////////////////////////////			
; 177  : 	//	for(int i = 1; i<MAXDATANUM;i++)
; 178  : 	//	{
; 179  : 	//		if(i==14) continue;//   .
; 180  : 	//		if(i==24)// : -  !
; 181  : 	//		{
; 182  : 	//			Data =atof(m_strACCumProf)-Strate->GetStatisticalInfo(21);
; 183  : 	//		}
; 184  : 	//		else
; 185  : 	//			Data = Strate->GetStatisticalInfo(i);
; 186  : 	//		//   Default!! 
; 187  : 	//		if(i==2||i==6||i==18||i==19||i==20||i==21||i==24||i==30||i==33||i==34||i==35)
; 188  : 	//			strData.Format("%.2f", Data);
; 189  : 	//		else
; 190  : 	//		{
; 191  : 	//			strData.Format("%d", (INT)Data);
; 192  : 	//		}
; 193  : 	//		//   ....   ...
; 194  : 	//		//, , , , ,, , 
; 195  : 	//		//, , 
; 196  : 	//		if(m_bIsJusik)
; 197  : 	//		{
; 198  : 	//			if(i==2||i==6||i==18||i==19||i==20||i==21||i==24||i==30||i==33||i==34||i==35)
; 199  : 	//				strData.Format("%.2f", Data);
; 200  : 	//			else
; 201  : 	//				strData.Format("%d", (INT)Data);
; 202  : 	//		}
; 203  : 	//		strData = GetComma(strData);//Comma
; 204  : 	//		int Index = strHtml.Find(m_pHtmlCodeNameArray[i],0);
; 205  : 	//		//if(strData.Find("-",0)>=0) ..
; 206  : 	//		//	strHtml.Insert(Index-2, "Color=Red");
; 207  : 	//		strHtml.Replace(m_pHtmlCodeNameArray[i],strData);
; 208  : 	//	}
; 209  : 	//	return strHtml;
; 210  : 	//}
; 211  : 	//catch(...)
; 212  : 	//{
; 213  : 	//	return "";
; 214  : 	//}
; 215  : return "";

  00022	8b 4d 08	 mov	 ecx, DWORD PTR ___$ReturnUdt$[ebp]
  00025	68 00 00 00 00	 push	 OFFSET ??_C@_00CNPNBAHC@@
  0002a	c7 45 fc 00 00
	00 00		 mov	 DWORD PTR __$EHRec$[ebp+8], 0
  00031	ff 15 00 00 00
	00		 call	 DWORD PTR __imp_??0?$CStringT@DV?$StrTraitMFC_DLL@DV?$ChTraitsCRT@D@ATL@@@@@ATL@@QAE@PBD@Z
  00037	8d 4d 0c	 lea	 ecx, DWORD PTR _strHtml$[ebp]
  0003a	ff 15 00 00 00
	00		 call	 DWORD PTR __imp_??1?$CStringT@DV?$StrTraitMFC_DLL@DV?$ChTraitsCRT@D@ATL@@@@@ATL@@QAE@XZ
  00040	8b 45 08	 mov	 eax, DWORD PTR ___$ReturnUdt$[ebp]

; 216  : }

  00043	8b 4d f4	 mov	 ecx, DWORD PTR __$EHRec$[ebp]
  00046	64 89 0d 00 00
	00 00		 mov	 DWORD PTR fs:0, ecx
  0004d	59		 pop	 ecx
  0004e	8b e5		 mov	 esp, ebp
  00050	5d		 pop	 ebp
  00051	c2 08 00	 ret	 8
_TEXT	ENDS
;	COMDAT text$x
text$x	SEGMENT
__unwindfunclet$?ParsingstrHtml@CTabResult@@QAE?AV?$CStringT@DV?$StrTraitMFC_DLL@DV?$ChTraitsCRT@D@ATL@@@@@ATL@@V23@@Z$0:
  00000	8d 4d 0c	 lea	 ecx, DWORD PTR _strHtml$[ebp]
  00003	ff 25 00 00 00
	00		 jmp	 DWORD PTR __imp_??1?$CStringT@DV?$StrTraitMFC_DLL@DV?$ChTraitsCRT@D@ATL@@@@@ATL@@QAE@XZ
  00009	cc		 int	 3
  0000a	cc		 int	 3
  0000b	cc		 int	 3
  0000c	cc		 int	 3
  0000d	cc		 int	 3
__ehhandler$?ParsingstrHtml@CTabResult@@QAE?AV?$CStringT@DV?$StrTraitMFC_DLL@DV?$ChTraitsCRT@D@ATL@@@@@ATL@@V23@@Z:
  0000e	90		 npad	 1
  0000f	90		 npad	 1
  00010	8b 54 24 08	 mov	 edx, DWORD PTR [esp+8]
  00014	8d 42 0c	 lea	 eax, DWORD PTR [edx+12]
  00017	8b 4a fc	 mov	 ecx, DWORD PTR [edx-4]
  0001a	33 c8		 xor	 ecx, eax
  0001c	e8 00 00 00 00	 call	 @__security_check_cookie@4
  00021	b8 00 00 00 00	 mov	 eax, OFFSET __ehfuncinfo$?ParsingstrHtml@CTabResult@@QAE?AV?$CStringT@DV?$StrTraitMFC_DLL@DV?$ChTraitsCRT@D@ATL@@@@@ATL@@V23@@Z
  00026	e9 00 00 00 00	 jmp	 ___CxxFrameHandler3
text$x	ENDS
?ParsingstrHtml@CTabResult@@QAE?AV?$CStringT@DV?$StrTraitMFC_DLL@DV?$ChTraitsCRT@D@ATL@@@@@ATL@@V23@@Z ENDP ; CTabResult::ParsingstrHtml
; Function compile flags: /Ogtp
; File D:\git\src\IBK\IBK_DRFN\ProjSrc\SrcDrfn\Chart\HWSTRATEGYANALYSIS\TabResult.cpp
; File C:\Program Files (x86)\Microsoft Visual Studio\2019\Community\VC\Tools\MSVC\14.29.30133\atlmfc\include\cstringt.h
; File D:\git\src\IBK\IBK_DRFN\ProjSrc\SrcDrfn\Chart\HWSTRATEGYANALYSIS\TabResult.cpp
; File C:\Program Files (x86)\Microsoft Visual Studio\2019\Community\VC\Tools\MSVC\14.29.30133\atlmfc\include\cstringt.h
; File D:\git\src\IBK\IBK_DRFN\ProjSrc\SrcDrfn\Chart\HWSTRATEGYANALYSIS\TabResult.cpp
; File C:\Program Files (x86)\Microsoft Visual Studio\2019\Community\VC\Tools\MSVC\14.29.30133\atlmfc\include\cstringt.h
; File C:\Program Files (x86)\Microsoft Visual Studio\2019\Community\VC\Tools\MSVC\14.29.30133\atlmfc\include\atlsimpstr.h
; File C:\Program Files (x86)\Microsoft Visual Studio\2019\Community\VC\Tools\MSVC\14.29.30133\atlmfc\include\cstringt.h
; File D:\git\src\IBK\IBK_DRFN\ProjSrc\SrcDrfn\Chart\HWSTRATEGYANALYSIS\TabResult.cpp
; File C:\Program Files (x86)\Microsoft Visual Studio\2019\Community\VC\Tools\MSVC\14.29.30133\atlmfc\include\cstringt.h
; File D:\git\src\IBK\IBK_DRFN\ProjSrc\SrcDrfn\Chart\HWSTRATEGYANALYSIS\TabResult.cpp
; File C:\Program Files (x86)\Microsoft Visual Studio\2019\Community\VC\Tools\MSVC\14.29.30133\atlmfc\include\cstringt.h
; File C:\Program Files (x86)\Microsoft Visual Studio\2019\Community\VC\Tools\MSVC\14.29.30133\atlmfc\include\atlsimpstr.h
; File C:\Program Files (x86)\Microsoft Visual Studio\2019\Community\VC\Tools\MSVC\14.29.30133\atlmfc\include\cstringt.h
; File D:\git\src\IBK\IBK_DRFN\ProjSrc\SrcDrfn\Chart\HWSTRATEGYANALYSIS\TabResult.cpp
; File C:\Program Files (x86)\Microsoft Visual Studio\2019\Community\VC\Tools\MSVC\14.29.30133\atlmfc\include\cstringt.h
; File D:\git\src\IBK\IBK_DRFN\ProjSrc\SrcDrfn\Chart\HWSTRATEGYANALYSIS\TabResult.cpp
; File C:\Program Files (x86)\Microsoft Visual Studio\2019\Community\VC\Tools\MSVC\14.29.30133\atlmfc\include\cstringt.h
; File C:\Program Files (x86)\Microsoft Visual Studio\2019\Community\VC\Tools\MSVC\14.29.30133\atlmfc\include\atlsimpstr.h
; File C:\Program Files (x86)\Microsoft Visual Studio\2019\Community\VC\Tools\MSVC\14.29.30133\atlmfc\include\cstringt.h
; File D:\git\src\IBK\IBK_DRFN\ProjSrc\SrcDrfn\Chart\HWSTRATEGYANALYSIS\TabResult.cpp
; File C:\Program Files (x86)\Microsoft Visual Studio\2019\Community\VC\Tools\MSVC\14.29.30133\atlmfc\include\afxole.inl
; File D:\git\src\IBK\IBK_DRFN\ProjSrc\SrcDrfn\Chart\HWSTRATEGYANALYSIS\TabResult.cpp
; File C:\Program Files (x86)\Microsoft Visual Studio\2019\Community\VC\Tools\MSVC\14.29.30133\atlmfc\include\afxole.inl
; File C:\Program Files (x86)\Microsoft Visual Studio\2019\Community\VC\Tools\MSVC\14.29.30133\atlmfc\include\cstringt.h
; File D:\git\src\IBK\IBK_DRFN\ProjSrc\SrcDrfn\Chart\HWSTRATEGYANALYSIS\TabResult.cpp
; File C:\Program Files (x86)\Microsoft Visual Studio\2019\Community\VC\Tools\MSVC\14.29.30133\atlmfc\include\cstringt.h
; File C:\Program Files (x86)\Microsoft Visual Studio\2019\Community\VC\Tools\MSVC\14.29.30133\atlmfc\include\atlsimpstr.h
; File C:\Program Files (x86)\Microsoft Visual Studio\2019\Community\VC\Tools\MSVC\14.29.30133\atlmfc\include\cstringt.h
; File C:\Program Files (x86)\Microsoft Visual Studio\2019\Community\VC\Tools\MSVC\14.29.30133\atlmfc\include\afxole.inl
; File D:\git\src\IBK\IBK_DRFN\ProjSrc\SrcDrfn\Chart\HWSTRATEGYANALYSIS\TabResult.cpp
; File C:\Program Files (x86)\Microsoft Visual Studio\2019\Community\VC\Tools\MSVC\14.29.30133\atlmfc\include\afxole.inl
; File D:\git\src\IBK\IBK_DRFN\ProjSrc\SrcDrfn\Chart\HWSTRATEGYANALYSIS\TabResult.cpp
;	COMDAT ?MakeHtmlFile@CTabResult@@QAEXXZ
_TEXT	SEGMENT
_NewFile$ = -96						; size = 24
_DefaultFile$2 = -72					; size = 24
_varEmpty$3 = -64					; size = 16
_varURL$4 = -48						; size = 16
_strPath$5 = -32					; size = 4
$T6 = -28						; size = 4
$T7 = -28						; size = 4
$T8 = -28						; size = 4
$T9 = -28						; size = 4
$T10 = -28						; size = 4
$T11 = -24						; size = 4
$T12 = -24						; size = 4
_strHtml$ = -20						; size = 4
$T13 = -16						; size = 4
_str$14 = -16						; size = 4
__$EHRec$ = -12						; size = 12
?MakeHtmlFile@CTabResult@@QAEXXZ PROC			; CTabResult::MakeHtmlFile, COMDAT
; _this$ = ecx

; 81   : {

  00000	55		 push	 ebp
  00001	8b ec		 mov	 ebp, esp
  00003	6a ff		 push	 -1
  00005	68 00 00 00 00	 push	 __ehhandler$?MakeHtmlFile@CTabResult@@QAEXXZ
  0000a	64 a1 00 00 00
	00		 mov	 eax, DWORD PTR fs:0
  00010	50		 push	 eax
  00011	83 ec 54	 sub	 esp, 84			; 00000054H
  00014	53		 push	 ebx
  00015	56		 push	 esi
  00016	57		 push	 edi
  00017	a1 00 00 00 00	 mov	 eax, DWORD PTR ___security_cookie
  0001c	33 c5		 xor	 eax, ebp
  0001e	50		 push	 eax
  0001f	8d 45 f4	 lea	 eax, DWORD PTR __$EHRec$[ebp]
  00022	64 a3 00 00 00
	00		 mov	 DWORD PTR fs:0, eax
  00028	8b d9		 mov	 ebx, ecx

; 82   : 	//   !!
; 83   : 	CStdioFile NewFile;

  0002a	8d 4d a0	 lea	 ecx, DWORD PTR _NewFile$[ebp]
  0002d	c7 45 e8 00 00
	00 00		 mov	 DWORD PTR $T12[ebp], 0
  00034	e8 00 00 00 00	 call	 ??0CStdioFile@@QAE@XZ	; CStdioFile::CStdioFile

; 84   : ///String  //////////////////////..
; 85   : 	CString strHtml;

  00039	8d 4d ec	 lea	 ecx, DWORD PTR _strHtml$[ebp]
  0003c	c7 45 fc 00 00
	00 00		 mov	 DWORD PTR __$EHRec$[ebp+8], 0
  00043	ff 15 00 00 00
	00		 call	 DWORD PTR __imp_??0?$CStringT@DV?$StrTraitMFC_DLL@DV?$ChTraitsCRT@D@ATL@@@@@ATL@@QAE@XZ

; 469  : 	if(m_strHtml!="")return;

  00049	8d bb 48 01 00
	00		 lea	 edi, DWORD PTR [ebx+328]

; 84   : ///String  //////////////////////..
; 85   : 	CString strHtml;

  0004f	c6 45 fc 01	 mov	 BYTE PTR __$EHRec$[ebp+8], 1
; File C:\Program Files (x86)\Microsoft Visual Studio\2019\Community\VC\Tools\MSVC\14.29.30133\atlmfc\include\cstringt.h

; 2567 : 		return( str1.Compare( psz2 ) != 0 );

  00053	68 00 00 00 00	 push	 OFFSET ??_C@_00CNPNBAHC@@
  00058	8b cf		 mov	 ecx, edi
  0005a	ff 15 00 00 00
	00		 call	 DWORD PTR __imp_?Compare@?$CStringT@DV?$StrTraitMFC_DLL@DV?$ChTraitsCRT@D@ATL@@@@@ATL@@QBEHPBD@Z
  00060	85 c0		 test	 eax, eax
; File D:\git\src\IBK\IBK_DRFN\ProjSrc\SrcDrfn\Chart\HWSTRATEGYANALYSIS\TabResult.cpp

; 469  : 	if(m_strHtml!="")return;

  00062	0f 85 db 00 00
	00		 jne	 $LN13@MakeHtmlFi

; 470  : 	CStdioFile DefaultFile;

  00068	8d 4d b8	 lea	 ecx, DWORD PTR _DefaultFile$2[ebp]
  0006b	e8 00 00 00 00	 call	 ??0CStdioFile@@QAE@XZ	; CStdioFile::CStdioFile

; 471  : 	CString str;

  00070	8d 4d f0	 lea	 ecx, DWORD PTR _str$14[ebp]
  00073	ff 15 00 00 00
	00		 call	 DWORD PTR __imp_??0?$CStringT@DV?$StrTraitMFC_DLL@DV?$ChTraitsCRT@D@ATL@@@@@ATL@@QAE@XZ
; File C:\Program Files (x86)\Microsoft Visual Studio\2019\Community\VC\Tools\MSVC\14.29.30133\atlmfc\include\cstringt.h

; 2401 : 		CStringT strResult( str1.GetManager() );

  00079	8d 8b 44 01 00
	00		 lea	 ecx, DWORD PTR [ebx+324]
; File D:\git\src\IBK\IBK_DRFN\ProjSrc\SrcDrfn\Chart\HWSTRATEGYANALYSIS\TabResult.cpp

; 473  : 	if(!DefaultFile.Open(m_strFilePath+"\\-.htm",CFile::modeRead))

  0007f	c6 45 fc 04	 mov	 BYTE PTR __$EHRec$[ebp+8], 4
; File C:\Program Files (x86)\Microsoft Visual Studio\2019\Community\VC\Tools\MSVC\14.29.30133\atlmfc\include\cstringt.h

; 2401 : 		CStringT strResult( str1.GetManager() );

  00083	ff 15 00 00 00
	00		 call	 DWORD PTR __imp_?GetManager@?$CStringT@DV?$StrTraitMFC_DLL@DV?$ChTraitsCRT@D@ATL@@@@@ATL@@QBEPAUIAtlStringMgr@2@XZ
  00089	50		 push	 eax
  0008a	8d 4d e4	 lea	 ecx, DWORD PTR $T7[ebp]
  0008d	ff 15 00 00 00
	00		 call	 DWORD PTR __imp_??0?$CStringT@DV?$StrTraitMFC_DLL@DV?$ChTraitsCRT@D@ATL@@@@@ATL@@QAE@PAUIAtlStringMgr@1@@Z
; File C:\Program Files (x86)\Microsoft Visual Studio\2019\Community\VC\Tools\MSVC\14.29.30133\atlmfc\include\atlsimpstr.h

; 519  : 		return( GetData()->nDataLength );

  00093	8b 83 44 01 00
	00		 mov	 eax, DWORD PTR [ebx+324]
; File C:\Program Files (x86)\Microsoft Visual Studio\2019\Community\VC\Tools\MSVC\14.29.30133\atlmfc\include\cstringt.h

; 2403 : 		CThisSimpleString::Concatenate( strResult, str1, str1.GetLength(), psz2, CThisSimpleString::StringLength( psz2 ) );

  00099	6a 14		 push	 20			; 00000014H
  0009b	68 00 00 00 00	 push	 OFFSET ??_C@_0BF@PNNIFJFE@?2?$LK?$LI?$LA?m?$LM?$KN?9?$LM?$LK?$LA?z?$LK?P?$LM?$KO?4htm@

; 2404 : 
; 2405 : 		return( strResult );

  000a0	c7 45 e8 01 00
	00 00		 mov	 DWORD PTR $T12[ebp], 1
  000a7	ff 70 f4	 push	 DWORD PTR [eax-12]
  000aa	50		 push	 eax
  000ab	8d 45 e4	 lea	 eax, DWORD PTR $T7[ebp]
  000ae	50		 push	 eax
  000af	ff 15 00 00 00
	00		 call	 DWORD PTR __imp_?Concatenate@?$CSimpleStringT@D$00@ATL@@KAXAAV12@PBDH1H@Z
  000b5	83 c4 14	 add	 esp, 20			; 00000014H
; File D:\git\src\IBK\IBK_DRFN\ProjSrc\SrcDrfn\Chart\HWSTRATEGYANALYSIS\TabResult.cpp

; 473  : 	if(!DefaultFile.Open(m_strFilePath+"\\-.htm",CFile::modeRead))

  000b8	8d 4d b8	 lea	 ecx, DWORD PTR _DefaultFile$2[ebp]
  000bb	6a 00		 push	 0
  000bd	6a 00		 push	 0
  000bf	ff 75 e4	 push	 DWORD PTR $T7[ebp]
  000c2	e8 00 00 00 00	 call	 ?Open@CStdioFile@@UAEHPBDIPAVCFileException@@@Z ; CStdioFile::Open
  000c7	8d 4d e4	 lea	 ecx, DWORD PTR $T7[ebp]
  000ca	c6 45 fc 03	 mov	 BYTE PTR __$EHRec$[ebp+8], 3
  000ce	8b f0		 mov	 esi, eax
  000d0	ff 15 00 00 00
	00		 call	 DWORD PTR __imp_??1?$CStringT@DV?$StrTraitMFC_DLL@DV?$ChTraitsCRT@D@ATL@@@@@ATL@@QAE@XZ
  000d6	85 f6		 test	 esi, esi
  000d8	75 0e		 jne	 SHORT $LN18@MakeHtmlFi

; 474  : 	{
; 475  : 		AfxMessageBox("Do Not Create -.htm File.");

  000da	56		 push	 esi
  000db	56		 push	 esi
  000dc	68 00 00 00 00	 push	 OFFSET ??_C@_0CI@CCGFODKP@Do?5Not?5Create?5?$LK?$LI?$LA?m?$LM?$KN?9?$LM?$LK?$LA?z?$LK?P?$LM?$KO?4h@
  000e1	e8 00 00 00 00	 call	 ?AfxMessageBox@@YGHPBDII@Z ; AfxMessageBox

; 476  : 		return;

  000e6	eb 46		 jmp	 SHORT $LN132@MakeHtmlFi
$LN18@MakeHtmlFi:

; 477  : 	}
; 478  : 
; 479  : 	for(;;){
; 480  : 		if(DefaultFile.ReadString(str))

  000e8	8d 45 f0	 lea	 eax, DWORD PTR _str$14[ebp]
  000eb	50		 push	 eax
  000ec	8d 4d b8	 lea	 ecx, DWORD PTR _DefaultFile$2[ebp]
  000ef	e8 00 00 00 00	 call	 ?ReadString@CStdioFile@@UAEHAAV?$CStringT@DV?$StrTraitMFC_DLL@DV?$ChTraitsCRT@D@ATL@@@@@ATL@@@Z ; CStdioFile::ReadString
  000f4	85 c0		 test	 eax, eax
  000f6	74 1c		 je	 SHORT $LN19@MakeHtmlFi
$LL14@MakeHtmlFi:

; 481  : 			m_strHtml+=str;

  000f8	8d 45 f0	 lea	 eax, DWORD PTR _str$14[ebp]
  000fb	8b cf		 mov	 ecx, edi
  000fd	50		 push	 eax
  000fe	ff 15 00 00 00
	00		 call	 DWORD PTR __imp_??Y?$CStringT@DV?$StrTraitMFC_DLL@DV?$ChTraitsCRT@D@ATL@@@@@ATL@@QAEAAV01@ABV?$CSimpleStringT@D$00@1@@Z
  00104	8d 45 f0	 lea	 eax, DWORD PTR _str$14[ebp]
  00107	50		 push	 eax
  00108	8d 4d b8	 lea	 ecx, DWORD PTR _DefaultFile$2[ebp]
  0010b	e8 00 00 00 00	 call	 ?ReadString@CStdioFile@@UAEHAAV?$CStringT@DV?$StrTraitMFC_DLL@DV?$ChTraitsCRT@D@ATL@@@@@ATL@@@Z ; CStdioFile::ReadString
  00110	85 c0		 test	 eax, eax
  00112	75 e4		 jne	 SHORT $LL14@MakeHtmlFi
$LN19@MakeHtmlFi:

; 482  : 		else
; 483  : 			break;
; 484  : 	}
; 485  : 	m_strHtml.Replace("color=\"white\"", "");//

  00114	68 00 00 00 00	 push	 OFFSET ??_C@_00CNPNBAHC@@
  00119	68 00 00 00 00	 push	 OFFSET ??_C@_0O@NLCHHJFD@color?$DN?$CCwhite?$CC@
  0011e	8b cf		 mov	 ecx, edi
  00120	ff 15 00 00 00
	00		 call	 DWORD PTR __imp_?Replace@?$CStringT@DV?$StrTraitMFC_DLL@DV?$ChTraitsCRT@D@ATL@@@@@ATL@@QAEHPBD0@Z

; 486  : 
; 487  : 	DefaultFile.Close();

  00126	8d 4d b8	 lea	 ecx, DWORD PTR _DefaultFile$2[ebp]
  00129	e8 00 00 00 00	 call	 ?Close@CStdioFile@@UAEXXZ ; CStdioFile::Close
$LN132@MakeHtmlFi:

; 86   : 	InitHtml();
; 87   : 	strHtml = m_strHtml;

  0012e	8d 4d f0	 lea	 ecx, DWORD PTR _str$14[ebp]
  00131	ff 15 00 00 00
	00		 call	 DWORD PTR __imp_??1?$CStringT@DV?$StrTraitMFC_DLL@DV?$ChTraitsCRT@D@ATL@@@@@ATL@@QAE@XZ
  00137	8d 4d b8	 lea	 ecx, DWORD PTR _DefaultFile$2[ebp]
  0013a	c6 45 fc 01	 mov	 BYTE PTR __$EHRec$[ebp+8], 1
  0013e	e8 00 00 00 00	 call	 ??1CStdioFile@@UAE@XZ	; CStdioFile::~CStdioFile
$LN13@MakeHtmlFi:
  00143	57		 push	 edi
  00144	8d 4d ec	 lea	 ecx, DWORD PTR _strHtml$[ebp]
  00147	ff 15 00 00 00
	00		 call	 DWORD PTR __imp_??4?$CStringT@DV?$StrTraitMFC_DLL@DV?$ChTraitsCRT@D@ATL@@@@@ATL@@QAEAAV01@ABV01@@Z

; 88   : 	strHtml = ParsingstrHtml(strHtml);

  0014d	8d 45 ec	 lea	 eax, DWORD PTR _strHtml$[ebp]
  00150	50		 push	 eax
  00151	8d 4d e8	 lea	 ecx, DWORD PTR $T11[ebp]
  00154	ff 15 00 00 00
	00		 call	 DWORD PTR __imp_??0?$CStringT@DV?$StrTraitMFC_DLL@DV?$ChTraitsCRT@D@ATL@@@@@ATL@@QAE@ABV01@@Z

; 215  : return "";

  0015a	68 00 00 00 00	 push	 OFFSET ??_C@_00CNPNBAHC@@
  0015f	8d 4d e4	 lea	 ecx, DWORD PTR $T10[ebp]
  00162	c6 45 fc 05	 mov	 BYTE PTR __$EHRec$[ebp+8], 5
  00166	ff 15 00 00 00
	00		 call	 DWORD PTR __imp_??0?$CStringT@DV?$StrTraitMFC_DLL@DV?$ChTraitsCRT@D@ATL@@@@@ATL@@QAE@PBD@Z
  0016c	8d 4d e8	 lea	 ecx, DWORD PTR $T11[ebp]
  0016f	ff 15 00 00 00
	00		 call	 DWORD PTR __imp_??1?$CStringT@DV?$StrTraitMFC_DLL@DV?$ChTraitsCRT@D@ATL@@@@@ATL@@QAE@XZ

; 88   : 	strHtml = ParsingstrHtml(strHtml);

  00175	8d 45 e4	 lea	 eax, DWORD PTR $T10[ebp]
  00178	c6 45 fc 06	 mov	 BYTE PTR __$EHRec$[ebp+8], 6
  0017c	50		 push	 eax
  0017d	8d 4d ec	 lea	 ecx, DWORD PTR _strHtml$[ebp]
  00180	ff 15 00 00 00
	00		 call	 DWORD PTR __imp_??4?$CStringT@DV?$StrTraitMFC_DLL@DV?$ChTraitsCRT@D@ATL@@@@@ATL@@QAEAAV01@ABV01@@Z
  00186	8d 4d e4	 lea	 ecx, DWORD PTR $T10[ebp]
  00189	ff 15 00 00 00
	00		 call	 DWORD PTR __imp_??1?$CStringT@DV?$StrTraitMFC_DLL@DV?$ChTraitsCRT@D@ATL@@@@@ATL@@QAE@XZ

; 91   : 	SetFileAttributes (m_strFilePath+"\\.htm", FILE_ATTRIBUTE_NORMAL);//protect Read Only Error 

  0018f	81 c3 44 01 00
	00		 add	 ebx, 324		; 00000144H
; File C:\Program Files (x86)\Microsoft Visual Studio\2019\Community\VC\Tools\MSVC\14.29.30133\atlmfc\include\cstringt.h

; 2401 : 		CStringT strResult( str1.GetManager() );

  00195	8b cb		 mov	 ecx, ebx
; File D:\git\src\IBK\IBK_DRFN\ProjSrc\SrcDrfn\Chart\HWSTRATEGYANALYSIS\TabResult.cpp

; 91   : 	SetFileAttributes (m_strFilePath+"\\.htm", FILE_ATTRIBUTE_NORMAL);//protect Read Only Error 

  00197	c6 45 fc 07	 mov	 BYTE PTR __$EHRec$[ebp+8], 7
; File C:\Program Files (x86)\Microsoft Visual Studio\2019\Community\VC\Tools\MSVC\14.29.30133\atlmfc\include\cstringt.h

; 2401 : 		CStringT strResult( str1.GetManager() );

  0019b	ff 15 00 00 00
	00		 call	 DWORD PTR __imp_?GetManager@?$CStringT@DV?$StrTraitMFC_DLL@DV?$ChTraitsCRT@D@ATL@@@@@ATL@@QBEPAUIAtlStringMgr@2@XZ
  001a1	50		 push	 eax
  001a2	8d 4d e4	 lea	 ecx, DWORD PTR $T9[ebp]
  001a5	ff 15 00 00 00
	00		 call	 DWORD PTR __imp_??0?$CStringT@DV?$StrTraitMFC_DLL@DV?$ChTraitsCRT@D@ATL@@@@@ATL@@QAE@PAUIAtlStringMgr@1@@Z
; File C:\Program Files (x86)\Microsoft Visual Studio\2019\Community\VC\Tools\MSVC\14.29.30133\atlmfc\include\atlsimpstr.h

; 519  : 		return( GetData()->nDataLength );

  001ab	8b 03		 mov	 eax, DWORD PTR [ebx]
; File C:\Program Files (x86)\Microsoft Visual Studio\2019\Community\VC\Tools\MSVC\14.29.30133\atlmfc\include\cstringt.h

; 2403 : 		CThisSimpleString::Concatenate( strResult, str1, str1.GetLength(), psz2, CThisSimpleString::StringLength( psz2 ) );

  001ad	6a 0d		 push	 13			; 0000000dH
  001af	68 00 00 00 00	 push	 OFFSET ??_C@_0O@MEHDIMKH@?2?$LM?$LK?$LA?z?$LK?P?$LM?$KO?4htm@

; 2404 : 
; 2405 : 		return( strResult );

  001b4	c7 45 e8 06 00
	00 00		 mov	 DWORD PTR $T12[ebp], 6
  001bb	ff 70 f4	 push	 DWORD PTR [eax-12]
  001be	50		 push	 eax
  001bf	8d 45 e4	 lea	 eax, DWORD PTR $T9[ebp]
  001c2	50		 push	 eax
  001c3	ff 15 00 00 00
	00		 call	 DWORD PTR __imp_?Concatenate@?$CSimpleStringT@D$00@ATL@@KAXAAV12@PBDH1H@Z
  001c9	83 c4 14	 add	 esp, 20			; 00000014H
; File D:\git\src\IBK\IBK_DRFN\ProjSrc\SrcDrfn\Chart\HWSTRATEGYANALYSIS\TabResult.cpp

; 91   : 	SetFileAttributes (m_strFilePath+"\\.htm", FILE_ATTRIBUTE_NORMAL);//protect Read Only Error 

  001cc	68 80 00 00 00	 push	 128			; 00000080H
  001d1	ff 75 e4	 push	 DWORD PTR $T9[ebp]
  001d4	ff 15 00 00 00
	00		 call	 DWORD PTR __imp__SetFileAttributesA@8
  001da	8d 4d e4	 lea	 ecx, DWORD PTR $T9[ebp]
  001dd	ff 15 00 00 00
	00		 call	 DWORD PTR __imp_??1?$CStringT@DV?$StrTraitMFC_DLL@DV?$ChTraitsCRT@D@ATL@@@@@ATL@@QAE@XZ
; File C:\Program Files (x86)\Microsoft Visual Studio\2019\Community\VC\Tools\MSVC\14.29.30133\atlmfc\include\cstringt.h

; 2401 : 		CStringT strResult( str1.GetManager() );

  001e3	8b cb		 mov	 ecx, ebx
; File D:\git\src\IBK\IBK_DRFN\ProjSrc\SrcDrfn\Chart\HWSTRATEGYANALYSIS\TabResult.cpp

; 92   : 	if(!NewFile.Open(m_strFilePath+"\\.htm",CFile::modeCreate|CFile::modeWrite))

  001e5	c6 45 fc 08	 mov	 BYTE PTR __$EHRec$[ebp+8], 8
; File C:\Program Files (x86)\Microsoft Visual Studio\2019\Community\VC\Tools\MSVC\14.29.30133\atlmfc\include\cstringt.h

; 2401 : 		CStringT strResult( str1.GetManager() );

  001e9	ff 15 00 00 00
	00		 call	 DWORD PTR __imp_?GetManager@?$CStringT@DV?$StrTraitMFC_DLL@DV?$ChTraitsCRT@D@ATL@@@@@ATL@@QBEPAUIAtlStringMgr@2@XZ
  001ef	50		 push	 eax
  001f0	8d 4d e4	 lea	 ecx, DWORD PTR $T8[ebp]
  001f3	ff 15 00 00 00
	00		 call	 DWORD PTR __imp_??0?$CStringT@DV?$StrTraitMFC_DLL@DV?$ChTraitsCRT@D@ATL@@@@@ATL@@QAE@PAUIAtlStringMgr@1@@Z
; File C:\Program Files (x86)\Microsoft Visual Studio\2019\Community\VC\Tools\MSVC\14.29.30133\atlmfc\include\atlsimpstr.h

; 519  : 		return( GetData()->nDataLength );

  001f9	8b 03		 mov	 eax, DWORD PTR [ebx]
; File C:\Program Files (x86)\Microsoft Visual Studio\2019\Community\VC\Tools\MSVC\14.29.30133\atlmfc\include\cstringt.h

; 2403 : 		CThisSimpleString::Concatenate( strResult, str1, str1.GetLength(), psz2, CThisSimpleString::StringLength( psz2 ) );

  001fb	6a 0d		 push	 13			; 0000000dH
  001fd	68 00 00 00 00	 push	 OFFSET ??_C@_0O@MEHDIMKH@?2?$LM?$LK?$LA?z?$LK?P?$LM?$KO?4htm@

; 2404 : 
; 2405 : 		return( strResult );

  00202	c7 45 e8 0a 00
	00 00		 mov	 DWORD PTR $T12[ebp], 10	; 0000000aH
  00209	ff 70 f4	 push	 DWORD PTR [eax-12]
  0020c	50		 push	 eax
  0020d	8d 45 e4	 lea	 eax, DWORD PTR $T8[ebp]
  00210	50		 push	 eax
  00211	ff 15 00 00 00
	00		 call	 DWORD PTR __imp_?Concatenate@?$CSimpleStringT@D$00@ATL@@KAXAAV12@PBDH1H@Z
  00217	83 c4 14	 add	 esp, 20			; 00000014H
; File D:\git\src\IBK\IBK_DRFN\ProjSrc\SrcDrfn\Chart\HWSTRATEGYANALYSIS\TabResult.cpp

; 92   : 	if(!NewFile.Open(m_strFilePath+"\\.htm",CFile::modeCreate|CFile::modeWrite))

  0021a	8d 4d a0	 lea	 ecx, DWORD PTR _NewFile$[ebp]
  0021d	6a 00		 push	 0
  0021f	68 01 10 00 00	 push	 4097			; 00001001H
  00224	ff 75 e4	 push	 DWORD PTR $T8[ebp]
  00227	e8 00 00 00 00	 call	 ?Open@CStdioFile@@UAEHPBDIPAVCFileException@@@Z ; CStdioFile::Open
  0022c	8d 4d e4	 lea	 ecx, DWORD PTR $T8[ebp]
  0022f	c6 45 fc 01	 mov	 BYTE PTR __$EHRec$[ebp+8], 1
  00233	8b f0		 mov	 esi, eax
  00235	ff 15 00 00 00
	00		 call	 DWORD PTR __imp_??1?$CStringT@DV?$StrTraitMFC_DLL@DV?$ChTraitsCRT@D@ATL@@@@@ATL@@QAE@XZ
  0023b	85 f6		 test	 esi, esi
  0023d	75 11		 jne	 SHORT $LN2@MakeHtmlFi

; 93   : 	{
; 94   : 		AfxMessageBox("Do Not Create Html File.");

  0023f	56		 push	 esi
  00240	56		 push	 esi
  00241	68 00 00 00 00	 push	 OFFSET ??_C@_0BJ@EJHFGNNM@Do?5Not?5Create?5Html?5File?4@
  00246	e8 00 00 00 00	 call	 ?AfxMessageBox@@YGHPBDII@Z ; AfxMessageBox
  0024b	e9 b8 00 00 00	 jmp	 $LN79@MakeHtmlFi
$LN2@MakeHtmlFi:

; 95   : 		return;
; 96   : 	}else
; 97   : 		NewFile.WriteString(strHtml);

  00250	ff 75 ec	 push	 DWORD PTR _strHtml$[ebp]
  00253	8d 4d a0	 lea	 ecx, DWORD PTR _NewFile$[ebp]
  00256	e8 00 00 00 00	 call	 ?WriteString@CStdioFile@@UAEXPBD@Z ; CStdioFile::WriteString

; 98   : 	
; 99   : 	NewFile.Close();

  0025b	8d 4d a0	 lea	 ecx, DWORD PTR _NewFile$[ebp]
  0025e	e8 00 00 00 00	 call	 ?Close@CStdioFile@@UAEXXZ ; CStdioFile::Close

; 100  : 	OpenWebView("\\.htm");

  00263	68 00 00 00 00	 push	 OFFSET ??_C@_0O@MEHDIMKH@?2?$LM?$LK?$LA?z?$LK?P?$LM?$KO?4htm@
  00268	8d 4d f0	 lea	 ecx, DWORD PTR $T13[ebp]
  0026b	ff 15 00 00 00
	00		 call	 DWORD PTR __imp_??0?$CStringT@DV?$StrTraitMFC_DLL@DV?$ChTraitsCRT@D@ATL@@@@@ATL@@QAE@PBD@Z

; 72   : 	CString strPath = m_strFilePath+FileName;

  00271	8d 45 f0	 lea	 eax, DWORD PTR $T13[ebp]
  00274	c6 45 fc 09	 mov	 BYTE PTR __$EHRec$[ebp+8], 9
  00278	50		 push	 eax
  00279	8d 45 e0	 lea	 eax, DWORD PTR _strPath$5[ebp]
  0027c	53		 push	 ebx
  0027d	50		 push	 eax
  0027e	e8 00 00 00 00	 call	 ??HATL@@YA?AV?$CStringT@DV?$StrTraitMFC_DLL@DV?$ChTraitsCRT@D@ATL@@@@@0@ABV10@0@Z ; ATL::operator+
  00283	83 c4 0c	 add	 esp, 12			; 0000000cH
; File C:\Program Files (x86)\Microsoft Visual Studio\2019\Community\VC\Tools\MSVC\14.29.30133\atlmfc\include\afxole.inl

; 137  : 	{ AfxVariantInit(this); }

  00286	8d 45 c0	 lea	 eax, DWORD PTR _varEmpty$3[ebp]
; File D:\git\src\IBK\IBK_DRFN\ProjSrc\SrcDrfn\Chart\HWSTRATEGYANALYSIS\TabResult.cpp

; 72   : 	CString strPath = m_strFilePath+FileName;

  00289	c6 45 fc 0a	 mov	 BYTE PTR __$EHRec$[ebp+8], 10 ; 0000000aH
; File C:\Program Files (x86)\Microsoft Visual Studio\2019\Community\VC\Tools\MSVC\14.29.30133\atlmfc\include\afxole.inl

; 137  : 	{ AfxVariantInit(this); }

  0028d	50		 push	 eax
  0028e	e8 00 00 00 00	 call	 ?AfxVariantInit@@YGXPAUtagVARIANT@@@Z ; AfxVariantInit
; File C:\Program Files (x86)\Microsoft Visual Studio\2019\Community\VC\Tools\MSVC\14.29.30133\atlmfc\include\cstringt.h

; 2390 : 		CStringT strResult( str1.GetManager() );

  00293	8b cb		 mov	 ecx, ebx
; File D:\git\src\IBK\IBK_DRFN\ProjSrc\SrcDrfn\Chart\HWSTRATEGYANALYSIS\TabResult.cpp

; 74   : 	COleVariant varURL(m_strFilePath + FileName);

  00295	c6 45 fc 0c	 mov	 BYTE PTR __$EHRec$[ebp+8], 12 ; 0000000cH
; File C:\Program Files (x86)\Microsoft Visual Studio\2019\Community\VC\Tools\MSVC\14.29.30133\atlmfc\include\cstringt.h

; 2390 : 		CStringT strResult( str1.GetManager() );

  00299	ff 15 00 00 00
	00		 call	 DWORD PTR __imp_?GetManager@?$CStringT@DV?$StrTraitMFC_DLL@DV?$ChTraitsCRT@D@ATL@@@@@ATL@@QBEPAUIAtlStringMgr@2@XZ
  0029f	50		 push	 eax
  002a0	8d 4d e4	 lea	 ecx, DWORD PTR $T6[ebp]
  002a3	ff 15 00 00 00
	00		 call	 DWORD PTR __imp_??0?$CStringT@DV?$StrTraitMFC_DLL@DV?$ChTraitsCRT@D@ATL@@@@@ATL@@QAE@PAUIAtlStringMgr@1@@Z

; 2391 : 
; 2392 : 		CThisSimpleString::Concatenate( strResult, str1, str1.GetLength(), str2, str2.GetLength() );

  002a9	8b 45 f0	 mov	 eax, DWORD PTR $T13[ebp]
; File C:\Program Files (x86)\Microsoft Visual Studio\2019\Community\VC\Tools\MSVC\14.29.30133\atlmfc\include\atlsimpstr.h

; 519  : 		return( GetData()->nDataLength );

  002ac	8b 0b		 mov	 ecx, DWORD PTR [ebx]
; File C:\Program Files (x86)\Microsoft Visual Studio\2019\Community\VC\Tools\MSVC\14.29.30133\atlmfc\include\cstringt.h

; 2394 : 		return( strResult );

  002ae	c7 45 e8 22 00
	00 00		 mov	 DWORD PTR $T12[ebp], 34	; 00000022H
  002b5	ff 70 f4	 push	 DWORD PTR [eax-12]
  002b8	50		 push	 eax
  002b9	ff 71 f4	 push	 DWORD PTR [ecx-12]
  002bc	8d 45 e4	 lea	 eax, DWORD PTR $T6[ebp]
  002bf	51		 push	 ecx
  002c0	50		 push	 eax
  002c1	ff 15 00 00 00
	00		 call	 DWORD PTR __imp_?Concatenate@?$CSimpleStringT@D$00@ATL@@KAXAAV12@PBDH1H@Z
  002c7	83 c4 14	 add	 esp, 20			; 00000014H
; File C:\Program Files (x86)\Microsoft Visual Studio\2019\Community\VC\Tools\MSVC\14.29.30133\atlmfc\include\afxole.inl

; 143  : 	{ vt = VT_EMPTY; *this = lpszSrc; }

  002ca	8d 4d d0	 lea	 ecx, DWORD PTR _varURL$4[ebp]
  002cd	33 c0		 xor	 eax, eax
  002cf	66 89 45 d0	 mov	 WORD PTR _varURL$4[ebp], ax
  002d3	ff 75 e4	 push	 DWORD PTR $T6[ebp]
  002d6	e8 00 00 00 00	 call	 ??4COleVariant@@QAEABV0@QBD@Z ; COleVariant::operator=
; File D:\git\src\IBK\IBK_DRFN\ProjSrc\SrcDrfn\Chart\HWSTRATEGYANALYSIS\TabResult.cpp

; 74   : 	COleVariant varURL(m_strFilePath + FileName);

  002db	8d 4d e4	 lea	 ecx, DWORD PTR $T6[ebp]
  002de	ff 15 00 00 00
	00		 call	 DWORD PTR __imp_??1?$CStringT@DV?$StrTraitMFC_DLL@DV?$ChTraitsCRT@D@ATL@@@@@ATL@@QAE@XZ
; File C:\Program Files (x86)\Microsoft Visual Studio\2019\Community\VC\Tools\MSVC\14.29.30133\atlmfc\include\afxole.inl

; 139  : 	{ VERIFY(::VariantClear(this) == NOERROR); }

  002e4	8b 35 00 00 00
	00		 mov	 esi, DWORD PTR __imp__VariantClear@4
  002ea	8d 45 d0	 lea	 eax, DWORD PTR _varURL$4[ebp]
  002ed	50		 push	 eax
  002ee	ff d6		 call	 esi
  002f0	8d 45 c0	 lea	 eax, DWORD PTR _varEmpty$3[ebp]
  002f3	50		 push	 eax
  002f4	ff d6		 call	 esi
; File D:\git\src\IBK\IBK_DRFN\ProjSrc\SrcDrfn\Chart\HWSTRATEGYANALYSIS\TabResult.cpp

; 76   : 	return;

  002f6	8d 4d e0	 lea	 ecx, DWORD PTR _strPath$5[ebp]
  002f9	ff 15 00 00 00
	00		 call	 DWORD PTR __imp_??1?$CStringT@DV?$StrTraitMFC_DLL@DV?$ChTraitsCRT@D@ATL@@@@@ATL@@QAE@XZ
  002ff	8d 4d f0	 lea	 ecx, DWORD PTR $T13[ebp]
  00302	ff 15 00 00 00
	00		 call	 DWORD PTR __imp_??1?$CStringT@DV?$StrTraitMFC_DLL@DV?$ChTraitsCRT@D@ATL@@@@@ATL@@QAE@XZ
$LN79@MakeHtmlFi:

; 101  : }

  00308	8d 4d ec	 lea	 ecx, DWORD PTR _strHtml$[ebp]
  0030b	ff 15 00 00 00
	00		 call	 DWORD PTR __imp_??1?$CStringT@DV?$StrTraitMFC_DLL@DV?$ChTraitsCRT@D@ATL@@@@@ATL@@QAE@XZ
  00311	8d 4d a0	 lea	 ecx, DWORD PTR _NewFile$[ebp]
  00314	e8 00 00 00 00	 call	 ??1CStdioFile@@UAE@XZ	; CStdioFile::~CStdioFile
  00319	8b 4d f4	 mov	 ecx, DWORD PTR __$EHRec$[ebp]
  0031c	64 89 0d 00 00
	00 00		 mov	 DWORD PTR fs:0, ecx
  00323	59		 pop	 ecx
  00324	5f		 pop	 edi
  00325	5e		 pop	 esi
  00326	5b		 pop	 ebx
  00327	8b e5		 mov	 esp, ebp
  00329	5d		 pop	 ebp
  0032a	c3		 ret	 0
_TEXT	ENDS
;	COMDAT text$x
text$x	SEGMENT
__unwindfunclet$?MakeHtmlFile@CTabResult@@QAEXXZ$0:
  00000	8d 4d a0	 lea	 ecx, DWORD PTR _NewFile$[ebp]
  00003	e9 00 00 00 00	 jmp	 ??1CStdioFile@@UAE@XZ	; CStdioFile::~CStdioFile
__unwindfunclet$?MakeHtmlFile@CTabResult@@QAEXXZ$1:
  00008	8d 4d ec	 lea	 ecx, DWORD PTR _strHtml$[ebp]
  0000b	ff 25 00 00 00
	00		 jmp	 DWORD PTR __imp_??1?$CStringT@DV?$StrTraitMFC_DLL@DV?$ChTraitsCRT@D@ATL@@@@@ATL@@QAE@XZ
__unwindfunclet$?MakeHtmlFile@CTabResult@@QAEXXZ$7:
  00011	8d 4d b8	 lea	 ecx, DWORD PTR _DefaultFile$2[ebp]
  00014	e9 00 00 00 00	 jmp	 ??1CStdioFile@@UAE@XZ	; CStdioFile::~CStdioFile
__unwindfunclet$?MakeHtmlFile@CTabResult@@QAEXXZ$8:
  00019	8d 4d f0	 lea	 ecx, DWORD PTR _str$14[ebp]
  0001c	ff 25 00 00 00
	00		 jmp	 DWORD PTR __imp_??1?$CStringT@DV?$StrTraitMFC_DLL@DV?$ChTraitsCRT@D@ATL@@@@@ATL@@QAE@XZ
__unwindfunclet$?MakeHtmlFile@CTabResult@@QAEXXZ$10:
  00022	8b 45 e8	 mov	 eax, DWORD PTR $T12[ebp]
  00025	83 e0 01	 and	 eax, 1
  00028	0f 84 0d 00 00
	00		 je	 $LN30@MakeHtmlFi
  0002e	83 65 e8 fe	 and	 DWORD PTR $T12[ebp], -2	; fffffffeH
  00032	8d 4d e4	 lea	 ecx, DWORD PTR $T7[ebp]
  00035	ff 25 00 00 00
	00		 jmp	 DWORD PTR __imp_??1?$CStringT@DV?$StrTraitMFC_DLL@DV?$ChTraitsCRT@D@ATL@@@@@ATL@@QAE@XZ
$LN30@MakeHtmlFi:
  0003b	c3		 ret	 0
__unwindfunclet$?MakeHtmlFile@CTabResult@@QAEXXZ$11:
  0003c	8d 4d e8	 lea	 ecx, DWORD PTR $T11[ebp]
  0003f	ff 25 00 00 00
	00		 jmp	 DWORD PTR __imp_??1?$CStringT@DV?$StrTraitMFC_DLL@DV?$ChTraitsCRT@D@ATL@@@@@ATL@@QAE@XZ
__unwindfunclet$?MakeHtmlFile@CTabResult@@QAEXXZ$3:
  00045	8d 4d e4	 lea	 ecx, DWORD PTR $T10[ebp]
  00048	ff 25 00 00 00
	00		 jmp	 DWORD PTR __imp_??1?$CStringT@DV?$StrTraitMFC_DLL@DV?$ChTraitsCRT@D@ATL@@@@@ATL@@QAE@XZ
__unwindfunclet$?MakeHtmlFile@CTabResult@@QAEXXZ$13:
  0004e	8b 45 e8	 mov	 eax, DWORD PTR $T12[ebp]
  00051	83 e0 04	 and	 eax, 4
  00054	0f 84 0d 00 00
	00		 je	 $LN50@MakeHtmlFi
  0005a	83 65 e8 fb	 and	 DWORD PTR $T12[ebp], -5	; fffffffbH
  0005e	8d 4d e4	 lea	 ecx, DWORD PTR $T9[ebp]
  00061	ff 25 00 00 00
	00		 jmp	 DWORD PTR __imp_??1?$CStringT@DV?$StrTraitMFC_DLL@DV?$ChTraitsCRT@D@ATL@@@@@ATL@@QAE@XZ
$LN50@MakeHtmlFi:
  00067	c3		 ret	 0
__unwindfunclet$?MakeHtmlFile@CTabResult@@QAEXXZ$14:
  00068	8b 45 e8	 mov	 eax, DWORD PTR $T12[ebp]
  0006b	83 e0 08	 and	 eax, 8
  0006e	0f 84 0d 00 00
	00		 je	 $LN65@MakeHtmlFi
  00074	83 65 e8 f7	 and	 DWORD PTR $T12[ebp], -9	; fffffff7H
  00078	8d 4d e4	 lea	 ecx, DWORD PTR $T8[ebp]
  0007b	ff 25 00 00 00
	00		 jmp	 DWORD PTR __imp_??1?$CStringT@DV?$StrTraitMFC_DLL@DV?$ChTraitsCRT@D@ATL@@@@@ATL@@QAE@XZ
$LN65@MakeHtmlFi:
  00081	c3		 ret	 0
__unwindfunclet$?MakeHtmlFile@CTabResult@@QAEXXZ$15:
  00082	8d 4d f0	 lea	 ecx, DWORD PTR $T13[ebp]
  00085	ff 25 00 00 00
	00		 jmp	 DWORD PTR __imp_??1?$CStringT@DV?$StrTraitMFC_DLL@DV?$ChTraitsCRT@D@ATL@@@@@ATL@@QAE@XZ
__unwindfunclet$?MakeHtmlFile@CTabResult@@QAEXXZ$16:
  0008b	8d 4d e0	 lea	 ecx, DWORD PTR _strPath$5[ebp]
  0008e	ff 25 00 00 00
	00		 jmp	 DWORD PTR __imp_??1?$CStringT@DV?$StrTraitMFC_DLL@DV?$ChTraitsCRT@D@ATL@@@@@ATL@@QAE@XZ
__unwindfunclet$?MakeHtmlFile@CTabResult@@QAEXXZ$17:
  00094	8d 4d c0	 lea	 ecx, DWORD PTR _varEmpty$3[ebp]
  00097	e9 00 00 00 00	 jmp	 ??1COleVariant@@QAE@XZ	; COleVariant::~COleVariant
__unwindfunclet$?MakeHtmlFile@CTabResult@@QAEXXZ$21:
  0009c	8b 45 e8	 mov	 eax, DWORD PTR $T12[ebp]
  0009f	83 e0 20	 and	 eax, 32			; 00000020H
  000a2	0f 84 0d 00 00
	00		 je	 $LN107@MakeHtmlFi
  000a8	83 65 e8 df	 and	 DWORD PTR $T12[ebp], -33 ; ffffffdfH
  000ac	8d 4d e4	 lea	 ecx, DWORD PTR $T6[ebp]
  000af	ff 25 00 00 00
	00		 jmp	 DWORD PTR __imp_??1?$CStringT@DV?$StrTraitMFC_DLL@DV?$ChTraitsCRT@D@ATL@@@@@ATL@@QAE@XZ
$LN107@MakeHtmlFi:
  000b5	c3		 ret	 0
  000b6	cc		 int	 3
  000b7	cc		 int	 3
  000b8	cc		 int	 3
  000b9	cc		 int	 3
  000ba	cc		 int	 3
__ehhandler$?MakeHtmlFile@CTabResult@@QAEXXZ:
  000bb	90		 npad	 1
  000bc	90		 npad	 1
  000bd	8b 54 24 08	 mov	 edx, DWORD PTR [esp+8]
  000c1	8d 42 0c	 lea	 eax, DWORD PTR [edx+12]
  000c4	8b 4a 9c	 mov	 ecx, DWORD PTR [edx-100]
  000c7	33 c8		 xor	 ecx, eax
  000c9	e8 00 00 00 00	 call	 @__security_check_cookie@4
  000ce	b8 00 00 00 00	 mov	 eax, OFFSET __ehfuncinfo$?MakeHtmlFile@CTabResult@@QAEXXZ
  000d3	e9 00 00 00 00	 jmp	 ___CxxFrameHandler3
text$x	ENDS
?MakeHtmlFile@CTabResult@@QAEXXZ ENDP			; CTabResult::MakeHtmlFile
; Function compile flags: /Ogtp
; File D:\git\src\IBK\IBK_DRFN\ProjSrc\SrcDrfn\Chart\HWSTRATEGYANALYSIS\TabResult.cpp
; File C:\Program Files (x86)\Microsoft Visual Studio\2019\Community\VC\Tools\MSVC\14.29.30133\atlmfc\include\afxole.inl
; File D:\git\src\IBK\IBK_DRFN\ProjSrc\SrcDrfn\Chart\HWSTRATEGYANALYSIS\TabResult.cpp
; File C:\Program Files (x86)\Microsoft Visual Studio\2019\Community\VC\Tools\MSVC\14.29.30133\atlmfc\include\afxole.inl
; File C:\Program Files (x86)\Microsoft Visual Studio\2019\Community\VC\Tools\MSVC\14.29.30133\atlmfc\include\cstringt.h
; File D:\git\src\IBK\IBK_DRFN\ProjSrc\SrcDrfn\Chart\HWSTRATEGYANALYSIS\TabResult.cpp
; File C:\Program Files (x86)\Microsoft Visual Studio\2019\Community\VC\Tools\MSVC\14.29.30133\atlmfc\include\cstringt.h
; File C:\Program Files (x86)\Microsoft Visual Studio\2019\Community\VC\Tools\MSVC\14.29.30133\atlmfc\include\atlsimpstr.h
; File C:\Program Files (x86)\Microsoft Visual Studio\2019\Community\VC\Tools\MSVC\14.29.30133\atlmfc\include\cstringt.h
; File C:\Program Files (x86)\Microsoft Visual Studio\2019\Community\VC\Tools\MSVC\14.29.30133\atlmfc\include\afxole.inl
; File D:\git\src\IBK\IBK_DRFN\ProjSrc\SrcDrfn\Chart\HWSTRATEGYANALYSIS\TabResult.cpp
; File C:\Program Files (x86)\Microsoft Visual Studio\2019\Community\VC\Tools\MSVC\14.29.30133\atlmfc\include\afxole.inl
; File D:\git\src\IBK\IBK_DRFN\ProjSrc\SrcDrfn\Chart\HWSTRATEGYANALYSIS\TabResult.cpp
;	COMDAT ?OpenWebView@CTabResult@@QAEXV?$CStringT@DV?$StrTraitMFC_DLL@DV?$ChTraitsCRT@D@ATL@@@@@ATL@@@Z
_TEXT	SEGMENT
_varEmpty$ = -56					; size = 16
_varURL$ = -40						; size = 16
_strPath$ = -24						; size = 4
$T2 = -20						; size = 4
$T3 = -16						; size = 4
__$EHRec$ = -12						; size = 12
_FileName$ = 8						; size = 4
?OpenWebView@CTabResult@@QAEXV?$CStringT@DV?$StrTraitMFC_DLL@DV?$ChTraitsCRT@D@ATL@@@@@ATL@@@Z PROC ; CTabResult::OpenWebView, COMDAT
; _this$ = ecx

; 71   : {

  00000	55		 push	 ebp
  00001	8b ec		 mov	 ebp, esp
  00003	6a ff		 push	 -1
  00005	68 00 00 00 00	 push	 __ehhandler$?OpenWebView@CTabResult@@QAEXV?$CStringT@DV?$StrTraitMFC_DLL@DV?$ChTraitsCRT@D@ATL@@@@@ATL@@@Z
  0000a	64 a1 00 00 00
	00		 mov	 eax, DWORD PTR fs:0
  00010	50		 push	 eax
  00011	83 ec 2c	 sub	 esp, 44			; 0000002cH
  00014	56		 push	 esi
  00015	a1 00 00 00 00	 mov	 eax, DWORD PTR ___security_cookie
  0001a	33 c5		 xor	 eax, ebp
  0001c	50		 push	 eax
  0001d	8d 45 f4	 lea	 eax, DWORD PTR __$EHRec$[ebp]
  00020	64 a3 00 00 00
	00		 mov	 DWORD PTR fs:0, eax
  00026	c7 45 ec 00 00
	00 00		 mov	 DWORD PTR $T2[ebp], 0

; 72   : 	CString strPath = m_strFilePath+FileName;

  0002d	8d 45 08	 lea	 eax, DWORD PTR _FileName$[ebp]
  00030	c7 45 fc 00 00
	00 00		 mov	 DWORD PTR __$EHRec$[ebp+8], 0
  00037	50		 push	 eax
  00038	8d b1 44 01 00
	00		 lea	 esi, DWORD PTR [ecx+324]
  0003e	8d 45 e8	 lea	 eax, DWORD PTR _strPath$[ebp]
  00041	56		 push	 esi
  00042	50		 push	 eax
  00043	e8 00 00 00 00	 call	 ??HATL@@YA?AV?$CStringT@DV?$StrTraitMFC_DLL@DV?$ChTraitsCRT@D@ATL@@@@@0@ABV10@0@Z ; ATL::operator+
  00048	83 c4 0c	 add	 esp, 12			; 0000000cH
; File C:\Program Files (x86)\Microsoft Visual Studio\2019\Community\VC\Tools\MSVC\14.29.30133\atlmfc\include\afxole.inl

; 137  : 	{ AfxVariantInit(this); }

  0004b	8d 45 c8	 lea	 eax, DWORD PTR _varEmpty$[ebp]
; File D:\git\src\IBK\IBK_DRFN\ProjSrc\SrcDrfn\Chart\HWSTRATEGYANALYSIS\TabResult.cpp

; 72   : 	CString strPath = m_strFilePath+FileName;

  0004e	c6 45 fc 01	 mov	 BYTE PTR __$EHRec$[ebp+8], 1
; File C:\Program Files (x86)\Microsoft Visual Studio\2019\Community\VC\Tools\MSVC\14.29.30133\atlmfc\include\afxole.inl

; 137  : 	{ AfxVariantInit(this); }

  00052	50		 push	 eax
  00053	e8 00 00 00 00	 call	 ?AfxVariantInit@@YGXPAUtagVARIANT@@@Z ; AfxVariantInit
; File C:\Program Files (x86)\Microsoft Visual Studio\2019\Community\VC\Tools\MSVC\14.29.30133\atlmfc\include\cstringt.h

; 2390 : 		CStringT strResult( str1.GetManager() );

  00058	8b ce		 mov	 ecx, esi
; File D:\git\src\IBK\IBK_DRFN\ProjSrc\SrcDrfn\Chart\HWSTRATEGYANALYSIS\TabResult.cpp

; 74   : 	COleVariant varURL(m_strFilePath + FileName);

  0005a	c6 45 fc 03	 mov	 BYTE PTR __$EHRec$[ebp+8], 3
; File C:\Program Files (x86)\Microsoft Visual Studio\2019\Community\VC\Tools\MSVC\14.29.30133\atlmfc\include\cstringt.h

; 2390 : 		CStringT strResult( str1.GetManager() );

  0005e	ff 15 00 00 00
	00		 call	 DWORD PTR __imp_?GetManager@?$CStringT@DV?$StrTraitMFC_DLL@DV?$ChTraitsCRT@D@ATL@@@@@ATL@@QBEPAUIAtlStringMgr@2@XZ
  00064	50		 push	 eax
  00065	8d 4d f0	 lea	 ecx, DWORD PTR $T3[ebp]
  00068	ff 15 00 00 00
	00		 call	 DWORD PTR __imp_??0?$CStringT@DV?$StrTraitMFC_DLL@DV?$ChTraitsCRT@D@ATL@@@@@ATL@@QAE@PAUIAtlStringMgr@1@@Z

; 2391 : 
; 2392 : 		CThisSimpleString::Concatenate( strResult, str1, str1.GetLength(), str2, str2.GetLength() );

  0006e	8b 45 08	 mov	 eax, DWORD PTR _FileName$[ebp]
; File C:\Program Files (x86)\Microsoft Visual Studio\2019\Community\VC\Tools\MSVC\14.29.30133\atlmfc\include\atlsimpstr.h

; 519  : 		return( GetData()->nDataLength );

  00071	8b 0e		 mov	 ecx, DWORD PTR [esi]
; File C:\Program Files (x86)\Microsoft Visual Studio\2019\Community\VC\Tools\MSVC\14.29.30133\atlmfc\include\cstringt.h

; 2394 : 		return( strResult );

  00073	c7 45 ec 02 00
	00 00		 mov	 DWORD PTR $T2[ebp], 2
  0007a	ff 70 f4	 push	 DWORD PTR [eax-12]
  0007d	50		 push	 eax
  0007e	ff 71 f4	 push	 DWORD PTR [ecx-12]
  00081	8d 45 f0	 lea	 eax, DWORD PTR $T3[ebp]
  00084	51		 push	 ecx
  00085	50		 push	 eax
  00086	ff 15 00 00 00
	00		 call	 DWORD PTR __imp_?Concatenate@?$CSimpleStringT@D$00@ATL@@KAXAAV12@PBDH1H@Z
  0008c	83 c4 14	 add	 esp, 20			; 00000014H
; File C:\Program Files (x86)\Microsoft Visual Studio\2019\Community\VC\Tools\MSVC\14.29.30133\atlmfc\include\afxole.inl

; 143  : 	{ vt = VT_EMPTY; *this = lpszSrc; }

  0008f	8d 4d d8	 lea	 ecx, DWORD PTR _varURL$[ebp]
  00092	33 c0		 xor	 eax, eax
  00094	66 89 45 d8	 mov	 WORD PTR _varURL$[ebp], ax
  00098	ff 75 f0	 push	 DWORD PTR $T3[ebp]
  0009b	e8 00 00 00 00	 call	 ??4COleVariant@@QAEABV0@QBD@Z ; COleVariant::operator=
; File D:\git\src\IBK\IBK_DRFN\ProjSrc\SrcDrfn\Chart\HWSTRATEGYANALYSIS\TabResult.cpp

; 74   : 	COleVariant varURL(m_strFilePath + FileName);

  000a0	8d 4d f0	 lea	 ecx, DWORD PTR $T3[ebp]
  000a3	ff 15 00 00 00
	00		 call	 DWORD PTR __imp_??1?$CStringT@DV?$StrTraitMFC_DLL@DV?$ChTraitsCRT@D@ATL@@@@@ATL@@QAE@XZ
; File C:\Program Files (x86)\Microsoft Visual Studio\2019\Community\VC\Tools\MSVC\14.29.30133\atlmfc\include\afxole.inl

; 139  : 	{ VERIFY(::VariantClear(this) == NOERROR); }

  000a9	8b 35 00 00 00
	00		 mov	 esi, DWORD PTR __imp__VariantClear@4
  000af	8d 45 d8	 lea	 eax, DWORD PTR _varURL$[ebp]
  000b2	50		 push	 eax
  000b3	ff d6		 call	 esi
  000b5	8d 45 c8	 lea	 eax, DWORD PTR _varEmpty$[ebp]
  000b8	50		 push	 eax
  000b9	ff d6		 call	 esi
; File D:\git\src\IBK\IBK_DRFN\ProjSrc\SrcDrfn\Chart\HWSTRATEGYANALYSIS\TabResult.cpp

; 76   : 	return;

  000bb	8d 4d e8	 lea	 ecx, DWORD PTR _strPath$[ebp]
  000be	ff 15 00 00 00
	00		 call	 DWORD PTR __imp_??1?$CStringT@DV?$StrTraitMFC_DLL@DV?$ChTraitsCRT@D@ATL@@@@@ATL@@QAE@XZ

; 77   : }

  000c4	8d 4d 08	 lea	 ecx, DWORD PTR _FileName$[ebp]
  000c7	ff 15 00 00 00
	00		 call	 DWORD PTR __imp_??1?$CStringT@DV?$StrTraitMFC_DLL@DV?$ChTraitsCRT@D@ATL@@@@@ATL@@QAE@XZ
  000cd	8b 4d f4	 mov	 ecx, DWORD PTR __$EHRec$[ebp]
  000d0	64 89 0d 00 00
	00 00		 mov	 DWORD PTR fs:0, ecx
  000d7	59		 pop	 ecx
  000d8	5e		 pop	 esi
  000d9	8b e5		 mov	 esp, ebp
  000db	5d		 pop	 ebp
  000dc	c2 04 00	 ret	 4
_TEXT	ENDS
;	COMDAT text$x
text$x	SEGMENT
__unwindfunclet$?OpenWebView@CTabResult@@QAEXV?$CStringT@DV?$StrTraitMFC_DLL@DV?$ChTraitsCRT@D@ATL@@@@@ATL@@@Z$0:
  00000	8d 4d 08	 lea	 ecx, DWORD PTR _FileName$[ebp]
  00003	ff 25 00 00 00
	00		 jmp	 DWORD PTR __imp_??1?$CStringT@DV?$StrTraitMFC_DLL@DV?$ChTraitsCRT@D@ATL@@@@@ATL@@QAE@XZ
__unwindfunclet$?OpenWebView@CTabResult@@QAEXV?$CStringT@DV?$StrTraitMFC_DLL@DV?$ChTraitsCRT@D@ATL@@@@@ATL@@@Z$1:
  00009	8d 4d e8	 lea	 ecx, DWORD PTR _strPath$[ebp]
  0000c	ff 25 00 00 00
	00		 jmp	 DWORD PTR __imp_??1?$CStringT@DV?$StrTraitMFC_DLL@DV?$ChTraitsCRT@D@ATL@@@@@ATL@@QAE@XZ
__unwindfunclet$?OpenWebView@CTabResult@@QAEXV?$CStringT@DV?$StrTraitMFC_DLL@DV?$ChTraitsCRT@D@ATL@@@@@ATL@@@Z$2:
  00012	8d 4d c8	 lea	 ecx, DWORD PTR _varEmpty$[ebp]
  00015	e9 00 00 00 00	 jmp	 ??1COleVariant@@QAE@XZ	; COleVariant::~COleVariant
__unwindfunclet$?OpenWebView@CTabResult@@QAEXV?$CStringT@DV?$StrTraitMFC_DLL@DV?$ChTraitsCRT@D@ATL@@@@@ATL@@@Z$6:
  0001a	8b 45 ec	 mov	 eax, DWORD PTR $T2[ebp]
  0001d	83 e0 02	 and	 eax, 2
  00020	0f 84 0d 00 00
	00		 je	 $LN30@OpenWebVie
  00026	83 65 ec fd	 and	 DWORD PTR $T2[ebp], -3	; fffffffdH
  0002a	8d 4d f0	 lea	 ecx, DWORD PTR $T3[ebp]
  0002d	ff 25 00 00 00
	00		 jmp	 DWORD PTR __imp_??1?$CStringT@DV?$StrTraitMFC_DLL@DV?$ChTraitsCRT@D@ATL@@@@@ATL@@QAE@XZ
$LN30@OpenWebVie:
  00033	c3		 ret	 0
  00034	cc		 int	 3
  00035	cc		 int	 3
  00036	cc		 int	 3
  00037	cc		 int	 3
  00038	cc		 int	 3
__ehhandler$?OpenWebView@CTabResult@@QAEXV?$CStringT@DV?$StrTraitMFC_DLL@DV?$ChTraitsCRT@D@ATL@@@@@ATL@@@Z:
  00039	90		 npad	 1
  0003a	90		 npad	 1
  0003b	8b 54 24 08	 mov	 edx, DWORD PTR [esp+8]
  0003f	8d 42 0c	 lea	 eax, DWORD PTR [edx+12]
  00042	8b 4a cc	 mov	 ecx, DWORD PTR [edx-52]
  00045	33 c8		 xor	 ecx, eax
  00047	e8 00 00 00 00	 call	 @__security_check_cookie@4
  0004c	b8 00 00 00 00	 mov	 eax, OFFSET __ehfuncinfo$?OpenWebView@CTabResult@@QAEXV?$CStringT@DV?$StrTraitMFC_DLL@DV?$ChTraitsCRT@D@ATL@@@@@ATL@@@Z
  00051	e9 00 00 00 00	 jmp	 ___CxxFrameHandler3
text$x	ENDS
?OpenWebView@CTabResult@@QAEXV?$CStringT@DV?$StrTraitMFC_DLL@DV?$ChTraitsCRT@D@ATL@@@@@ATL@@@Z ENDP ; CTabResult::OpenWebView
; Function compile flags: /Ogtp
; File D:\git\src\IBK\IBK_DRFN\ProjSrc\SrcDrfn\Chart\HWSTRATEGYANALYSIS\TabResult.cpp
;	COMDAT ?GetMessageMap@CTabResult@@MBEPBUAFX_MSGMAP@@XZ
_TEXT	SEGMENT
?GetMessageMap@CTabResult@@MBEPBUAFX_MSGMAP@@XZ PROC	; CTabResult::GetMessageMap, COMDAT
; _this$ = ecx

; 40   : BEGIN_MESSAGE_MAP(CTabResult, CDialog)

  00000	b8 00 00 00 00	 mov	 eax, OFFSET ?messageMap@?1??GetThisMessageMap@CTabResult@@KGPBUAFX_MSGMAP@@XZ@4U3@B
  00005	c3		 ret	 0
?GetMessageMap@CTabResult@@MBEPBUAFX_MSGMAP@@XZ ENDP	; CTabResult::GetMessageMap
_TEXT	ENDS
; Function compile flags: /Ogtp
; File D:\git\src\IBK\IBK_DRFN\ProjSrc\SrcDrfn\Chart\HWSTRATEGYANALYSIS\TabResult.cpp
;	COMDAT ?GetThisMessageMap@CTabResult@@KGPBUAFX_MSGMAP@@XZ
_TEXT	SEGMENT
?GetThisMessageMap@CTabResult@@KGPBUAFX_MSGMAP@@XZ PROC	; CTabResult::GetThisMessageMap, COMDAT

; 41   : 	//{{AFX_MSG_MAP(CTabResult)
; 42   : 	ON_WM_DESTROY()
; 43   : 	//}}AFX_MSG_MAP
; 44   : 	ON_WM_CTLCOLOR()
; 45   : END_MESSAGE_MAP()

  00000	b8 00 00 00 00	 mov	 eax, OFFSET ?messageMap@?1??GetThisMessageMap@CTabResult@@KGPBUAFX_MSGMAP@@XZ@4U3@B
  00005	c3		 ret	 0
?GetThisMessageMap@CTabResult@@KGPBUAFX_MSGMAP@@XZ ENDP	; CTabResult::GetThisMessageMap
_TEXT	ENDS
; Function compile flags: /Ogtp
; File D:\git\src\IBK\IBK_DRFN\ProjSrc\SrcDrfn\Chart\HWSTRATEGYANALYSIS\TabResult.cpp
;	COMDAT ?OnDestroy@CTabResult@@IAEXXZ
_TEXT	SEGMENT
?OnDestroy@CTabResult@@IAEXXZ PROC			; CTabResult::OnDestroy, COMDAT
; _this$ = ecx

; 66   : 	CDialog::OnDestroy();

  00000	e9 00 00 00 00	 jmp	 ?OnDestroy@CWnd@@IAEXXZ	; CWnd::OnDestroy
?OnDestroy@CTabResult@@IAEXXZ ENDP			; CTabResult::OnDestroy
_TEXT	ENDS
; Function compile flags: /Ogtp
; File D:\git\src\IBK\IBK_DRFN\ProjSrc\SrcDrfn\Chart\HWSTRATEGYANALYSIS\TabResult.cpp
; File C:\Program Files (x86)\Microsoft Visual Studio\2019\Community\VC\Tools\MSVC\14.29.30133\atlmfc\include\afxwin1.inl
; File D:\git\src\IBK\IBK_DRFN\ProjSrc\SrcDrfn\Chart\HWSTRATEGYANALYSIS\TabResult.cpp
; File C:\Program Files (x86)\Microsoft Visual Studio\2019\Community\VC\Tools\MSVC\14.29.30133\atlmfc\include\afxwin1.inl
; File D:\git\src\IBK\IBK_DRFN\ProjSrc\SrcDrfn\Chart\HWSTRATEGYANALYSIS\TabResult.cpp
;	COMDAT ?OnInitDialog@CTabResult@@MAEHXZ
_TEXT	SEGMENT
?OnInitDialog@CTabResult@@MAEHXZ PROC			; CTabResult::OnInitDialog, COMDAT
; _this$ = ecx

; 51   : {

  00000	56		 push	 esi
  00001	8b f1		 mov	 esi, ecx

; 52   : 	CDialog::OnInitDialog();

  00003	e8 00 00 00 00	 call	 ?OnInitDialog@CDialog@@UAEHXZ ; CDialog::OnInitDialog
; File C:\Program Files (x86)\Microsoft Visual Studio\2019\Community\VC\Tools\MSVC\14.29.30133\atlmfc\include\afxwin1.inl

; 132  : 	{ return Attach(::CreateSolidBrush(crColor)); }

  00008	68 ff ff ff 00	 push	 16777215		; 00ffffffH
  0000d	ff 15 00 00 00
	00		 call	 DWORD PTR __imp__CreateSolidBrush@4
  00013	50		 push	 eax
; File D:\git\src\IBK\IBK_DRFN\ProjSrc\SrcDrfn\Chart\HWSTRATEGYANALYSIS\TabResult.cpp

; 55   : 	m_brBackground.CreateSolidBrush( CLR_BACKGROUND);

  00014	8d 8e 80 02 00
	00		 lea	 ecx, DWORD PTR [esi+640]
; File C:\Program Files (x86)\Microsoft Visual Studio\2019\Community\VC\Tools\MSVC\14.29.30133\atlmfc\include\afxwin1.inl

; 132  : 	{ return Attach(::CreateSolidBrush(crColor)); }

  0001a	e8 00 00 00 00	 call	 ?Attach@CGdiObject@@QAEHPAX@Z ; CGdiObject::Attach
; File D:\git\src\IBK\IBK_DRFN\ProjSrc\SrcDrfn\Chart\HWSTRATEGYANALYSIS\TabResult.cpp

; 56   : 	InitGrid();

  0001f	8b ce		 mov	 ecx, esi
  00021	e8 00 00 00 00	 call	 ?InitGrid@CTabResult@@QAEXXZ ; CTabResult::InitGrid

; 57   : 	return TRUE;  // return TRUE unless you set the focus to a control	              // EXCEPTION: OCX Property Pages should return FALSE

  00026	b8 01 00 00 00	 mov	 eax, 1
  0002b	5e		 pop	 esi

; 58   : }

  0002c	c3		 ret	 0
?OnInitDialog@CTabResult@@MAEHXZ ENDP			; CTabResult::OnInitDialog
_TEXT	ENDS
; Function compile flags: /Ogtp
; File D:\git\src\IBK\IBK_DRFN\ProjSrc\SrcDrfn\Chart\HWSTRATEGYANALYSIS\TabResult.cpp
;	COMDAT ?DoDataExchange@CTabResult@@MAEXPAVCDataExchange@@@Z
_TEXT	SEGMENT
_pDX$ = 8						; size = 4
?DoDataExchange@CTabResult@@MAEXPAVCDataExchange@@@Z PROC ; CTabResult::DoDataExchange, COMDAT
; _this$ = ecx

; 33   : 	CDialog::DoDataExchange(pDX);
; 34   : 	//{{AFX_DATA_MAP(CTabResult)
; 35   : 	//}}AFX_DATA_MAP
; 36   : //	DDX_Control(pDX, IDC_EXPLORER, m_Browser);
; 37   : }

  00000	c2 04 00	 ret	 4
?DoDataExchange@CTabResult@@MAEXPAVCDataExchange@@@Z ENDP ; CTabResult::DoDataExchange
_TEXT	ENDS
; Function compile flags: /Ogtp
; File D:\git\src\IBK\IBK_DRFN\ProjSrc\SrcDrfn\Chart\HWSTRATEGYANALYSIS\TabResult.cpp
; File C:\Program Files (x86)\Microsoft Visual Studio\2019\Community\VC\Tools\MSVC\14.29.30133\atlmfc\include\afxwin2.inl
; File D:\git\src\IBK\IBK_DRFN\ProjSrc\SrcDrfn\Chart\HWSTRATEGYANALYSIS\TabResult.cpp
; File C:\Program Files (x86)\Microsoft Visual Studio\2019\Community\VC\Tools\MSVC\14.29.30133\atlmfc\include\afxwin2.inl
; File D:\git\src\IBK\IBK_DRFN\ProjSrc\SrcDrfn\Chart\HWSTRATEGYANALYSIS\TabResult.cpp
; File C:\Program Files (x86)\Microsoft Visual Studio\2019\Community\VC\Tools\MSVC\14.29.30133\atlmfc\include\afxwin1.inl
; File D:\git\src\IBK\IBK_DRFN\ProjSrc\SrcDrfn\Chart\HWSTRATEGYANALYSIS\TabResult.cpp
;	COMDAT ??0CTabResult@@QAE@PAVCWnd@@@Z
_TEXT	SEGMENT
_this$ = -16						; size = 4
__$EHRec$ = -12						; size = 12
_this$ = 8						; size = 4
_pParent$ = 8						; size = 4
??0CTabResult@@QAE@PAVCWnd@@@Z PROC			; CTabResult::CTabResult, COMDAT
; _this$ = ecx

; 21   : {

  00000	55		 push	 ebp
  00001	8b ec		 mov	 ebp, esp
  00003	6a ff		 push	 -1
  00005	68 00 00 00 00	 push	 __ehhandler$??0CTabResult@@QAE@PAVCWnd@@@Z
  0000a	64 a1 00 00 00
	00		 mov	 eax, DWORD PTR fs:0
  00010	50		 push	 eax
  00011	51		 push	 ecx
  00012	56		 push	 esi
  00013	57		 push	 edi
  00014	a1 00 00 00 00	 mov	 eax, DWORD PTR ___security_cookie
  00019	33 c5		 xor	 eax, ebp
  0001b	50		 push	 eax
  0001c	8d 45 f4	 lea	 eax, DWORD PTR __$EHRec$[ebp]
  0001f	64 a3 00 00 00
	00		 mov	 DWORD PTR fs:0, eax
  00025	8b f9		 mov	 edi, ecx
  00027	89 7d f0	 mov	 DWORD PTR _this$[ebp], edi

; 20   : 	: CDlgInterface(CTabResult::IDD, pParent)

  0002a	ff 75 08	 push	 DWORD PTR _pParent$[ebp]
  0002d	68 bc 0b 00 00	 push	 3004			; 00000bbcH
  00032	e8 00 00 00 00	 call	 ??0CDlgInterface@@QAE@IPAVCWnd@@@Z ; CDlgInterface::CDlgInterface

; 21   : {

  00037	8d b7 b8 00 00
	00		 lea	 esi, DWORD PTR [edi+184]
  0003d	c7 45 fc 00 00
	00 00		 mov	 DWORD PTR __$EHRec$[ebp+8], 0
; File C:\Program Files (x86)\Microsoft Visual Studio\2019\Community\VC\Tools\MSVC\14.29.30133\atlmfc\include\afxwin2.inl

; 603  : 	{ }

  00044	8b ce		 mov	 ecx, esi
; File D:\git\src\IBK\IBK_DRFN\ProjSrc\SrcDrfn\Chart\HWSTRATEGYANALYSIS\TabResult.cpp

; 21   : {

  00046	c7 07 00 00 00
	00		 mov	 DWORD PTR [edi], OFFSET ??_7CTabResult@@6B@
  0004c	89 75 08	 mov	 DWORD PTR _this$[ebp], esi
; File C:\Program Files (x86)\Microsoft Visual Studio\2019\Community\VC\Tools\MSVC\14.29.30133\atlmfc\include\afxwin2.inl

; 603  : 	{ }

  0004f	e8 00 00 00 00	 call	 ??0CWnd@@QAE@XZ		; CWnd::CWnd
  00054	c7 06 00 00 00
	00		 mov	 DWORD PTR [esi], OFFSET ??_7CStatic@@6B@
; File D:\git\src\IBK\IBK_DRFN\ProjSrc\SrcDrfn\Chart\HWSTRATEGYANALYSIS\TabResult.cpp

; 21   : {

  0005a	8d 8f 44 01 00
	00		 lea	 ecx, DWORD PTR [edi+324]
  00060	ff 15 00 00 00
	00		 call	 DWORD PTR __imp_??0?$CStringT@DV?$StrTraitMFC_DLL@DV?$ChTraitsCRT@D@ATL@@@@@ATL@@QAE@XZ
  00066	8d 8f 48 01 00
	00		 lea	 ecx, DWORD PTR [edi+328]
  0006c	ff 15 00 00 00
	00		 call	 DWORD PTR __imp_??0?$CStringT@DV?$StrTraitMFC_DLL@DV?$ChTraitsCRT@D@ATL@@@@@ATL@@QAE@XZ
  00072	8d 8f 4c 01 00
	00		 lea	 ecx, DWORD PTR [edi+332]
  00078	ff 15 00 00 00
	00		 call	 DWORD PTR __imp_??0?$CStringT@DV?$StrTraitMFC_DLL@DV?$ChTraitsCRT@D@ATL@@@@@ATL@@QAE@XZ
  0007e	8d 8f 50 01 00
	00		 lea	 ecx, DWORD PTR [edi+336]
  00084	ff 15 00 00 00
	00		 call	 DWORD PTR __imp_??0?$CStringT@DV?$StrTraitMFC_DLL@DV?$ChTraitsCRT@D@ATL@@@@@ATL@@QAE@XZ
  0008a	8d 8f 54 01 00
	00		 lea	 ecx, DWORD PTR [edi+340]
  00090	ff 15 00 00 00
	00		 call	 DWORD PTR __imp_??0?$CStringT@DV?$StrTraitMFC_DLL@DV?$ChTraitsCRT@D@ATL@@@@@ATL@@QAE@XZ
  00096	8d 8f 58 01 00
	00		 lea	 ecx, DWORD PTR [edi+344]
  0009c	ff 15 00 00 00
	00		 call	 DWORD PTR __imp_??0?$CStringT@DV?$StrTraitMFC_DLL@DV?$ChTraitsCRT@D@ATL@@@@@ATL@@QAE@XZ
  000a2	8d 8f 5c 01 00
	00		 lea	 ecx, DWORD PTR [edi+348]
  000a8	ff 15 00 00 00
	00		 call	 DWORD PTR __imp_??0?$CStringT@DV?$StrTraitMFC_DLL@DV?$ChTraitsCRT@D@ATL@@@@@ATL@@QAE@XZ
  000ae	ff 35 00 00 00
	00		 push	 DWORD PTR __imp_??1?$CStringT@DV?$StrTraitMFC_DLL@DV?$ChTraitsCRT@D@ATL@@@@@ATL@@QAE@XZ
  000b4	8d 87 60 01 00
	00		 lea	 eax, DWORD PTR [edi+352]
  000ba	c6 45 fc 08	 mov	 BYTE PTR __$EHRec$[ebp+8], 8
  000be	ff 35 00 00 00
	00		 push	 DWORD PTR __imp_??0?$CStringT@DV?$StrTraitMFC_DLL@DV?$ChTraitsCRT@D@ATL@@@@@ATL@@QAE@XZ
  000c4	6a 24		 push	 36			; 00000024H
  000c6	6a 04		 push	 4
  000c8	50		 push	 eax
  000c9	e8 00 00 00 00	 call	 ??_L@YGXPAXIIP6EX0@Z1@Z
; File C:\Program Files (x86)\Microsoft Visual Studio\2019\Community\VC\Tools\MSVC\14.29.30133\atlmfc\include\afxwin1.inl

; 70   : 	{ m_hObject = NULL; }

  000ce	c7 87 84 02 00
	00 00 00 00 00	 mov	 DWORD PTR [edi+644], 0

; 128  : 	{ }

  000d8	c7 87 80 02 00
	00 00 00 00 00	 mov	 DWORD PTR [edi+640], OFFSET ??_7CBrush@@6B@
; File D:\git\src\IBK\IBK_DRFN\ProjSrc\SrcDrfn\Chart\HWSTRATEGYANALYSIS\TabResult.cpp

; 21   : {

  000e2	6a 00		 push	 0
  000e4	6a 00		 push	 0
  000e6	6a 00		 push	 0
  000e8	6a 00		 push	 0
  000ea	8d 8f 88 02 00
	00		 lea	 ecx, DWORD PTR [edi+648]
  000f0	c6 45 fc 0a	 mov	 BYTE PTR __$EHRec$[ebp+8], 10 ; 0000000aH
  000f4	e8 00 00 00 00	 call	 ??0CGridCtrl@@QAE@HHHH@Z ; CGridCtrl::CGridCtrl

; 22   : 	//{{AFX_DATA_INIT(CTabResult)
; 23   : 	//}}AFX_DATA_INIT
; 24   : 	m_pInput = NULL;

  000f9	c7 87 a8 00 00
	00 00 00 00 00	 mov	 DWORD PTR [edi+168], 0

; 25   : //	m_pWebView = NULL;
; 26   : 	m_iDateIndex =0 ;
; 27   : 	m_pFont = NULL;
; 28   : }

  00103	8b c7		 mov	 eax, edi
  00105	c7 87 40 01 00
	00 00 00 00 00	 mov	 DWORD PTR [edi+320], 0
  0010f	c7 87 18 07 00
	00 00 00 00 00	 mov	 DWORD PTR [edi+1816], 0
  00119	8b 4d f4	 mov	 ecx, DWORD PTR __$EHRec$[ebp]
  0011c	64 89 0d 00 00
	00 00		 mov	 DWORD PTR fs:0, ecx
  00123	59		 pop	 ecx
  00124	5f		 pop	 edi
  00125	5e		 pop	 esi
  00126	8b e5		 mov	 esp, ebp
  00128	5d		 pop	 ebp
  00129	c2 04 00	 ret	 4
_TEXT	ENDS
;	COMDAT text$x
text$x	SEGMENT
__unwindfunclet$??0CTabResult@@QAE@PAVCWnd@@@Z$0:
  00000	8b 4d f0	 mov	 ecx, DWORD PTR _this$[ebp]
  00003	e9 00 00 00 00	 jmp	 ??1CDlgInterface@@UAE@XZ
__unwindfunclet$??0CTabResult@@QAE@PAVCWnd@@@Z$1:
  00008	8b 4d f0	 mov	 ecx, DWORD PTR _this$[ebp]
  0000b	81 c1 b8 00 00
	00		 add	 ecx, 184		; 000000b8H
  00011	e9 00 00 00 00	 jmp	 ??1CStatic@@UAE@XZ	; CStatic::~CStatic
__unwindfunclet$??0CTabResult@@QAE@PAVCWnd@@@Z$2:
  00016	8b 4d f0	 mov	 ecx, DWORD PTR _this$[ebp]
  00019	81 c1 44 01 00
	00		 add	 ecx, 324		; 00000144H
  0001f	ff 25 00 00 00
	00		 jmp	 DWORD PTR __imp_??1?$CStringT@DV?$StrTraitMFC_DLL@DV?$ChTraitsCRT@D@ATL@@@@@ATL@@QAE@XZ
__unwindfunclet$??0CTabResult@@QAE@PAVCWnd@@@Z$3:
  00025	8b 4d f0	 mov	 ecx, DWORD PTR _this$[ebp]
  00028	81 c1 48 01 00
	00		 add	 ecx, 328		; 00000148H
  0002e	ff 25 00 00 00
	00		 jmp	 DWORD PTR __imp_??1?$CStringT@DV?$StrTraitMFC_DLL@DV?$ChTraitsCRT@D@ATL@@@@@ATL@@QAE@XZ
__unwindfunclet$??0CTabResult@@QAE@PAVCWnd@@@Z$4:
  00034	8b 4d f0	 mov	 ecx, DWORD PTR _this$[ebp]
  00037	81 c1 4c 01 00
	00		 add	 ecx, 332		; 0000014cH
  0003d	ff 25 00 00 00
	00		 jmp	 DWORD PTR __imp_??1?$CStringT@DV?$StrTraitMFC_DLL@DV?$ChTraitsCRT@D@ATL@@@@@ATL@@QAE@XZ
__unwindfunclet$??0CTabResult@@QAE@PAVCWnd@@@Z$5:
  00043	8b 4d f0	 mov	 ecx, DWORD PTR _this$[ebp]
  00046	81 c1 50 01 00
	00		 add	 ecx, 336		; 00000150H
  0004c	ff 25 00 00 00
	00		 jmp	 DWORD PTR __imp_??1?$CStringT@DV?$StrTraitMFC_DLL@DV?$ChTraitsCRT@D@ATL@@@@@ATL@@QAE@XZ
__unwindfunclet$??0CTabResult@@QAE@PAVCWnd@@@Z$6:
  00052	8b 4d f0	 mov	 ecx, DWORD PTR _this$[ebp]
  00055	81 c1 54 01 00
	00		 add	 ecx, 340		; 00000154H
  0005b	ff 25 00 00 00
	00		 jmp	 DWORD PTR __imp_??1?$CStringT@DV?$StrTraitMFC_DLL@DV?$ChTraitsCRT@D@ATL@@@@@ATL@@QAE@XZ
__unwindfunclet$??0CTabResult@@QAE@PAVCWnd@@@Z$7:
  00061	8b 4d f0	 mov	 ecx, DWORD PTR _this$[ebp]
  00064	81 c1 58 01 00
	00		 add	 ecx, 344		; 00000158H
  0006a	ff 25 00 00 00
	00		 jmp	 DWORD PTR __imp_??1?$CStringT@DV?$StrTraitMFC_DLL@DV?$ChTraitsCRT@D@ATL@@@@@ATL@@QAE@XZ
__unwindfunclet$??0CTabResult@@QAE@PAVCWnd@@@Z$8:
  00070	8b 4d f0	 mov	 ecx, DWORD PTR _this$[ebp]
  00073	81 c1 5c 01 00
	00		 add	 ecx, 348		; 0000015cH
  00079	ff 25 00 00 00
	00		 jmp	 DWORD PTR __imp_??1?$CStringT@DV?$StrTraitMFC_DLL@DV?$ChTraitsCRT@D@ATL@@@@@ATL@@QAE@XZ
__unwindfunclet$??0CTabResult@@QAE@PAVCWnd@@@Z$9:
  0007f	a1 00 00 00 00	 mov	 eax, DWORD PTR __imp_??1?$CStringT@DV?$StrTraitMFC_DLL@DV?$ChTraitsCRT@D@ATL@@@@@ATL@@QAE@XZ
  00084	50		 push	 eax
  00085	6a 24		 push	 36			; 00000024H
  00087	6a 04		 push	 4
  00089	8b 45 f0	 mov	 eax, DWORD PTR _this$[ebp]
  0008c	05 60 01 00 00	 add	 eax, 352		; 00000160H
  00091	50		 push	 eax
  00092	e8 00 00 00 00	 call	 ??_M@YGXPAXIIP6EX0@Z@Z
  00097	c3		 ret	 0
__unwindfunclet$??0CTabResult@@QAE@PAVCWnd@@@Z$10:
  00098	8b 4d f0	 mov	 ecx, DWORD PTR _this$[ebp]
  0009b	81 c1 80 02 00
	00		 add	 ecx, 640		; 00000280H
  000a1	e9 00 00 00 00	 jmp	 ??1CBrush@@UAE@XZ	; CBrush::~CBrush
  000a6	cc		 int	 3
  000a7	cc		 int	 3
  000a8	cc		 int	 3
  000a9	cc		 int	 3
  000aa	cc		 int	 3
__ehhandler$??0CTabResult@@QAE@PAVCWnd@@@Z:
  000ab	90		 npad	 1
  000ac	90		 npad	 1
  000ad	8b 54 24 08	 mov	 edx, DWORD PTR [esp+8]
  000b1	8d 42 0c	 lea	 eax, DWORD PTR [edx+12]
  000b4	8b 4a f0	 mov	 ecx, DWORD PTR [edx-16]
  000b7	33 c8		 xor	 ecx, eax
  000b9	e8 00 00 00 00	 call	 @__security_check_cookie@4
  000be	b8 00 00 00 00	 mov	 eax, OFFSET __ehfuncinfo$??0CTabResult@@QAE@PAVCWnd@@@Z
  000c3	e9 00 00 00 00	 jmp	 ___CxxFrameHandler3
text$x	ENDS
??0CTabResult@@QAE@PAVCWnd@@@Z ENDP			; CTabResult::CTabResult
; Function compile flags: /Ogtp
;	COMDAT ??1CDlgInterface@@UAE@XZ
_TEXT	SEGMENT
??1CDlgInterface@@UAE@XZ PROC				; CDlgInterface::~CDlgInterface, COMDAT
; _this$ = ecx
  00000	e9 00 00 00 00	 jmp	 ??1CDialog@@UAE@XZ	; CDialog::~CDialog
??1CDlgInterface@@UAE@XZ ENDP				; CDlgInterface::~CDlgInterface
_TEXT	ENDS
; Function compile flags: /Ogtp
; File D:\git\src\IBK\IBK_DRFN\ProjSrc\SrcDrfn\Chart\HWSTRATEGYANALYSIS\DlgInterface.h
;	COMDAT ?GuganBtnUpdate@CDlgInterface@@UAEXXZ
_TEXT	SEGMENT
?GuganBtnUpdate@CDlgInterface@@UAEXXZ PROC		; CDlgInterface::GuganBtnUpdate, COMDAT
; _this$ = ecx

; 60   : 		virtual void GuganBtnUpdate(){}

  00000	c2 00 00	 ret	 0
?GuganBtnUpdate@CDlgInterface@@UAEXXZ ENDP		; CDlgInterface::GuganBtnUpdate
_TEXT	ENDS
; Function compile flags: /Ogtp
; File D:\git\src\IBK\IBK_DRFN\ProjSrc\SrcDrfn\Chart\HWSTRATEGYANALYSIS\DlgInterface.h
;	COMDAT ?SetChartFocus@CDlgInterface@@UAEXH@Z
_TEXT	SEGMENT
_nFocusIndex$ = 8					; size = 4
?SetChartFocus@CDlgInterface@@UAEXH@Z PROC		; CDlgInterface::SetChartFocus, COMDAT
; _this$ = ecx

; 59   : 		virtual void SetChartFocus(int nFocusIndex) {}

  00000	c2 04 00	 ret	 4
?SetChartFocus@CDlgInterface@@UAEXH@Z ENDP		; CDlgInterface::SetChartFocus
_TEXT	ENDS
; Function compile flags: /Ogtp
; File D:\git\src\IBK\IBK_DRFN\ProjSrc\SrcDrfn\Chart\HWSTRATEGYANALYSIS\DlgInterface.h
;	COMDAT ?UpdateDlg@CDlgInterface@@UAEXXZ
_TEXT	SEGMENT
?UpdateDlg@CDlgInterface@@UAEXXZ PROC			; CDlgInterface::UpdateDlg, COMDAT
; _this$ = ecx

; 58   : 		virtual void UpdateDlg() {}

  00000	c2 00 00	 ret	 0
?UpdateDlg@CDlgInterface@@UAEXXZ ENDP			; CDlgInterface::UpdateDlg
_TEXT	ENDS
; Function compile flags: /Ogtp
;	COMDAT ??1_GV_ITEM@@QAE@XZ
_TEXT	SEGMENT
??1_GV_ITEM@@QAE@XZ PROC				; _GV_ITEM::~_GV_ITEM, COMDAT
; _this$ = ecx
  00000	83 c1 64	 add	 ecx, 100		; 00000064H
  00003	ff 25 00 00 00
	00		 jmp	 DWORD PTR __imp_??1?$CStringT@DV?$StrTraitMFC_DLL@DV?$ChTraitsCRT@D@ATL@@@@@ATL@@QAE@XZ
??1_GV_ITEM@@QAE@XZ ENDP				; _GV_ITEM::~_GV_ITEM
_TEXT	ENDS
; Function compile flags: /Ogtp
; File D:\git\src\IBK\IBK_DRFN\ProjSrc\SrcDrfn\Chart\Common_ST\EscDialog.h
;	COMDAT ?PreTranslateMessage@CEscDialog@@MAEHPAUtagMSG@@@Z
_TEXT	SEGMENT
_pMsg$ = 8						; size = 4
?PreTranslateMessage@CEscDialog@@MAEHPAUtagMSG@@@Z PROC	; CEscDialog::PreTranslateMessage, COMDAT
; _this$ = ecx

; 40   : {

  00000	55		 push	 ebp
  00001	8b ec		 mov	 ebp, esp
  00003	56		 push	 esi

; 41   : 	//     		JSJ_Modify_040421
; 42   : 	if(pMsg->message == WM_KEYDOWN)   

  00004	8b 75 08	 mov	 esi, DWORD PTR _pMsg$[ebp]
  00007	57		 push	 edi
  00008	8b f9		 mov	 edi, ecx
  0000a	81 7e 04 00 01
	00 00		 cmp	 DWORD PTR [esi+4], 256	; 00000100H
  00011	75 42		 jne	 SHORT $LN4@PreTransla

; 43   : 	{
; 44   : 		if(pMsg->wParam == VK_F4 && (::GetKeyState(VK_CONTROL) & 0x8000))

  00013	83 7e 08 73	 cmp	 DWORD PTR [esi+8], 115	; 00000073H
  00017	75 36		 jne	 SHORT $LN11@PreTransla
  00019	6a 11		 push	 17			; 00000011H
  0001b	ff 15 00 00 00
	00		 call	 DWORD PTR __imp__GetKeyState@4
  00021	66 0f ba e0 0f	 bt	 ax, 15			; 0000000fH
  00026	73 27		 jae	 SHORT $LN11@PreTransla

; 45   : 		{
; 46   : 			pMsg->wParam = VK_ESCAPE;

  00028	c7 46 08 1b 00
	00 00		 mov	 DWORD PTR [esi+8], 27	; 0000001bH
$LN12@PreTransla:

; 56   : }

  0002f	ff 77 20	 push	 DWORD PTR [edi+32]
  00032	ff 15 00 00 00
	00		 call	 DWORD PTR __imp__GetParent@4
  00038	50		 push	 eax
  00039	e8 00 00 00 00	 call	 ?FromHandle@CWnd@@SGPAV1@PAUHWND__@@@Z ; CWnd::FromHandle
  0003e	56		 push	 esi
  0003f	8b c8		 mov	 ecx, eax
  00041	8b 10		 mov	 edx, DWORD PTR [eax]
  00043	ff 92 14 01 00
	00		 call	 DWORD PTR [edx+276]
  00049	5f		 pop	 edi
  0004a	5e		 pop	 esi
  0004b	5d		 pop	 ebp
  0004c	c2 04 00	 ret	 4
$LN11@PreTransla:

; 47   : 			return GetParent()->PreTranslateMessage(pMsg);
; 48   : 		}
; 49   : 		if(pMsg->wParam == VK_ESCAPE)

  0004f	83 7e 08 1b	 cmp	 DWORD PTR [esi+8], 27	; 0000001bH
  00053	74 da		 je	 SHORT $LN12@PreTransla
$LN4@PreTransla:

; 50   : 		{
; 51   : 			return GetParent()->PreTranslateMessage(pMsg);
; 52   : 		}
; 53   : 	}
; 54   : 	
; 55   : 	return CDialog::PreTranslateMessage(pMsg);

  00055	56		 push	 esi
  00056	8b cf		 mov	 ecx, edi
  00058	e8 00 00 00 00	 call	 ?PreTranslateMessage@CDialog@@UAEHPAUtagMSG@@@Z ; CDialog::PreTranslateMessage
  0005d	5f		 pop	 edi

; 56   : }

  0005e	5e		 pop	 esi
  0005f	5d		 pop	 ebp
  00060	c2 04 00	 ret	 4
?PreTranslateMessage@CEscDialog@@MAEHPAUtagMSG@@@Z ENDP	; CEscDialog::PreTranslateMessage
_TEXT	ENDS
; Function compile flags: /Ogtp
;	COMDAT ??1ST_DATAINDEX@@QAE@XZ
_TEXT	SEGMENT
??1ST_DATAINDEX@@QAE@XZ PROC				; ST_DATAINDEX::~ST_DATAINDEX, COMDAT
; _this$ = ecx
  00000	56		 push	 esi
  00001	8b f1		 mov	 esi, ecx
  00003	8d 4e 1c	 lea	 ecx, DWORD PTR [esi+28]
  00006	ff 15 00 00 00
	00		 call	 DWORD PTR __imp_??1?$CStringT@DV?$StrTraitMFC_DLL@DV?$ChTraitsCRT@D@ATL@@@@@ATL@@QAE@XZ
  0000c	8d 4e 18	 lea	 ecx, DWORD PTR [esi+24]
  0000f	ff 15 00 00 00
	00		 call	 DWORD PTR __imp_??1?$CStringT@DV?$StrTraitMFC_DLL@DV?$ChTraitsCRT@D@ATL@@@@@ATL@@QAE@XZ
  00015	8d 4e 14	 lea	 ecx, DWORD PTR [esi+20]
  00018	ff 15 00 00 00
	00		 call	 DWORD PTR __imp_??1?$CStringT@DV?$StrTraitMFC_DLL@DV?$ChTraitsCRT@D@ATL@@@@@ATL@@QAE@XZ
  0001e	8d 4e 10	 lea	 ecx, DWORD PTR [esi+16]
  00021	ff 15 00 00 00
	00		 call	 DWORD PTR __imp_??1?$CStringT@DV?$StrTraitMFC_DLL@DV?$ChTraitsCRT@D@ATL@@@@@ATL@@QAE@XZ
  00027	8d 4e 0c	 lea	 ecx, DWORD PTR [esi+12]
  0002a	ff 15 00 00 00
	00		 call	 DWORD PTR __imp_??1?$CStringT@DV?$StrTraitMFC_DLL@DV?$ChTraitsCRT@D@ATL@@@@@ATL@@QAE@XZ
  00030	8d 4e 08	 lea	 ecx, DWORD PTR [esi+8]
  00033	5e		 pop	 esi
  00034	ff 25 00 00 00
	00		 jmp	 DWORD PTR __imp_??1?$CStringT@DV?$StrTraitMFC_DLL@DV?$ChTraitsCRT@D@ATL@@@@@ATL@@QAE@XZ
??1ST_DATAINDEX@@QAE@XZ ENDP				; ST_DATAINDEX::~ST_DATAINDEX
_TEXT	ENDS
; Function compile flags: /Ogtp
; File C:\Program Files (x86)\Microsoft Visual Studio\2019\Community\VC\Tools\MSVC\14.29.30133\atlmfc\include\afxole.inl
;	COMDAT ??1COleVariant@@QAE@XZ
_TEXT	SEGMENT
??1COleVariant@@QAE@XZ PROC				; COleVariant::~COleVariant, COMDAT
; _this$ = ecx

; 139  : 	{ VERIFY(::VariantClear(this) == NOERROR); }

  00000	51		 push	 ecx
  00001	ff 15 00 00 00
	00		 call	 DWORD PTR __imp__VariantClear@4
  00007	c3		 ret	 0
??1COleVariant@@QAE@XZ ENDP				; COleVariant::~COleVariant
_TEXT	ENDS
; Function compile flags: /Ogtp
; File C:\Program Files (x86)\Microsoft Visual Studio\2019\Community\VC\Tools\MSVC\14.29.30133\atlmfc\include\afx.inl
;	COMDAT ??_GCStatic@@UAEPAXI@Z
_TEXT	SEGMENT
___flags$ = 8						; size = 4
??_GCStatic@@UAEPAXI@Z PROC				; CStatic::`scalar deleting destructor', COMDAT
; _this$ = ecx
  00000	55		 push	 ebp
  00001	8b ec		 mov	 ebp, esp
  00003	56		 push	 esi
  00004	8b f1		 mov	 esi, ecx
  00006	e8 00 00 00 00	 call	 ??1CStatic@@UAE@XZ	; CStatic::~CStatic
  0000b	8b 45 08	 mov	 eax, DWORD PTR ___flags$[ebp]
  0000e	a8 01		 test	 al, 1
  00010	74 22		 je	 SHORT $LN9@scalar
  00012	a8 04		 test	 al, 4
  00014	75 10		 jne	 SHORT $LN3@scalar

; 112  : 	{ ::operator delete(p); }

  00016	56		 push	 esi
  00017	e8 00 00 00 00	 call	 ??3@YAXPAX@Z		; operator delete
  0001c	83 c4 04	 add	 esp, 4
  0001f	8b c6		 mov	 eax, esi
  00021	5e		 pop	 esi
  00022	5d		 pop	 ebp
  00023	c2 04 00	 ret	 4
$LN3@scalar:
  00026	68 80 00 00 00	 push	 128			; 00000080H
  0002b	56		 push	 esi
  0002c	e8 00 00 00 00	 call	 ?__global_delete@@YAXPAXI@Z ; __global_delete
  00031	83 c4 08	 add	 esp, 8
$LN9@scalar:
  00034	8b c6		 mov	 eax, esi
  00036	5e		 pop	 esi
  00037	5d		 pop	 ebp
  00038	c2 04 00	 ret	 4
??_GCStatic@@UAEPAXI@Z ENDP				; CStatic::`scalar deleting destructor'
_TEXT	ENDS
; Function compile flags: /Ogtp
; File C:\Program Files (x86)\Microsoft Visual Studio\2019\Community\VC\Tools\MSVC\14.29.30133\atlmfc\include\afxwin2.inl
;	COMDAT ?Create@CDialog@@UAEHIPAVCWnd@@@Z
_TEXT	SEGMENT
_nIDTemplate$ = 8					; size = 4
_pParentWnd$ = 12					; size = 4
?Create@CDialog@@UAEHIPAVCWnd@@@Z PROC			; CDialog::Create, COMDAT
; _this$ = ecx

; 585  : 	{ return CDialog::Create(ATL_MAKEINTRESOURCE(nIDTemplate), pParentWnd); }

  00000	55		 push	 ebp
  00001	8b ec		 mov	 ebp, esp
  00003	0f b7 45 08	 movzx	 eax, WORD PTR _nIDTemplate$[ebp]
  00007	89 45 08	 mov	 DWORD PTR _nIDTemplate$[ebp], eax
  0000a	5d		 pop	 ebp
  0000b	e9 00 00 00 00	 jmp	 ?Create@CDialog@@UAEHPBDPAVCWnd@@@Z ; CDialog::Create
?Create@CDialog@@UAEHIPAVCWnd@@@Z ENDP			; CDialog::Create
_TEXT	ENDS
; Function compile flags: /Ogtp
; File C:\Program Files (x86)\Microsoft Visual Studio\2019\Community\VC\Tools\MSVC\14.29.30133\atlmfc\include\afxwin2.inl
;	COMDAT ?EndModalState@CWnd@@UAEXXZ
_TEXT	SEGMENT
?EndModalState@CWnd@@UAEXXZ PROC			; CWnd::EndModalState, COMDAT
; _this$ = ecx

; 567  : 	{ ::EnableWindow(m_hWnd, TRUE); }

  00000	6a 01		 push	 1
  00002	ff 71 20	 push	 DWORD PTR [ecx+32]
  00005	ff 15 00 00 00
	00		 call	 DWORD PTR __imp__EnableWindow@8
  0000b	c3		 ret	 0
?EndModalState@CWnd@@UAEXXZ ENDP			; CWnd::EndModalState
_TEXT	ENDS
; Function compile flags: /Ogtp
; File C:\Program Files (x86)\Microsoft Visual Studio\2019\Community\VC\Tools\MSVC\14.29.30133\atlmfc\include\afxwin2.inl
;	COMDAT ?BeginModalState@CWnd@@UAEXXZ
_TEXT	SEGMENT
?BeginModalState@CWnd@@UAEXXZ PROC			; CWnd::BeginModalState, COMDAT
; _this$ = ecx

; 565  : 	{ ::EnableWindow(m_hWnd, FALSE); }

  00000	6a 00		 push	 0
  00002	ff 71 20	 push	 DWORD PTR [ecx+32]
  00005	ff 15 00 00 00
	00		 call	 DWORD PTR __imp__EnableWindow@8
  0000b	c3		 ret	 0
?BeginModalState@CWnd@@UAEXXZ ENDP			; CWnd::BeginModalState
_TEXT	ENDS
; Function compile flags: /Ogtp
; File C:\Program Files (x86)\Microsoft Visual Studio\2019\Community\VC\Tools\MSVC\14.29.30133\atlmfc\include\afxwin2.inl
;	COMDAT ?DoDataExchange@CWnd@@MAEXPAVCDataExchange@@@Z
_TEXT	SEGMENT
___formal$ = 8						; size = 4
?DoDataExchange@CWnd@@MAEXPAVCDataExchange@@@Z PROC	; CWnd::DoDataExchange, COMDAT
; _this$ = ecx

; 561  : 	{ } // default does nothing

  00000	c2 04 00	 ret	 4
?DoDataExchange@CWnd@@MAEXPAVCDataExchange@@@Z ENDP	; CWnd::DoDataExchange
_TEXT	ENDS
; Function compile flags: /Ogtp
; File C:\Program Files (x86)\Microsoft Visual Studio\2019\Community\VC\Tools\MSVC\14.29.30133\atlmfc\include\afxwin1.inl
; File C:\Program Files (x86)\Microsoft Visual Studio\2019\Community\VC\Tools\MSVC\14.29.30133\atlmfc\include\afx.inl
;	COMDAT ??_GCBrush@@UAEPAXI@Z
_TEXT	SEGMENT
___flags$ = 8						; size = 4
??_GCBrush@@UAEPAXI@Z PROC				; CBrush::`scalar deleting destructor', COMDAT
; _this$ = ecx
  00000	55		 push	 ebp
  00001	8b ec		 mov	 ebp, esp
; File C:\Program Files (x86)\Microsoft Visual Studio\2019\Community\VC\Tools\MSVC\14.29.30133\atlmfc\include\afxwin1.inl

; 130  : 	{ }

  00003	56		 push	 esi
  00004	8b f1		 mov	 esi, ecx
  00006	c7 06 00 00 00
	00		 mov	 DWORD PTR [esi], OFFSET ??_7CBrush@@6B@
  0000c	e8 00 00 00 00	 call	 ??1CGdiObject@@UAE@XZ	; CGdiObject::~CGdiObject
  00011	8b 45 08	 mov	 eax, DWORD PTR ___flags$[ebp]
  00014	a8 01		 test	 al, 1
  00016	74 1f		 je	 SHORT $LN12@scalar
  00018	a8 04		 test	 al, 4
  0001a	75 10		 jne	 SHORT $LN3@scalar
; File C:\Program Files (x86)\Microsoft Visual Studio\2019\Community\VC\Tools\MSVC\14.29.30133\atlmfc\include\afx.inl

; 112  : 	{ ::operator delete(p); }

  0001c	56		 push	 esi
  0001d	e8 00 00 00 00	 call	 ??3@YAXPAX@Z		; operator delete
  00022	83 c4 04	 add	 esp, 4
  00025	8b c6		 mov	 eax, esi
  00027	5e		 pop	 esi
  00028	5d		 pop	 ebp
  00029	c2 04 00	 ret	 4
$LN3@scalar:
  0002c	6a 08		 push	 8
  0002e	56		 push	 esi
  0002f	e8 00 00 00 00	 call	 ?__global_delete@@YAXPAXI@Z ; __global_delete
  00034	83 c4 08	 add	 esp, 8
$LN12@scalar:
  00037	8b c6		 mov	 eax, esi
  00039	5e		 pop	 esi
  0003a	5d		 pop	 ebp
  0003b	c2 04 00	 ret	 4
??_GCBrush@@UAEPAXI@Z ENDP				; CBrush::`scalar deleting destructor'
_TEXT	ENDS
; Function compile flags: /Ogtp
; File C:\Program Files (x86)\Microsoft Visual Studio\2019\Community\VC\Tools\MSVC\14.29.30133\atlmfc\include\afxwin1.inl
;	COMDAT ??1CBrush@@UAE@XZ
_TEXT	SEGMENT
??1CBrush@@UAE@XZ PROC					; CBrush::~CBrush, COMDAT
; _this$ = ecx

; 130  : 	{ }

  00000	c7 01 00 00 00
	00		 mov	 DWORD PTR [ecx], OFFSET ??_7CBrush@@6B@
  00006	e9 00 00 00 00	 jmp	 ??1CGdiObject@@UAE@XZ	; CGdiObject::~CGdiObject
??1CBrush@@UAE@XZ ENDP					; CBrush::~CBrush
_TEXT	ENDS
; Function compile flags: /Ogtp
; File C:\Program Files (x86)\Microsoft Visual Studio\2019\Community\VC\Tools\MSVC\14.29.30133\atlmfc\include\afx.inl
;	COMDAT ??_GCGdiObject@@UAEPAXI@Z
_TEXT	SEGMENT
___flags$ = 8						; size = 4
??_GCGdiObject@@UAEPAXI@Z PROC				; CGdiObject::`scalar deleting destructor', COMDAT
; _this$ = ecx
  00000	55		 push	 ebp
  00001	8b ec		 mov	 ebp, esp
  00003	56		 push	 esi
  00004	8b f1		 mov	 esi, ecx
  00006	e8 00 00 00 00	 call	 ??1CGdiObject@@UAE@XZ	; CGdiObject::~CGdiObject
  0000b	8b 45 08	 mov	 eax, DWORD PTR ___flags$[ebp]
  0000e	a8 01		 test	 al, 1
  00010	74 1f		 je	 SHORT $LN9@scalar
  00012	a8 04		 test	 al, 4
  00014	75 10		 jne	 SHORT $LN3@scalar

; 112  : 	{ ::operator delete(p); }

  00016	56		 push	 esi
  00017	e8 00 00 00 00	 call	 ??3@YAXPAX@Z		; operator delete
  0001c	83 c4 04	 add	 esp, 4
  0001f	8b c6		 mov	 eax, esi
  00021	5e		 pop	 esi
  00022	5d		 pop	 ebp
  00023	c2 04 00	 ret	 4
$LN3@scalar:
  00026	6a 08		 push	 8
  00028	56		 push	 esi
  00029	e8 00 00 00 00	 call	 ?__global_delete@@YAXPAXI@Z ; __global_delete
  0002e	83 c4 08	 add	 esp, 8
$LN9@scalar:
  00031	8b c6		 mov	 eax, esi
  00033	5e		 pop	 esi
  00034	5d		 pop	 ebp
  00035	c2 04 00	 ret	 4
??_GCGdiObject@@UAEPAXI@Z ENDP				; CGdiObject::`scalar deleting destructor'
_TEXT	ENDS
; Function compile flags: /Ogtp
; File C:\Program Files (x86)\Microsoft Visual Studio\2019\Community\VC\Tools\MSVC\14.29.30133\atlmfc\include\afxwin1.inl
;	COMDAT ??1CGdiObject@@UAE@XZ
_TEXT	SEGMENT
_pException$2 = -540					; size = 4
_strMsg$3 = -536					; size = 4
_szErrorMessage$4 = -532				; size = 512
__$ArrayPad$ = -20					; size = 4
__$EHRec$ = -16						; size = 16
??1CGdiObject@@UAE@XZ PROC				; CGdiObject::~CGdiObject, COMDAT
; _this$ = ecx

; 74   : {

  00000	55		 push	 ebp
  00001	8b ec		 mov	 ebp, esp
  00003	6a ff		 push	 -1
  00005	68 00 00 00 00	 push	 __ehhandler$??1CGdiObject@@UAE@XZ
  0000a	64 a1 00 00 00
	00		 mov	 eax, DWORD PTR fs:0
  00010	50		 push	 eax
  00011	81 ec 10 02 00
	00		 sub	 esp, 528		; 00000210H
  00017	a1 00 00 00 00	 mov	 eax, DWORD PTR ___security_cookie
  0001c	33 c5		 xor	 eax, ebp
  0001e	89 45 ec	 mov	 DWORD PTR __$ArrayPad$[ebp], eax
  00021	53		 push	 ebx
  00022	56		 push	 esi
  00023	57		 push	 edi
  00024	50		 push	 eax
  00025	8d 45 f4	 lea	 eax, DWORD PTR __$EHRec$[ebp+4]
  00028	64 a3 00 00 00
	00		 mov	 DWORD PTR fs:0, eax
  0002e	89 65 f0	 mov	 DWORD PTR __$EHRec$[ebp], esp
  00031	c7 01 00 00 00
	00		 mov	 DWORD PTR [ecx], OFFSET ??_7CGdiObject@@6B@

; 75   : 	AFX_BEGIN_DESTRUCTOR

  00037	c7 45 fc 00 00
	00 00		 mov	 DWORD PTR __$EHRec$[ebp+12], 0

; 76   : 	DeleteObject();

  0003e	e8 00 00 00 00	 call	 ?DeleteObject@CGdiObject@@QAEHXZ ; CGdiObject::DeleteObject
$LN18@CGdiObject:

; 78   : }

  00043	8b 4d f4	 mov	 ecx, DWORD PTR __$EHRec$[ebp+4]
  00046	64 89 0d 00 00
	00 00		 mov	 DWORD PTR fs:0, ecx
  0004d	59		 pop	 ecx
  0004e	5f		 pop	 edi
  0004f	5e		 pop	 esi
  00050	5b		 pop	 ebx
  00051	8b 4d ec	 mov	 ecx, DWORD PTR __$ArrayPad$[ebp]
  00054	33 cd		 xor	 ecx, ebp
  00056	e8 00 00 00 00	 call	 @__security_check_cookie@4
  0005b	8b e5		 mov	 esp, ebp
  0005d	5d		 pop	 ebp
  0005e	c3		 ret	 0
__catch$??1CGdiObject@@UAE@XZ$0:

; 77   : 	AFX_END_DESTRUCTOR

  0005f	8d 8d e8 fd ff
	ff		 lea	 ecx, DWORD PTR _strMsg$3[ebp]
  00065	ff 15 00 00 00
	00		 call	 DWORD PTR __imp_??0?$CStringT@DV?$StrTraitMFC_DLL@DV?$ChTraitsCRT@D@ATL@@@@@ATL@@QAE@XZ
  0006b	8b b5 e4 fd ff
	ff		 mov	 esi, DWORD PTR _pException$2[ebp]
  00071	8d 8d ec fd ff
	ff		 lea	 ecx, DWORD PTR _szErrorMessage$4[ebp]
  00077	6a 00		 push	 0
  00079	68 00 02 00 00	 push	 512			; 00000200H
  0007e	51		 push	 ecx
  0007f	8b 06		 mov	 eax, DWORD PTR [esi]
  00081	8b ce		 mov	 ecx, esi
  00083	c6 45 fc 02	 mov	 BYTE PTR __$EHRec$[ebp+12], 2
  00087	ff 50 14	 call	 DWORD PTR [eax+20]
  0008a	85 c0		 test	 eax, eax
  0008c	74 2a		 je	 SHORT $LN9@CGdiObject
  0008e	8d 85 ec fd ff
	ff		 lea	 eax, DWORD PTR _szErrorMessage$4[ebp]
  00094	50		 push	 eax
  00095	6a 4d		 push	 77			; 0000004dH
  00097	68 00 00 00 00	 push	 OFFSET ??_C@_0HD@JJCHHHNK@C?3?2Program?5Files?5?$CIx86?$CJ?2Microsof@
  0009c	68 00 00 00 00	 push	 OFFSET ??_C@_0BP@OIEOKIDM@Exception?5thrown?5in?5destructor@
  000a1	8d 85 e8 fd ff
	ff		 lea	 eax, DWORD PTR _strMsg$3[ebp]
  000a7	68 00 00 00 00	 push	 OFFSET ??_C@_0BB@HBOOMJBF@?$CFTs?5?$CI?$CFTs?3?$CFd?$CJ?6?$CFTs@
  000ac	50		 push	 eax
  000ad	ff 15 00 00 00
	00		 call	 DWORD PTR __imp_?Format@?$CStringT@DV?$StrTraitMFC_DLL@DV?$ChTraitsCRT@D@ATL@@@@@ATL@@QAAXPBDZZ
  000b3	83 c4 18	 add	 esp, 24			; 00000018H
  000b6	eb 21		 jmp	 SHORT $LN10@CGdiObject
$LN9@CGdiObject:
  000b8	6a 4d		 push	 77			; 0000004dH
  000ba	68 00 00 00 00	 push	 OFFSET ??_C@_0HD@JJCHHHNK@C?3?2Program?5Files?5?$CIx86?$CJ?2Microsof@
  000bf	68 00 00 00 00	 push	 OFFSET ??_C@_0BP@OIEOKIDM@Exception?5thrown?5in?5destructor@
  000c4	8d 85 e8 fd ff
	ff		 lea	 eax, DWORD PTR _strMsg$3[ebp]
  000ca	68 00 00 00 00	 push	 OFFSET ??_C@_0N@OMEMOKLE@?$CFTs?5?$CI?$CFTs?3?$CFd?$CJ@
  000cf	50		 push	 eax
  000d0	ff 15 00 00 00
	00		 call	 DWORD PTR __imp_?Format@?$CStringT@DV?$StrTraitMFC_DLL@DV?$ChTraitsCRT@D@ATL@@@@@ATL@@QAAXPBDZZ
  000d6	83 c4 14	 add	 esp, 20			; 00000014H
$LN10@CGdiObject:
  000d9	6a 00		 push	 0
  000db	6a 00		 push	 0
  000dd	ff b5 e8 fd ff
	ff		 push	 DWORD PTR _strMsg$3[ebp]
  000e3	e8 00 00 00 00	 call	 ?AfxMessageBox@@YGHPBDII@Z ; AfxMessageBox
  000e8	8d 8d e8 fd ff
	ff		 lea	 ecx, DWORD PTR _strMsg$3[ebp]
  000ee	ff 15 00 00 00
	00		 call	 DWORD PTR __imp_??1?$CStringT@DV?$StrTraitMFC_DLL@DV?$ChTraitsCRT@D@ATL@@@@@ATL@@QAE@XZ
  000f4	8b 06		 mov	 eax, DWORD PTR [esi]
  000f6	8b ce		 mov	 ecx, esi
  000f8	6a 01		 push	 1
  000fa	ff 50 04	 call	 DWORD PTR [eax+4]
  000fd	b8 00 00 00 00	 mov	 eax, $LN18@CGdiObject
  00102	c3		 ret	 0
_TEXT	ENDS
;	COMDAT text$x
text$x	SEGMENT
__unwindfunclet$??1CGdiObject@@UAE@XZ$2:
  00000	8d 8d e8 fd ff
	ff		 lea	 ecx, DWORD PTR _strMsg$3[ebp]
  00006	ff 25 00 00 00
	00		 jmp	 DWORD PTR __imp_??1?$CStringT@DV?$StrTraitMFC_DLL@DV?$ChTraitsCRT@D@ATL@@@@@ATL@@QAE@XZ
  0000c	cc		 int	 3
  0000d	cc		 int	 3
  0000e	cc		 int	 3
  0000f	cc		 int	 3
  00010	cc		 int	 3
__ehhandler$??1CGdiObject@@UAE@XZ:
  00011	90		 npad	 1
  00012	90		 npad	 1
  00013	8b 54 24 08	 mov	 edx, DWORD PTR [esp+8]
  00017	8d 42 0c	 lea	 eax, DWORD PTR [edx+12]
  0001a	8b 8a e0 fd ff
	ff		 mov	 ecx, DWORD PTR [edx-544]
  00020	33 c8		 xor	 ecx, eax
  00022	e8 00 00 00 00	 call	 @__security_check_cookie@4
  00027	8b 4a f8	 mov	 ecx, DWORD PTR [edx-8]
  0002a	33 c8		 xor	 ecx, eax
  0002c	e8 00 00 00 00	 call	 @__security_check_cookie@4
  00031	b8 00 00 00 00	 mov	 eax, OFFSET __ehfuncinfo$??1CGdiObject@@UAE@XZ
  00036	e9 00 00 00 00	 jmp	 ___CxxFrameHandler3
text$x	ENDS
??1CGdiObject@@UAE@XZ ENDP				; CGdiObject::~CGdiObject
; Function compile flags: /Ogtp
; File C:\Program Files (x86)\Microsoft Visual Studio\2019\Community\VC\Tools\MSVC\14.29.30133\atlmfc\include\cstringt.h
; File C:\Program Files (x86)\Microsoft Visual Studio\2019\Community\VC\Tools\MSVC\14.29.30133\atlmfc\include\atlsimpstr.h
; File C:\Program Files (x86)\Microsoft Visual Studio\2019\Community\VC\Tools\MSVC\14.29.30133\atlmfc\include\cstringt.h
; File C:\Program Files (x86)\Microsoft Visual Studio\2019\Community\VC\Tools\MSVC\14.29.30133\atlmfc\include\atlsimpstr.h
; File C:\Program Files (x86)\Microsoft Visual Studio\2019\Community\VC\Tools\MSVC\14.29.30133\atlmfc\include\cstringt.h
;	COMDAT ??HATL@@YA?AV?$CStringT@DV?$StrTraitMFC_DLL@DV?$ChTraitsCRT@D@ATL@@@@@0@ABV10@0@Z
_TEXT	SEGMENT
$T2 = -16						; size = 4
__$EHRec$ = -12						; size = 12
___$ReturnUdt$ = 8					; size = 4
_str1$ = 12						; size = 4
_str2$ = 16						; size = 4
??HATL@@YA?AV?$CStringT@DV?$StrTraitMFC_DLL@DV?$ChTraitsCRT@D@ATL@@@@@0@ABV10@0@Z PROC ; ATL::operator+, COMDAT

; 2389 : 	{

  00000	55		 push	 ebp
  00001	8b ec		 mov	 ebp, esp
  00003	6a ff		 push	 -1
  00005	68 00 00 00 00	 push	 __ehhandler$??HATL@@YA?AV?$CStringT@DV?$StrTraitMFC_DLL@DV?$ChTraitsCRT@D@ATL@@@@@0@ABV10@0@Z
  0000a	64 a1 00 00 00
	00		 mov	 eax, DWORD PTR fs:0
  00010	50		 push	 eax
  00011	51		 push	 ecx
  00012	56		 push	 esi
  00013	57		 push	 edi
  00014	a1 00 00 00 00	 mov	 eax, DWORD PTR ___security_cookie
  00019	33 c5		 xor	 eax, ebp
  0001b	50		 push	 eax
  0001c	8d 45 f4	 lea	 eax, DWORD PTR __$EHRec$[ebp]
  0001f	64 a3 00 00 00
	00		 mov	 DWORD PTR fs:0, eax

; 2390 : 		CStringT strResult( str1.GetManager() );

  00025	8b 75 0c	 mov	 esi, DWORD PTR _str1$[ebp]
  00028	8b ce		 mov	 ecx, esi
  0002a	c7 45 f0 00 00
	00 00		 mov	 DWORD PTR $T2[ebp], 0
  00031	ff 15 00 00 00
	00		 call	 DWORD PTR __imp_?GetManager@?$CStringT@DV?$StrTraitMFC_DLL@DV?$ChTraitsCRT@D@ATL@@@@@ATL@@QBEPAUIAtlStringMgr@2@XZ
  00037	8b 7d 08	 mov	 edi, DWORD PTR ___$ReturnUdt$[ebp]
  0003a	8b cf		 mov	 ecx, edi
  0003c	50		 push	 eax
  0003d	ff 15 00 00 00
	00		 call	 DWORD PTR __imp_??0?$CStringT@DV?$StrTraitMFC_DLL@DV?$ChTraitsCRT@D@ATL@@@@@ATL@@QAE@PAUIAtlStringMgr@1@@Z
; File C:\Program Files (x86)\Microsoft Visual Studio\2019\Community\VC\Tools\MSVC\14.29.30133\atlmfc\include\atlsimpstr.h

; 519  : 		return( GetData()->nDataLength );

  00043	8b 45 10	 mov	 eax, DWORD PTR _str2$[ebp]
  00046	8b 16		 mov	 edx, DWORD PTR [esi]
; File C:\Program Files (x86)\Microsoft Visual Studio\2019\Community\VC\Tools\MSVC\14.29.30133\atlmfc\include\cstringt.h

; 2394 : 		return( strResult );

  00048	c7 45 fc 00 00
	00 00		 mov	 DWORD PTR __$EHRec$[ebp+8], 0
  0004f	c7 45 f0 01 00
	00 00		 mov	 DWORD PTR $T2[ebp], 1
; File C:\Program Files (x86)\Microsoft Visual Studio\2019\Community\VC\Tools\MSVC\14.29.30133\atlmfc\include\atlsimpstr.h

; 519  : 		return( GetData()->nDataLength );

  00056	8b 08		 mov	 ecx, DWORD PTR [eax]
; File C:\Program Files (x86)\Microsoft Visual Studio\2019\Community\VC\Tools\MSVC\14.29.30133\atlmfc\include\cstringt.h

; 2392 : 		CThisSimpleString::Concatenate( strResult, str1, str1.GetLength(), str2, str2.GetLength() );

  00058	ff 71 f4	 push	 DWORD PTR [ecx-12]
  0005b	51		 push	 ecx
  0005c	ff 72 f4	 push	 DWORD PTR [edx-12]
  0005f	52		 push	 edx
  00060	57		 push	 edi
  00061	ff 15 00 00 00
	00		 call	 DWORD PTR __imp_?Concatenate@?$CSimpleStringT@D$00@ATL@@KAXAAV12@PBDH1H@Z
  00067	83 c4 14	 add	 esp, 20			; 00000014H

; 2394 : 		return( strResult );

  0006a	8b c7		 mov	 eax, edi

; 2395 : 	}

  0006c	8b 4d f4	 mov	 ecx, DWORD PTR __$EHRec$[ebp]
  0006f	64 89 0d 00 00
	00 00		 mov	 DWORD PTR fs:0, ecx
  00076	59		 pop	 ecx
  00077	5f		 pop	 edi
  00078	5e		 pop	 esi
  00079	8b e5		 mov	 esp, ebp
  0007b	5d		 pop	 ebp
  0007c	c3		 ret	 0
_TEXT	ENDS
;	COMDAT text$x
text$x	SEGMENT
__unwindfunclet$??HATL@@YA?AV?$CStringT@DV?$StrTraitMFC_DLL@DV?$ChTraitsCRT@D@ATL@@@@@0@ABV10@0@Z$0:
  00000	8b 45 f0	 mov	 eax, DWORD PTR $T2[ebp]
  00003	83 e0 01	 and	 eax, 1
  00006	0f 84 0d 00 00
	00		 je	 $LN4@operator
  0000c	83 65 f0 fe	 and	 DWORD PTR $T2[ebp], -2	; fffffffeH
  00010	8b 4d 08	 mov	 ecx, DWORD PTR ___$ReturnUdt$[ebp]
  00013	ff 25 00 00 00
	00		 jmp	 DWORD PTR __imp_??1?$CStringT@DV?$StrTraitMFC_DLL@DV?$ChTraitsCRT@D@ATL@@@@@ATL@@QAE@XZ
$LN4@operator:
  00019	c3		 ret	 0
  0001a	cc		 int	 3
  0001b	cc		 int	 3
  0001c	cc		 int	 3
  0001d	cc		 int	 3
  0001e	cc		 int	 3
__ehhandler$??HATL@@YA?AV?$CStringT@DV?$StrTraitMFC_DLL@DV?$ChTraitsCRT@D@ATL@@@@@0@ABV10@0@Z:
  0001f	90		 npad	 1
  00020	90		 npad	 1
  00021	8b 54 24 08	 mov	 edx, DWORD PTR [esp+8]
  00025	8d 42 0c	 lea	 eax, DWORD PTR [edx+12]
  00028	8b 4a f0	 mov	 ecx, DWORD PTR [edx-16]
  0002b	33 c8		 xor	 ecx, eax
  0002d	e8 00 00 00 00	 call	 @__security_check_cookie@4
  00032	b8 00 00 00 00	 mov	 eax, OFFSET __ehfuncinfo$??HATL@@YA?AV?$CStringT@DV?$StrTraitMFC_DLL@DV?$ChTraitsCRT@D@ATL@@@@@0@ABV10@0@Z
  00037	e9 00 00 00 00	 jmp	 ___CxxFrameHandler3
text$x	ENDS
??HATL@@YA?AV?$CStringT@DV?$StrTraitMFC_DLL@DV?$ChTraitsCRT@D@ATL@@@@@0@ABV10@0@Z ENDP ; ATL::operator+
; Function compile flags: /Ogtp
; File C:\Program Files (x86)\Microsoft Visual Studio\2019\Community\VC\Tools\MSVC\14.29.30133\atlmfc\include\afx.inl
;	COMDAT ?Dump@CObject@@UBEXAAVCDumpContext@@@Z
_TEXT	SEGMENT
___formal$ = 8						; size = 4
?Dump@CObject@@UBEXAAVCDumpContext@@@Z PROC		; CObject::Dump, COMDAT
; _this$ = ecx

; 122  : 	{ /* no dumping in release builds */ }

  00000	c2 04 00	 ret	 4
?Dump@CObject@@UBEXAAVCDumpContext@@@Z ENDP		; CObject::Dump
_TEXT	ENDS
; Function compile flags: /Ogtp
; File C:\Program Files (x86)\Microsoft Visual Studio\2019\Community\VC\Tools\MSVC\14.29.30133\atlmfc\include\afx.inl
;	COMDAT ?AssertValid@CObject@@UBEXXZ
_TEXT	SEGMENT
?AssertValid@CObject@@UBEXXZ PROC			; CObject::AssertValid, COMDAT
; _this$ = ecx

; 120  : 	{ /* no asserts in release builds */ }

  00000	c2 00 00	 ret	 0
?AssertValid@CObject@@UBEXXZ ENDP			; CObject::AssertValid
_TEXT	ENDS
; Function compile flags: /Ogtp
; File C:\Program Files (x86)\Microsoft Visual Studio\2019\Community\VC\Tools\MSVC\14.29.30133\atlmfc\include\afx.inl
;	COMDAT ?Serialize@CObject@@UAEXAAVCArchive@@@Z
_TEXT	SEGMENT
___formal$ = 8						; size = 4
?Serialize@CObject@@UAEXAAVCArchive@@@Z PROC		; CObject::Serialize, COMDAT
; _this$ = ecx

; 106  : 	{ /* CObject does not serialize anything by default */ }

  00000	c2 04 00	 ret	 4
?Serialize@CObject@@UAEXAAVCArchive@@@Z ENDP		; CObject::Serialize
_TEXT	ENDS
; Function compile flags: /Ogtp
; File C:\Program Files (x86)\Microsoft Visual Studio\2019\Community\VC\Tools\MSVC\14.29.30133\atlmfc\include\afx.inl
;	COMDAT ??1CObject@@UAE@XZ
_TEXT	SEGMENT
??1CObject@@UAE@XZ PROC					; CObject::~CObject, COMDAT
; _this$ = ecx

; 104  : 	{ }

  00000	c2 00 00	 ret	 0
??1CObject@@UAE@XZ ENDP					; CObject::~CObject
_TEXT	ENDS
; Function compile flags: /Ogtp
; File D:\git\src\IBK\IBK_DRFN\ProjSrc\SrcDrfn\Chart\HWSTRATEGYANALYSIS\TabResult.cpp
;	COMDAT ?__empty_global_delete@@YAXPAXI@Z
_TEXT	SEGMENT
___formal$ = 8						; size = 4
___formal$ = 12						; size = 4
?__empty_global_delete@@YAXPAXI@Z PROC			; __empty_global_delete, COMDAT

  00000	c2 00 00	 ret	 0
?__empty_global_delete@@YAXPAXI@Z ENDP			; __empty_global_delete
_TEXT	ENDS
; Function compile flags: /Ogtp
; File D:\git\src\IBK\IBK_DRFN\ProjSrc\SrcDrfn\Chart\HWSTRATEGYANALYSIS\TabResult.cpp
;	COMDAT ?__empty_global_delete@@YAXPAX@Z
_TEXT	SEGMENT
___formal$ = 8						; size = 4
?__empty_global_delete@@YAXPAX@Z PROC			; __empty_global_delete, COMDAT

  00000	c2 00 00	 ret	 0
?__empty_global_delete@@YAXPAX@Z ENDP			; __empty_global_delete
_TEXT	ENDS
END
