; Listing generated by Microsoft (R) Optimizing Compiler Version 19.29.30145.0 

	TITLE	D:\git\src\IBK\IBK_DRFN\#DRfn-CS\_Obj\HWStrategyAnalysis\TabStep.obj
	.686P
	.XMM
	include listing.inc
	.model	flat

INCLUDELIB MSVCRT
INCLUDELIB OLDNAMES

PUBLIC	??_C@_0P@BKKCOCLK@RMSG_INTERFACE@		; `string'
PUBLIC	??_C@_0BB@GOOPDKI@RMSG_GETPCTRDATA@		; `string'
PUBLIC	??_C@_0BB@JPACFCL@RMSG_SETPCTRDATA@		; `string'
PUBLIC	??_C@_0BE@FJPKENOB@RMSG_GETSIGNAL_REAL@		; `string'
PUBLIC	??_C@_0BB@CNOFPEHG@RMSG_SETQUERYOPT@		; `string'
PUBLIC	??_C@_0P@KHFCBIOH@RMSG_CHARTMAIN@		; `string'
PUBLIC	??_C@_0BC@MMPGLPDH@RMS_ANALYSIS_FUNC@		; `string'
PUBLIC	??_C@_0BA@HKNFENJL@RMSG_GET_USERID@		; `string'
PUBLIC	??_C@_0BG@CNPAHNGG@RMSG_CHANGE_SKINCOLOR@	; `string'
PUBLIC	??_C@_0BD@FLDNDDHK@RMSG_GET_SKINCOLOR@		; `string'
PUBLIC	??_C@_0BJ@JLKHIBIK@RMSG_CHANGEVERTSCALETYPE@	; `string'
PUBLIC	??_C@_0BG@LNLCJKPF@RMSG_CHANGE_CROSSLINE@	; `string'
PUBLIC	??_C@_0BH@IFDMIMBP@RMSG_ADD_PLATFORM_MENU@	; `string'
PUBLIC	??_C@_0BJ@OGNAJHHI@RMSG_SETINITIALCHARTDATA@	; `string'
PUBLIC	??_C@_0N@IIOKMIEH@RMSG_GETINFO@			; `string'
PUBLIC	??_C@_0N@HABLPHJG@RMSG_SETINFO@			; `string'
;	COMDAT ??_C@_0N@HABLPHJG@RMSG_SETINFO@
CONST	SEGMENT
??_C@_0N@HABLPHJG@RMSG_SETINFO@ DB 'RMSG_SETINFO', 00H	; `string'
CONST	ENDS
;	COMDAT ??_C@_0N@IIOKMIEH@RMSG_GETINFO@
CONST	SEGMENT
??_C@_0N@IIOKMIEH@RMSG_GETINFO@ DB 'RMSG_GETINFO', 00H	; `string'
CONST	ENDS
;	COMDAT ??_C@_0BJ@OGNAJHHI@RMSG_SETINITIALCHARTDATA@
CONST	SEGMENT
??_C@_0BJ@OGNAJHHI@RMSG_SETINITIALCHARTDATA@ DB 'RMSG_SETINITIALCHARTDATA'
	DB	00H						; `string'
CONST	ENDS
;	COMDAT ??_C@_0BH@IFDMIMBP@RMSG_ADD_PLATFORM_MENU@
CONST	SEGMENT
??_C@_0BH@IFDMIMBP@RMSG_ADD_PLATFORM_MENU@ DB 'RMSG_ADD_PLATFORM_MENU', 00H ; `string'
CONST	ENDS
;	COMDAT ??_C@_0BG@LNLCJKPF@RMSG_CHANGE_CROSSLINE@
CONST	SEGMENT
??_C@_0BG@LNLCJKPF@RMSG_CHANGE_CROSSLINE@ DB 'RMSG_CHANGE_CROSSLINE', 00H ; `string'
CONST	ENDS
;	COMDAT ??_C@_0BJ@JLKHIBIK@RMSG_CHANGEVERTSCALETYPE@
CONST	SEGMENT
??_C@_0BJ@JLKHIBIK@RMSG_CHANGEVERTSCALETYPE@ DB 'RMSG_CHANGEVERTSCALETYPE'
	DB	00H						; `string'
CONST	ENDS
;	COMDAT ??_C@_0BD@FLDNDDHK@RMSG_GET_SKINCOLOR@
CONST	SEGMENT
??_C@_0BD@FLDNDDHK@RMSG_GET_SKINCOLOR@ DB 'RMSG_GET_SKINCOLOR', 00H ; `string'
CONST	ENDS
;	COMDAT ??_C@_0BG@CNPAHNGG@RMSG_CHANGE_SKINCOLOR@
CONST	SEGMENT
??_C@_0BG@CNPAHNGG@RMSG_CHANGE_SKINCOLOR@ DB 'RMSG_CHANGE_SKINCOLOR', 00H ; `string'
CONST	ENDS
;	COMDAT ??_C@_0BA@HKNFENJL@RMSG_GET_USERID@
CONST	SEGMENT
??_C@_0BA@HKNFENJL@RMSG_GET_USERID@ DB 'RMSG_GET_USERID', 00H ; `string'
CONST	ENDS
;	COMDAT ??_C@_0BC@MMPGLPDH@RMS_ANALYSIS_FUNC@
CONST	SEGMENT
??_C@_0BC@MMPGLPDH@RMS_ANALYSIS_FUNC@ DB 'RMS_ANALYSIS_FUNC', 00H ; `string'
CONST	ENDS
;	COMDAT ??_C@_0P@KHFCBIOH@RMSG_CHARTMAIN@
CONST	SEGMENT
??_C@_0P@KHFCBIOH@RMSG_CHARTMAIN@ DB 'RMSG_CHARTMAIN', 00H ; `string'
CONST	ENDS
;	COMDAT ??_C@_0BB@CNOFPEHG@RMSG_SETQUERYOPT@
CONST	SEGMENT
??_C@_0BB@CNOFPEHG@RMSG_SETQUERYOPT@ DB 'RMSG_SETQUERYOPT', 00H ; `string'
CONST	ENDS
;	COMDAT ??_C@_0BE@FJPKENOB@RMSG_GETSIGNAL_REAL@
CONST	SEGMENT
??_C@_0BE@FJPKENOB@RMSG_GETSIGNAL_REAL@ DB 'RMSG_GETSIGNAL_REAL', 00H ; `string'
CONST	ENDS
;	COMDAT ??_C@_0BB@JPACFCL@RMSG_SETPCTRDATA@
CONST	SEGMENT
??_C@_0BB@JPACFCL@RMSG_SETPCTRDATA@ DB 'RMSG_SETPCTRDATA', 00H ; `string'
CONST	ENDS
;	COMDAT ??_C@_0BB@GOOPDKI@RMSG_GETPCTRDATA@
CONST	SEGMENT
??_C@_0BB@GOOPDKI@RMSG_GETPCTRDATA@ DB 'RMSG_GETPCTRDATA', 00H ; `string'
CONST	ENDS
;	COMDAT ??_C@_0P@BKKCOCLK@RMSG_INTERFACE@
CONST	SEGMENT
??_C@_0P@BKKCOCLK@RMSG_INTERFACE@ DB 'RMSG_INTERFACE', 00H ; `string'
CONST	ENDS
PUBLIC	?__empty_global_delete@@YAXPAX@Z		; __empty_global_delete
PUBLIC	?__empty_global_delete@@YAXPAXI@Z		; __empty_global_delete
PUBLIC	?Serialize@CObject@@UAEXAAVCArchive@@@Z		; CObject::Serialize
PUBLIC	?AssertValid@CObject@@UBEXXZ			; CObject::AssertValid
PUBLIC	?Dump@CObject@@UBEXAAVCDumpContext@@@Z		; CObject::Dump
PUBLIC	?DoDataExchange@CWnd@@MAEXPAVCDataExchange@@@Z	; CWnd::DoDataExchange
PUBLIC	?BeginModalState@CWnd@@UAEXXZ			; CWnd::BeginModalState
PUBLIC	?EndModalState@CWnd@@UAEXXZ			; CWnd::EndModalState
PUBLIC	?Create@CDialog@@UAEHIPAVCWnd@@@Z		; CDialog::Create
PUBLIC	?PreTranslateMessage@CEscDialog@@MAEHPAUtagMSG@@@Z ; CEscDialog::PreTranslateMessage
PUBLIC	?UpdateDlg@CDlgInterface@@UAEXXZ		; CDlgInterface::UpdateDlg
PUBLIC	?SetChartFocus@CDlgInterface@@UAEXH@Z		; CDlgInterface::SetChartFocus
PUBLIC	?GuganBtnUpdate@CDlgInterface@@UAEXXZ		; CDlgInterface::GuganBtnUpdate
PUBLIC	??1CDlgInterface@@UAE@XZ			; CDlgInterface::~CDlgInterface
PUBLIC	??0CTabStep@@QAE@PAVCWnd@@@Z			; CTabStep::CTabStep
PUBLIC	?DoDataExchange@CTabStep@@MAEXPAVCDataExchange@@@Z ; CTabStep::DoDataExchange
PUBLIC	?OnInitDialog@CTabStep@@MAEHXZ			; CTabStep::OnInitDialog
PUBLIC	?OnDestroy@CTabStep@@IAEXXZ			; CTabStep::OnDestroy
PUBLIC	?GetThisMessageMap@CTabStep@@KGPBUAFX_MSGMAP@@XZ ; CTabStep::GetThisMessageMap
PUBLIC	?GetMessageMap@CTabStep@@MBEPBUAFX_MSGMAP@@XZ	; CTabStep::GetMessageMap
PUBLIC	?OpenWebView@CTabStep@@QAEXV?$CStringT@DV?$StrTraitMFC_DLL@DV?$ChTraitsCRT@D@ATL@@@@@ATL@@@Z ; CTabStep::OpenWebView
PUBLIC	?MakeHtmlFile@CTabStep@@QAEXXZ			; CTabStep::MakeHtmlFile
PUBLIC	?InitHtml@CTabStep@@QAEXXZ			; CTabStep::InitHtml
PUBLIC	?ParsingstrHtml@CTabStep@@QAE?AV?$CStringT@DV?$StrTraitMFC_DLL@DV?$ChTraitsCRT@D@ATL@@@@@ATL@@V23@@Z ; CTabStep::ParsingstrHtml
PUBLIC	?InitGrid@CTabStep@@QAEXXZ			; CTabStep::InitGrid
PUBLIC	?SetDataSpreadGrid@CTabStep@@QAEXXZ		; CTabStep::SetDataSpreadGrid
PUBLIC	??_GCTabStep@@UAEPAXI@Z				; CTabStep::`scalar deleting destructor'
PUBLIC	??_C@_00CNPNBAHC@@				; `string'
PUBLIC	??_C@_01HIHLOKLC@1@				; `string'
PUBLIC	??_R0?AVCObject@@@8				; CObject `RTTI Type Descriptor'
PUBLIC	??_R3CObject@@8					; CObject::`RTTI Class Hierarchy Descriptor'
PUBLIC	??_R2CObject@@8					; CObject::`RTTI Base Class Array'
PUBLIC	??_R1A@?0A@EA@CObject@@8			; CObject::`RTTI Base Class Descriptor at (0,-1,0,64)'
PUBLIC	??_R1A@?0A@EA@CWnd@@8				; CWnd::`RTTI Base Class Descriptor at (0,-1,0,64)'
PUBLIC	??_R0?AVCWnd@@@8				; CWnd `RTTI Type Descriptor'
PUBLIC	??_R3CWnd@@8					; CWnd::`RTTI Class Hierarchy Descriptor'
PUBLIC	??_R2CWnd@@8					; CWnd::`RTTI Base Class Array'
PUBLIC	??_R1A@?0A@EA@CCmdTarget@@8			; CCmdTarget::`RTTI Base Class Descriptor at (0,-1,0,64)'
PUBLIC	??_R0?AVCCmdTarget@@@8				; CCmdTarget `RTTI Type Descriptor'
PUBLIC	??_R3CCmdTarget@@8				; CCmdTarget::`RTTI Class Hierarchy Descriptor'
PUBLIC	??_R2CCmdTarget@@8				; CCmdTarget::`RTTI Base Class Array'
PUBLIC	??_R1A@?0A@EA@CDialog@@8			; CDialog::`RTTI Base Class Descriptor at (0,-1,0,64)'
PUBLIC	??_R0?AVCDialog@@@8				; CDialog `RTTI Type Descriptor'
PUBLIC	??_R3CDialog@@8					; CDialog::`RTTI Class Hierarchy Descriptor'
PUBLIC	??_R2CDialog@@8					; CDialog::`RTTI Base Class Array'
PUBLIC	??_R0?AVCEscDialog@@@8				; CEscDialog `RTTI Type Descriptor'
PUBLIC	??_R3CEscDialog@@8				; CEscDialog::`RTTI Class Hierarchy Descriptor'
PUBLIC	??_R2CEscDialog@@8				; CEscDialog::`RTTI Base Class Array'
PUBLIC	??_R1A@?0A@EA@CEscDialog@@8			; CEscDialog::`RTTI Base Class Descriptor at (0,-1,0,64)'
PUBLIC	??_7CTabStep@@6B@				; CTabStep::`vftable'
PUBLIC	??_C@_02JINPPBEP@No@				; `string'
PUBLIC	??_C@_04IFENPBOK@?$LB?$LI?$LK?P@		; `string'
PUBLIC	??_C@_04MHOBIAIL@?$MA?$PM?C?$LM@		; `string'
PUBLIC	??_C@_01FDFGLJHB@2@				; `string'
PUBLIC	??_C@_01EKENIIDA@3@				; `string'
PUBLIC	??_C@_01FAMBOPH@4@				; `string'
PUBLIC	??_C@_01BMBHCPLG@5@				; `string'
PUBLIC	??_C@_01DHDKHMHF@6@				; `string'
PUBLIC	??_C@_01COCBENDE@7@				; `string'
PUBLIC	??_C@_01KJLJFBPL@8@				; `string'
PUBLIC	??_C@_01LAKCGALK@9@				; `string'
PUBLIC	??_C@_02PKFBJPLJ@10@				; `string'
PUBLIC	??_C@_0L@FJFCOKJ@?$LE?$KJ?$MA?$PL?$LM?v?$MA?M?$LH?$PM@ ; `string'
PUBLIC	??_C@_0P@JJNKLJJO@?$LA?G?$LK?$LA?F?r?$LB?U?$LM?v?$MA?M?$LH?$PM@ ; `string'
PUBLIC	??_C@_06GNECPJOA@?C?Q?$LM?U?$MA?M@		; `string'
PUBLIC	??_C@_06HMHBOMDL@?C?Q?$MA?L?$MA?M@		; `string'
PUBLIC	??_C@_06MLIEOKGJ@?C?Q?$LM?U?$LN?G@		; `string'
PUBLIC	??_C@_0O@KHPIEGBI@?C?Q?$MA?L?$MA?M?1?C?Q?$LM?U?$LN?G@ ; `string'
PUBLIC	??_C@_08MKACKNJD@?C?V?$LE?k?$MA?L?$MA?M@	; `string'
PUBLIC	??_C@_08HNPHKLMB@?C?V?$LE?k?$LM?U?$LN?G@	; `string'
PUBLIC	??_C@_06KFFIADGF@?C?Q?A?x?$MA?T@		; `string'
PUBLIC	??_C@_0BB@NJCLLDAP@?$LJ?L?C?$LL?$LL?j?F?w?G?T?C?Q?C?$LL?$LL?j@ ; `string'
PUBLIC	??_C@_08OPDCDADA@?C?Q?$LI?E?$LI?E?$LM?v@	; `string'
PUBLIC	??_C@_0O@CIHDHIEL@?$MA?L?$MA?M?$LM?v?1?$LM?U?$LN?G?$LM?v@ ; `string'
PUBLIC	??_C@_0L@OFFEDCHL@?$LB?b?$LA?$KD?$LF?n?$LG?t?$LH?$PM@ ; `string'
PUBLIC	??_C@_0P@HMJADPNA@?$MA?$PM?$LH?$KL?C?J?$LA?z?$LM?v?$MA?M?$LH?$PM@ ; `string'
PUBLIC	??_C@_0L@IJLGNGBO@?$LB?b?$LA?$KD?B?$PM?$LP?$KJ?$MA?$LC@ ; `string'
PUBLIC	??_C@_04GHNNFJCK@?$CF?40f@			; `string'
PUBLIC	??_C@_04GEFJINEE@?$CF?42f@			; `string'
PUBLIC	??_C@_01GBGANLPD@0@				; `string'
PUBLIC	??_C@_01FGNFDNOH@?$CF@				; `string'
PUBLIC	??_C@_04CHDNLKJE@APR0@				; `string'
PUBLIC	??_C@_04MMBMFOAA@AAP0@				; `string'
PUBLIC	??_C@_04JGHGJOCP@TLP0@				; `string'
PUBLIC	??_C@_04JEBCKJMK@TPF0@				; `string'
PUBLIC	??_C@_04JFPCEKEB@TLR0@				; `string'
PUBLIC	??_C@_04ENCEJID@TTT0@				; `string'
PUBLIC	??_C@_04PJOCFMDJ@MPF0@				; `string'
PUBLIC	??_C@_04PJMANFIF@MLS0@				; `string'
PUBLIC	??_C@_04OIPKAFML@TER0@				; `string'
PUBLIC	??_C@_04NNOCBGIG@TCI0@				; `string'
PUBLIC	??_C@_04BFGDGPCF@TTN0@				; `string'
PUBLIC	??_C@_04HFEOLGJF@PLN0@				; `string'
PUBLIC	??_C@_04GIAIKLEI@PSR0@				; `string'
PUBLIC	??_C@_04DFGHDJLP@SOR0@				; `string'
PUBLIC	??_C@_04HKLNAEKG@PPR0@				; `string'
PUBLIC	??_C@_04DOCGILNF@APR1@				; `string'
PUBLIC	??_C@_04NFAHGPEB@AAP1@				; `string'
PUBLIC	??_C@_04IPGNKPGO@TLP1@				; `string'
PUBLIC	??_C@_04INAJJIIL@TPF1@				; `string'
PUBLIC	??_C@_04IMOJHLAA@TLR1@				; `string'
PUBLIC	??_C@_04BNMJHIMC@TTT1@				; `string'
PUBLIC	??_C@_04OAPJGNHI@MPF1@				; `string'
PUBLIC	??_C@_04OANLOEME@MLS1@				; `string'
PUBLIC	??_C@_04PBOBDEIK@TER1@				; `string'
PUBLIC	??_C@_04MEPJCHMH@TCI1@				; `string'
PUBLIC	??_C@_04MHIFOGE@TTN1@				; `string'
PUBLIC	??_C@_04GMFFIHNE@PLN1@				; `string'
PUBLIC	??_C@_04HBBDJKAJ@PSR1@				; `string'
PUBLIC	??_C@_04CMHMAIPO@SOR1@				; `string'
PUBLIC	??_C@_04GDKGDFOH@PPR1@				; `string'
PUBLIC	??_C@_04BFALNIBG@APR2@				; `string'
PUBLIC	??_C@_04POCKDMIC@AAP2@				; `string'
PUBLIC	??_C@_04KEEAPMKN@TLP2@				; `string'
PUBLIC	??_C@_04KGCEMLEI@TPF2@				; `string'
PUBLIC	??_C@_04KHMECIMD@TLR2@				; `string'
PUBLIC	??_C@_04DGOECLAB@TTT2@				; `string'
PUBLIC	??_C@_04MLNEDOLL@MPF2@				; `string'
PUBLIC	??_C@_04MLPGLHAH@MLS2@				; `string'
PUBLIC	??_C@_04NKMMGHEJ@TER2@				; `string'
PUBLIC	??_C@_04OPNEHEAE@TCI2@				; `string'
PUBLIC	??_C@_04CHFFANKH@TTN2@				; `string'
PUBLIC	??_C@_04EHHINEBH@PLN2@				; `string'
PUBLIC	??_C@_04FKDOMJMK@PSR2@				; `string'
PUBLIC	??_C@_04HFBFLDN@SOR2@				; `string'
PUBLIC	??_C@_04EIILGGCE@PPR2@				; `string'
PUBLIC	??_C@_04MBAOJFH@APR3@				; `string'
PUBLIC	??_C@_04OHDBANMD@AAP3@				; `string'
PUBLIC	??_C@_04LNFLMNOM@TLP3@				; `string'
PUBLIC	??_C@_04LPDPPKAJ@TPF3@				; `string'
PUBLIC	??_C@_04LONPBJIC@TLR3@				; `string'
PUBLIC	??_C@_04CPPPBKEA@TTT3@				; `string'
PUBLIC	??_C@_04NCMPAPPK@MPF3@				; `string'
PUBLIC	??_C@_04NCONIGEG@MLS3@				; `string'
PUBLIC	??_C@_04MDNHFGAI@TER3@				; `string'
PUBLIC	??_C@_04PGMPEFEF@TCI3@				; `string'
PUBLIC	??_C@_04DOEODMOG@TTN3@				; `string'
PUBLIC	??_C@_04FOGDOFFG@PLN3@				; `string'
PUBLIC	??_C@_04EDCFPIIL@PSR3@				; `string'
PUBLIC	??_C@_04BOEKGKHM@SOR3@				; `string'
PUBLIC	??_C@_04FBJAFHGF@PPR3@				; `string'
PUBLIC	??_C@_04EDFBHPJA@APR4@				; `string'
PUBLIC	??_C@_04KIHAJLAE@AAP4@				; `string'
PUBLIC	??_C@_04PCBKFLCL@TLP4@				; `string'
PUBLIC	??_C@_04PAHOGMMO@TPF4@				; `string'
PUBLIC	??_C@_04PBJOIPEF@TLR4@				; `string'
PUBLIC	??_C@_04GALOIMIH@TTT4@				; `string'
PUBLIC	??_C@_04JNIOJJDN@MPF4@				; `string'
PUBLIC	??_C@_04JNKMBAIB@MLS4@				; `string'
PUBLIC	??_C@_04IMJGMAMP@TER4@				; `string'
PUBLIC	??_C@_04LJIONDIC@TCI4@				; `string'
PUBLIC	??_C@_04HBAPKKCB@TTN4@				; `string'
PUBLIC	??_C@_04BBCCHDJB@PLN4@				; `string'
PUBLIC	??_C@_04MGEGOEM@PSR4@				; `string'
PUBLIC	??_C@_04FBALPMLL@SOR4@				; `string'
PUBLIC	??_C@_04BONBMBKC@PPR4@				; `string'
PUBLIC	??_C@_04FKEKEONB@APR5@				; `string'
PUBLIC	??_C@_04LBGLKKEF@AAP5@				; `string'
PUBLIC	??_C@_04OLABGKGK@TLP5@				; `string'
PUBLIC	??_C@_04OJGFFNIP@TPF5@				; `string'
PUBLIC	??_C@_04OIIFLOAE@TLR5@				; `string'
PUBLIC	??_C@_04HJKFLNMG@TTT5@				; `string'
PUBLIC	??_C@_04IEJFKIHM@MPF5@				; `string'
PUBLIC	??_C@_04IELHCBMA@MLS5@				; `string'
PUBLIC	??_C@_04JFINPBIO@TER5@				; `string'
PUBLIC	??_C@_04KAJFOCMD@TCI5@				; `string'
PUBLIC	??_C@_04GIBEJLGA@TTN5@				; `string'
PUBLIC	??_C@_04IDJECNA@PLN5@				; `string'
PUBLIC	??_C@_04BFHPFPAN@PSR5@				; `string'
PUBLIC	??_C@_04EIBAMNPK@SOR5@				; `string'
PUBLIC	??_C@_04HMKPAOD@PPR5@				; `string'
PUBLIC	??_C@_04HBGHBNBC@APR6@				; `string'
PUBLIC	??_C@_04JKEGPJIG@AAP6@				; `string'
PUBLIC	??_C@_04MACMDJKJ@TLP6@				; `string'
PUBLIC	??_C@_04MCEIAOEM@TPF6@				; `string'
PUBLIC	??_C@_04MDKIONMH@TLR6@				; `string'
PUBLIC	??_C@_04FCIIOOAF@TTT6@				; `string'
PUBLIC	??_C@_04KPLIPLLP@MPF6@				; `string'
PUBLIC	??_C@_04KPJKHCAD@MLS6@				; `string'
PUBLIC	??_C@_04LOKAKCEN@TER6@				; `string'
PUBLIC	??_C@_04ILLILBAA@TCI6@				; `string'
PUBLIC	??_C@_04EDDJMIKD@TTN6@				; `string'
PUBLIC	??_C@_04CDBEBBBD@PLN6@				; `string'
PUBLIC	??_C@_04DOFCAMMO@PSR6@				; `string'
PUBLIC	??_C@_04GDDNJODJ@SOR6@				; `string'
PUBLIC	??_C@_04CMOHKDCA@PPR6@				; `string'
PUBLIC	??_C@_04GIHMCMFD@APR7@				; `string'
PUBLIC	??_C@_04IDFNMIMH@AAP7@				; `string'
PUBLIC	??_C@_04NJDHAIOI@TLP7@				; `string'
PUBLIC	??_C@_04NLFDDPAN@TPF7@				; `string'
PUBLIC	??_C@_04NKLDNMIG@TLR7@				; `string'
PUBLIC	??_C@_04ELJDNPEE@TTT7@				; `string'
PUBLIC	??_C@_04LGKDMKPO@MPF7@				; `string'
PUBLIC	??_C@_04LGIBEDEC@MLS7@				; `string'
PUBLIC	??_C@_04KHLLJDAM@TER7@				; `string'
PUBLIC	??_C@_04JCKDIAEB@TCI7@				; `string'
PUBLIC	??_C@_04FKCCPJOC@TTN7@				; `string'
PUBLIC	??_C@_04DKAPCAFC@PLN7@				; `string'
PUBLIC	??_C@_04CHEJDNIP@PSR7@				; `string'
PUBLIC	??_C@_04HKCGKPHI@SOR7@				; `string'
PUBLIC	??_C@_04DFPMJCGB@PPR7@				; `string'
PUBLIC	??_C@_04OPOEDAJM@APR8@				; `string'
PUBLIC	??_C@_04EMFNEAI@AAP8@				; `string'
PUBLIC	??_C@_04FOKPBECH@TLP8@				; `string'
PUBLIC	??_C@_04FMMLCDMC@TPF8@				; `string'
PUBLIC	??_C@_04FNCLMAEJ@TLR8@				; `string'
PUBLIC	??_C@_04MMALMDIL@TTT8@				; `string'
PUBLIC	??_C@_04DBDLNGDB@MPF8@				; `string'
PUBLIC	??_C@_04DBBJFPIN@MLS8@				; `string'
PUBLIC	??_C@_04CACDIPMD@TER8@				; `string'
PUBLIC	??_C@_04BFDLJMIO@TCI8@				; `string'
PUBLIC	??_C@_04NNLKOFCN@TTN8@				; `string'
PUBLIC	??_C@_04LNJHDMJN@PLN8@				; `string'
PUBLIC	??_C@_04KANBCBEA@PSR8@				; `string'
PUBLIC	??_C@_04PNLOLDLH@SOR8@				; `string'
PUBLIC	??_C@_04LCGEIOKO@PPR8@				; `string'
PUBLIC	??_C@_04PGPPABNN@APR9@				; `string'
PUBLIC	??_C@_04BNNOOFEJ@AAP9@				; `string'
PUBLIC	??_C@_04EHLECFGG@TLP9@				; `string'
PUBLIC	??_C@_04EFNABCID@TPF9@				; `string'
PUBLIC	??_C@_04EEDAPBAI@TLR9@				; `string'
PUBLIC	??_C@_04NFBAPCMK@TTT9@				; `string'
PUBLIC	??_C@_04CICAOHHA@MPF9@				; `string'
PUBLIC	??_C@_04CIACGOMM@MLS9@				; `string'
PUBLIC	??_C@_04DJDILOIC@TER9@				; `string'
PUBLIC	??_C@_04MCAKNMP@TCI9@				; `string'
PUBLIC	??_C@_04MEKBNEGM@TTN9@				; `string'
PUBLIC	??_C@_04KEIMANNM@PLN9@				; `string'
PUBLIC	??_C@_04LJMKBAAB@PSR9@				; `string'
PUBLIC	??_C@_04OEKFICPG@SOR9@				; `string'
PUBLIC	??_C@_04KLHPLPOP@PPR9@				; `string'
PUBLIC	??_C@_06DPLPBNAH@APRTen@			; `string'
PUBLIC	??_C@_06INPFJPFJ@AAPTen@			; `string'
PUBLIC	??_C@_06EINDPOO@TLPTen@				; `string'
PUBLIC	??_C@_06JPDJJPCM@TPFTen@			; `string'
PUBLIC	??_C@_06HOENGMIO@TLRTen@			; `string'
PUBLIC	??_C@_06BOIIBJNI@TTTTen@			; `string'
PUBLIC	??_C@_06GNHPEGDB@MPFTen@			; `string'
PUBLIC	??_C@_06LBGLJMCD@MLSTen@			; `string'
PUBLIC	??_C@_06FJECDNEG@TERTen@			; `string'
PUBLIC	??_C@_06JICLHIMI@TCITen@			; `string'
PUBLIC	??_C@_06DENIJGPL@TTNTen@			; `string'
PUBLIC	??_C@_06CPBCDCBO@PLNTen@			; `string'
PUBLIC	??_C@_06HIICPIND@PSRTen@			; `string'
PUBLIC	??_C@_06DNHOCAKO@SORTen@			; `string'
PUBLIC	??_C@_06POBGIKHN@PPRTen@			; `string'
PUBLIC	??_C@_01JOAMLHOP@?9@				; `string'
PUBLIC	??_C@_0M@JHFKGMBK@?5Color?$DNBLUE@		; `string'
PUBLIC	??_C@_02KNHHEEKP@?5?5@				; `string'
PUBLIC	??_C@_0BF@DJJBNDDF@?2?$LK?$LI?$LA?m?$LM?$KN?9?$MA?$PM?A?x?$LK?P?$LM?$KO?4htm@ ; `string'
PUBLIC	??_C@_0BJ@EJHFGNNM@Do?5Not?5Create?5Html?5File?4@ ; `string'
PUBLIC	??_C@_0O@NLCHHJFD@color?$DN?$CCwhite?$CC@	; `string'
PUBLIC	??_R4CTabStep@@6B@				; CTabStep::`RTTI Complete Object Locator'
PUBLIC	??_R0?AVCTabStep@@@8				; CTabStep `RTTI Type Descriptor'
PUBLIC	??_R3CTabStep@@8				; CTabStep::`RTTI Class Hierarchy Descriptor'
PUBLIC	??_R2CTabStep@@8				; CTabStep::`RTTI Base Class Array'
PUBLIC	??_R1A@?0A@EA@CTabStep@@8			; CTabStep::`RTTI Base Class Descriptor at (0,-1,0,64)'
PUBLIC	??_R1A@?0A@EA@CDlgInterface@@8			; CDlgInterface::`RTTI Base Class Descriptor at (0,-1,0,64)'
PUBLIC	??_R0?AVCDlgInterface@@@8			; CDlgInterface `RTTI Type Descriptor'
PUBLIC	??_R3CDlgInterface@@8				; CDlgInterface::`RTTI Class Hierarchy Descriptor'
PUBLIC	??_R2CDlgInterface@@8				; CDlgInterface::`RTTI Base Class Array'
EXTRN	??_M@YGXPAXIIP6EX0@Z@Z:PROC			; `eh vector destructor iterator'
EXTRN	??3@YAXPAX@Z:PROC				; operator delete
EXTRN	?__global_delete@@YAXPAXI@Z:PROC		; __global_delete
EXTRN	__imp__RegisterWindowMessageA@4:PROC
EXTRN	__imp__SendMessageA@16:PROC
EXTRN	__imp__GetKeyState@4:PROC
EXTRN	__imp__EnableWindow@8:PROC
EXTRN	__imp__GetClientRect@8:PROC
EXTRN	__imp__GetParent@4:PROC
EXTRN	?AfxThrowInvalidArgException@@YGXXZ:PROC	; AfxThrowInvalidArgException
EXTRN	__imp_?Concatenate@?$CSimpleStringT@D$00@ATL@@KAXAAV12@PBDH1H@Z:PROC
EXTRN	__imp_??0?$CStringT@DV?$StrTraitMFC_DLL@DV?$ChTraitsCRT@D@ATL@@@@@ATL@@QAE@XZ:PROC
EXTRN	__imp_??0?$CStringT@DV?$StrTraitMFC_DLL@DV?$ChTraitsCRT@D@ATL@@@@@ATL@@QAE@PAUIAtlStringMgr@1@@Z:PROC
EXTRN	__imp_??0?$CStringT@DV?$StrTraitMFC_DLL@DV?$ChTraitsCRT@D@ATL@@@@@ATL@@QAE@ABV01@@Z:PROC
EXTRN	__imp_??0?$CStringT@DV?$StrTraitMFC_DLL@DV?$ChTraitsCRT@D@ATL@@@@@ATL@@QAE@PBD@Z:PROC
EXTRN	__imp_??1?$CStringT@DV?$StrTraitMFC_DLL@DV?$ChTraitsCRT@D@ATL@@@@@ATL@@QAE@XZ:PROC
EXTRN	__imp_??4?$CStringT@DV?$StrTraitMFC_DLL@DV?$ChTraitsCRT@D@ATL@@@@@ATL@@QAEAAV01@ABV01@@Z:PROC
EXTRN	__imp_??Y?$CStringT@DV?$StrTraitMFC_DLL@DV?$ChTraitsCRT@D@ATL@@@@@ATL@@QAEAAV01@ABV?$CSimpleStringT@D$00@1@@Z:PROC
EXTRN	__imp_?GetManager@?$CStringT@DV?$StrTraitMFC_DLL@DV?$ChTraitsCRT@D@ATL@@@@@ATL@@QBEPAUIAtlStringMgr@2@XZ:PROC
EXTRN	__imp_?Compare@?$CStringT@DV?$StrTraitMFC_DLL@DV?$ChTraitsCRT@D@ATL@@@@@ATL@@QBEHPBD@Z:PROC
EXTRN	__imp_?Insert@?$CStringT@DV?$StrTraitMFC_DLL@DV?$ChTraitsCRT@D@ATL@@@@@ATL@@QAEHHPBD@Z:PROC
EXTRN	__imp_?Replace@?$CStringT@DV?$StrTraitMFC_DLL@DV?$ChTraitsCRT@D@ATL@@@@@ATL@@QAEHPBD0@Z:PROC
EXTRN	__imp_?Find@?$CStringT@DV?$StrTraitMFC_DLL@DV?$ChTraitsCRT@D@ATL@@@@@ATL@@QBEHPBDH@Z:PROC
EXTRN	__imp_?Format@?$CStringT@DV?$StrTraitMFC_DLL@DV?$ChTraitsCRT@D@ATL@@@@@ATL@@QAAXPBDZZ:PROC
EXTRN	??0CStdioFile@@QAE@XZ:PROC			; CStdioFile::CStdioFile
EXTRN	?ReadString@CStdioFile@@UAEHAAV?$CStringT@DV?$StrTraitMFC_DLL@DV?$ChTraitsCRT@D@ATL@@@@@ATL@@@Z:PROC ; CStdioFile::ReadString
EXTRN	??1CStdioFile@@UAE@XZ:PROC			; CStdioFile::~CStdioFile
EXTRN	?Open@CStdioFile@@UAEHPBDIPAVCFileException@@@Z:PROC ; CStdioFile::Open
EXTRN	?Close@CStdioFile@@UAEXXZ:PROC			; CStdioFile::Close
EXTRN	??0CStringArray@@QAE@XZ:PROC			; CStringArray::CStringArray
EXTRN	?SetAtGrow@CStringArray@@QAEXHABV?$CStringT@DV?$StrTraitMFC_DLL@DV?$ChTraitsCRT@D@ATL@@@@@ATL@@@Z:PROC ; CStringArray::SetAtGrow
EXTRN	??1CStringArray@@UAE@XZ:PROC			; CStringArray::~CStringArray
EXTRN	?AfxGetModuleState@@YGPAVAFX_MODULE_STATE@@XZ:PROC ; AfxGetModuleState
EXTRN	?IsInvokeAllowed@CCmdTarget@@UAEHJ@Z:PROC	; CCmdTarget::IsInvokeAllowed
EXTRN	?GetDispatchIID@CCmdTarget@@UAEHPAU_GUID@@@Z:PROC ; CCmdTarget::GetDispatchIID
EXTRN	?GetTypeInfoCount@CCmdTarget@@UAEIXZ:PROC	; CCmdTarget::GetTypeInfoCount
EXTRN	?GetTypeLibCache@CCmdTarget@@UAEPAVCTypeLibCache@@XZ:PROC ; CCmdTarget::GetTypeLibCache
EXTRN	?GetTypeLib@CCmdTarget@@UAEJKPAPAUITypeLib@@@Z:PROC ; CCmdTarget::GetTypeLib
EXTRN	?GetCommandMap@CCmdTarget@@MBEPBUAFX_OLECMDMAP@@XZ:PROC ; CCmdTarget::GetCommandMap
EXTRN	?GetDispatchMap@CCmdTarget@@MBEPBUAFX_DISPMAP@@XZ:PROC ; CCmdTarget::GetDispatchMap
EXTRN	?GetConnectionMap@CCmdTarget@@MBEPBUAFX_CONNECTIONMAP@@XZ:PROC ; CCmdTarget::GetConnectionMap
EXTRN	?GetEventSinkMap@CCmdTarget@@MBEPBUAFX_EVENTSINKMAP@@XZ:PROC ; CCmdTarget::GetEventSinkMap
EXTRN	?OnCreateAggregates@CCmdTarget@@UAEHXZ:PROC	; CCmdTarget::OnCreateAggregates
EXTRN	?GetInterfaceHook@CCmdTarget@@UAEPAUIUnknown@@PBX@Z:PROC ; CCmdTarget::GetInterfaceHook
EXTRN	?GetExtraConnectionPoints@CCmdTarget@@MAEHPAVCPtrArray@@@Z:PROC ; CCmdTarget::GetExtraConnectionPoints
EXTRN	?GetConnectionHook@CCmdTarget@@MAEPAUIConnectionPoint@@ABU_GUID@@@Z:PROC ; CCmdTarget::GetConnectionHook
EXTRN	?FromHandle@CWnd@@SGPAV1@PAUHWND__@@@Z:PROC	; CWnd::FromHandle
EXTRN	?PreSubclassWindow@CWnd@@UAEXXZ:PROC		; CWnd::PreSubclassWindow
EXTRN	?Create@CWnd@@UAEHPBD0KABUtagRECT@@PAV1@IPAUCCreateContext@@@Z:PROC ; CWnd::Create
EXTRN	?CreateEx@CWnd@@UAEHKPBD0KHHHHPAUHWND__@@PAUHMENU__@@PAX@Z:PROC ; CWnd::CreateEx
EXTRN	?CreateEx@CWnd@@UAEHKPBD0KABUtagRECT@@PAV1@IPAX@Z:PROC ; CWnd::CreateEx
EXTRN	?DestroyWindow@CWnd@@UAEHXZ:PROC		; CWnd::DestroyWindow
EXTRN	?PreCreateWindow@CWnd@@UAEHAAUtagCREATESTRUCTA@@@Z:PROC ; CWnd::PreCreateWindow
EXTRN	?CalcWindowRect@CWnd@@UAEXPAUtagRECT@@I@Z:PROC	; CWnd::CalcWindowRect
EXTRN	?GetMenu@CWnd@@UBEPAVCMenu@@XZ:PROC		; CWnd::GetMenu
EXTRN	?SetMenu@CWnd@@UAEHPAVCMenu@@@Z:PROC		; CWnd::SetMenu
EXTRN	?OnToolHitTest@CWnd@@UBEHVCPoint@@PAUtagTOOLINFOA@@@Z:PROC ; CWnd::OnToolHitTest
EXTRN	?GetScrollBarCtrl@CWnd@@UBEPAVCScrollBar@@H@Z:PROC ; CWnd::GetScrollBarCtrl
EXTRN	?WinHelpA@CWnd@@UAEXKI@Z:PROC			; CWnd::WinHelpA
EXTRN	?HtmlHelpA@CWnd@@UAEXKI@Z:PROC			; CWnd::HtmlHelpA
EXTRN	?WinHelpInternal@CWnd@@UAEXKI@Z:PROC		; CWnd::WinHelpInternal
EXTRN	?ContinueModal@CWnd@@UAEHXZ:PROC		; CWnd::ContinueModal
EXTRN	?EndModalLoop@CWnd@@UAEXH@Z:PROC		; CWnd::EndModalLoop
EXTRN	?OnDrawIconicThumbnailOrLivePreview@CWnd@@UAEXAAVCDC@@VCRect@@VCSize@@HAAH@Z:PROC ; CWnd::OnDrawIconicThumbnailOrLivePreview
EXTRN	?GetInterfaceMap@CWnd@@MBEPBUAFX_INTERFACEMAP@@XZ:PROC ; CWnd::GetInterfaceMap
EXTRN	?EnsureStdObj@CWnd@@UAEJXZ:PROC			; CWnd::EnsureStdObj
EXTRN	?get_accParent@CWnd@@UAEJPAPAUIDispatch@@@Z:PROC ; CWnd::get_accParent
EXTRN	?get_accChildCount@CWnd@@UAEJPAJ@Z:PROC		; CWnd::get_accChildCount
EXTRN	?get_accChild@CWnd@@UAEJUtagVARIANT@@PAPAUIDispatch@@@Z:PROC ; CWnd::get_accChild
EXTRN	?get_accName@CWnd@@UAEJUtagVARIANT@@PAPA_W@Z:PROC ; CWnd::get_accName
EXTRN	?get_accValue@CWnd@@UAEJUtagVARIANT@@PAPA_W@Z:PROC ; CWnd::get_accValue
EXTRN	?get_accDescription@CWnd@@UAEJUtagVARIANT@@PAPA_W@Z:PROC ; CWnd::get_accDescription
EXTRN	?get_accRole@CWnd@@UAEJUtagVARIANT@@PAU2@@Z:PROC ; CWnd::get_accRole
EXTRN	?get_accState@CWnd@@UAEJUtagVARIANT@@PAU2@@Z:PROC ; CWnd::get_accState
EXTRN	?get_accHelp@CWnd@@UAEJUtagVARIANT@@PAPA_W@Z:PROC ; CWnd::get_accHelp
EXTRN	?get_accHelpTopic@CWnd@@UAEJPAPA_WUtagVARIANT@@PAJ@Z:PROC ; CWnd::get_accHelpTopic
EXTRN	?get_accKeyboardShortcut@CWnd@@UAEJUtagVARIANT@@PAPA_W@Z:PROC ; CWnd::get_accKeyboardShortcut
EXTRN	?get_accFocus@CWnd@@UAEJPAUtagVARIANT@@@Z:PROC	; CWnd::get_accFocus
EXTRN	?get_accSelection@CWnd@@UAEJPAUtagVARIANT@@@Z:PROC ; CWnd::get_accSelection
EXTRN	?get_accDefaultAction@CWnd@@UAEJUtagVARIANT@@PAPA_W@Z:PROC ; CWnd::get_accDefaultAction
EXTRN	?accSelect@CWnd@@UAEJJUtagVARIANT@@@Z:PROC	; CWnd::accSelect
EXTRN	?accLocation@CWnd@@UAEJPAJ000UtagVARIANT@@@Z:PROC ; CWnd::accLocation
EXTRN	?accNavigate@CWnd@@UAEJJUtagVARIANT@@PAU2@@Z:PROC ; CWnd::accNavigate
EXTRN	?accHitTest@CWnd@@UAEJJJPAUtagVARIANT@@@Z:PROC	; CWnd::accHitTest
EXTRN	?accDoDefaultAction@CWnd@@UAEJUtagVARIANT@@@Z:PROC ; CWnd::accDoDefaultAction
EXTRN	?put_accName@CWnd@@UAEJUtagVARIANT@@PA_W@Z:PROC	; CWnd::put_accName
EXTRN	?put_accValue@CWnd@@UAEJUtagVARIANT@@PA_W@Z:PROC ; CWnd::put_accValue
EXTRN	?SetProxy@CWnd@@UAEJPAUIAccessibleProxy@@@Z:PROC ; CWnd::SetProxy
EXTRN	?CreateAccessibleProxy@CWnd@@UAEJIJPAJ@Z:PROC	; CWnd::CreateAccessibleProxy
EXTRN	?OnCommand@CWnd@@MAEHIJ@Z:PROC			; CWnd::OnCommand
EXTRN	?OnNotify@CWnd@@MAEHIJPAJ@Z:PROC		; CWnd::OnNotify
EXTRN	?OnDestroy@CWnd@@IAEXXZ:PROC			; CWnd::OnDestroy
EXTRN	?GetSuperWndProcAddr@CWnd@@MAEPAP6GJPAUHWND__@@IIJ@ZXZ:PROC ; CWnd::GetSuperWndProcAddr
EXTRN	?OnAmbientProperty@CWnd@@UAEHPAVCOleControlSite@@JPAUtagVARIANT@@@Z:PROC ; CWnd::OnAmbientProperty
EXTRN	?WindowProc@CWnd@@MAEJIIJ@Z:PROC		; CWnd::WindowProc
EXTRN	?OnWndMsg@CWnd@@MAEHIIJPAJ@Z:PROC		; CWnd::OnWndMsg
EXTRN	?DefWindowProcA@CWnd@@MAEJIIJ@Z:PROC		; CWnd::DefWindowProcA
EXTRN	?PostNcDestroy@CWnd@@MAEXXZ:PROC		; CWnd::PostNcDestroy
EXTRN	?OnChildNotify@CWnd@@MAEHIIJPAJ@Z:PROC		; CWnd::OnChildNotify
EXTRN	?OnTouchInputs@CWnd@@MAEHIPAUtagTOUCHINPUT@@@Z:PROC ; CWnd::OnTouchInputs
EXTRN	?OnTouchInput@CWnd@@MAEHVCPoint@@HHPAUtagTOUCHINPUT@@@Z:PROC ; CWnd::OnTouchInput
EXTRN	?GetGestureStatus@CWnd@@MAEKVCPoint@@@Z:PROC	; CWnd::GetGestureStatus
EXTRN	?OnGestureZoom@CWnd@@MAEHVCPoint@@J@Z:PROC	; CWnd::OnGestureZoom
EXTRN	?OnGesturePan@CWnd@@MAEHVCPoint@@0@Z:PROC	; CWnd::OnGesturePan
EXTRN	?OnGestureRotate@CWnd@@MAEHVCPoint@@N@Z:PROC	; CWnd::OnGestureRotate
EXTRN	?OnGestureTwoFingerTap@CWnd@@MAEHVCPoint@@@Z:PROC ; CWnd::OnGestureTwoFingerTap
EXTRN	?OnGesturePressAndTap@CWnd@@MAEHVCPoint@@J@Z:PROC ; CWnd::OnGesturePressAndTap
EXTRN	?ResizeDynamicLayout@CWnd@@MAEXXZ:PROC		; CWnd::ResizeDynamicLayout
EXTRN	?IsFrameWnd@CWnd@@UBEHXZ:PROC			; CWnd::IsFrameWnd
EXTRN	?OnFinalRelease@CWnd@@UAEXXZ:PROC		; CWnd::OnFinalRelease
EXTRN	?CreateControlContainer@CWnd@@MAEHPAPAVCOleControlContainer@@@Z:PROC ; CWnd::CreateControlContainer
EXTRN	?CreateControlSite@CWnd@@MAEHPAVCOleControlContainer@@PAPAVCOleControlSite@@IABU_GUID@@@Z:PROC ; CWnd::CreateControlSite
EXTRN	?GetRuntimeClass@CDialog@@UBEPAUCRuntimeClass@@XZ:PROC ; CDialog::GetRuntimeClass
EXTRN	?Create@CDialog@@UAEHPBDPAVCWnd@@@Z:PROC	; CDialog::Create
EXTRN	?CreateIndirect@CDialog@@UAEHPBUDLGTEMPLATE@@PAVCWnd@@PAX@Z:PROC ; CDialog::CreateIndirect
EXTRN	?CreateIndirect@CDialog@@UAEHPAXPAVCWnd@@@Z:PROC ; CDialog::CreateIndirect
EXTRN	?DoModal@CDialog@@UAEHXZ:PROC			; CDialog::DoModal
EXTRN	?OnInitDialog@CDialog@@UAEHXZ:PROC		; CDialog::OnInitDialog
EXTRN	?OnSetFont@CDialog@@UAEXPAVCFont@@@Z:PROC	; CDialog::OnSetFont
EXTRN	?OnOK@CDialog@@MAEXXZ:PROC			; CDialog::OnOK
EXTRN	?OnCancel@CDialog@@MAEXXZ:PROC			; CDialog::OnCancel
EXTRN	??1CDialog@@UAE@XZ:PROC				; CDialog::~CDialog
EXTRN	?PreTranslateMessage@CDialog@@UAEHPAUtagMSG@@@Z:PROC ; CDialog::PreTranslateMessage
EXTRN	?OnCmdMsg@CDialog@@UAEHIHPAXPAUAFX_CMDHANDLERINFO@@@Z:PROC ; CDialog::OnCmdMsg
EXTRN	?CheckAutoCenter@CDialog@@UAEHXZ:PROC		; CDialog::CheckAutoCenter
EXTRN	?SetOccDialogInfo@CDialog@@MAEHPAU_AFX_OCC_DIALOG_INFO@@@Z:PROC ; CDialog::SetOccDialogInfo
EXTRN	?GetOccDialogInfo@CDialog@@MAEPAU_AFX_OCC_DIALOG_INFO@@XZ:PROC ; CDialog::GetOccDialogInfo
EXTRN	?PreInitDialog@CDialog@@MAEXXZ:PROC		; CDialog::PreInitDialog
EXTRN	?GetThisMessageMap@CDialog@@KGPBUAFX_MSGMAP@@XZ:PROC ; CDialog::GetThisMessageMap
EXTRN	?AfxMessageBox@@YGHPBDII@Z:PROC			; AfxMessageBox
EXTRN	??0CGridCtrl@@QAE@HHHH@Z:PROC			; CGridCtrl::CGridCtrl
EXTRN	?Create@CGridCtrl@@QAEHABUtagRECT@@PAVCWnd@@IK@Z:PROC ; CGridCtrl::Create
EXTRN	?SetRowCount@CGridCtrl@@QAEHH@Z:PROC		; CGridCtrl::SetRowCount
EXTRN	?SetColumnCount@CGridCtrl@@QAEHH@Z:PROC		; CGridCtrl::SetColumnCount
EXTRN	?SetRowHeight@CGridCtrl@@QAEHHH@Z:PROC		; CGridCtrl::SetRowHeight
EXTRN	?SetColumnWidth@CGridCtrl@@QAEHHH@Z:PROC	; CGridCtrl::SetColumnWidth
EXTRN	?SetItemText@CGridCtrl@@QAEHHHPBD@Z:PROC	; CGridCtrl::SetItemText
EXTRN	?SetItemText@CGridCtrl@@QAEHHHPBDK@Z:PROC	; CGridCtrl::SetItemText
EXTRN	?SetItemBkColour@CGridCtrl@@QAEHHHK@Z:PROC	; CGridCtrl::SetItemBkColour
EXTRN	??1CGridCtrl@@UAE@XZ:PROC			; CGridCtrl::~CGridCtrl
EXTRN	??0CDlgInterface@@QAE@IPAVCWnd@@@Z:PROC		; CDlgInterface::CDlgInterface
EXTRN	?GetComma@CDlgInterface@@SA?AV?$CStringT@DV?$StrTraitMFC_DLL@DV?$ChTraitsCRT@D@ATL@@@@@ATL@@PBD@Z:PROC ; CDlgInterface::GetComma
EXTRN	??_ECTabStep@@UAEPAXI@Z:PROC			; CTabStep::`vector deleting destructor'
EXTRN	?SetCalculateData@CDlgAnalysis@@QAEXH@Z:PROC	; CDlgAnalysis::SetCalculateData
EXTRN	@__security_check_cookie@4:PROC
EXTRN	___CxxFrameHandler3:PROC
EXTRN	??_7type_info@@6B@:QWORD			; type_info::`vftable'
EXTRN	___security_cookie:DWORD
EXTRN	__fltused:DWORD
_BSS	SEGMENT
?RMSG_GETSIGNAL_REAL@@3IB DD 01H DUP (?)		; RMSG_GETSIGNAL_REAL
?RMSG_SETQUERYOPT@@3IB DD 01H DUP (?)			; RMSG_SETQUERYOPT
?RMSG_CHARTMAIN@@3IB DD 01H DUP (?)			; RMSG_CHARTMAIN
?RMS_ANALYSIS_FUNC@@3IB DD 01H DUP (?)			; RMS_ANALYSIS_FUNC
?RMSG_GET_USERID@@3IB DD 01H DUP (?)			; RMSG_GET_USERID
?RMSG_CHANGE_SKINCOLOR@@3IB DD 01H DUP (?)		; RMSG_CHANGE_SKINCOLOR
?RMSG_GET_SKINCOLOR@@3IB DD 01H DUP (?)			; RMSG_GET_SKINCOLOR
?RMSG_CHANGEVERTSCALETYPE@@3IB DD 01H DUP (?)		; RMSG_CHANGEVERTSCALETYPE
?RMSG_CHANGE_CROSSLINE@@3IB DD 01H DUP (?)		; RMSG_CHANGE_CROSSLINE
?RMSG_ADD_PLATFORM_MENU@@3IB DD 01H DUP (?)		; RMSG_ADD_PLATFORM_MENU
?RMSG_SETINITIALCHARTDATA@@3IB DD 01H DUP (?)		; RMSG_SETINITIALCHARTDATA
?RMSG_GETINFO@@3IB DD 01H DUP (?)			; RMSG_GETINFO
?RMSG_SETINFO@@3IB DD 01H DUP (?)			; RMSG_SETINFO
?RMSG_INTERFACE@@3IB DD 01H DUP (?)			; RMSG_INTERFACE
?RMSG_GETPCTRDATA@@3IB DD 01H DUP (?)			; RMSG_GETPCTRDATA
?RMSG_SETPCTRDATA@@3IB DD 01H DUP (?)			; RMSG_SETPCTRDATA
_BSS	ENDS
CRT$XCU	SEGMENT
?RMSG_GETSIGNAL_REAL$initializer$@@3P6AXXZA DD FLAT:??__ERMSG_GETSIGNAL_REAL@@YAXXZ ; RMSG_GETSIGNAL_REAL$initializer$
CRT$XCU	ENDS
;	COMDAT ??_R2CDlgInterface@@8
rdata$r	SEGMENT
??_R2CDlgInterface@@8 DD FLAT:??_R1A@?0A@EA@CDlgInterface@@8 ; CDlgInterface::`RTTI Base Class Array'
	DD	FLAT:??_R1A@?0A@EA@CEscDialog@@8
	DD	FLAT:??_R1A@?0A@EA@CDialog@@8
	DD	FLAT:??_R1A@?0A@EA@CWnd@@8
	DD	FLAT:??_R1A@?0A@EA@CCmdTarget@@8
	DD	FLAT:??_R1A@?0A@EA@CObject@@8
rdata$r	ENDS
;	COMDAT ??_R3CDlgInterface@@8
rdata$r	SEGMENT
??_R3CDlgInterface@@8 DD 00H				; CDlgInterface::`RTTI Class Hierarchy Descriptor'
	DD	00H
	DD	06H
	DD	FLAT:??_R2CDlgInterface@@8
rdata$r	ENDS
;	COMDAT ??_R0?AVCDlgInterface@@@8
data$rs	SEGMENT
??_R0?AVCDlgInterface@@@8 DD FLAT:??_7type_info@@6B@	; CDlgInterface `RTTI Type Descriptor'
	DD	00H
	DB	'.?AVCDlgInterface@@', 00H
data$rs	ENDS
;	COMDAT ??_R1A@?0A@EA@CDlgInterface@@8
rdata$r	SEGMENT
??_R1A@?0A@EA@CDlgInterface@@8 DD FLAT:??_R0?AVCDlgInterface@@@8 ; CDlgInterface::`RTTI Base Class Descriptor at (0,-1,0,64)'
	DD	05H
	DD	00H
	DD	0ffffffffH
	DD	00H
	DD	040H
	DD	FLAT:??_R3CDlgInterface@@8
rdata$r	ENDS
;	COMDAT ??_R1A@?0A@EA@CTabStep@@8
rdata$r	SEGMENT
??_R1A@?0A@EA@CTabStep@@8 DD FLAT:??_R0?AVCTabStep@@@8	; CTabStep::`RTTI Base Class Descriptor at (0,-1,0,64)'
	DD	06H
	DD	00H
	DD	0ffffffffH
	DD	00H
	DD	040H
	DD	FLAT:??_R3CTabStep@@8
rdata$r	ENDS
;	COMDAT ??_R2CTabStep@@8
rdata$r	SEGMENT
??_R2CTabStep@@8 DD FLAT:??_R1A@?0A@EA@CTabStep@@8	; CTabStep::`RTTI Base Class Array'
	DD	FLAT:??_R1A@?0A@EA@CDlgInterface@@8
	DD	FLAT:??_R1A@?0A@EA@CEscDialog@@8
	DD	FLAT:??_R1A@?0A@EA@CDialog@@8
	DD	FLAT:??_R1A@?0A@EA@CWnd@@8
	DD	FLAT:??_R1A@?0A@EA@CCmdTarget@@8
	DD	FLAT:??_R1A@?0A@EA@CObject@@8
rdata$r	ENDS
;	COMDAT ??_R3CTabStep@@8
rdata$r	SEGMENT
??_R3CTabStep@@8 DD 00H					; CTabStep::`RTTI Class Hierarchy Descriptor'
	DD	00H
	DD	07H
	DD	FLAT:??_R2CTabStep@@8
rdata$r	ENDS
;	COMDAT ??_R0?AVCTabStep@@@8
data$rs	SEGMENT
??_R0?AVCTabStep@@@8 DD FLAT:??_7type_info@@6B@		; CTabStep `RTTI Type Descriptor'
	DD	00H
	DB	'.?AVCTabStep@@', 00H
data$rs	ENDS
;	COMDAT ??_R4CTabStep@@6B@
rdata$r	SEGMENT
??_R4CTabStep@@6B@ DD 00H				; CTabStep::`RTTI Complete Object Locator'
	DD	00H
	DD	00H
	DD	FLAT:??_R0?AVCTabStep@@@8
	DD	FLAT:??_R3CTabStep@@8
rdata$r	ENDS
;	COMDAT ??_C@_0O@NLCHHJFD@color?$DN?$CCwhite?$CC@
CONST	SEGMENT
??_C@_0O@NLCHHJFD@color?$DN?$CCwhite?$CC@ DB 'color="white"', 00H ; `string'
CONST	ENDS
;	COMDAT ??_C@_0BJ@EJHFGNNM@Do?5Not?5Create?5Html?5File?4@
CONST	SEGMENT
??_C@_0BJ@EJHFGNNM@Do?5Not?5Create?5Html?5File?4@ DB 'Do Not Create Html '
	DB	'File.', 00H					; `string'
CONST	ENDS
;	COMDAT ??_C@_0BF@DJJBNDDF@?2?$LK?$LI?$LA?m?$LM?$KN?9?$MA?$PM?A?x?$LK?P?$LM?$KO?4htm@
CONST	SEGMENT
??_C@_0BF@DJJBNDDF@?2?$LK?$LI?$LA?m?$LM?$KN?9?$MA?$PM?A?x?$LK?P?$LM?$KO?4htm@ DB '\'
	DB	0baH, 0b8H, 0b0H, 0edH, 0bcH, 0adH, '-', 0c0H, 0fcH, 0c1H, 0f8H
	DB	0baH, 0d0H, 0bcH, 0aeH, '.htm', 00H		; `string'
CONST	ENDS
;	COMDAT ??_C@_02KNHHEEKP@?5?5@
CONST	SEGMENT
??_C@_02KNHHEEKP@?5?5@ DB '  ', 00H			; `string'
CONST	ENDS
;	COMDAT ??_C@_0M@JHFKGMBK@?5Color?$DNBLUE@
CONST	SEGMENT
??_C@_0M@JHFKGMBK@?5Color?$DNBLUE@ DB ' Color=BLUE', 00H ; `string'
CONST	ENDS
;	COMDAT ??_C@_01JOAMLHOP@?9@
CONST	SEGMENT
??_C@_01JOAMLHOP@?9@ DB '-', 00H			; `string'
CONST	ENDS
;	COMDAT ??_C@_06POBGIKHN@PPRTen@
CONST	SEGMENT
??_C@_06POBGIKHN@PPRTen@ DB 'PPRTen', 00H		; `string'
CONST	ENDS
;	COMDAT ??_C@_06DNHOCAKO@SORTen@
CONST	SEGMENT
??_C@_06DNHOCAKO@SORTen@ DB 'SORTen', 00H		; `string'
CONST	ENDS
;	COMDAT ??_C@_06HIICPIND@PSRTen@
CONST	SEGMENT
??_C@_06HIICPIND@PSRTen@ DB 'PSRTen', 00H		; `string'
CONST	ENDS
;	COMDAT ??_C@_06CPBCDCBO@PLNTen@
CONST	SEGMENT
??_C@_06CPBCDCBO@PLNTen@ DB 'PLNTen', 00H		; `string'
CONST	ENDS
;	COMDAT ??_C@_06DENIJGPL@TTNTen@
CONST	SEGMENT
??_C@_06DENIJGPL@TTNTen@ DB 'TTNTen', 00H		; `string'
CONST	ENDS
;	COMDAT ??_C@_06JICLHIMI@TCITen@
CONST	SEGMENT
??_C@_06JICLHIMI@TCITen@ DB 'TCITen', 00H		; `string'
CONST	ENDS
;	COMDAT ??_C@_06FJECDNEG@TERTen@
CONST	SEGMENT
??_C@_06FJECDNEG@TERTen@ DB 'TERTen', 00H		; `string'
CONST	ENDS
;	COMDAT ??_C@_06LBGLJMCD@MLSTen@
CONST	SEGMENT
??_C@_06LBGLJMCD@MLSTen@ DB 'MLSTen', 00H		; `string'
CONST	ENDS
;	COMDAT ??_C@_06GNHPEGDB@MPFTen@
CONST	SEGMENT
??_C@_06GNHPEGDB@MPFTen@ DB 'MPFTen', 00H		; `string'
CONST	ENDS
;	COMDAT ??_C@_06BOIIBJNI@TTTTen@
CONST	SEGMENT
??_C@_06BOIIBJNI@TTTTen@ DB 'TTTTen', 00H		; `string'
CONST	ENDS
;	COMDAT ??_C@_06HOENGMIO@TLRTen@
CONST	SEGMENT
??_C@_06HOENGMIO@TLRTen@ DB 'TLRTen', 00H		; `string'
CONST	ENDS
;	COMDAT ??_C@_06JPDJJPCM@TPFTen@
CONST	SEGMENT
??_C@_06JPDJJPCM@TPFTen@ DB 'TPFTen', 00H		; `string'
CONST	ENDS
;	COMDAT ??_C@_06EINDPOO@TLPTen@
CONST	SEGMENT
??_C@_06EINDPOO@TLPTen@ DB 'TLPTen', 00H		; `string'
CONST	ENDS
;	COMDAT ??_C@_06INPFJPFJ@AAPTen@
CONST	SEGMENT
??_C@_06INPFJPFJ@AAPTen@ DB 'AAPTen', 00H		; `string'
CONST	ENDS
;	COMDAT ??_C@_06DPLPBNAH@APRTen@
CONST	SEGMENT
??_C@_06DPLPBNAH@APRTen@ DB 'APRTen', 00H		; `string'
CONST	ENDS
;	COMDAT ??_C@_04KLHPLPOP@PPR9@
CONST	SEGMENT
??_C@_04KLHPLPOP@PPR9@ DB 'PPR9', 00H			; `string'
CONST	ENDS
;	COMDAT ??_C@_04OEKFICPG@SOR9@
CONST	SEGMENT
??_C@_04OEKFICPG@SOR9@ DB 'SOR9', 00H			; `string'
CONST	ENDS
;	COMDAT ??_C@_04LJMKBAAB@PSR9@
CONST	SEGMENT
??_C@_04LJMKBAAB@PSR9@ DB 'PSR9', 00H			; `string'
CONST	ENDS
;	COMDAT ??_C@_04KEIMANNM@PLN9@
CONST	SEGMENT
??_C@_04KEIMANNM@PLN9@ DB 'PLN9', 00H			; `string'
CONST	ENDS
;	COMDAT ??_C@_04MEKBNEGM@TTN9@
CONST	SEGMENT
??_C@_04MEKBNEGM@TTN9@ DB 'TTN9', 00H			; `string'
CONST	ENDS
;	COMDAT ??_C@_04MCAKNMP@TCI9@
CONST	SEGMENT
??_C@_04MCAKNMP@TCI9@ DB 'TCI9', 00H			; `string'
CONST	ENDS
;	COMDAT ??_C@_04DJDILOIC@TER9@
CONST	SEGMENT
??_C@_04DJDILOIC@TER9@ DB 'TER9', 00H			; `string'
CONST	ENDS
;	COMDAT ??_C@_04CIACGOMM@MLS9@
CONST	SEGMENT
??_C@_04CIACGOMM@MLS9@ DB 'MLS9', 00H			; `string'
CONST	ENDS
;	COMDAT ??_C@_04CICAOHHA@MPF9@
CONST	SEGMENT
??_C@_04CICAOHHA@MPF9@ DB 'MPF9', 00H			; `string'
CONST	ENDS
;	COMDAT ??_C@_04NFBAPCMK@TTT9@
CONST	SEGMENT
??_C@_04NFBAPCMK@TTT9@ DB 'TTT9', 00H			; `string'
CONST	ENDS
;	COMDAT ??_C@_04EEDAPBAI@TLR9@
CONST	SEGMENT
??_C@_04EEDAPBAI@TLR9@ DB 'TLR9', 00H			; `string'
CONST	ENDS
;	COMDAT ??_C@_04EFNABCID@TPF9@
CONST	SEGMENT
??_C@_04EFNABCID@TPF9@ DB 'TPF9', 00H			; `string'
CONST	ENDS
;	COMDAT ??_C@_04EHLECFGG@TLP9@
CONST	SEGMENT
??_C@_04EHLECFGG@TLP9@ DB 'TLP9', 00H			; `string'
CONST	ENDS
;	COMDAT ??_C@_04BNNOOFEJ@AAP9@
CONST	SEGMENT
??_C@_04BNNOOFEJ@AAP9@ DB 'AAP9', 00H			; `string'
CONST	ENDS
;	COMDAT ??_C@_04PGPPABNN@APR9@
CONST	SEGMENT
??_C@_04PGPPABNN@APR9@ DB 'APR9', 00H			; `string'
CONST	ENDS
;	COMDAT ??_C@_04LCGEIOKO@PPR8@
CONST	SEGMENT
??_C@_04LCGEIOKO@PPR8@ DB 'PPR8', 00H			; `string'
CONST	ENDS
;	COMDAT ??_C@_04PNLOLDLH@SOR8@
CONST	SEGMENT
??_C@_04PNLOLDLH@SOR8@ DB 'SOR8', 00H			; `string'
CONST	ENDS
;	COMDAT ??_C@_04KANBCBEA@PSR8@
CONST	SEGMENT
??_C@_04KANBCBEA@PSR8@ DB 'PSR8', 00H			; `string'
CONST	ENDS
;	COMDAT ??_C@_04LNJHDMJN@PLN8@
CONST	SEGMENT
??_C@_04LNJHDMJN@PLN8@ DB 'PLN8', 00H			; `string'
CONST	ENDS
;	COMDAT ??_C@_04NNLKOFCN@TTN8@
CONST	SEGMENT
??_C@_04NNLKOFCN@TTN8@ DB 'TTN8', 00H			; `string'
CONST	ENDS
;	COMDAT ??_C@_04BFDLJMIO@TCI8@
CONST	SEGMENT
??_C@_04BFDLJMIO@TCI8@ DB 'TCI8', 00H			; `string'
CONST	ENDS
;	COMDAT ??_C@_04CACDIPMD@TER8@
CONST	SEGMENT
??_C@_04CACDIPMD@TER8@ DB 'TER8', 00H			; `string'
CONST	ENDS
;	COMDAT ??_C@_04DBBJFPIN@MLS8@
CONST	SEGMENT
??_C@_04DBBJFPIN@MLS8@ DB 'MLS8', 00H			; `string'
CONST	ENDS
;	COMDAT ??_C@_04DBDLNGDB@MPF8@
CONST	SEGMENT
??_C@_04DBDLNGDB@MPF8@ DB 'MPF8', 00H			; `string'
CONST	ENDS
;	COMDAT ??_C@_04MMALMDIL@TTT8@
CONST	SEGMENT
??_C@_04MMALMDIL@TTT8@ DB 'TTT8', 00H			; `string'
CONST	ENDS
;	COMDAT ??_C@_04FNCLMAEJ@TLR8@
CONST	SEGMENT
??_C@_04FNCLMAEJ@TLR8@ DB 'TLR8', 00H			; `string'
CONST	ENDS
;	COMDAT ??_C@_04FMMLCDMC@TPF8@
CONST	SEGMENT
??_C@_04FMMLCDMC@TPF8@ DB 'TPF8', 00H			; `string'
CONST	ENDS
;	COMDAT ??_C@_04FOKPBECH@TLP8@
CONST	SEGMENT
??_C@_04FOKPBECH@TLP8@ DB 'TLP8', 00H			; `string'
CONST	ENDS
;	COMDAT ??_C@_04EMFNEAI@AAP8@
CONST	SEGMENT
??_C@_04EMFNEAI@AAP8@ DB 'AAP8', 00H			; `string'
CONST	ENDS
;	COMDAT ??_C@_04OPOEDAJM@APR8@
CONST	SEGMENT
??_C@_04OPOEDAJM@APR8@ DB 'APR8', 00H			; `string'
CONST	ENDS
;	COMDAT ??_C@_04DFPMJCGB@PPR7@
CONST	SEGMENT
??_C@_04DFPMJCGB@PPR7@ DB 'PPR7', 00H			; `string'
CONST	ENDS
;	COMDAT ??_C@_04HKCGKPHI@SOR7@
CONST	SEGMENT
??_C@_04HKCGKPHI@SOR7@ DB 'SOR7', 00H			; `string'
CONST	ENDS
;	COMDAT ??_C@_04CHEJDNIP@PSR7@
CONST	SEGMENT
??_C@_04CHEJDNIP@PSR7@ DB 'PSR7', 00H			; `string'
CONST	ENDS
;	COMDAT ??_C@_04DKAPCAFC@PLN7@
CONST	SEGMENT
??_C@_04DKAPCAFC@PLN7@ DB 'PLN7', 00H			; `string'
CONST	ENDS
;	COMDAT ??_C@_04FKCCPJOC@TTN7@
CONST	SEGMENT
??_C@_04FKCCPJOC@TTN7@ DB 'TTN7', 00H			; `string'
CONST	ENDS
;	COMDAT ??_C@_04JCKDIAEB@TCI7@
CONST	SEGMENT
??_C@_04JCKDIAEB@TCI7@ DB 'TCI7', 00H			; `string'
CONST	ENDS
;	COMDAT ??_C@_04KHLLJDAM@TER7@
CONST	SEGMENT
??_C@_04KHLLJDAM@TER7@ DB 'TER7', 00H			; `string'
CONST	ENDS
;	COMDAT ??_C@_04LGIBEDEC@MLS7@
CONST	SEGMENT
??_C@_04LGIBEDEC@MLS7@ DB 'MLS7', 00H			; `string'
CONST	ENDS
;	COMDAT ??_C@_04LGKDMKPO@MPF7@
CONST	SEGMENT
??_C@_04LGKDMKPO@MPF7@ DB 'MPF7', 00H			; `string'
CONST	ENDS
;	COMDAT ??_C@_04ELJDNPEE@TTT7@
CONST	SEGMENT
??_C@_04ELJDNPEE@TTT7@ DB 'TTT7', 00H			; `string'
CONST	ENDS
;	COMDAT ??_C@_04NKLDNMIG@TLR7@
CONST	SEGMENT
??_C@_04NKLDNMIG@TLR7@ DB 'TLR7', 00H			; `string'
CONST	ENDS
;	COMDAT ??_C@_04NLFDDPAN@TPF7@
CONST	SEGMENT
??_C@_04NLFDDPAN@TPF7@ DB 'TPF7', 00H			; `string'
CONST	ENDS
;	COMDAT ??_C@_04NJDHAIOI@TLP7@
CONST	SEGMENT
??_C@_04NJDHAIOI@TLP7@ DB 'TLP7', 00H			; `string'
CONST	ENDS
;	COMDAT ??_C@_04IDFNMIMH@AAP7@
CONST	SEGMENT
??_C@_04IDFNMIMH@AAP7@ DB 'AAP7', 00H			; `string'
CONST	ENDS
;	COMDAT ??_C@_04GIHMCMFD@APR7@
CONST	SEGMENT
??_C@_04GIHMCMFD@APR7@ DB 'APR7', 00H			; `string'
CONST	ENDS
;	COMDAT ??_C@_04CMOHKDCA@PPR6@
CONST	SEGMENT
??_C@_04CMOHKDCA@PPR6@ DB 'PPR6', 00H			; `string'
CONST	ENDS
;	COMDAT ??_C@_04GDDNJODJ@SOR6@
CONST	SEGMENT
??_C@_04GDDNJODJ@SOR6@ DB 'SOR6', 00H			; `string'
CONST	ENDS
;	COMDAT ??_C@_04DOFCAMMO@PSR6@
CONST	SEGMENT
??_C@_04DOFCAMMO@PSR6@ DB 'PSR6', 00H			; `string'
CONST	ENDS
;	COMDAT ??_C@_04CDBEBBBD@PLN6@
CONST	SEGMENT
??_C@_04CDBEBBBD@PLN6@ DB 'PLN6', 00H			; `string'
CONST	ENDS
;	COMDAT ??_C@_04EDDJMIKD@TTN6@
CONST	SEGMENT
??_C@_04EDDJMIKD@TTN6@ DB 'TTN6', 00H			; `string'
CONST	ENDS
;	COMDAT ??_C@_04ILLILBAA@TCI6@
CONST	SEGMENT
??_C@_04ILLILBAA@TCI6@ DB 'TCI6', 00H			; `string'
CONST	ENDS
;	COMDAT ??_C@_04LOKAKCEN@TER6@
CONST	SEGMENT
??_C@_04LOKAKCEN@TER6@ DB 'TER6', 00H			; `string'
CONST	ENDS
;	COMDAT ??_C@_04KPJKHCAD@MLS6@
CONST	SEGMENT
??_C@_04KPJKHCAD@MLS6@ DB 'MLS6', 00H			; `string'
CONST	ENDS
;	COMDAT ??_C@_04KPLIPLLP@MPF6@
CONST	SEGMENT
??_C@_04KPLIPLLP@MPF6@ DB 'MPF6', 00H			; `string'
CONST	ENDS
;	COMDAT ??_C@_04FCIIOOAF@TTT6@
CONST	SEGMENT
??_C@_04FCIIOOAF@TTT6@ DB 'TTT6', 00H			; `string'
CONST	ENDS
;	COMDAT ??_C@_04MDKIONMH@TLR6@
CONST	SEGMENT
??_C@_04MDKIONMH@TLR6@ DB 'TLR6', 00H			; `string'
CONST	ENDS
;	COMDAT ??_C@_04MCEIAOEM@TPF6@
CONST	SEGMENT
??_C@_04MCEIAOEM@TPF6@ DB 'TPF6', 00H			; `string'
CONST	ENDS
;	COMDAT ??_C@_04MACMDJKJ@TLP6@
CONST	SEGMENT
??_C@_04MACMDJKJ@TLP6@ DB 'TLP6', 00H			; `string'
CONST	ENDS
;	COMDAT ??_C@_04JKEGPJIG@AAP6@
CONST	SEGMENT
??_C@_04JKEGPJIG@AAP6@ DB 'AAP6', 00H			; `string'
CONST	ENDS
;	COMDAT ??_C@_04HBGHBNBC@APR6@
CONST	SEGMENT
??_C@_04HBGHBNBC@APR6@ DB 'APR6', 00H			; `string'
CONST	ENDS
;	COMDAT ??_C@_04HMKPAOD@PPR5@
CONST	SEGMENT
??_C@_04HMKPAOD@PPR5@ DB 'PPR5', 00H			; `string'
CONST	ENDS
;	COMDAT ??_C@_04EIBAMNPK@SOR5@
CONST	SEGMENT
??_C@_04EIBAMNPK@SOR5@ DB 'SOR5', 00H			; `string'
CONST	ENDS
;	COMDAT ??_C@_04BFHPFPAN@PSR5@
CONST	SEGMENT
??_C@_04BFHPFPAN@PSR5@ DB 'PSR5', 00H			; `string'
CONST	ENDS
;	COMDAT ??_C@_04IDJECNA@PLN5@
CONST	SEGMENT
??_C@_04IDJECNA@PLN5@ DB 'PLN5', 00H			; `string'
CONST	ENDS
;	COMDAT ??_C@_04GIBEJLGA@TTN5@
CONST	SEGMENT
??_C@_04GIBEJLGA@TTN5@ DB 'TTN5', 00H			; `string'
CONST	ENDS
;	COMDAT ??_C@_04KAJFOCMD@TCI5@
CONST	SEGMENT
??_C@_04KAJFOCMD@TCI5@ DB 'TCI5', 00H			; `string'
CONST	ENDS
;	COMDAT ??_C@_04JFINPBIO@TER5@
CONST	SEGMENT
??_C@_04JFINPBIO@TER5@ DB 'TER5', 00H			; `string'
CONST	ENDS
;	COMDAT ??_C@_04IELHCBMA@MLS5@
CONST	SEGMENT
??_C@_04IELHCBMA@MLS5@ DB 'MLS5', 00H			; `string'
CONST	ENDS
;	COMDAT ??_C@_04IEJFKIHM@MPF5@
CONST	SEGMENT
??_C@_04IEJFKIHM@MPF5@ DB 'MPF5', 00H			; `string'
CONST	ENDS
;	COMDAT ??_C@_04HJKFLNMG@TTT5@
CONST	SEGMENT
??_C@_04HJKFLNMG@TTT5@ DB 'TTT5', 00H			; `string'
CONST	ENDS
;	COMDAT ??_C@_04OIIFLOAE@TLR5@
CONST	SEGMENT
??_C@_04OIIFLOAE@TLR5@ DB 'TLR5', 00H			; `string'
CONST	ENDS
;	COMDAT ??_C@_04OJGFFNIP@TPF5@
CONST	SEGMENT
??_C@_04OJGFFNIP@TPF5@ DB 'TPF5', 00H			; `string'
CONST	ENDS
;	COMDAT ??_C@_04OLABGKGK@TLP5@
CONST	SEGMENT
??_C@_04OLABGKGK@TLP5@ DB 'TLP5', 00H			; `string'
CONST	ENDS
;	COMDAT ??_C@_04LBGLKKEF@AAP5@
CONST	SEGMENT
??_C@_04LBGLKKEF@AAP5@ DB 'AAP5', 00H			; `string'
CONST	ENDS
;	COMDAT ??_C@_04FKEKEONB@APR5@
CONST	SEGMENT
??_C@_04FKEKEONB@APR5@ DB 'APR5', 00H			; `string'
CONST	ENDS
;	COMDAT ??_C@_04BONBMBKC@PPR4@
CONST	SEGMENT
??_C@_04BONBMBKC@PPR4@ DB 'PPR4', 00H			; `string'
CONST	ENDS
;	COMDAT ??_C@_04FBALPMLL@SOR4@
CONST	SEGMENT
??_C@_04FBALPMLL@SOR4@ DB 'SOR4', 00H			; `string'
CONST	ENDS
;	COMDAT ??_C@_04MGEGOEM@PSR4@
CONST	SEGMENT
??_C@_04MGEGOEM@PSR4@ DB 'PSR4', 00H			; `string'
CONST	ENDS
;	COMDAT ??_C@_04BBCCHDJB@PLN4@
CONST	SEGMENT
??_C@_04BBCCHDJB@PLN4@ DB 'PLN4', 00H			; `string'
CONST	ENDS
;	COMDAT ??_C@_04HBAPKKCB@TTN4@
CONST	SEGMENT
??_C@_04HBAPKKCB@TTN4@ DB 'TTN4', 00H			; `string'
CONST	ENDS
;	COMDAT ??_C@_04LJIONDIC@TCI4@
CONST	SEGMENT
??_C@_04LJIONDIC@TCI4@ DB 'TCI4', 00H			; `string'
CONST	ENDS
;	COMDAT ??_C@_04IMJGMAMP@TER4@
CONST	SEGMENT
??_C@_04IMJGMAMP@TER4@ DB 'TER4', 00H			; `string'
CONST	ENDS
;	COMDAT ??_C@_04JNKMBAIB@MLS4@
CONST	SEGMENT
??_C@_04JNKMBAIB@MLS4@ DB 'MLS4', 00H			; `string'
CONST	ENDS
;	COMDAT ??_C@_04JNIOJJDN@MPF4@
CONST	SEGMENT
??_C@_04JNIOJJDN@MPF4@ DB 'MPF4', 00H			; `string'
CONST	ENDS
;	COMDAT ??_C@_04GALOIMIH@TTT4@
CONST	SEGMENT
??_C@_04GALOIMIH@TTT4@ DB 'TTT4', 00H			; `string'
CONST	ENDS
;	COMDAT ??_C@_04PBJOIPEF@TLR4@
CONST	SEGMENT
??_C@_04PBJOIPEF@TLR4@ DB 'TLR4', 00H			; `string'
CONST	ENDS
;	COMDAT ??_C@_04PAHOGMMO@TPF4@
CONST	SEGMENT
??_C@_04PAHOGMMO@TPF4@ DB 'TPF4', 00H			; `string'
CONST	ENDS
;	COMDAT ??_C@_04PCBKFLCL@TLP4@
CONST	SEGMENT
??_C@_04PCBKFLCL@TLP4@ DB 'TLP4', 00H			; `string'
CONST	ENDS
;	COMDAT ??_C@_04KIHAJLAE@AAP4@
CONST	SEGMENT
??_C@_04KIHAJLAE@AAP4@ DB 'AAP4', 00H			; `string'
CONST	ENDS
;	COMDAT ??_C@_04EDFBHPJA@APR4@
CONST	SEGMENT
??_C@_04EDFBHPJA@APR4@ DB 'APR4', 00H			; `string'
CONST	ENDS
;	COMDAT ??_C@_04FBJAFHGF@PPR3@
CONST	SEGMENT
??_C@_04FBJAFHGF@PPR3@ DB 'PPR3', 00H			; `string'
CONST	ENDS
;	COMDAT ??_C@_04BOEKGKHM@SOR3@
CONST	SEGMENT
??_C@_04BOEKGKHM@SOR3@ DB 'SOR3', 00H			; `string'
CONST	ENDS
;	COMDAT ??_C@_04EDCFPIIL@PSR3@
CONST	SEGMENT
??_C@_04EDCFPIIL@PSR3@ DB 'PSR3', 00H			; `string'
CONST	ENDS
;	COMDAT ??_C@_04FOGDOFFG@PLN3@
CONST	SEGMENT
??_C@_04FOGDOFFG@PLN3@ DB 'PLN3', 00H			; `string'
CONST	ENDS
;	COMDAT ??_C@_04DOEODMOG@TTN3@
CONST	SEGMENT
??_C@_04DOEODMOG@TTN3@ DB 'TTN3', 00H			; `string'
CONST	ENDS
;	COMDAT ??_C@_04PGMPEFEF@TCI3@
CONST	SEGMENT
??_C@_04PGMPEFEF@TCI3@ DB 'TCI3', 00H			; `string'
CONST	ENDS
;	COMDAT ??_C@_04MDNHFGAI@TER3@
CONST	SEGMENT
??_C@_04MDNHFGAI@TER3@ DB 'TER3', 00H			; `string'
CONST	ENDS
;	COMDAT ??_C@_04NCONIGEG@MLS3@
CONST	SEGMENT
??_C@_04NCONIGEG@MLS3@ DB 'MLS3', 00H			; `string'
CONST	ENDS
;	COMDAT ??_C@_04NCMPAPPK@MPF3@
CONST	SEGMENT
??_C@_04NCMPAPPK@MPF3@ DB 'MPF3', 00H			; `string'
CONST	ENDS
;	COMDAT ??_C@_04CPPPBKEA@TTT3@
CONST	SEGMENT
??_C@_04CPPPBKEA@TTT3@ DB 'TTT3', 00H			; `string'
CONST	ENDS
;	COMDAT ??_C@_04LONPBJIC@TLR3@
CONST	SEGMENT
??_C@_04LONPBJIC@TLR3@ DB 'TLR3', 00H			; `string'
CONST	ENDS
;	COMDAT ??_C@_04LPDPPKAJ@TPF3@
CONST	SEGMENT
??_C@_04LPDPPKAJ@TPF3@ DB 'TPF3', 00H			; `string'
CONST	ENDS
;	COMDAT ??_C@_04LNFLMNOM@TLP3@
CONST	SEGMENT
??_C@_04LNFLMNOM@TLP3@ DB 'TLP3', 00H			; `string'
CONST	ENDS
;	COMDAT ??_C@_04OHDBANMD@AAP3@
CONST	SEGMENT
??_C@_04OHDBANMD@AAP3@ DB 'AAP3', 00H			; `string'
CONST	ENDS
;	COMDAT ??_C@_04MBAOJFH@APR3@
CONST	SEGMENT
??_C@_04MBAOJFH@APR3@ DB 'APR3', 00H			; `string'
CONST	ENDS
;	COMDAT ??_C@_04EIILGGCE@PPR2@
CONST	SEGMENT
??_C@_04EIILGGCE@PPR2@ DB 'PPR2', 00H			; `string'
CONST	ENDS
;	COMDAT ??_C@_04HFBFLDN@SOR2@
CONST	SEGMENT
??_C@_04HFBFLDN@SOR2@ DB 'SOR2', 00H			; `string'
CONST	ENDS
;	COMDAT ??_C@_04FKDOMJMK@PSR2@
CONST	SEGMENT
??_C@_04FKDOMJMK@PSR2@ DB 'PSR2', 00H			; `string'
CONST	ENDS
;	COMDAT ??_C@_04EHHINEBH@PLN2@
CONST	SEGMENT
??_C@_04EHHINEBH@PLN2@ DB 'PLN2', 00H			; `string'
CONST	ENDS
;	COMDAT ??_C@_04CHFFANKH@TTN2@
CONST	SEGMENT
??_C@_04CHFFANKH@TTN2@ DB 'TTN2', 00H			; `string'
CONST	ENDS
;	COMDAT ??_C@_04OPNEHEAE@TCI2@
CONST	SEGMENT
??_C@_04OPNEHEAE@TCI2@ DB 'TCI2', 00H			; `string'
CONST	ENDS
;	COMDAT ??_C@_04NKMMGHEJ@TER2@
CONST	SEGMENT
??_C@_04NKMMGHEJ@TER2@ DB 'TER2', 00H			; `string'
CONST	ENDS
;	COMDAT ??_C@_04MLPGLHAH@MLS2@
CONST	SEGMENT
??_C@_04MLPGLHAH@MLS2@ DB 'MLS2', 00H			; `string'
CONST	ENDS
;	COMDAT ??_C@_04MLNEDOLL@MPF2@
CONST	SEGMENT
??_C@_04MLNEDOLL@MPF2@ DB 'MPF2', 00H			; `string'
CONST	ENDS
;	COMDAT ??_C@_04DGOECLAB@TTT2@
CONST	SEGMENT
??_C@_04DGOECLAB@TTT2@ DB 'TTT2', 00H			; `string'
CONST	ENDS
;	COMDAT ??_C@_04KHMECIMD@TLR2@
CONST	SEGMENT
??_C@_04KHMECIMD@TLR2@ DB 'TLR2', 00H			; `string'
CONST	ENDS
;	COMDAT ??_C@_04KGCEMLEI@TPF2@
CONST	SEGMENT
??_C@_04KGCEMLEI@TPF2@ DB 'TPF2', 00H			; `string'
CONST	ENDS
;	COMDAT ??_C@_04KEEAPMKN@TLP2@
CONST	SEGMENT
??_C@_04KEEAPMKN@TLP2@ DB 'TLP2', 00H			; `string'
CONST	ENDS
;	COMDAT ??_C@_04POCKDMIC@AAP2@
CONST	SEGMENT
??_C@_04POCKDMIC@AAP2@ DB 'AAP2', 00H			; `string'
CONST	ENDS
;	COMDAT ??_C@_04BFALNIBG@APR2@
CONST	SEGMENT
??_C@_04BFALNIBG@APR2@ DB 'APR2', 00H			; `string'
CONST	ENDS
;	COMDAT ??_C@_04GDKGDFOH@PPR1@
CONST	SEGMENT
??_C@_04GDKGDFOH@PPR1@ DB 'PPR1', 00H			; `string'
CONST	ENDS
;	COMDAT ??_C@_04CMHMAIPO@SOR1@
CONST	SEGMENT
??_C@_04CMHMAIPO@SOR1@ DB 'SOR1', 00H			; `string'
CONST	ENDS
;	COMDAT ??_C@_04HBBDJKAJ@PSR1@
CONST	SEGMENT
??_C@_04HBBDJKAJ@PSR1@ DB 'PSR1', 00H			; `string'
CONST	ENDS
;	COMDAT ??_C@_04GMFFIHNE@PLN1@
CONST	SEGMENT
??_C@_04GMFFIHNE@PLN1@ DB 'PLN1', 00H			; `string'
CONST	ENDS
;	COMDAT ??_C@_04MHIFOGE@TTN1@
CONST	SEGMENT
??_C@_04MHIFOGE@TTN1@ DB 'TTN1', 00H			; `string'
CONST	ENDS
;	COMDAT ??_C@_04MEPJCHMH@TCI1@
CONST	SEGMENT
??_C@_04MEPJCHMH@TCI1@ DB 'TCI1', 00H			; `string'
CONST	ENDS
;	COMDAT ??_C@_04PBOBDEIK@TER1@
CONST	SEGMENT
??_C@_04PBOBDEIK@TER1@ DB 'TER1', 00H			; `string'
CONST	ENDS
;	COMDAT ??_C@_04OANLOEME@MLS1@
CONST	SEGMENT
??_C@_04OANLOEME@MLS1@ DB 'MLS1', 00H			; `string'
CONST	ENDS
;	COMDAT ??_C@_04OAPJGNHI@MPF1@
CONST	SEGMENT
??_C@_04OAPJGNHI@MPF1@ DB 'MPF1', 00H			; `string'
CONST	ENDS
;	COMDAT ??_C@_04BNMJHIMC@TTT1@
CONST	SEGMENT
??_C@_04BNMJHIMC@TTT1@ DB 'TTT1', 00H			; `string'
CONST	ENDS
;	COMDAT ??_C@_04IMOJHLAA@TLR1@
CONST	SEGMENT
??_C@_04IMOJHLAA@TLR1@ DB 'TLR1', 00H			; `string'
CONST	ENDS
;	COMDAT ??_C@_04INAJJIIL@TPF1@
CONST	SEGMENT
??_C@_04INAJJIIL@TPF1@ DB 'TPF1', 00H			; `string'
CONST	ENDS
;	COMDAT ??_C@_04IPGNKPGO@TLP1@
CONST	SEGMENT
??_C@_04IPGNKPGO@TLP1@ DB 'TLP1', 00H			; `string'
CONST	ENDS
;	COMDAT ??_C@_04NFAHGPEB@AAP1@
CONST	SEGMENT
??_C@_04NFAHGPEB@AAP1@ DB 'AAP1', 00H			; `string'
CONST	ENDS
;	COMDAT ??_C@_04DOCGILNF@APR1@
CONST	SEGMENT
??_C@_04DOCGILNF@APR1@ DB 'APR1', 00H			; `string'
CONST	ENDS
;	COMDAT ??_C@_04HKLNAEKG@PPR0@
CONST	SEGMENT
??_C@_04HKLNAEKG@PPR0@ DB 'PPR0', 00H			; `string'
CONST	ENDS
;	COMDAT ??_C@_04DFGHDJLP@SOR0@
CONST	SEGMENT
??_C@_04DFGHDJLP@SOR0@ DB 'SOR0', 00H			; `string'
CONST	ENDS
;	COMDAT ??_C@_04GIAIKLEI@PSR0@
CONST	SEGMENT
??_C@_04GIAIKLEI@PSR0@ DB 'PSR0', 00H			; `string'
CONST	ENDS
;	COMDAT ??_C@_04HFEOLGJF@PLN0@
CONST	SEGMENT
??_C@_04HFEOLGJF@PLN0@ DB 'PLN0', 00H			; `string'
CONST	ENDS
;	COMDAT ??_C@_04BFGDGPCF@TTN0@
CONST	SEGMENT
??_C@_04BFGDGPCF@TTN0@ DB 'TTN0', 00H			; `string'
CONST	ENDS
;	COMDAT ??_C@_04NNOCBGIG@TCI0@
CONST	SEGMENT
??_C@_04NNOCBGIG@TCI0@ DB 'TCI0', 00H			; `string'
CONST	ENDS
;	COMDAT ??_C@_04OIPKAFML@TER0@
CONST	SEGMENT
??_C@_04OIPKAFML@TER0@ DB 'TER0', 00H			; `string'
CONST	ENDS
;	COMDAT ??_C@_04PJMANFIF@MLS0@
CONST	SEGMENT
??_C@_04PJMANFIF@MLS0@ DB 'MLS0', 00H			; `string'
CONST	ENDS
;	COMDAT ??_C@_04PJOCFMDJ@MPF0@
CONST	SEGMENT
??_C@_04PJOCFMDJ@MPF0@ DB 'MPF0', 00H			; `string'
CONST	ENDS
;	COMDAT ??_C@_04ENCEJID@TTT0@
CONST	SEGMENT
??_C@_04ENCEJID@TTT0@ DB 'TTT0', 00H			; `string'
CONST	ENDS
;	COMDAT ??_C@_04JFPCEKEB@TLR0@
CONST	SEGMENT
??_C@_04JFPCEKEB@TLR0@ DB 'TLR0', 00H			; `string'
CONST	ENDS
;	COMDAT ??_C@_04JEBCKJMK@TPF0@
CONST	SEGMENT
??_C@_04JEBCKJMK@TPF0@ DB 'TPF0', 00H			; `string'
CONST	ENDS
;	COMDAT ??_C@_04JGHGJOCP@TLP0@
CONST	SEGMENT
??_C@_04JGHGJOCP@TLP0@ DB 'TLP0', 00H			; `string'
CONST	ENDS
;	COMDAT ??_C@_04MMBMFOAA@AAP0@
CONST	SEGMENT
??_C@_04MMBMFOAA@AAP0@ DB 'AAP0', 00H			; `string'
CONST	ENDS
;	COMDAT ??_C@_04CHDNLKJE@APR0@
CONST	SEGMENT
??_C@_04CHDNLKJE@APR0@ DB 'APR0', 00H			; `string'
CONST	ENDS
;	COMDAT ??_C@_01FGNFDNOH@?$CF@
CONST	SEGMENT
??_C@_01FGNFDNOH@?$CF@ DB '%', 00H			; `string'
CONST	ENDS
;	COMDAT ??_C@_01GBGANLPD@0@
CONST	SEGMENT
??_C@_01GBGANLPD@0@ DB '0', 00H				; `string'
CONST	ENDS
;	COMDAT ??_C@_04GEFJINEE@?$CF?42f@
CONST	SEGMENT
??_C@_04GEFJINEE@?$CF?42f@ DB '%.2f', 00H		; `string'
CONST	ENDS
;	COMDAT ??_C@_04GHNNFJCK@?$CF?40f@
CONST	SEGMENT
??_C@_04GHNNFJCK@?$CF?40f@ DB '%.0f', 00H		; `string'
CONST	ENDS
;	COMDAT ??_C@_0L@IJLGNGBO@?$LB?b?$LA?$KD?B?$PM?$LP?$KJ?$MA?$LC@
CONST	SEGMENT
??_C@_0L@IJLGNGBO@?$LB?b?$LA?$KD?B?$PM?$LP?$KJ?$MA?$LC@ DB 0b1H, 0e2H, 0b0H
	DB	0a3H, 0c2H, 0fcH, 0bfH, 0a9H, 0c0H, 0b2H, 00H ; `string'
CONST	ENDS
;	COMDAT ??_C@_0P@HMJADPNA@?$MA?$PM?$LH?$KL?C?J?$LA?z?$LM?v?$MA?M?$LH?$PM@
CONST	SEGMENT
??_C@_0P@HMJADPNA@?$MA?$PM?$LH?$KL?C?J?$LA?z?$LM?v?$MA?M?$LH?$PM@ DB 0c0H
	DB	0fcH, 0b7H, 0abH, 0c3H, 0caH, 0b0H, 0faH, 0bcH, 0f6H, 0c0H, 0cdH
	DB	0b7H, 0fcH, 00H				; `string'
CONST	ENDS
;	COMDAT ??_C@_0L@OFFEDCHL@?$LB?b?$LA?$KD?$LF?n?$LG?t?$LH?$PM@
CONST	SEGMENT
??_C@_0L@OFFEDCHL@?$LB?b?$LA?$KD?$LF?n?$LG?t?$LH?$PM@ DB 0b1H, 0e2H, 0b0H
	DB	0a3H, 0b5H, 0eeH, 0b6H, 0f4H, 0b7H, 0fcH, 00H ; `string'
CONST	ENDS
;	COMDAT ??_C@_0O@CIHDHIEL@?$MA?L?$MA?M?$LM?v?1?$LM?U?$LN?G?$LM?v@
CONST	SEGMENT
??_C@_0O@CIHDHIEL@?$MA?L?$MA?M?$LM?v?1?$LM?U?$LN?G?$LM?v@ DB 0c0H, 0ccH, 0c0H
	DB	0cdH, 0bcH, 0f6H, '/', 0bcH, 0d5H, 0bdH, 0c7H, 0bcH, 0f6H, 00H ; `string'
CONST	ENDS
;	COMDAT ??_C@_08OPDCDADA@?C?Q?$LI?E?$LI?E?$LM?v@
CONST	SEGMENT
??_C@_08OPDCDADA@?C?Q?$LI?E?$LI?E?$LM?v@ DB 0c3H, 0d1H, 0b8H, 0c5H, 0b8H, 0c5H
	DB	0bcH, 0f6H, 00H				; `string'
CONST	ENDS
;	COMDAT ??_C@_0BB@NJCLLDAP@?$LJ?L?C?$LL?$LL?j?F?w?G?T?C?Q?C?$LL?$LL?j@
CONST	SEGMENT
??_C@_0BB@NJCLLDAP@?$LJ?L?C?$LL?$LL?j?F?w?G?T?C?Q?C?$LL?$LL?j@ DB 0b9H, 0ccH
	DB	0c3H, 0bbH, 0bbH, 0eaH, 0c6H, 0f7H, 0c7H, 0d4H, 0c3H, 0d1H, 0c3H
	DB	0bbH, 0bbH, 0eaH, 00H			; `string'
CONST	ENDS
;	COMDAT ??_C@_06KFFIADGF@?C?Q?A?x?$MA?T@
CONST	SEGMENT
??_C@_06KFFIADGF@?C?Q?A?x?$MA?T@ DB 0c3H, 0d1H, 0c1H, 0f8H, 0c0H, 0d4H, 00H ; `string'
CONST	ENDS
;	COMDAT ??_C@_08HNPHKLMB@?C?V?$LE?k?$LM?U?$LN?G@
CONST	SEGMENT
??_C@_08HNPHKLMB@?C?V?$LE?k?$LM?U?$LN?G@ DB 0c3H, 0d6H, 0b4H, 0ebH, 0bcH, 0d5H
	DB	0bdH, 0c7H, 00H				; `string'
CONST	ENDS
;	COMDAT ??_C@_08MKACKNJD@?C?V?$LE?k?$MA?L?$MA?M@
CONST	SEGMENT
??_C@_08MKACKNJD@?C?V?$LE?k?$MA?L?$MA?M@ DB 0c3H, 0d6H, 0b4H, 0ebH, 0c0H, 0ccH
	DB	0c0H, 0cdH, 00H				; `string'
CONST	ENDS
;	COMDAT ??_C@_0O@KHPIEGBI@?C?Q?$MA?L?$MA?M?1?C?Q?$LM?U?$LN?G@
CONST	SEGMENT
??_C@_0O@KHPIEGBI@?C?Q?$MA?L?$MA?M?1?C?Q?$LM?U?$LN?G@ DB 0c3H, 0d1H, 0c0H
	DB	0ccH, 0c0H, 0cdH, '/', 0c3H, 0d1H, 0bcH, 0d5H, 0bdH, 0c7H, 00H ; `string'
CONST	ENDS
;	COMDAT ??_C@_06MLIEOKGJ@?C?Q?$LM?U?$LN?G@
CONST	SEGMENT
??_C@_06MLIEOKGJ@?C?Q?$LM?U?$LN?G@ DB 0c3H, 0d1H, 0bcH, 0d5H, 0bdH, 0c7H, 00H ; `string'
CONST	ENDS
;	COMDAT ??_C@_06HMHBOMDL@?C?Q?$MA?L?$MA?M@
CONST	SEGMENT
??_C@_06HMHBOMDL@?C?Q?$MA?L?$MA?M@ DB 0c3H, 0d1H, 0c0H, 0ccH, 0c0H, 0cdH, 00H ; `string'
CONST	ENDS
;	COMDAT ??_C@_06GNECPJOA@?C?Q?$LM?U?$MA?M@
CONST	SEGMENT
??_C@_06GNECPJOA@?C?Q?$LM?U?$MA?M@ DB 0c3H, 0d1H, 0bcH, 0d5H, 0c0H, 0cdH, 00H ; `string'
CONST	ENDS
;	COMDAT ??_C@_0P@JJNKLJJO@?$LA?G?$LK?$LA?F?r?$LB?U?$LM?v?$MA?M?$LH?$PM@
CONST	SEGMENT
??_C@_0P@JJNKLJJO@?$LA?G?$LK?$LA?F?r?$LB?U?$LM?v?$MA?M?$LH?$PM@ DB 0b0H, 0c7H
	DB	0baH, 0b0H, 0c6H, 0f2H, 0b1H, 0d5H, 0bcH, 0f6H, 0c0H, 0cdH, 0b7H
	DB	0fcH, 00H					; `string'
CONST	ENDS
;	COMDAT ??_C@_0L@FJFCOKJ@?$LE?$KJ?$MA?$PL?$LM?v?$MA?M?$LH?$PM@
CONST	SEGMENT
??_C@_0L@FJFCOKJ@?$LE?$KJ?$MA?$PL?$LM?v?$MA?M?$LH?$PM@ DB 0b4H, 0a9H, 0c0H
	DB	0fbH, 0bcH, 0f6H, 0c0H, 0cdH, 0b7H, 0fcH, 00H ; `string'
CONST	ENDS
;	COMDAT ??_C@_02PKFBJPLJ@10@
CONST	SEGMENT
??_C@_02PKFBJPLJ@10@ DB '10', 00H			; `string'
CONST	ENDS
;	COMDAT ??_C@_01LAKCGALK@9@
CONST	SEGMENT
??_C@_01LAKCGALK@9@ DB '9', 00H				; `string'
CONST	ENDS
;	COMDAT ??_C@_01KJLJFBPL@8@
CONST	SEGMENT
??_C@_01KJLJFBPL@8@ DB '8', 00H				; `string'
CONST	ENDS
;	COMDAT ??_C@_01COCBENDE@7@
CONST	SEGMENT
??_C@_01COCBENDE@7@ DB '7', 00H				; `string'
CONST	ENDS
;	COMDAT ??_C@_01DHDKHMHF@6@
CONST	SEGMENT
??_C@_01DHDKHMHF@6@ DB '6', 00H				; `string'
CONST	ENDS
;	COMDAT ??_C@_01BMBHCPLG@5@
CONST	SEGMENT
??_C@_01BMBHCPLG@5@ DB '5', 00H				; `string'
CONST	ENDS
;	COMDAT ??_C@_01FAMBOPH@4@
CONST	SEGMENT
??_C@_01FAMBOPH@4@ DB '4', 00H				; `string'
CONST	ENDS
;	COMDAT ??_C@_01EKENIIDA@3@
CONST	SEGMENT
??_C@_01EKENIIDA@3@ DB '3', 00H				; `string'
CONST	ENDS
;	COMDAT ??_C@_01FDFGLJHB@2@
CONST	SEGMENT
??_C@_01FDFGLJHB@2@ DB '2', 00H				; `string'
CONST	ENDS
;	COMDAT ??_C@_04MHOBIAIL@?$MA?$PM?C?$LM@
CONST	SEGMENT
??_C@_04MHOBIAIL@?$MA?$PM?C?$LM@ DB 0c0H, 0fcH, 0c3H, 0bcH, 00H ; `string'
CONST	ENDS
;	COMDAT ??_C@_04IFENPBOK@?$LB?$LI?$LK?P@
CONST	SEGMENT
??_C@_04IFENPBOK@?$LB?$LI?$LK?P@ DB 0b1H, 0b8H, 0baH, 0d0H, 00H ; `string'
CONST	ENDS
;	COMDAT ??_C@_02JINPPBEP@No@
CONST	SEGMENT
??_C@_02JINPPBEP@No@ DB 'No', 00H			; `string'
CONST	ENDS
;	COMDAT ?messageMap@?1??GetThisMessageMap@CTabStep@@KGPBUAFX_MSGMAP@@XZ@4U3@B
CONST	SEGMENT
?messageMap@?1??GetThisMessageMap@CTabStep@@KGPBUAFX_MSGMAP@@XZ@4U3@B DD FLAT:?GetThisMessageMap@CDialog@@KGPBUAFX_MSGMAP@@XZ ; `CTabStep::GetThisMessageMap'::`2'::messageMap
	DD	FLAT:?_messageEntries@?1??GetThisMessageMap@CTabStep@@KGPBUAFX_MSGMAP@@XZ@4QBUAFX_MSGMAP_ENTRY@@B
CONST	ENDS
;	COMDAT ?_messageEntries@?1??GetThisMessageMap@CTabStep@@KGPBUAFX_MSGMAP@@XZ@4QBUAFX_MSGMAP_ENTRY@@B
CONST	SEGMENT
?_messageEntries@?1??GetThisMessageMap@CTabStep@@KGPBUAFX_MSGMAP@@XZ@4QBUAFX_MSGMAP_ENTRY@@B DD 02H ; `CTabStep::GetThisMessageMap'::`2'::_messageEntries
	DD	00H
	DD	00H
	DD	00H
	DD	013H
	DD	FLAT:?OnDestroy@CTabStep@@IAEXXZ
	DD	00H
	DD	00H
	DD	00H
	DD	00H
	DD	00H
	DD	00H
CONST	ENDS
;	COMDAT ??_7CTabStep@@6B@
CONST	SEGMENT
??_7CTabStep@@6B@ DD FLAT:??_R4CTabStep@@6B@		; CTabStep::`vftable'
	DD	FLAT:?GetRuntimeClass@CDialog@@UBEPAUCRuntimeClass@@XZ
	DD	FLAT:??_ECTabStep@@UAEPAXI@Z
	DD	FLAT:?Serialize@CObject@@UAEXAAVCArchive@@@Z
	DD	FLAT:?AssertValid@CObject@@UBEXXZ
	DD	FLAT:?Dump@CObject@@UBEXAAVCDumpContext@@@Z
	DD	FLAT:?OnCmdMsg@CDialog@@UAEHIHPAXPAUAFX_CMDHANDLERINFO@@@Z
	DD	FLAT:?OnFinalRelease@CWnd@@UAEXXZ
	DD	FLAT:?IsInvokeAllowed@CCmdTarget@@UAEHJ@Z
	DD	FLAT:?GetDispatchIID@CCmdTarget@@UAEHPAU_GUID@@@Z
	DD	FLAT:?GetTypeInfoCount@CCmdTarget@@UAEIXZ
	DD	FLAT:?GetTypeLibCache@CCmdTarget@@UAEPAVCTypeLibCache@@XZ
	DD	FLAT:?GetTypeLib@CCmdTarget@@UAEJKPAPAUITypeLib@@@Z
	DD	FLAT:?GetMessageMap@CTabStep@@MBEPBUAFX_MSGMAP@@XZ
	DD	FLAT:?GetCommandMap@CCmdTarget@@MBEPBUAFX_OLECMDMAP@@XZ
	DD	FLAT:?GetDispatchMap@CCmdTarget@@MBEPBUAFX_DISPMAP@@XZ
	DD	FLAT:?GetConnectionMap@CCmdTarget@@MBEPBUAFX_CONNECTIONMAP@@XZ
	DD	FLAT:?GetInterfaceMap@CWnd@@MBEPBUAFX_INTERFACEMAP@@XZ
	DD	FLAT:?GetEventSinkMap@CCmdTarget@@MBEPBUAFX_EVENTSINKMAP@@XZ
	DD	FLAT:?OnCreateAggregates@CCmdTarget@@UAEHXZ
	DD	FLAT:?GetInterfaceHook@CCmdTarget@@UAEPAUIUnknown@@PBX@Z
	DD	FLAT:?GetExtraConnectionPoints@CCmdTarget@@MAEHPAVCPtrArray@@@Z
	DD	FLAT:?GetConnectionHook@CCmdTarget@@MAEPAUIConnectionPoint@@ABU_GUID@@@Z
	DD	FLAT:?PreSubclassWindow@CWnd@@UAEXXZ
	DD	FLAT:?Create@CWnd@@UAEHPBD0KABUtagRECT@@PAV1@IPAUCCreateContext@@@Z
	DD	FLAT:?CreateEx@CWnd@@UAEHKPBD0KABUtagRECT@@PAV1@IPAX@Z
	DD	FLAT:?CreateEx@CWnd@@UAEHKPBD0KHHHHPAUHWND__@@PAUHMENU__@@PAX@Z
	DD	FLAT:?DestroyWindow@CWnd@@UAEHXZ
	DD	FLAT:?PreCreateWindow@CWnd@@UAEHAAUtagCREATESTRUCTA@@@Z
	DD	FLAT:?CalcWindowRect@CWnd@@UAEXPAUtagRECT@@I@Z
	DD	FLAT:?GetMenu@CWnd@@UBEPAVCMenu@@XZ
	DD	FLAT:?SetMenu@CWnd@@UAEHPAVCMenu@@@Z
	DD	FLAT:?OnToolHitTest@CWnd@@UBEHVCPoint@@PAUtagTOOLINFOA@@@Z
	DD	FLAT:?GetScrollBarCtrl@CWnd@@UBEPAVCScrollBar@@H@Z
	DD	FLAT:?WinHelpA@CWnd@@UAEXKI@Z
	DD	FLAT:?HtmlHelpA@CWnd@@UAEXKI@Z
	DD	FLAT:?WinHelpInternal@CWnd@@UAEXKI@Z
	DD	FLAT:?ContinueModal@CWnd@@UAEHXZ
	DD	FLAT:?EndModalLoop@CWnd@@UAEXH@Z
	DD	FLAT:?OnDrawIconicThumbnailOrLivePreview@CWnd@@UAEXAAVCDC@@VCRect@@VCSize@@HAAH@Z
	DD	FLAT:?EnsureStdObj@CWnd@@UAEJXZ
	DD	FLAT:?get_accParent@CWnd@@UAEJPAPAUIDispatch@@@Z
	DD	FLAT:?get_accChildCount@CWnd@@UAEJPAJ@Z
	DD	FLAT:?get_accChild@CWnd@@UAEJUtagVARIANT@@PAPAUIDispatch@@@Z
	DD	FLAT:?get_accName@CWnd@@UAEJUtagVARIANT@@PAPA_W@Z
	DD	FLAT:?get_accValue@CWnd@@UAEJUtagVARIANT@@PAPA_W@Z
	DD	FLAT:?get_accDescription@CWnd@@UAEJUtagVARIANT@@PAPA_W@Z
	DD	FLAT:?get_accRole@CWnd@@UAEJUtagVARIANT@@PAU2@@Z
	DD	FLAT:?get_accState@CWnd@@UAEJUtagVARIANT@@PAU2@@Z
	DD	FLAT:?get_accHelp@CWnd@@UAEJUtagVARIANT@@PAPA_W@Z
	DD	FLAT:?get_accHelpTopic@CWnd@@UAEJPAPA_WUtagVARIANT@@PAJ@Z
	DD	FLAT:?get_accKeyboardShortcut@CWnd@@UAEJUtagVARIANT@@PAPA_W@Z
	DD	FLAT:?get_accFocus@CWnd@@UAEJPAUtagVARIANT@@@Z
	DD	FLAT:?get_accSelection@CWnd@@UAEJPAUtagVARIANT@@@Z
	DD	FLAT:?get_accDefaultAction@CWnd@@UAEJUtagVARIANT@@PAPA_W@Z
	DD	FLAT:?accSelect@CWnd@@UAEJJUtagVARIANT@@@Z
	DD	FLAT:?accLocation@CWnd@@UAEJPAJ000UtagVARIANT@@@Z
	DD	FLAT:?accNavigate@CWnd@@UAEJJUtagVARIANT@@PAU2@@Z
	DD	FLAT:?accHitTest@CWnd@@UAEJJJPAUtagVARIANT@@@Z
	DD	FLAT:?accDoDefaultAction@CWnd@@UAEJUtagVARIANT@@@Z
	DD	FLAT:?put_accName@CWnd@@UAEJUtagVARIANT@@PA_W@Z
	DD	FLAT:?put_accValue@CWnd@@UAEJUtagVARIANT@@PA_W@Z
	DD	FLAT:?SetProxy@CWnd@@UAEJPAUIAccessibleProxy@@@Z
	DD	FLAT:?CreateAccessibleProxy@CWnd@@UAEJIJPAJ@Z
	DD	FLAT:?OnCommand@CWnd@@MAEHIJ@Z
	DD	FLAT:?OnNotify@CWnd@@MAEHIJPAJ@Z
	DD	FLAT:?GetSuperWndProcAddr@CWnd@@MAEPAP6GJPAUHWND__@@IIJ@ZXZ
	DD	FLAT:?DoDataExchange@CTabStep@@MAEXPAVCDataExchange@@@Z
	DD	FLAT:?BeginModalState@CWnd@@UAEXXZ
	DD	FLAT:?EndModalState@CWnd@@UAEXXZ
	DD	FLAT:?PreTranslateMessage@CEscDialog@@MAEHPAUtagMSG@@@Z
	DD	FLAT:?OnAmbientProperty@CWnd@@UAEHPAVCOleControlSite@@JPAUtagVARIANT@@@Z
	DD	FLAT:?WindowProc@CWnd@@MAEJIIJ@Z
	DD	FLAT:?OnWndMsg@CWnd@@MAEHIIJPAJ@Z
	DD	FLAT:?DefWindowProcA@CWnd@@MAEJIIJ@Z
	DD	FLAT:?PostNcDestroy@CWnd@@MAEXXZ
	DD	FLAT:?OnChildNotify@CWnd@@MAEHIIJPAJ@Z
	DD	FLAT:?OnTouchInputs@CWnd@@MAEHIPAUtagTOUCHINPUT@@@Z
	DD	FLAT:?OnTouchInput@CWnd@@MAEHVCPoint@@HHPAUtagTOUCHINPUT@@@Z
	DD	FLAT:?GetGestureStatus@CWnd@@MAEKVCPoint@@@Z
	DD	FLAT:?OnGestureZoom@CWnd@@MAEHVCPoint@@J@Z
	DD	FLAT:?OnGesturePan@CWnd@@MAEHVCPoint@@0@Z
	DD	FLAT:?OnGestureRotate@CWnd@@MAEHVCPoint@@N@Z
	DD	FLAT:?OnGestureTwoFingerTap@CWnd@@MAEHVCPoint@@@Z
	DD	FLAT:?OnGesturePressAndTap@CWnd@@MAEHVCPoint@@J@Z
	DD	FLAT:?ResizeDynamicLayout@CWnd@@MAEXXZ
	DD	FLAT:?CheckAutoCenter@CDialog@@UAEHXZ
	DD	FLAT:?IsFrameWnd@CWnd@@UBEHXZ
	DD	FLAT:?CreateControlContainer@CWnd@@MAEHPAPAVCOleControlContainer@@@Z
	DD	FLAT:?CreateControlSite@CWnd@@MAEHPAVCOleControlContainer@@PAPAVCOleControlSite@@IABU_GUID@@@Z
	DD	FLAT:?SetOccDialogInfo@CDialog@@MAEHPAU_AFX_OCC_DIALOG_INFO@@@Z
	DD	FLAT:?GetOccDialogInfo@CDialog@@MAEPAU_AFX_OCC_DIALOG_INFO@@XZ
	DD	FLAT:?Create@CDialog@@UAEHIPAVCWnd@@@Z
	DD	FLAT:?Create@CDialog@@UAEHPBDPAVCWnd@@@Z
	DD	FLAT:?CreateIndirect@CDialog@@UAEHPAXPAVCWnd@@@Z
	DD	FLAT:?CreateIndirect@CDialog@@UAEHPBUDLGTEMPLATE@@PAVCWnd@@PAX@Z
	DD	FLAT:?DoModal@CDialog@@UAEHXZ
	DD	FLAT:?OnInitDialog@CTabStep@@MAEHXZ
	DD	FLAT:?OnSetFont@CDialog@@UAEXPAVCFont@@@Z
	DD	FLAT:?OnOK@CDialog@@MAEXXZ
	DD	FLAT:?OnCancel@CDialog@@MAEXXZ
	DD	FLAT:?PreInitDialog@CDialog@@MAEXXZ
	DD	FLAT:?UpdateDlg@CDlgInterface@@UAEXXZ
	DD	FLAT:?SetChartFocus@CDlgInterface@@UAEXH@Z
	DD	FLAT:?GuganBtnUpdate@CDlgInterface@@UAEXXZ
CONST	ENDS
;	COMDAT ??_R1A@?0A@EA@CEscDialog@@8
rdata$r	SEGMENT
??_R1A@?0A@EA@CEscDialog@@8 DD FLAT:??_R0?AVCEscDialog@@@8 ; CEscDialog::`RTTI Base Class Descriptor at (0,-1,0,64)'
	DD	04H
	DD	00H
	DD	0ffffffffH
	DD	00H
	DD	040H
	DD	FLAT:??_R3CEscDialog@@8
rdata$r	ENDS
;	COMDAT ??_R2CEscDialog@@8
rdata$r	SEGMENT
??_R2CEscDialog@@8 DD FLAT:??_R1A@?0A@EA@CEscDialog@@8	; CEscDialog::`RTTI Base Class Array'
	DD	FLAT:??_R1A@?0A@EA@CDialog@@8
	DD	FLAT:??_R1A@?0A@EA@CWnd@@8
	DD	FLAT:??_R1A@?0A@EA@CCmdTarget@@8
	DD	FLAT:??_R1A@?0A@EA@CObject@@8
rdata$r	ENDS
;	COMDAT ??_R3CEscDialog@@8
rdata$r	SEGMENT
??_R3CEscDialog@@8 DD 00H				; CEscDialog::`RTTI Class Hierarchy Descriptor'
	DD	00H
	DD	05H
	DD	FLAT:??_R2CEscDialog@@8
rdata$r	ENDS
;	COMDAT ??_R0?AVCEscDialog@@@8
data$rs	SEGMENT
??_R0?AVCEscDialog@@@8 DD FLAT:??_7type_info@@6B@	; CEscDialog `RTTI Type Descriptor'
	DD	00H
	DB	'.?AVCEscDialog@@', 00H
data$rs	ENDS
;	COMDAT ??_R2CDialog@@8
rdata$r	SEGMENT
??_R2CDialog@@8 DD FLAT:??_R1A@?0A@EA@CDialog@@8	; CDialog::`RTTI Base Class Array'
	DD	FLAT:??_R1A@?0A@EA@CWnd@@8
	DD	FLAT:??_R1A@?0A@EA@CCmdTarget@@8
	DD	FLAT:??_R1A@?0A@EA@CObject@@8
rdata$r	ENDS
;	COMDAT ??_R3CDialog@@8
rdata$r	SEGMENT
??_R3CDialog@@8 DD 00H					; CDialog::`RTTI Class Hierarchy Descriptor'
	DD	00H
	DD	04H
	DD	FLAT:??_R2CDialog@@8
rdata$r	ENDS
;	COMDAT ??_R0?AVCDialog@@@8
data$rs	SEGMENT
??_R0?AVCDialog@@@8 DD FLAT:??_7type_info@@6B@		; CDialog `RTTI Type Descriptor'
	DD	00H
	DB	'.?AVCDialog@@', 00H
data$rs	ENDS
;	COMDAT ??_R1A@?0A@EA@CDialog@@8
rdata$r	SEGMENT
??_R1A@?0A@EA@CDialog@@8 DD FLAT:??_R0?AVCDialog@@@8	; CDialog::`RTTI Base Class Descriptor at (0,-1,0,64)'
	DD	03H
	DD	00H
	DD	0ffffffffH
	DD	00H
	DD	040H
	DD	FLAT:??_R3CDialog@@8
rdata$r	ENDS
;	COMDAT ??_R2CCmdTarget@@8
rdata$r	SEGMENT
??_R2CCmdTarget@@8 DD FLAT:??_R1A@?0A@EA@CCmdTarget@@8	; CCmdTarget::`RTTI Base Class Array'
	DD	FLAT:??_R1A@?0A@EA@CObject@@8
rdata$r	ENDS
;	COMDAT ??_R3CCmdTarget@@8
rdata$r	SEGMENT
??_R3CCmdTarget@@8 DD 00H				; CCmdTarget::`RTTI Class Hierarchy Descriptor'
	DD	00H
	DD	02H
	DD	FLAT:??_R2CCmdTarget@@8
rdata$r	ENDS
;	COMDAT ??_R0?AVCCmdTarget@@@8
data$rs	SEGMENT
??_R0?AVCCmdTarget@@@8 DD FLAT:??_7type_info@@6B@	; CCmdTarget `RTTI Type Descriptor'
	DD	00H
	DB	'.?AVCCmdTarget@@', 00H
data$rs	ENDS
;	COMDAT ??_R1A@?0A@EA@CCmdTarget@@8
rdata$r	SEGMENT
??_R1A@?0A@EA@CCmdTarget@@8 DD FLAT:??_R0?AVCCmdTarget@@@8 ; CCmdTarget::`RTTI Base Class Descriptor at (0,-1,0,64)'
	DD	01H
	DD	00H
	DD	0ffffffffH
	DD	00H
	DD	040H
	DD	FLAT:??_R3CCmdTarget@@8
rdata$r	ENDS
;	COMDAT ??_R2CWnd@@8
rdata$r	SEGMENT
??_R2CWnd@@8 DD	FLAT:??_R1A@?0A@EA@CWnd@@8		; CWnd::`RTTI Base Class Array'
	DD	FLAT:??_R1A@?0A@EA@CCmdTarget@@8
	DD	FLAT:??_R1A@?0A@EA@CObject@@8
rdata$r	ENDS
;	COMDAT ??_R3CWnd@@8
rdata$r	SEGMENT
??_R3CWnd@@8 DD	00H					; CWnd::`RTTI Class Hierarchy Descriptor'
	DD	00H
	DD	03H
	DD	FLAT:??_R2CWnd@@8
rdata$r	ENDS
;	COMDAT ??_R0?AVCWnd@@@8
data$rs	SEGMENT
??_R0?AVCWnd@@@8 DD FLAT:??_7type_info@@6B@		; CWnd `RTTI Type Descriptor'
	DD	00H
	DB	'.?AVCWnd@@', 00H
data$rs	ENDS
;	COMDAT ??_R1A@?0A@EA@CWnd@@8
rdata$r	SEGMENT
??_R1A@?0A@EA@CWnd@@8 DD FLAT:??_R0?AVCWnd@@@8		; CWnd::`RTTI Base Class Descriptor at (0,-1,0,64)'
	DD	02H
	DD	00H
	DD	0ffffffffH
	DD	00H
	DD	040H
	DD	FLAT:??_R3CWnd@@8
rdata$r	ENDS
;	COMDAT ??_R1A@?0A@EA@CObject@@8
rdata$r	SEGMENT
??_R1A@?0A@EA@CObject@@8 DD FLAT:??_R0?AVCObject@@@8	; CObject::`RTTI Base Class Descriptor at (0,-1,0,64)'
	DD	00H
	DD	00H
	DD	0ffffffffH
	DD	00H
	DD	040H
	DD	FLAT:??_R3CObject@@8
rdata$r	ENDS
;	COMDAT ??_R2CObject@@8
rdata$r	SEGMENT
??_R2CObject@@8 DD FLAT:??_R1A@?0A@EA@CObject@@8	; CObject::`RTTI Base Class Array'
rdata$r	ENDS
;	COMDAT ??_R3CObject@@8
rdata$r	SEGMENT
??_R3CObject@@8 DD 00H					; CObject::`RTTI Class Hierarchy Descriptor'
	DD	00H
	DD	01H
	DD	FLAT:??_R2CObject@@8
rdata$r	ENDS
;	COMDAT ??_R0?AVCObject@@@8
data$rs	SEGMENT
??_R0?AVCObject@@@8 DD FLAT:??_7type_info@@6B@		; CObject `RTTI Type Descriptor'
	DD	00H
	DB	'.?AVCObject@@', 00H
data$rs	ENDS
;	COMDAT ??_C@_01HIHLOKLC@1@
CONST	SEGMENT
??_C@_01HIHLOKLC@1@ DB '1', 00H				; `string'
CONST	ENDS
;	COMDAT ??_C@_00CNPNBAHC@@
CONST	SEGMENT
??_C@_00CNPNBAHC@@ DB 00H				; `string'
CONST	ENDS
;	COMDAT xdata$x
xdata$x	SEGMENT
__ehfuncinfo$?SetDataSpreadGrid@CTabStep@@QAEXXZ DD 019930522H
	DD	07H
	DD	FLAT:__unwindtable$?SetDataSpreadGrid@CTabStep@@QAEXXZ
	DD	2 DUP(00H)
	DD	2 DUP(00H)
	DD	00H
	DD	01H
__unwindtable$?SetDataSpreadGrid@CTabStep@@QAEXXZ DD 0ffffffffH
	DD	FLAT:__unwindfunclet$?SetDataSpreadGrid@CTabStep@@QAEXXZ$0
	DD	00H
	DD	FLAT:__unwindfunclet$?SetDataSpreadGrid@CTabStep@@QAEXXZ$1
	DD	00H
	DD	FLAT:__unwindfunclet$?SetDataSpreadGrid@CTabStep@@QAEXXZ$7
	DD	00H
	DD	FLAT:__unwindfunclet$?SetDataSpreadGrid@CTabStep@@QAEXXZ$8
	DD	00H
	DD	FLAT:__unwindfunclet$?SetDataSpreadGrid@CTabStep@@QAEXXZ$9
	DD	00H
	DD	FLAT:__unwindfunclet$?SetDataSpreadGrid@CTabStep@@QAEXXZ$10
	DD	00H
	DD	FLAT:__unwindfunclet$?SetDataSpreadGrid@CTabStep@@QAEXXZ$11
xdata$x	ENDS
;	COMDAT xdata$x
xdata$x	SEGMENT
__ehfuncinfo$?ParsingstrHtml@CTabStep@@QAE?AV?$CStringT@DV?$StrTraitMFC_DLL@DV?$ChTraitsCRT@D@ATL@@@@@ATL@@V23@@Z DD 019930522H
	DD	0acH
	DD	FLAT:__unwindtable$?ParsingstrHtml@CTabStep@@QAE?AV?$CStringT@DV?$StrTraitMFC_DLL@DV?$ChTraitsCRT@D@ATL@@@@@ATL@@V23@@Z
	DD	2 DUP(00H)
	DD	2 DUP(00H)
	DD	00H
	DD	01H
__unwindtable$?ParsingstrHtml@CTabStep@@QAE?AV?$CStringT@DV?$StrTraitMFC_DLL@DV?$ChTraitsCRT@D@ATL@@@@@ATL@@V23@@Z DD 0ffffffffH
	DD	FLAT:__unwindfunclet$?ParsingstrHtml@CTabStep@@QAE?AV?$CStringT@DV?$StrTraitMFC_DLL@DV?$ChTraitsCRT@D@ATL@@@@@ATL@@V23@@Z$172
	DD	00H
	DD	FLAT:__unwindfunclet$?ParsingstrHtml@CTabStep@@QAE?AV?$CStringT@DV?$StrTraitMFC_DLL@DV?$ChTraitsCRT@D@ATL@@@@@ATL@@V23@@Z$0
	DD	01H
	DD	FLAT:__unwindfunclet$?ParsingstrHtml@CTabStep@@QAE?AV?$CStringT@DV?$StrTraitMFC_DLL@DV?$ChTraitsCRT@D@ATL@@@@@ATL@@V23@@Z$1
	DD	02H
	DD	FLAT:__unwindfunclet$?ParsingstrHtml@CTabStep@@QAE?AV?$CStringT@DV?$StrTraitMFC_DLL@DV?$ChTraitsCRT@D@ATL@@@@@ATL@@V23@@Z$2
	DD	03H
	DD	FLAT:__unwindfunclet$?ParsingstrHtml@CTabStep@@QAE?AV?$CStringT@DV?$StrTraitMFC_DLL@DV?$ChTraitsCRT@D@ATL@@@@@ATL@@V23@@Z$3
	DD	04H
	DD	FLAT:__unwindfunclet$?ParsingstrHtml@CTabStep@@QAE?AV?$CStringT@DV?$StrTraitMFC_DLL@DV?$ChTraitsCRT@D@ATL@@@@@ATL@@V23@@Z$4
	DD	05H
	DD	FLAT:__unwindfunclet$?ParsingstrHtml@CTabStep@@QAE?AV?$CStringT@DV?$StrTraitMFC_DLL@DV?$ChTraitsCRT@D@ATL@@@@@ATL@@V23@@Z$5
	DD	06H
	DD	FLAT:__unwindfunclet$?ParsingstrHtml@CTabStep@@QAE?AV?$CStringT@DV?$StrTraitMFC_DLL@DV?$ChTraitsCRT@D@ATL@@@@@ATL@@V23@@Z$6
	DD	07H
	DD	FLAT:__unwindfunclet$?ParsingstrHtml@CTabStep@@QAE?AV?$CStringT@DV?$StrTraitMFC_DLL@DV?$ChTraitsCRT@D@ATL@@@@@ATL@@V23@@Z$7
	DD	08H
	DD	FLAT:__unwindfunclet$?ParsingstrHtml@CTabStep@@QAE?AV?$CStringT@DV?$StrTraitMFC_DLL@DV?$ChTraitsCRT@D@ATL@@@@@ATL@@V23@@Z$8
	DD	09H
	DD	FLAT:__unwindfunclet$?ParsingstrHtml@CTabStep@@QAE?AV?$CStringT@DV?$StrTraitMFC_DLL@DV?$ChTraitsCRT@D@ATL@@@@@ATL@@V23@@Z$9
	DD	0aH
	DD	FLAT:__unwindfunclet$?ParsingstrHtml@CTabStep@@QAE?AV?$CStringT@DV?$StrTraitMFC_DLL@DV?$ChTraitsCRT@D@ATL@@@@@ATL@@V23@@Z$10
	DD	0bH
	DD	FLAT:__unwindfunclet$?ParsingstrHtml@CTabStep@@QAE?AV?$CStringT@DV?$StrTraitMFC_DLL@DV?$ChTraitsCRT@D@ATL@@@@@ATL@@V23@@Z$11
	DD	0cH
	DD	FLAT:__unwindfunclet$?ParsingstrHtml@CTabStep@@QAE?AV?$CStringT@DV?$StrTraitMFC_DLL@DV?$ChTraitsCRT@D@ATL@@@@@ATL@@V23@@Z$12
	DD	0dH
	DD	FLAT:__unwindfunclet$?ParsingstrHtml@CTabStep@@QAE?AV?$CStringT@DV?$StrTraitMFC_DLL@DV?$ChTraitsCRT@D@ATL@@@@@ATL@@V23@@Z$13
	DD	0eH
	DD	FLAT:__unwindfunclet$?ParsingstrHtml@CTabStep@@QAE?AV?$CStringT@DV?$StrTraitMFC_DLL@DV?$ChTraitsCRT@D@ATL@@@@@ATL@@V23@@Z$14
	DD	0fH
	DD	FLAT:__unwindfunclet$?ParsingstrHtml@CTabStep@@QAE?AV?$CStringT@DV?$StrTraitMFC_DLL@DV?$ChTraitsCRT@D@ATL@@@@@ATL@@V23@@Z$15
	DD	010H
	DD	FLAT:__unwindfunclet$?ParsingstrHtml@CTabStep@@QAE?AV?$CStringT@DV?$StrTraitMFC_DLL@DV?$ChTraitsCRT@D@ATL@@@@@ATL@@V23@@Z$16
	DD	011H
	DD	FLAT:__unwindfunclet$?ParsingstrHtml@CTabStep@@QAE?AV?$CStringT@DV?$StrTraitMFC_DLL@DV?$ChTraitsCRT@D@ATL@@@@@ATL@@V23@@Z$17
	DD	012H
	DD	FLAT:__unwindfunclet$?ParsingstrHtml@CTabStep@@QAE?AV?$CStringT@DV?$StrTraitMFC_DLL@DV?$ChTraitsCRT@D@ATL@@@@@ATL@@V23@@Z$18
	DD	013H
	DD	FLAT:__unwindfunclet$?ParsingstrHtml@CTabStep@@QAE?AV?$CStringT@DV?$StrTraitMFC_DLL@DV?$ChTraitsCRT@D@ATL@@@@@ATL@@V23@@Z$19
	DD	014H
	DD	FLAT:__unwindfunclet$?ParsingstrHtml@CTabStep@@QAE?AV?$CStringT@DV?$StrTraitMFC_DLL@DV?$ChTraitsCRT@D@ATL@@@@@ATL@@V23@@Z$20
	DD	015H
	DD	FLAT:__unwindfunclet$?ParsingstrHtml@CTabStep@@QAE?AV?$CStringT@DV?$StrTraitMFC_DLL@DV?$ChTraitsCRT@D@ATL@@@@@ATL@@V23@@Z$21
	DD	016H
	DD	FLAT:__unwindfunclet$?ParsingstrHtml@CTabStep@@QAE?AV?$CStringT@DV?$StrTraitMFC_DLL@DV?$ChTraitsCRT@D@ATL@@@@@ATL@@V23@@Z$22
	DD	017H
	DD	FLAT:__unwindfunclet$?ParsingstrHtml@CTabStep@@QAE?AV?$CStringT@DV?$StrTraitMFC_DLL@DV?$ChTraitsCRT@D@ATL@@@@@ATL@@V23@@Z$23
	DD	018H
	DD	FLAT:__unwindfunclet$?ParsingstrHtml@CTabStep@@QAE?AV?$CStringT@DV?$StrTraitMFC_DLL@DV?$ChTraitsCRT@D@ATL@@@@@ATL@@V23@@Z$24
	DD	019H
	DD	FLAT:__unwindfunclet$?ParsingstrHtml@CTabStep@@QAE?AV?$CStringT@DV?$StrTraitMFC_DLL@DV?$ChTraitsCRT@D@ATL@@@@@ATL@@V23@@Z$25
	DD	01aH
	DD	FLAT:__unwindfunclet$?ParsingstrHtml@CTabStep@@QAE?AV?$CStringT@DV?$StrTraitMFC_DLL@DV?$ChTraitsCRT@D@ATL@@@@@ATL@@V23@@Z$26
	DD	01bH
	DD	FLAT:__unwindfunclet$?ParsingstrHtml@CTabStep@@QAE?AV?$CStringT@DV?$StrTraitMFC_DLL@DV?$ChTraitsCRT@D@ATL@@@@@ATL@@V23@@Z$27
	DD	01cH
	DD	FLAT:__unwindfunclet$?ParsingstrHtml@CTabStep@@QAE?AV?$CStringT@DV?$StrTraitMFC_DLL@DV?$ChTraitsCRT@D@ATL@@@@@ATL@@V23@@Z$28
	DD	01dH
	DD	FLAT:__unwindfunclet$?ParsingstrHtml@CTabStep@@QAE?AV?$CStringT@DV?$StrTraitMFC_DLL@DV?$ChTraitsCRT@D@ATL@@@@@ATL@@V23@@Z$29
	DD	01eH
	DD	FLAT:__unwindfunclet$?ParsingstrHtml@CTabStep@@QAE?AV?$CStringT@DV?$StrTraitMFC_DLL@DV?$ChTraitsCRT@D@ATL@@@@@ATL@@V23@@Z$30
	DD	01fH
	DD	FLAT:__unwindfunclet$?ParsingstrHtml@CTabStep@@QAE?AV?$CStringT@DV?$StrTraitMFC_DLL@DV?$ChTraitsCRT@D@ATL@@@@@ATL@@V23@@Z$31
	DD	020H
	DD	FLAT:__unwindfunclet$?ParsingstrHtml@CTabStep@@QAE?AV?$CStringT@DV?$StrTraitMFC_DLL@DV?$ChTraitsCRT@D@ATL@@@@@ATL@@V23@@Z$32
	DD	021H
	DD	FLAT:__unwindfunclet$?ParsingstrHtml@CTabStep@@QAE?AV?$CStringT@DV?$StrTraitMFC_DLL@DV?$ChTraitsCRT@D@ATL@@@@@ATL@@V23@@Z$33
	DD	022H
	DD	FLAT:__unwindfunclet$?ParsingstrHtml@CTabStep@@QAE?AV?$CStringT@DV?$StrTraitMFC_DLL@DV?$ChTraitsCRT@D@ATL@@@@@ATL@@V23@@Z$34
	DD	023H
	DD	FLAT:__unwindfunclet$?ParsingstrHtml@CTabStep@@QAE?AV?$CStringT@DV?$StrTraitMFC_DLL@DV?$ChTraitsCRT@D@ATL@@@@@ATL@@V23@@Z$35
	DD	024H
	DD	FLAT:__unwindfunclet$?ParsingstrHtml@CTabStep@@QAE?AV?$CStringT@DV?$StrTraitMFC_DLL@DV?$ChTraitsCRT@D@ATL@@@@@ATL@@V23@@Z$36
	DD	025H
	DD	FLAT:__unwindfunclet$?ParsingstrHtml@CTabStep@@QAE?AV?$CStringT@DV?$StrTraitMFC_DLL@DV?$ChTraitsCRT@D@ATL@@@@@ATL@@V23@@Z$37
	DD	026H
	DD	FLAT:__unwindfunclet$?ParsingstrHtml@CTabStep@@QAE?AV?$CStringT@DV?$StrTraitMFC_DLL@DV?$ChTraitsCRT@D@ATL@@@@@ATL@@V23@@Z$38
	DD	027H
	DD	FLAT:__unwindfunclet$?ParsingstrHtml@CTabStep@@QAE?AV?$CStringT@DV?$StrTraitMFC_DLL@DV?$ChTraitsCRT@D@ATL@@@@@ATL@@V23@@Z$39
	DD	028H
	DD	FLAT:__unwindfunclet$?ParsingstrHtml@CTabStep@@QAE?AV?$CStringT@DV?$StrTraitMFC_DLL@DV?$ChTraitsCRT@D@ATL@@@@@ATL@@V23@@Z$40
	DD	029H
	DD	FLAT:__unwindfunclet$?ParsingstrHtml@CTabStep@@QAE?AV?$CStringT@DV?$StrTraitMFC_DLL@DV?$ChTraitsCRT@D@ATL@@@@@ATL@@V23@@Z$41
	DD	02aH
	DD	FLAT:__unwindfunclet$?ParsingstrHtml@CTabStep@@QAE?AV?$CStringT@DV?$StrTraitMFC_DLL@DV?$ChTraitsCRT@D@ATL@@@@@ATL@@V23@@Z$42
	DD	02bH
	DD	FLAT:__unwindfunclet$?ParsingstrHtml@CTabStep@@QAE?AV?$CStringT@DV?$StrTraitMFC_DLL@DV?$ChTraitsCRT@D@ATL@@@@@ATL@@V23@@Z$43
	DD	02cH
	DD	FLAT:__unwindfunclet$?ParsingstrHtml@CTabStep@@QAE?AV?$CStringT@DV?$StrTraitMFC_DLL@DV?$ChTraitsCRT@D@ATL@@@@@ATL@@V23@@Z$44
	DD	02dH
	DD	FLAT:__unwindfunclet$?ParsingstrHtml@CTabStep@@QAE?AV?$CStringT@DV?$StrTraitMFC_DLL@DV?$ChTraitsCRT@D@ATL@@@@@ATL@@V23@@Z$45
	DD	02eH
	DD	FLAT:__unwindfunclet$?ParsingstrHtml@CTabStep@@QAE?AV?$CStringT@DV?$StrTraitMFC_DLL@DV?$ChTraitsCRT@D@ATL@@@@@ATL@@V23@@Z$46
	DD	02fH
	DD	FLAT:__unwindfunclet$?ParsingstrHtml@CTabStep@@QAE?AV?$CStringT@DV?$StrTraitMFC_DLL@DV?$ChTraitsCRT@D@ATL@@@@@ATL@@V23@@Z$47
	DD	030H
	DD	FLAT:__unwindfunclet$?ParsingstrHtml@CTabStep@@QAE?AV?$CStringT@DV?$StrTraitMFC_DLL@DV?$ChTraitsCRT@D@ATL@@@@@ATL@@V23@@Z$48
	DD	031H
	DD	FLAT:__unwindfunclet$?ParsingstrHtml@CTabStep@@QAE?AV?$CStringT@DV?$StrTraitMFC_DLL@DV?$ChTraitsCRT@D@ATL@@@@@ATL@@V23@@Z$49
	DD	032H
	DD	FLAT:__unwindfunclet$?ParsingstrHtml@CTabStep@@QAE?AV?$CStringT@DV?$StrTraitMFC_DLL@DV?$ChTraitsCRT@D@ATL@@@@@ATL@@V23@@Z$50
	DD	033H
	DD	FLAT:__unwindfunclet$?ParsingstrHtml@CTabStep@@QAE?AV?$CStringT@DV?$StrTraitMFC_DLL@DV?$ChTraitsCRT@D@ATL@@@@@ATL@@V23@@Z$51
	DD	034H
	DD	FLAT:__unwindfunclet$?ParsingstrHtml@CTabStep@@QAE?AV?$CStringT@DV?$StrTraitMFC_DLL@DV?$ChTraitsCRT@D@ATL@@@@@ATL@@V23@@Z$52
	DD	035H
	DD	FLAT:__unwindfunclet$?ParsingstrHtml@CTabStep@@QAE?AV?$CStringT@DV?$StrTraitMFC_DLL@DV?$ChTraitsCRT@D@ATL@@@@@ATL@@V23@@Z$53
	DD	036H
	DD	FLAT:__unwindfunclet$?ParsingstrHtml@CTabStep@@QAE?AV?$CStringT@DV?$StrTraitMFC_DLL@DV?$ChTraitsCRT@D@ATL@@@@@ATL@@V23@@Z$54
	DD	037H
	DD	FLAT:__unwindfunclet$?ParsingstrHtml@CTabStep@@QAE?AV?$CStringT@DV?$StrTraitMFC_DLL@DV?$ChTraitsCRT@D@ATL@@@@@ATL@@V23@@Z$55
	DD	038H
	DD	FLAT:__unwindfunclet$?ParsingstrHtml@CTabStep@@QAE?AV?$CStringT@DV?$StrTraitMFC_DLL@DV?$ChTraitsCRT@D@ATL@@@@@ATL@@V23@@Z$56
	DD	039H
	DD	FLAT:__unwindfunclet$?ParsingstrHtml@CTabStep@@QAE?AV?$CStringT@DV?$StrTraitMFC_DLL@DV?$ChTraitsCRT@D@ATL@@@@@ATL@@V23@@Z$57
	DD	03aH
	DD	FLAT:__unwindfunclet$?ParsingstrHtml@CTabStep@@QAE?AV?$CStringT@DV?$StrTraitMFC_DLL@DV?$ChTraitsCRT@D@ATL@@@@@ATL@@V23@@Z$58
	DD	03bH
	DD	FLAT:__unwindfunclet$?ParsingstrHtml@CTabStep@@QAE?AV?$CStringT@DV?$StrTraitMFC_DLL@DV?$ChTraitsCRT@D@ATL@@@@@ATL@@V23@@Z$59
	DD	03cH
	DD	FLAT:__unwindfunclet$?ParsingstrHtml@CTabStep@@QAE?AV?$CStringT@DV?$StrTraitMFC_DLL@DV?$ChTraitsCRT@D@ATL@@@@@ATL@@V23@@Z$60
	DD	03dH
	DD	FLAT:__unwindfunclet$?ParsingstrHtml@CTabStep@@QAE?AV?$CStringT@DV?$StrTraitMFC_DLL@DV?$ChTraitsCRT@D@ATL@@@@@ATL@@V23@@Z$61
	DD	03eH
	DD	FLAT:__unwindfunclet$?ParsingstrHtml@CTabStep@@QAE?AV?$CStringT@DV?$StrTraitMFC_DLL@DV?$ChTraitsCRT@D@ATL@@@@@ATL@@V23@@Z$62
	DD	03fH
	DD	FLAT:__unwindfunclet$?ParsingstrHtml@CTabStep@@QAE?AV?$CStringT@DV?$StrTraitMFC_DLL@DV?$ChTraitsCRT@D@ATL@@@@@ATL@@V23@@Z$63
	DD	040H
	DD	FLAT:__unwindfunclet$?ParsingstrHtml@CTabStep@@QAE?AV?$CStringT@DV?$StrTraitMFC_DLL@DV?$ChTraitsCRT@D@ATL@@@@@ATL@@V23@@Z$64
	DD	041H
	DD	FLAT:__unwindfunclet$?ParsingstrHtml@CTabStep@@QAE?AV?$CStringT@DV?$StrTraitMFC_DLL@DV?$ChTraitsCRT@D@ATL@@@@@ATL@@V23@@Z$65
	DD	042H
	DD	FLAT:__unwindfunclet$?ParsingstrHtml@CTabStep@@QAE?AV?$CStringT@DV?$StrTraitMFC_DLL@DV?$ChTraitsCRT@D@ATL@@@@@ATL@@V23@@Z$66
	DD	043H
	DD	FLAT:__unwindfunclet$?ParsingstrHtml@CTabStep@@QAE?AV?$CStringT@DV?$StrTraitMFC_DLL@DV?$ChTraitsCRT@D@ATL@@@@@ATL@@V23@@Z$67
	DD	044H
	DD	FLAT:__unwindfunclet$?ParsingstrHtml@CTabStep@@QAE?AV?$CStringT@DV?$StrTraitMFC_DLL@DV?$ChTraitsCRT@D@ATL@@@@@ATL@@V23@@Z$68
	DD	045H
	DD	FLAT:__unwindfunclet$?ParsingstrHtml@CTabStep@@QAE?AV?$CStringT@DV?$StrTraitMFC_DLL@DV?$ChTraitsCRT@D@ATL@@@@@ATL@@V23@@Z$69
	DD	046H
	DD	FLAT:__unwindfunclet$?ParsingstrHtml@CTabStep@@QAE?AV?$CStringT@DV?$StrTraitMFC_DLL@DV?$ChTraitsCRT@D@ATL@@@@@ATL@@V23@@Z$70
	DD	047H
	DD	FLAT:__unwindfunclet$?ParsingstrHtml@CTabStep@@QAE?AV?$CStringT@DV?$StrTraitMFC_DLL@DV?$ChTraitsCRT@D@ATL@@@@@ATL@@V23@@Z$71
	DD	048H
	DD	FLAT:__unwindfunclet$?ParsingstrHtml@CTabStep@@QAE?AV?$CStringT@DV?$StrTraitMFC_DLL@DV?$ChTraitsCRT@D@ATL@@@@@ATL@@V23@@Z$72
	DD	049H
	DD	FLAT:__unwindfunclet$?ParsingstrHtml@CTabStep@@QAE?AV?$CStringT@DV?$StrTraitMFC_DLL@DV?$ChTraitsCRT@D@ATL@@@@@ATL@@V23@@Z$73
	DD	04aH
	DD	FLAT:__unwindfunclet$?ParsingstrHtml@CTabStep@@QAE?AV?$CStringT@DV?$StrTraitMFC_DLL@DV?$ChTraitsCRT@D@ATL@@@@@ATL@@V23@@Z$74
	DD	04bH
	DD	FLAT:__unwindfunclet$?ParsingstrHtml@CTabStep@@QAE?AV?$CStringT@DV?$StrTraitMFC_DLL@DV?$ChTraitsCRT@D@ATL@@@@@ATL@@V23@@Z$75
	DD	04cH
	DD	FLAT:__unwindfunclet$?ParsingstrHtml@CTabStep@@QAE?AV?$CStringT@DV?$StrTraitMFC_DLL@DV?$ChTraitsCRT@D@ATL@@@@@ATL@@V23@@Z$76
	DD	04dH
	DD	FLAT:__unwindfunclet$?ParsingstrHtml@CTabStep@@QAE?AV?$CStringT@DV?$StrTraitMFC_DLL@DV?$ChTraitsCRT@D@ATL@@@@@ATL@@V23@@Z$77
	DD	04eH
	DD	FLAT:__unwindfunclet$?ParsingstrHtml@CTabStep@@QAE?AV?$CStringT@DV?$StrTraitMFC_DLL@DV?$ChTraitsCRT@D@ATL@@@@@ATL@@V23@@Z$78
	DD	04fH
	DD	FLAT:__unwindfunclet$?ParsingstrHtml@CTabStep@@QAE?AV?$CStringT@DV?$StrTraitMFC_DLL@DV?$ChTraitsCRT@D@ATL@@@@@ATL@@V23@@Z$79
	DD	050H
	DD	FLAT:__unwindfunclet$?ParsingstrHtml@CTabStep@@QAE?AV?$CStringT@DV?$StrTraitMFC_DLL@DV?$ChTraitsCRT@D@ATL@@@@@ATL@@V23@@Z$80
	DD	051H
	DD	FLAT:__unwindfunclet$?ParsingstrHtml@CTabStep@@QAE?AV?$CStringT@DV?$StrTraitMFC_DLL@DV?$ChTraitsCRT@D@ATL@@@@@ATL@@V23@@Z$81
	DD	052H
	DD	FLAT:__unwindfunclet$?ParsingstrHtml@CTabStep@@QAE?AV?$CStringT@DV?$StrTraitMFC_DLL@DV?$ChTraitsCRT@D@ATL@@@@@ATL@@V23@@Z$82
	DD	053H
	DD	FLAT:__unwindfunclet$?ParsingstrHtml@CTabStep@@QAE?AV?$CStringT@DV?$StrTraitMFC_DLL@DV?$ChTraitsCRT@D@ATL@@@@@ATL@@V23@@Z$83
	DD	054H
	DD	FLAT:__unwindfunclet$?ParsingstrHtml@CTabStep@@QAE?AV?$CStringT@DV?$StrTraitMFC_DLL@DV?$ChTraitsCRT@D@ATL@@@@@ATL@@V23@@Z$84
	DD	055H
	DD	FLAT:__unwindfunclet$?ParsingstrHtml@CTabStep@@QAE?AV?$CStringT@DV?$StrTraitMFC_DLL@DV?$ChTraitsCRT@D@ATL@@@@@ATL@@V23@@Z$85
	DD	056H
	DD	FLAT:__unwindfunclet$?ParsingstrHtml@CTabStep@@QAE?AV?$CStringT@DV?$StrTraitMFC_DLL@DV?$ChTraitsCRT@D@ATL@@@@@ATL@@V23@@Z$86
	DD	057H
	DD	FLAT:__unwindfunclet$?ParsingstrHtml@CTabStep@@QAE?AV?$CStringT@DV?$StrTraitMFC_DLL@DV?$ChTraitsCRT@D@ATL@@@@@ATL@@V23@@Z$87
	DD	058H
	DD	FLAT:__unwindfunclet$?ParsingstrHtml@CTabStep@@QAE?AV?$CStringT@DV?$StrTraitMFC_DLL@DV?$ChTraitsCRT@D@ATL@@@@@ATL@@V23@@Z$88
	DD	059H
	DD	FLAT:__unwindfunclet$?ParsingstrHtml@CTabStep@@QAE?AV?$CStringT@DV?$StrTraitMFC_DLL@DV?$ChTraitsCRT@D@ATL@@@@@ATL@@V23@@Z$89
	DD	05aH
	DD	FLAT:__unwindfunclet$?ParsingstrHtml@CTabStep@@QAE?AV?$CStringT@DV?$StrTraitMFC_DLL@DV?$ChTraitsCRT@D@ATL@@@@@ATL@@V23@@Z$90
	DD	05bH
	DD	FLAT:__unwindfunclet$?ParsingstrHtml@CTabStep@@QAE?AV?$CStringT@DV?$StrTraitMFC_DLL@DV?$ChTraitsCRT@D@ATL@@@@@ATL@@V23@@Z$91
	DD	05cH
	DD	FLAT:__unwindfunclet$?ParsingstrHtml@CTabStep@@QAE?AV?$CStringT@DV?$StrTraitMFC_DLL@DV?$ChTraitsCRT@D@ATL@@@@@ATL@@V23@@Z$92
	DD	05dH
	DD	FLAT:__unwindfunclet$?ParsingstrHtml@CTabStep@@QAE?AV?$CStringT@DV?$StrTraitMFC_DLL@DV?$ChTraitsCRT@D@ATL@@@@@ATL@@V23@@Z$93
	DD	05eH
	DD	FLAT:__unwindfunclet$?ParsingstrHtml@CTabStep@@QAE?AV?$CStringT@DV?$StrTraitMFC_DLL@DV?$ChTraitsCRT@D@ATL@@@@@ATL@@V23@@Z$94
	DD	05fH
	DD	FLAT:__unwindfunclet$?ParsingstrHtml@CTabStep@@QAE?AV?$CStringT@DV?$StrTraitMFC_DLL@DV?$ChTraitsCRT@D@ATL@@@@@ATL@@V23@@Z$95
	DD	060H
	DD	FLAT:__unwindfunclet$?ParsingstrHtml@CTabStep@@QAE?AV?$CStringT@DV?$StrTraitMFC_DLL@DV?$ChTraitsCRT@D@ATL@@@@@ATL@@V23@@Z$96
	DD	061H
	DD	FLAT:__unwindfunclet$?ParsingstrHtml@CTabStep@@QAE?AV?$CStringT@DV?$StrTraitMFC_DLL@DV?$ChTraitsCRT@D@ATL@@@@@ATL@@V23@@Z$97
	DD	062H
	DD	FLAT:__unwindfunclet$?ParsingstrHtml@CTabStep@@QAE?AV?$CStringT@DV?$StrTraitMFC_DLL@DV?$ChTraitsCRT@D@ATL@@@@@ATL@@V23@@Z$98
	DD	063H
	DD	FLAT:__unwindfunclet$?ParsingstrHtml@CTabStep@@QAE?AV?$CStringT@DV?$StrTraitMFC_DLL@DV?$ChTraitsCRT@D@ATL@@@@@ATL@@V23@@Z$99
	DD	064H
	DD	FLAT:__unwindfunclet$?ParsingstrHtml@CTabStep@@QAE?AV?$CStringT@DV?$StrTraitMFC_DLL@DV?$ChTraitsCRT@D@ATL@@@@@ATL@@V23@@Z$100
	DD	065H
	DD	FLAT:__unwindfunclet$?ParsingstrHtml@CTabStep@@QAE?AV?$CStringT@DV?$StrTraitMFC_DLL@DV?$ChTraitsCRT@D@ATL@@@@@ATL@@V23@@Z$101
	DD	066H
	DD	FLAT:__unwindfunclet$?ParsingstrHtml@CTabStep@@QAE?AV?$CStringT@DV?$StrTraitMFC_DLL@DV?$ChTraitsCRT@D@ATL@@@@@ATL@@V23@@Z$102
	DD	067H
	DD	FLAT:__unwindfunclet$?ParsingstrHtml@CTabStep@@QAE?AV?$CStringT@DV?$StrTraitMFC_DLL@DV?$ChTraitsCRT@D@ATL@@@@@ATL@@V23@@Z$103
	DD	068H
	DD	FLAT:__unwindfunclet$?ParsingstrHtml@CTabStep@@QAE?AV?$CStringT@DV?$StrTraitMFC_DLL@DV?$ChTraitsCRT@D@ATL@@@@@ATL@@V23@@Z$104
	DD	069H
	DD	FLAT:__unwindfunclet$?ParsingstrHtml@CTabStep@@QAE?AV?$CStringT@DV?$StrTraitMFC_DLL@DV?$ChTraitsCRT@D@ATL@@@@@ATL@@V23@@Z$105
	DD	06aH
	DD	FLAT:__unwindfunclet$?ParsingstrHtml@CTabStep@@QAE?AV?$CStringT@DV?$StrTraitMFC_DLL@DV?$ChTraitsCRT@D@ATL@@@@@ATL@@V23@@Z$106
	DD	06bH
	DD	FLAT:__unwindfunclet$?ParsingstrHtml@CTabStep@@QAE?AV?$CStringT@DV?$StrTraitMFC_DLL@DV?$ChTraitsCRT@D@ATL@@@@@ATL@@V23@@Z$107
	DD	06cH
	DD	FLAT:__unwindfunclet$?ParsingstrHtml@CTabStep@@QAE?AV?$CStringT@DV?$StrTraitMFC_DLL@DV?$ChTraitsCRT@D@ATL@@@@@ATL@@V23@@Z$108
	DD	06dH
	DD	FLAT:__unwindfunclet$?ParsingstrHtml@CTabStep@@QAE?AV?$CStringT@DV?$StrTraitMFC_DLL@DV?$ChTraitsCRT@D@ATL@@@@@ATL@@V23@@Z$109
	DD	06eH
	DD	FLAT:__unwindfunclet$?ParsingstrHtml@CTabStep@@QAE?AV?$CStringT@DV?$StrTraitMFC_DLL@DV?$ChTraitsCRT@D@ATL@@@@@ATL@@V23@@Z$110
	DD	06fH
	DD	FLAT:__unwindfunclet$?ParsingstrHtml@CTabStep@@QAE?AV?$CStringT@DV?$StrTraitMFC_DLL@DV?$ChTraitsCRT@D@ATL@@@@@ATL@@V23@@Z$111
	DD	070H
	DD	FLAT:__unwindfunclet$?ParsingstrHtml@CTabStep@@QAE?AV?$CStringT@DV?$StrTraitMFC_DLL@DV?$ChTraitsCRT@D@ATL@@@@@ATL@@V23@@Z$112
	DD	071H
	DD	FLAT:__unwindfunclet$?ParsingstrHtml@CTabStep@@QAE?AV?$CStringT@DV?$StrTraitMFC_DLL@DV?$ChTraitsCRT@D@ATL@@@@@ATL@@V23@@Z$113
	DD	072H
	DD	FLAT:__unwindfunclet$?ParsingstrHtml@CTabStep@@QAE?AV?$CStringT@DV?$StrTraitMFC_DLL@DV?$ChTraitsCRT@D@ATL@@@@@ATL@@V23@@Z$114
	DD	073H
	DD	FLAT:__unwindfunclet$?ParsingstrHtml@CTabStep@@QAE?AV?$CStringT@DV?$StrTraitMFC_DLL@DV?$ChTraitsCRT@D@ATL@@@@@ATL@@V23@@Z$115
	DD	074H
	DD	FLAT:__unwindfunclet$?ParsingstrHtml@CTabStep@@QAE?AV?$CStringT@DV?$StrTraitMFC_DLL@DV?$ChTraitsCRT@D@ATL@@@@@ATL@@V23@@Z$116
	DD	075H
	DD	FLAT:__unwindfunclet$?ParsingstrHtml@CTabStep@@QAE?AV?$CStringT@DV?$StrTraitMFC_DLL@DV?$ChTraitsCRT@D@ATL@@@@@ATL@@V23@@Z$117
	DD	076H
	DD	FLAT:__unwindfunclet$?ParsingstrHtml@CTabStep@@QAE?AV?$CStringT@DV?$StrTraitMFC_DLL@DV?$ChTraitsCRT@D@ATL@@@@@ATL@@V23@@Z$118
	DD	077H
	DD	FLAT:__unwindfunclet$?ParsingstrHtml@CTabStep@@QAE?AV?$CStringT@DV?$StrTraitMFC_DLL@DV?$ChTraitsCRT@D@ATL@@@@@ATL@@V23@@Z$119
	DD	078H
	DD	FLAT:__unwindfunclet$?ParsingstrHtml@CTabStep@@QAE?AV?$CStringT@DV?$StrTraitMFC_DLL@DV?$ChTraitsCRT@D@ATL@@@@@ATL@@V23@@Z$120
	DD	079H
	DD	FLAT:__unwindfunclet$?ParsingstrHtml@CTabStep@@QAE?AV?$CStringT@DV?$StrTraitMFC_DLL@DV?$ChTraitsCRT@D@ATL@@@@@ATL@@V23@@Z$121
	DD	07aH
	DD	FLAT:__unwindfunclet$?ParsingstrHtml@CTabStep@@QAE?AV?$CStringT@DV?$StrTraitMFC_DLL@DV?$ChTraitsCRT@D@ATL@@@@@ATL@@V23@@Z$122
	DD	07bH
	DD	FLAT:__unwindfunclet$?ParsingstrHtml@CTabStep@@QAE?AV?$CStringT@DV?$StrTraitMFC_DLL@DV?$ChTraitsCRT@D@ATL@@@@@ATL@@V23@@Z$123
	DD	07cH
	DD	FLAT:__unwindfunclet$?ParsingstrHtml@CTabStep@@QAE?AV?$CStringT@DV?$StrTraitMFC_DLL@DV?$ChTraitsCRT@D@ATL@@@@@ATL@@V23@@Z$124
	DD	07dH
	DD	FLAT:__unwindfunclet$?ParsingstrHtml@CTabStep@@QAE?AV?$CStringT@DV?$StrTraitMFC_DLL@DV?$ChTraitsCRT@D@ATL@@@@@ATL@@V23@@Z$125
	DD	07eH
	DD	FLAT:__unwindfunclet$?ParsingstrHtml@CTabStep@@QAE?AV?$CStringT@DV?$StrTraitMFC_DLL@DV?$ChTraitsCRT@D@ATL@@@@@ATL@@V23@@Z$126
	DD	07fH
	DD	FLAT:__unwindfunclet$?ParsingstrHtml@CTabStep@@QAE?AV?$CStringT@DV?$StrTraitMFC_DLL@DV?$ChTraitsCRT@D@ATL@@@@@ATL@@V23@@Z$127
	DD	080H
	DD	FLAT:__unwindfunclet$?ParsingstrHtml@CTabStep@@QAE?AV?$CStringT@DV?$StrTraitMFC_DLL@DV?$ChTraitsCRT@D@ATL@@@@@ATL@@V23@@Z$128
	DD	081H
	DD	FLAT:__unwindfunclet$?ParsingstrHtml@CTabStep@@QAE?AV?$CStringT@DV?$StrTraitMFC_DLL@DV?$ChTraitsCRT@D@ATL@@@@@ATL@@V23@@Z$129
	DD	082H
	DD	FLAT:__unwindfunclet$?ParsingstrHtml@CTabStep@@QAE?AV?$CStringT@DV?$StrTraitMFC_DLL@DV?$ChTraitsCRT@D@ATL@@@@@ATL@@V23@@Z$130
	DD	083H
	DD	FLAT:__unwindfunclet$?ParsingstrHtml@CTabStep@@QAE?AV?$CStringT@DV?$StrTraitMFC_DLL@DV?$ChTraitsCRT@D@ATL@@@@@ATL@@V23@@Z$131
	DD	084H
	DD	FLAT:__unwindfunclet$?ParsingstrHtml@CTabStep@@QAE?AV?$CStringT@DV?$StrTraitMFC_DLL@DV?$ChTraitsCRT@D@ATL@@@@@ATL@@V23@@Z$132
	DD	085H
	DD	FLAT:__unwindfunclet$?ParsingstrHtml@CTabStep@@QAE?AV?$CStringT@DV?$StrTraitMFC_DLL@DV?$ChTraitsCRT@D@ATL@@@@@ATL@@V23@@Z$133
	DD	086H
	DD	FLAT:__unwindfunclet$?ParsingstrHtml@CTabStep@@QAE?AV?$CStringT@DV?$StrTraitMFC_DLL@DV?$ChTraitsCRT@D@ATL@@@@@ATL@@V23@@Z$134
	DD	087H
	DD	FLAT:__unwindfunclet$?ParsingstrHtml@CTabStep@@QAE?AV?$CStringT@DV?$StrTraitMFC_DLL@DV?$ChTraitsCRT@D@ATL@@@@@ATL@@V23@@Z$135
	DD	088H
	DD	FLAT:__unwindfunclet$?ParsingstrHtml@CTabStep@@QAE?AV?$CStringT@DV?$StrTraitMFC_DLL@DV?$ChTraitsCRT@D@ATL@@@@@ATL@@V23@@Z$136
	DD	089H
	DD	FLAT:__unwindfunclet$?ParsingstrHtml@CTabStep@@QAE?AV?$CStringT@DV?$StrTraitMFC_DLL@DV?$ChTraitsCRT@D@ATL@@@@@ATL@@V23@@Z$137
	DD	08aH
	DD	FLAT:__unwindfunclet$?ParsingstrHtml@CTabStep@@QAE?AV?$CStringT@DV?$StrTraitMFC_DLL@DV?$ChTraitsCRT@D@ATL@@@@@ATL@@V23@@Z$138
	DD	08bH
	DD	FLAT:__unwindfunclet$?ParsingstrHtml@CTabStep@@QAE?AV?$CStringT@DV?$StrTraitMFC_DLL@DV?$ChTraitsCRT@D@ATL@@@@@ATL@@V23@@Z$139
	DD	08cH
	DD	FLAT:__unwindfunclet$?ParsingstrHtml@CTabStep@@QAE?AV?$CStringT@DV?$StrTraitMFC_DLL@DV?$ChTraitsCRT@D@ATL@@@@@ATL@@V23@@Z$140
	DD	08dH
	DD	FLAT:__unwindfunclet$?ParsingstrHtml@CTabStep@@QAE?AV?$CStringT@DV?$StrTraitMFC_DLL@DV?$ChTraitsCRT@D@ATL@@@@@ATL@@V23@@Z$141
	DD	08eH
	DD	FLAT:__unwindfunclet$?ParsingstrHtml@CTabStep@@QAE?AV?$CStringT@DV?$StrTraitMFC_DLL@DV?$ChTraitsCRT@D@ATL@@@@@ATL@@V23@@Z$142
	DD	08fH
	DD	FLAT:__unwindfunclet$?ParsingstrHtml@CTabStep@@QAE?AV?$CStringT@DV?$StrTraitMFC_DLL@DV?$ChTraitsCRT@D@ATL@@@@@ATL@@V23@@Z$143
	DD	090H
	DD	FLAT:__unwindfunclet$?ParsingstrHtml@CTabStep@@QAE?AV?$CStringT@DV?$StrTraitMFC_DLL@DV?$ChTraitsCRT@D@ATL@@@@@ATL@@V23@@Z$144
	DD	091H
	DD	FLAT:__unwindfunclet$?ParsingstrHtml@CTabStep@@QAE?AV?$CStringT@DV?$StrTraitMFC_DLL@DV?$ChTraitsCRT@D@ATL@@@@@ATL@@V23@@Z$145
	DD	092H
	DD	FLAT:__unwindfunclet$?ParsingstrHtml@CTabStep@@QAE?AV?$CStringT@DV?$StrTraitMFC_DLL@DV?$ChTraitsCRT@D@ATL@@@@@ATL@@V23@@Z$146
	DD	093H
	DD	FLAT:__unwindfunclet$?ParsingstrHtml@CTabStep@@QAE?AV?$CStringT@DV?$StrTraitMFC_DLL@DV?$ChTraitsCRT@D@ATL@@@@@ATL@@V23@@Z$147
	DD	094H
	DD	FLAT:__unwindfunclet$?ParsingstrHtml@CTabStep@@QAE?AV?$CStringT@DV?$StrTraitMFC_DLL@DV?$ChTraitsCRT@D@ATL@@@@@ATL@@V23@@Z$148
	DD	095H
	DD	FLAT:__unwindfunclet$?ParsingstrHtml@CTabStep@@QAE?AV?$CStringT@DV?$StrTraitMFC_DLL@DV?$ChTraitsCRT@D@ATL@@@@@ATL@@V23@@Z$149
	DD	096H
	DD	FLAT:__unwindfunclet$?ParsingstrHtml@CTabStep@@QAE?AV?$CStringT@DV?$StrTraitMFC_DLL@DV?$ChTraitsCRT@D@ATL@@@@@ATL@@V23@@Z$150
	DD	097H
	DD	FLAT:__unwindfunclet$?ParsingstrHtml@CTabStep@@QAE?AV?$CStringT@DV?$StrTraitMFC_DLL@DV?$ChTraitsCRT@D@ATL@@@@@ATL@@V23@@Z$151
	DD	098H
	DD	FLAT:__unwindfunclet$?ParsingstrHtml@CTabStep@@QAE?AV?$CStringT@DV?$StrTraitMFC_DLL@DV?$ChTraitsCRT@D@ATL@@@@@ATL@@V23@@Z$152
	DD	099H
	DD	FLAT:__unwindfunclet$?ParsingstrHtml@CTabStep@@QAE?AV?$CStringT@DV?$StrTraitMFC_DLL@DV?$ChTraitsCRT@D@ATL@@@@@ATL@@V23@@Z$153
	DD	09aH
	DD	FLAT:__unwindfunclet$?ParsingstrHtml@CTabStep@@QAE?AV?$CStringT@DV?$StrTraitMFC_DLL@DV?$ChTraitsCRT@D@ATL@@@@@ATL@@V23@@Z$154
	DD	09bH
	DD	FLAT:__unwindfunclet$?ParsingstrHtml@CTabStep@@QAE?AV?$CStringT@DV?$StrTraitMFC_DLL@DV?$ChTraitsCRT@D@ATL@@@@@ATL@@V23@@Z$155
	DD	09cH
	DD	FLAT:__unwindfunclet$?ParsingstrHtml@CTabStep@@QAE?AV?$CStringT@DV?$StrTraitMFC_DLL@DV?$ChTraitsCRT@D@ATL@@@@@ATL@@V23@@Z$156
	DD	09dH
	DD	FLAT:__unwindfunclet$?ParsingstrHtml@CTabStep@@QAE?AV?$CStringT@DV?$StrTraitMFC_DLL@DV?$ChTraitsCRT@D@ATL@@@@@ATL@@V23@@Z$157
	DD	09eH
	DD	FLAT:__unwindfunclet$?ParsingstrHtml@CTabStep@@QAE?AV?$CStringT@DV?$StrTraitMFC_DLL@DV?$ChTraitsCRT@D@ATL@@@@@ATL@@V23@@Z$158
	DD	09fH
	DD	FLAT:__unwindfunclet$?ParsingstrHtml@CTabStep@@QAE?AV?$CStringT@DV?$StrTraitMFC_DLL@DV?$ChTraitsCRT@D@ATL@@@@@ATL@@V23@@Z$159
	DD	0a0H
	DD	FLAT:__unwindfunclet$?ParsingstrHtml@CTabStep@@QAE?AV?$CStringT@DV?$StrTraitMFC_DLL@DV?$ChTraitsCRT@D@ATL@@@@@ATL@@V23@@Z$160
	DD	0a1H
	DD	FLAT:__unwindfunclet$?ParsingstrHtml@CTabStep@@QAE?AV?$CStringT@DV?$StrTraitMFC_DLL@DV?$ChTraitsCRT@D@ATL@@@@@ATL@@V23@@Z$161
	DD	0a2H
	DD	FLAT:__unwindfunclet$?ParsingstrHtml@CTabStep@@QAE?AV?$CStringT@DV?$StrTraitMFC_DLL@DV?$ChTraitsCRT@D@ATL@@@@@ATL@@V23@@Z$162
	DD	0a3H
	DD	FLAT:__unwindfunclet$?ParsingstrHtml@CTabStep@@QAE?AV?$CStringT@DV?$StrTraitMFC_DLL@DV?$ChTraitsCRT@D@ATL@@@@@ATL@@V23@@Z$163
	DD	0a4H
	DD	FLAT:__unwindfunclet$?ParsingstrHtml@CTabStep@@QAE?AV?$CStringT@DV?$StrTraitMFC_DLL@DV?$ChTraitsCRT@D@ATL@@@@@ATL@@V23@@Z$164
	DD	0a5H
	DD	FLAT:__unwindfunclet$?ParsingstrHtml@CTabStep@@QAE?AV?$CStringT@DV?$StrTraitMFC_DLL@DV?$ChTraitsCRT@D@ATL@@@@@ATL@@V23@@Z$165
	DD	02H
	DD	FLAT:__unwindfunclet$?ParsingstrHtml@CTabStep@@QAE?AV?$CStringT@DV?$StrTraitMFC_DLL@DV?$ChTraitsCRT@D@ATL@@@@@ATL@@V23@@Z$167
	DD	0a7H
	DD	FLAT:__unwindfunclet$?ParsingstrHtml@CTabStep@@QAE?AV?$CStringT@DV?$StrTraitMFC_DLL@DV?$ChTraitsCRT@D@ATL@@@@@ATL@@V23@@Z$168
	DD	0a8H
	DD	FLAT:__unwindfunclet$?ParsingstrHtml@CTabStep@@QAE?AV?$CStringT@DV?$StrTraitMFC_DLL@DV?$ChTraitsCRT@D@ATL@@@@@ATL@@V23@@Z$169
	DD	0a8H
	DD	FLAT:__unwindfunclet$?ParsingstrHtml@CTabStep@@QAE?AV?$CStringT@DV?$StrTraitMFC_DLL@DV?$ChTraitsCRT@D@ATL@@@@@ATL@@V23@@Z$170
	DD	0aaH
	DD	FLAT:__unwindfunclet$?ParsingstrHtml@CTabStep@@QAE?AV?$CStringT@DV?$StrTraitMFC_DLL@DV?$ChTraitsCRT@D@ATL@@@@@ATL@@V23@@Z$171
xdata$x	ENDS
;	COMDAT xdata$x
xdata$x	SEGMENT
__unwindtable$?InitHtml@CTabStep@@QAEXXZ DD 0ffffffffH
	DD	FLAT:__unwindfunclet$?InitHtml@CTabStep@@QAEXXZ$0
	DD	00H
	DD	FLAT:__unwindfunclet$?InitHtml@CTabStep@@QAEXXZ$1
	DD	01H
	DD	FLAT:__unwindfunclet$?InitHtml@CTabStep@@QAEXXZ$2
	DD	02H
	DD	FLAT:__unwindfunclet$?InitHtml@CTabStep@@QAEXXZ$4
__ehfuncinfo$?InitHtml@CTabStep@@QAEXXZ DD 019930522H
	DD	04H
	DD	FLAT:__unwindtable$?InitHtml@CTabStep@@QAEXXZ
	DD	2 DUP(00H)
	DD	2 DUP(00H)
	DD	00H
	DD	01H
xdata$x	ENDS
;	COMDAT xdata$x
xdata$x	SEGMENT
__unwindtable$??0CTabStep@@QAE@PAVCWnd@@@Z DD 0ffffffffH
	DD	FLAT:__unwindfunclet$??0CTabStep@@QAE@PAVCWnd@@@Z$0
	DD	00H
	DD	FLAT:__unwindfunclet$??0CTabStep@@QAE@PAVCWnd@@@Z$1
	DD	01H
	DD	FLAT:__unwindfunclet$??0CTabStep@@QAE@PAVCWnd@@@Z$2
	DD	02H
	DD	FLAT:__unwindfunclet$??0CTabStep@@QAE@PAVCWnd@@@Z$3
__ehfuncinfo$??0CTabStep@@QAE@PAVCWnd@@@Z DD 019930522H
	DD	04H
	DD	FLAT:__unwindtable$??0CTabStep@@QAE@PAVCWnd@@@Z
	DD	2 DUP(00H)
	DD	2 DUP(00H)
	DD	00H
	DD	01H
xdata$x	ENDS
;	COMDAT xdata$x
xdata$x	SEGMENT
__unwindtable$??HATL@@YA?AV?$CStringT@DV?$StrTraitMFC_DLL@DV?$ChTraitsCRT@D@ATL@@@@@0@ABV10@PBD@Z DD 0ffffffffH
	DD	FLAT:__unwindfunclet$??HATL@@YA?AV?$CStringT@DV?$StrTraitMFC_DLL@DV?$ChTraitsCRT@D@ATL@@@@@0@ABV10@PBD@Z$0
__ehfuncinfo$??HATL@@YA?AV?$CStringT@DV?$StrTraitMFC_DLL@DV?$ChTraitsCRT@D@ATL@@@@@0@ABV10@PBD@Z DD 019930522H
	DD	01H
	DD	FLAT:__unwindtable$??HATL@@YA?AV?$CStringT@DV?$StrTraitMFC_DLL@DV?$ChTraitsCRT@D@ATL@@@@@0@ABV10@PBD@Z
	DD	2 DUP(00H)
	DD	2 DUP(00H)
	DD	00H
	DD	01H
xdata$x	ENDS
CRT$XCU	SEGMENT
?RMSG_SETQUERYOPT$initializer$@@3P6AXXZA DD FLAT:??__ERMSG_SETQUERYOPT@@YAXXZ ; RMSG_SETQUERYOPT$initializer$
CRT$XCU	ENDS
CRT$XCU	SEGMENT
?RMSG_CHARTMAIN$initializer$@@3P6AXXZA DD FLAT:??__ERMSG_CHARTMAIN@@YAXXZ ; RMSG_CHARTMAIN$initializer$
CRT$XCU	ENDS
CRT$XCU	SEGMENT
?RMS_ANALYSIS_FUNC$initializer$@@3P6AXXZA DD FLAT:??__ERMS_ANALYSIS_FUNC@@YAXXZ ; RMS_ANALYSIS_FUNC$initializer$
CRT$XCU	ENDS
CRT$XCU	SEGMENT
?RMSG_GET_USERID$initializer$@@3P6AXXZA DD FLAT:??__ERMSG_GET_USERID@@YAXXZ ; RMSG_GET_USERID$initializer$
CRT$XCU	ENDS
CRT$XCU	SEGMENT
?RMSG_CHANGE_SKINCOLOR$initializer$@@3P6AXXZA DD FLAT:??__ERMSG_CHANGE_SKINCOLOR@@YAXXZ ; RMSG_CHANGE_SKINCOLOR$initializer$
CRT$XCU	ENDS
CRT$XCU	SEGMENT
?RMSG_GET_SKINCOLOR$initializer$@@3P6AXXZA DD FLAT:??__ERMSG_GET_SKINCOLOR@@YAXXZ ; RMSG_GET_SKINCOLOR$initializer$
CRT$XCU	ENDS
CRT$XCU	SEGMENT
?RMSG_CHANGEVERTSCALETYPE$initializer$@@3P6AXXZA DD FLAT:??__ERMSG_CHANGEVERTSCALETYPE@@YAXXZ ; RMSG_CHANGEVERTSCALETYPE$initializer$
CRT$XCU	ENDS
CRT$XCU	SEGMENT
?RMSG_CHANGE_CROSSLINE$initializer$@@3P6AXXZA DD FLAT:??__ERMSG_CHANGE_CROSSLINE@@YAXXZ ; RMSG_CHANGE_CROSSLINE$initializer$
CRT$XCU	ENDS
CRT$XCU	SEGMENT
?RMSG_ADD_PLATFORM_MENU$initializer$@@3P6AXXZA DD FLAT:??__ERMSG_ADD_PLATFORM_MENU@@YAXXZ ; RMSG_ADD_PLATFORM_MENU$initializer$
CRT$XCU	ENDS
CRT$XCU	SEGMENT
?RMSG_SETINITIALCHARTDATA$initializer$@@3P6AXXZA DD FLAT:??__ERMSG_SETINITIALCHARTDATA@@YAXXZ ; RMSG_SETINITIALCHARTDATA$initializer$
CRT$XCU	ENDS
CRT$XCU	SEGMENT
?RMSG_GETINFO$initializer$@@3P6AXXZA DD FLAT:??__ERMSG_GETINFO@@YAXXZ ; RMSG_GETINFO$initializer$
CRT$XCU	ENDS
CRT$XCU	SEGMENT
?RMSG_SETINFO$initializer$@@3P6AXXZA DD FLAT:??__ERMSG_SETINFO@@YAXXZ ; RMSG_SETINFO$initializer$
CRT$XCU	ENDS
CRT$XCU	SEGMENT
?RMSG_INTERFACE$initializer$@@3P6AXXZA DD FLAT:??__ERMSG_INTERFACE@@YAXXZ ; RMSG_INTERFACE$initializer$
CRT$XCU	ENDS
CRT$XCU	SEGMENT
?RMSG_GETPCTRDATA$initializer$@@3P6AXXZA DD FLAT:??__ERMSG_GETPCTRDATA@@YAXXZ ; RMSG_GETPCTRDATA$initializer$
CRT$XCU	ENDS
CRT$XCU	SEGMENT
?RMSG_SETPCTRDATA$initializer$@@3P6AXXZA DD FLAT:??__ERMSG_SETPCTRDATA@@YAXXZ ; RMSG_SETPCTRDATA$initializer$
CRT$XCU	ENDS
; Function compile flags: /Ogtp
; File D:\git\src\IBK\IBK_DRFN\ProjSrc\SrcDrfn\inc\IBaseDefine.h
;	COMDAT ??__ERMSG_SETPCTRDATA@@YAXXZ
text$di	SEGMENT
??__ERMSG_SETPCTRDATA@@YAXXZ PROC			; `dynamic initializer for 'RMSG_SETPCTRDATA'', COMDAT

; 172  : const UINT RMSG_SETPCTRDATA = ::RegisterWindowMessage("RMSG_SETPCTRDATA");

  00000	68 00 00 00 00	 push	 OFFSET ??_C@_0BB@JPACFCL@RMSG_SETPCTRDATA@
  00005	ff 15 00 00 00
	00		 call	 DWORD PTR __imp__RegisterWindowMessageA@4
  0000b	a3 00 00 00 00	 mov	 DWORD PTR ?RMSG_SETPCTRDATA@@3IB, eax
  00010	c3		 ret	 0
??__ERMSG_SETPCTRDATA@@YAXXZ ENDP			; `dynamic initializer for 'RMSG_SETPCTRDATA''
text$di	ENDS
; Function compile flags: /Ogtp
; File D:\git\src\IBK\IBK_DRFN\ProjSrc\SrcDrfn\inc\IBaseDefine.h
;	COMDAT ??__ERMSG_GETPCTRDATA@@YAXXZ
text$di	SEGMENT
??__ERMSG_GETPCTRDATA@@YAXXZ PROC			; `dynamic initializer for 'RMSG_GETPCTRDATA'', COMDAT

; 171  : const UINT RMSG_GETPCTRDATA = ::RegisterWindowMessage("RMSG_GETPCTRDATA");

  00000	68 00 00 00 00	 push	 OFFSET ??_C@_0BB@GOOPDKI@RMSG_GETPCTRDATA@
  00005	ff 15 00 00 00
	00		 call	 DWORD PTR __imp__RegisterWindowMessageA@4
  0000b	a3 00 00 00 00	 mov	 DWORD PTR ?RMSG_GETPCTRDATA@@3IB, eax
  00010	c3		 ret	 0
??__ERMSG_GETPCTRDATA@@YAXXZ ENDP			; `dynamic initializer for 'RMSG_GETPCTRDATA''
text$di	ENDS
; Function compile flags: /Ogtp
; File D:\git\src\IBK\IBK_DRFN\ProjSrc\SrcDrfn\inc\IBaseDefine.h
;	COMDAT ??__ERMSG_INTERFACE@@YAXXZ
text$di	SEGMENT
??__ERMSG_INTERFACE@@YAXXZ PROC				; `dynamic initializer for 'RMSG_INTERFACE'', COMDAT

; 170  : const UINT RMSG_INTERFACE = ::RegisterWindowMessage("RMSG_INTERFACE");

  00000	68 00 00 00 00	 push	 OFFSET ??_C@_0P@BKKCOCLK@RMSG_INTERFACE@
  00005	ff 15 00 00 00
	00		 call	 DWORD PTR __imp__RegisterWindowMessageA@4
  0000b	a3 00 00 00 00	 mov	 DWORD PTR ?RMSG_INTERFACE@@3IB, eax
  00010	c3		 ret	 0
??__ERMSG_INTERFACE@@YAXXZ ENDP				; `dynamic initializer for 'RMSG_INTERFACE''
text$di	ENDS
; Function compile flags: /Ogtp
; File D:\git\src\IBK\IBK_DRFN\ProjSrc\SrcDrfn\Chart\MultiChart\define\ChartMsgDef.h
;	COMDAT ??__ERMSG_SETINFO@@YAXXZ
text$di	SEGMENT
??__ERMSG_SETINFO@@YAXXZ PROC				; `dynamic initializer for 'RMSG_SETINFO'', COMDAT

; 238  : const UINT RMSG_SETINFO = ::RegisterWindowMessage(_T("RMSG_SETINFO"));

  00000	68 00 00 00 00	 push	 OFFSET ??_C@_0N@HABLPHJG@RMSG_SETINFO@
  00005	ff 15 00 00 00
	00		 call	 DWORD PTR __imp__RegisterWindowMessageA@4
  0000b	a3 00 00 00 00	 mov	 DWORD PTR ?RMSG_SETINFO@@3IB, eax
  00010	c3		 ret	 0
??__ERMSG_SETINFO@@YAXXZ ENDP				; `dynamic initializer for 'RMSG_SETINFO''
text$di	ENDS
; Function compile flags: /Ogtp
; File D:\git\src\IBK\IBK_DRFN\ProjSrc\SrcDrfn\Chart\MultiChart\define\ChartMsgDef.h
;	COMDAT ??__ERMSG_GETINFO@@YAXXZ
text$di	SEGMENT
??__ERMSG_GETINFO@@YAXXZ PROC				; `dynamic initializer for 'RMSG_GETINFO'', COMDAT

; 237  : const UINT RMSG_GETINFO = ::RegisterWindowMessage(_T("RMSG_GETINFO"));

  00000	68 00 00 00 00	 push	 OFFSET ??_C@_0N@IIOKMIEH@RMSG_GETINFO@
  00005	ff 15 00 00 00
	00		 call	 DWORD PTR __imp__RegisterWindowMessageA@4
  0000b	a3 00 00 00 00	 mov	 DWORD PTR ?RMSG_GETINFO@@3IB, eax
  00010	c3		 ret	 0
??__ERMSG_GETINFO@@YAXXZ ENDP				; `dynamic initializer for 'RMSG_GETINFO''
text$di	ENDS
; Function compile flags: /Ogtp
; File D:\git\src\IBK\IBK_DRFN\ProjSrc\SrcDrfn\Chart\MultiChart\define\ChartMsgDef.h
;	COMDAT ??__ERMSG_SETINITIALCHARTDATA@@YAXXZ
text$di	SEGMENT
??__ERMSG_SETINITIALCHARTDATA@@YAXXZ PROC		; `dynamic initializer for 'RMSG_SETINITIALCHARTDATA'', COMDAT

; 235  : const UINT RMSG_SETINITIALCHARTDATA = ::RegisterWindowMessage(_T("RMSG_SETINITIALCHARTDATA"));

  00000	68 00 00 00 00	 push	 OFFSET ??_C@_0BJ@OGNAJHHI@RMSG_SETINITIALCHARTDATA@
  00005	ff 15 00 00 00
	00		 call	 DWORD PTR __imp__RegisterWindowMessageA@4
  0000b	a3 00 00 00 00	 mov	 DWORD PTR ?RMSG_SETINITIALCHARTDATA@@3IB, eax
  00010	c3		 ret	 0
??__ERMSG_SETINITIALCHARTDATA@@YAXXZ ENDP		; `dynamic initializer for 'RMSG_SETINITIALCHARTDATA''
text$di	ENDS
; Function compile flags: /Ogtp
; File D:\git\src\IBK\IBK_DRFN\ProjSrc\SrcDrfn\Chart\MultiChart\define\ChartMsgDef.h
;	COMDAT ??__ERMSG_ADD_PLATFORM_MENU@@YAXXZ
text$di	SEGMENT
??__ERMSG_ADD_PLATFORM_MENU@@YAXXZ PROC			; `dynamic initializer for 'RMSG_ADD_PLATFORM_MENU'', COMDAT

; 233  : const UINT RMSG_ADD_PLATFORM_MENU = ::RegisterWindowMessage(_T("RMSG_ADD_PLATFORM_MENU"));

  00000	68 00 00 00 00	 push	 OFFSET ??_C@_0BH@IFDMIMBP@RMSG_ADD_PLATFORM_MENU@
  00005	ff 15 00 00 00
	00		 call	 DWORD PTR __imp__RegisterWindowMessageA@4
  0000b	a3 00 00 00 00	 mov	 DWORD PTR ?RMSG_ADD_PLATFORM_MENU@@3IB, eax
  00010	c3		 ret	 0
??__ERMSG_ADD_PLATFORM_MENU@@YAXXZ ENDP			; `dynamic initializer for 'RMSG_ADD_PLATFORM_MENU''
text$di	ENDS
; Function compile flags: /Ogtp
; File D:\git\src\IBK\IBK_DRFN\ProjSrc\SrcDrfn\Chart\MultiChart\define\ChartMsgDef.h
;	COMDAT ??__ERMSG_CHANGE_CROSSLINE@@YAXXZ
text$di	SEGMENT
??__ERMSG_CHANGE_CROSSLINE@@YAXXZ PROC			; `dynamic initializer for 'RMSG_CHANGE_CROSSLINE'', COMDAT

; 231  : const UINT RMSG_CHANGE_CROSSLINE = ::RegisterWindowMessage(_T("RMSG_CHANGE_CROSSLINE"));

  00000	68 00 00 00 00	 push	 OFFSET ??_C@_0BG@LNLCJKPF@RMSG_CHANGE_CROSSLINE@
  00005	ff 15 00 00 00
	00		 call	 DWORD PTR __imp__RegisterWindowMessageA@4
  0000b	a3 00 00 00 00	 mov	 DWORD PTR ?RMSG_CHANGE_CROSSLINE@@3IB, eax
  00010	c3		 ret	 0
??__ERMSG_CHANGE_CROSSLINE@@YAXXZ ENDP			; `dynamic initializer for 'RMSG_CHANGE_CROSSLINE''
text$di	ENDS
; Function compile flags: /Ogtp
; File D:\git\src\IBK\IBK_DRFN\ProjSrc\SrcDrfn\Chart\MultiChart\define\ChartMsgDef.h
;	COMDAT ??__ERMSG_CHANGEVERTSCALETYPE@@YAXXZ
text$di	SEGMENT
??__ERMSG_CHANGEVERTSCALETYPE@@YAXXZ PROC		; `dynamic initializer for 'RMSG_CHANGEVERTSCALETYPE'', COMDAT

; 229  : const UINT RMSG_CHANGEVERTSCALETYPE = ::RegisterWindowMessage(_T("RMSG_CHANGEVERTSCALETYPE"));

  00000	68 00 00 00 00	 push	 OFFSET ??_C@_0BJ@JLKHIBIK@RMSG_CHANGEVERTSCALETYPE@
  00005	ff 15 00 00 00
	00		 call	 DWORD PTR __imp__RegisterWindowMessageA@4
  0000b	a3 00 00 00 00	 mov	 DWORD PTR ?RMSG_CHANGEVERTSCALETYPE@@3IB, eax
  00010	c3		 ret	 0
??__ERMSG_CHANGEVERTSCALETYPE@@YAXXZ ENDP		; `dynamic initializer for 'RMSG_CHANGEVERTSCALETYPE''
text$di	ENDS
; Function compile flags: /Ogtp
; File D:\git\src\IBK\IBK_DRFN\ProjSrc\SrcDrfn\Chart\MultiChart\define\ChartMsgDef.h
;	COMDAT ??__ERMSG_GET_SKINCOLOR@@YAXXZ
text$di	SEGMENT
??__ERMSG_GET_SKINCOLOR@@YAXXZ PROC			; `dynamic initializer for 'RMSG_GET_SKINCOLOR'', COMDAT

; 226  : const UINT RMSG_GET_SKINCOLOR = ::RegisterWindowMessage(_T("RMSG_GET_SKINCOLOR"));

  00000	68 00 00 00 00	 push	 OFFSET ??_C@_0BD@FLDNDDHK@RMSG_GET_SKINCOLOR@
  00005	ff 15 00 00 00
	00		 call	 DWORD PTR __imp__RegisterWindowMessageA@4
  0000b	a3 00 00 00 00	 mov	 DWORD PTR ?RMSG_GET_SKINCOLOR@@3IB, eax
  00010	c3		 ret	 0
??__ERMSG_GET_SKINCOLOR@@YAXXZ ENDP			; `dynamic initializer for 'RMSG_GET_SKINCOLOR''
text$di	ENDS
; Function compile flags: /Ogtp
; File D:\git\src\IBK\IBK_DRFN\ProjSrc\SrcDrfn\Chart\MultiChart\define\ChartMsgDef.h
;	COMDAT ??__ERMSG_CHANGE_SKINCOLOR@@YAXXZ
text$di	SEGMENT
??__ERMSG_CHANGE_SKINCOLOR@@YAXXZ PROC			; `dynamic initializer for 'RMSG_CHANGE_SKINCOLOR'', COMDAT

; 225  : const UINT RMSG_CHANGE_SKINCOLOR = ::RegisterWindowMessage(_T("RMSG_CHANGE_SKINCOLOR"));

  00000	68 00 00 00 00	 push	 OFFSET ??_C@_0BG@CNPAHNGG@RMSG_CHANGE_SKINCOLOR@
  00005	ff 15 00 00 00
	00		 call	 DWORD PTR __imp__RegisterWindowMessageA@4
  0000b	a3 00 00 00 00	 mov	 DWORD PTR ?RMSG_CHANGE_SKINCOLOR@@3IB, eax
  00010	c3		 ret	 0
??__ERMSG_CHANGE_SKINCOLOR@@YAXXZ ENDP			; `dynamic initializer for 'RMSG_CHANGE_SKINCOLOR''
text$di	ENDS
; Function compile flags: /Ogtp
; File D:\git\src\IBK\IBK_DRFN\ProjSrc\SrcDrfn\Chart\MultiChart\define\ChartMsgDef.h
;	COMDAT ??__ERMSG_GET_USERID@@YAXXZ
text$di	SEGMENT
??__ERMSG_GET_USERID@@YAXXZ PROC			; `dynamic initializer for 'RMSG_GET_USERID'', COMDAT

; 215  : const UINT RMSG_GET_USERID = ::RegisterWindowMessage(_T("RMSG_GET_USERID"));	// User ID 

  00000	68 00 00 00 00	 push	 OFFSET ??_C@_0BA@HKNFENJL@RMSG_GET_USERID@
  00005	ff 15 00 00 00
	00		 call	 DWORD PTR __imp__RegisterWindowMessageA@4
  0000b	a3 00 00 00 00	 mov	 DWORD PTR ?RMSG_GET_USERID@@3IB, eax
  00010	c3		 ret	 0
??__ERMSG_GET_USERID@@YAXXZ ENDP			; `dynamic initializer for 'RMSG_GET_USERID''
text$di	ENDS
; Function compile flags: /Ogtp
; File D:\git\src\IBK\IBK_DRFN\ProjSrc\SrcDrfn\Chart\MultiChart\define\ChartMsgDef.h
;	COMDAT ??__ERMS_ANALYSIS_FUNC@@YAXXZ
text$di	SEGMENT
??__ERMS_ANALYSIS_FUNC@@YAXXZ PROC			; `dynamic initializer for 'RMS_ANALYSIS_FUNC'', COMDAT

; 211  : const UINT RMS_ANALYSIS_FUNC	= ::RegisterWindowMessage(_T("RMS_ANALYSIS_FUNC"));

  00000	68 00 00 00 00	 push	 OFFSET ??_C@_0BC@MMPGLPDH@RMS_ANALYSIS_FUNC@
  00005	ff 15 00 00 00
	00		 call	 DWORD PTR __imp__RegisterWindowMessageA@4
  0000b	a3 00 00 00 00	 mov	 DWORD PTR ?RMS_ANALYSIS_FUNC@@3IB, eax
  00010	c3		 ret	 0
??__ERMS_ANALYSIS_FUNC@@YAXXZ ENDP			; `dynamic initializer for 'RMS_ANALYSIS_FUNC''
text$di	ENDS
; Function compile flags: /Ogtp
; File D:\git\src\IBK\IBK_DRFN\ProjSrc\SrcDrfn\Chart\MultiChart\define\ChartMsgDef.h
;	COMDAT ??__ERMSG_CHARTMAIN@@YAXXZ
text$di	SEGMENT
??__ERMSG_CHARTMAIN@@YAXXZ PROC				; `dynamic initializer for 'RMSG_CHARTMAIN'', COMDAT

; 208  : const UINT RMSG_CHARTMAIN		= ::RegisterWindowMessage(_T("RMSG_CHARTMAIN"));

  00000	68 00 00 00 00	 push	 OFFSET ??_C@_0P@KHFCBIOH@RMSG_CHARTMAIN@
  00005	ff 15 00 00 00
	00		 call	 DWORD PTR __imp__RegisterWindowMessageA@4
  0000b	a3 00 00 00 00	 mov	 DWORD PTR ?RMSG_CHARTMAIN@@3IB, eax
  00010	c3		 ret	 0
??__ERMSG_CHARTMAIN@@YAXXZ ENDP				; `dynamic initializer for 'RMSG_CHARTMAIN''
text$di	ENDS
; Function compile flags: /Ogtp
; File D:\git\src\IBK\IBK_DRFN\ProjSrc\SrcDrfn\Chart\MultiChart\define\ChartMsgDef.h
;	COMDAT ??__ERMSG_SETQUERYOPT@@YAXXZ
text$di	SEGMENT
??__ERMSG_SETQUERYOPT@@YAXXZ PROC			; `dynamic initializer for 'RMSG_SETQUERYOPT'', COMDAT

; 183  : const UINT RMSG_SETQUERYOPT = ::RegisterWindowMessage(_T("RMSG_SETQUERYOPT"));

  00000	68 00 00 00 00	 push	 OFFSET ??_C@_0BB@CNOFPEHG@RMSG_SETQUERYOPT@
  00005	ff 15 00 00 00
	00		 call	 DWORD PTR __imp__RegisterWindowMessageA@4
  0000b	a3 00 00 00 00	 mov	 DWORD PTR ?RMSG_SETQUERYOPT@@3IB, eax
  00010	c3		 ret	 0
??__ERMSG_SETQUERYOPT@@YAXXZ ENDP			; `dynamic initializer for 'RMSG_SETQUERYOPT''
text$di	ENDS
; Function compile flags: /Ogtp
; File D:\git\src\IBK\IBK_DRFN\ProjSrc\SrcDrfn\Chart\commontr\TRDefine.h
;	COMDAT ??__ERMSG_GETSIGNAL_REAL@@YAXXZ
text$di	SEGMENT
??__ERMSG_GETSIGNAL_REAL@@YAXXZ PROC			; `dynamic initializer for 'RMSG_GETSIGNAL_REAL'', COMDAT

; 213  : const UINT RMSG_GETSIGNAL_REAL = ::RegisterWindowMessage(_T("RMSG_GETSIGNAL_REAL"));

  00000	68 00 00 00 00	 push	 OFFSET ??_C@_0BE@FJPKENOB@RMSG_GETSIGNAL_REAL@
  00005	ff 15 00 00 00
	00		 call	 DWORD PTR __imp__RegisterWindowMessageA@4
  0000b	a3 00 00 00 00	 mov	 DWORD PTR ?RMSG_GETSIGNAL_REAL@@3IB, eax
  00010	c3		 ret	 0
??__ERMSG_GETSIGNAL_REAL@@YAXXZ ENDP			; `dynamic initializer for 'RMSG_GETSIGNAL_REAL''
text$di	ENDS
; Function compile flags: /Ogtp
; File C:\Program Files (x86)\Microsoft Visual Studio\2019\Community\VC\Tools\MSVC\14.29.30133\atlmfc\include\afx.inl
;	COMDAT ??_GCTabStep@@UAEPAXI@Z
_TEXT	SEGMENT
___flags$ = 8						; size = 4
??_GCTabStep@@UAEPAXI@Z PROC				; CTabStep::`scalar deleting destructor', COMDAT
; _this$ = ecx
  00000	55		 push	 ebp
  00001	8b ec		 mov	 ebp, esp
  00003	56		 push	 esi
  00004	8b f1		 mov	 esi, ecx
  00006	8d 8e d0 00 00
	00		 lea	 ecx, DWORD PTR [esi+208]
  0000c	e8 00 00 00 00	 call	 ??1CGridCtrl@@UAE@XZ	; CGridCtrl::~CGridCtrl
  00011	8d 8e cc 00 00
	00		 lea	 ecx, DWORD PTR [esi+204]
  00017	ff 15 00 00 00
	00		 call	 DWORD PTR __imp_??1?$CStringT@DV?$StrTraitMFC_DLL@DV?$ChTraitsCRT@D@ATL@@@@@ATL@@QAE@XZ
  0001d	8d 8e c4 00 00
	00		 lea	 ecx, DWORD PTR [esi+196]
  00023	ff 15 00 00 00
	00		 call	 DWORD PTR __imp_??1?$CStringT@DV?$StrTraitMFC_DLL@DV?$ChTraitsCRT@D@ATL@@@@@ATL@@QAE@XZ
  00029	8d 8e b8 00 00
	00		 lea	 ecx, DWORD PTR [esi+184]
  0002f	ff 15 00 00 00
	00		 call	 DWORD PTR __imp_??1?$CStringT@DV?$StrTraitMFC_DLL@DV?$ChTraitsCRT@D@ATL@@@@@ATL@@QAE@XZ
  00035	8b ce		 mov	 ecx, esi
  00037	e8 00 00 00 00	 call	 ??1CDialog@@UAE@XZ	; CDialog::~CDialog
  0003c	8b 45 08	 mov	 eax, DWORD PTR ___flags$[ebp]
  0003f	a8 01		 test	 al, 1
  00041	74 22		 je	 SHORT $LN18@scalar
  00043	a8 04		 test	 al, 4
  00045	75 10		 jne	 SHORT $LN3@scalar

; 112  : 	{ ::operator delete(p); }

  00047	56		 push	 esi
  00048	e8 00 00 00 00	 call	 ??3@YAXPAX@Z		; operator delete
  0004d	83 c4 04	 add	 esp, 4
  00050	8b c6		 mov	 eax, esi
  00052	5e		 pop	 esi
  00053	5d		 pop	 ebp
  00054	c2 04 00	 ret	 4
$LN3@scalar:
  00057	68 68 05 00 00	 push	 1384			; 00000568H
  0005c	56		 push	 esi
  0005d	e8 00 00 00 00	 call	 ?__global_delete@@YAXPAXI@Z ; __global_delete
  00062	83 c4 08	 add	 esp, 8
$LN18@scalar:
  00065	8b c6		 mov	 eax, esi
  00067	5e		 pop	 esi
  00068	5d		 pop	 ebp
  00069	c2 04 00	 ret	 4
??_GCTabStep@@UAEPAXI@Z ENDP				; CTabStep::`scalar deleting destructor'
_TEXT	ENDS
; Function compile flags: /Ogtp
; File D:\git\src\IBK\IBK_DRFN\ProjSrc\SrcDrfn\Chart\HWSTRATEGYANALYSIS\TabStep.cpp
; File C:\Program Files (x86)\Microsoft Visual Studio\2019\Community\VC\Tools\MSVC\14.29.30133\atlmfc\include\cstringt.h
; File D:\git\src\IBK\IBK_DRFN\ProjSrc\SrcDrfn\Chart\HWSTRATEGYANALYSIS\TabStep.cpp
; File C:\Program Files (x86)\Microsoft Visual Studio\2019\Community\VC\Tools\MSVC\14.29.30133\atlmfc\include\cstringt.h
; File C:\Program Files (x86)\Microsoft Visual Studio\2019\Community\VC\Tools\MSVC\14.29.30133\atlmfc\include\atlsimpstr.h
; File C:\Program Files (x86)\Microsoft Visual Studio\2019\Community\VC\Tools\MSVC\14.29.30133\atlmfc\include\cstringt.h
; File D:\git\src\IBK\IBK_DRFN\ProjSrc\SrcDrfn\Chart\HWSTRATEGYANALYSIS\TabStep.cpp
; File C:\Program Files (x86)\Microsoft Visual Studio\2019\Community\VC\Tools\MSVC\14.29.30133\atlmfc\include\cstringt.h
; File D:\git\src\IBK\IBK_DRFN\ProjSrc\SrcDrfn\Chart\HWSTRATEGYANALYSIS\TabStep.cpp
; File C:\Program Files (x86)\Microsoft Visual Studio\2019\Community\VC\Tools\MSVC\14.29.30133\atlmfc\include\cstringt.h
; File C:\Program Files (x86)\Microsoft Visual Studio\2019\Community\VC\Tools\MSVC\14.29.30133\atlmfc\include\atlsimpstr.h
; File C:\Program Files (x86)\Microsoft Visual Studio\2019\Community\VC\Tools\MSVC\14.29.30133\atlmfc\include\cstringt.h
; File D:\git\src\IBK\IBK_DRFN\ProjSrc\SrcDrfn\Chart\HWSTRATEGYANALYSIS\TabStep.cpp
; File C:\Program Files (x86)\Microsoft Visual Studio\2019\Community\VC\Tools\MSVC\14.29.30133\atlmfc\include\cstringt.h
; File D:\git\src\IBK\IBK_DRFN\ProjSrc\SrcDrfn\Chart\HWSTRATEGYANALYSIS\TabStep.cpp
; File C:\Program Files (x86)\Microsoft Visual Studio\2019\Community\VC\Tools\MSVC\14.29.30133\atlmfc\include\cstringt.h
; File C:\Program Files (x86)\Microsoft Visual Studio\2019\Community\VC\Tools\MSVC\14.29.30133\atlmfc\include\atlsimpstr.h
; File C:\Program Files (x86)\Microsoft Visual Studio\2019\Community\VC\Tools\MSVC\14.29.30133\atlmfc\include\cstringt.h
; File D:\git\src\IBK\IBK_DRFN\ProjSrc\SrcDrfn\Chart\HWSTRATEGYANALYSIS\TabStep.cpp
; File C:\Program Files (x86)\Microsoft Visual Studio\2019\Community\VC\Tools\MSVC\14.29.30133\atlmfc\include\cstringt.h
; File D:\git\src\IBK\IBK_DRFN\ProjSrc\SrcDrfn\Chart\HWSTRATEGYANALYSIS\TabStep.cpp
; File C:\Program Files (x86)\Microsoft Visual Studio\2019\Community\VC\Tools\MSVC\14.29.30133\atlmfc\include\cstringt.h
; File C:\Program Files (x86)\Microsoft Visual Studio\2019\Community\VC\Tools\MSVC\14.29.30133\atlmfc\include\atlsimpstr.h
; File C:\Program Files (x86)\Microsoft Visual Studio\2019\Community\VC\Tools\MSVC\14.29.30133\atlmfc\include\cstringt.h
; File D:\git\src\IBK\IBK_DRFN\ProjSrc\SrcDrfn\Chart\HWSTRATEGYANALYSIS\TabStep.cpp
; File C:\Program Files (x86)\Microsoft Visual Studio\2019\Community\VC\Tools\MSVC\14.29.30133\atlmfc\include\cstringt.h
; File D:\git\src\IBK\IBK_DRFN\ProjSrc\SrcDrfn\Chart\HWSTRATEGYANALYSIS\TabStep.cpp
; File C:\Program Files (x86)\Microsoft Visual Studio\2019\Community\VC\Tools\MSVC\14.29.30133\atlmfc\include\cstringt.h
; File C:\Program Files (x86)\Microsoft Visual Studio\2019\Community\VC\Tools\MSVC\14.29.30133\atlmfc\include\atlsimpstr.h
; File C:\Program Files (x86)\Microsoft Visual Studio\2019\Community\VC\Tools\MSVC\14.29.30133\atlmfc\include\cstringt.h
; File D:\git\src\IBK\IBK_DRFN\ProjSrc\SrcDrfn\Chart\HWSTRATEGYANALYSIS\TabStep.cpp
;	COMDAT ?SetDataSpreadGrid@CTabStep@@QAEXXZ
_TEXT	SEGMENT
$T2 = -60						; size = 4
_Strate$1$ = -56					; size = 4
$T3 = -52						; size = 4
$T4 = -48						; size = 4
$T5 = -44						; size = 4
$T6 = -40						; size = 4
$T7 = -36						; size = 4
_Data$ = -32						; size = 8
$T8 = -28						; size = 4
_nIndex$1$ = -24					; size = 4
$T9 = -20						; size = 4
_strData$ = -16						; size = 4
__$EHRec$ = -12						; size = 12
?SetDataSpreadGrid@CTabStep@@QAEXXZ PROC		; CTabStep::SetDataSpreadGrid, COMDAT
; _this$ = ecx

; 108  : {

  00000	55		 push	 ebp
  00001	8b ec		 mov	 ebp, esp
  00003	6a ff		 push	 -1
  00005	68 00 00 00 00	 push	 __ehhandler$?SetDataSpreadGrid@CTabStep@@QAEXXZ
  0000a	64 a1 00 00 00
	00		 mov	 eax, DWORD PTR fs:0
  00010	50		 push	 eax
  00011	83 ec 30	 sub	 esp, 48			; 00000030H
  00014	53		 push	 ebx
  00015	56		 push	 esi
  00016	57		 push	 edi
  00017	a1 00 00 00 00	 mov	 eax, DWORD PTR ___security_cookie
  0001c	33 c5		 xor	 eax, ebp
  0001e	50		 push	 eax
  0001f	8d 45 f4	 lea	 eax, DWORD PTR __$EHRec$[ebp]
  00022	64 a3 00 00 00
	00		 mov	 DWORD PTR fs:0, eax
  00028	8b f9		 mov	 edi, ecx
  0002a	33 c0		 xor	 eax, eax

; 109  : 	double Data;
; 110  : 	CString strData;

  0002c	8d 4d f0	 lea	 ecx, DWORD PTR _strData$[ebp]
  0002f	89 45 ec	 mov	 DWORD PTR $T9[ebp], eax
  00032	89 45 e4	 mov	 DWORD PTR $T8[ebp], eax
  00035	ff 15 00 00 00
	00		 call	 DWORD PTR __imp_??0?$CStringT@DV?$StrTraitMFC_DLL@DV?$ChTraitsCRT@D@ATL@@@@@ATL@@QAE@XZ

; 111  : 	CIStrategyItem* Strate = m_pDlgAnalysis->GetStrategyItem();

  0003b	8b 87 ac 00 00
	00		 mov	 eax, DWORD PTR [edi+172]
  00041	c7 45 fc 00 00
	00 00		 mov	 DWORD PTR __$EHRec$[ebp+8], 0
  00048	8b 80 c4 00 00
	00		 mov	 eax, DWORD PTR [eax+196]
  0004e	89 45 c8	 mov	 DWORD PTR _Strate$1$[ebp], eax

; 112  : 	DWORD nFormat = DT_RIGHT|DT_VCENTER|DT_SINGLELINE|DT_NOPREFIX;// 
; 113  : 	//  ..!!!!
; 114  : 	int nIndex = 0;
; 115  : 	for(int i = 0; i<= m_nDiv ;i++)//Index .

  00051	33 c0		 xor	 eax, eax
  00053	89 45 e8	 mov	 DWORD PTR _nIndex$1$[ebp], eax
  00056	39 87 c8 00 00
	00		 cmp	 DWORD PTR [edi+200], eax
  0005c	0f 8c b0 04 00
	00		 jl	 $LN3@SetDataSpr
  00062	8b 1d 00 00 00
	00		 mov	 ebx, DWORD PTR __imp_?Format@?$CStringT@DV?$StrTraitMFC_DLL@DV?$ChTraitsCRT@D@ATL@@@@@ATL@@QAAXPBDZZ
  00068	0f 1f 84 00 00
	00 00 00	 npad	 8
$LL4@SetDataSpr:

; 116  : 	{		
; 117  : 		m_pDlgAnalysis->SetCalculateData(i);

  00070	8b 8f ac 00 00
	00		 mov	 ecx, DWORD PTR [edi+172]
  00076	50		 push	 eax
  00077	e8 00 00 00 00	 call	 ?SetCalculateData@CDlgAnalysis@@QAEXH@Z ; CDlgAnalysis::SetCalculateData

; 118  : 		nIndex = i +1;

  0007c	ff 45 e8	 inc	 DWORD PTR _nIndex$1$[ebp]

; 119  : 		for(int j =0;j<31;j++)

  0007f	33 f6		 xor	 esi, esi
$LL7@SetDataSpr:

; 120  : 		{
; 121  : 			if(j==2||j==9||j==10||j==11||j==14||j==16||j==17||j==19||j==20||j==22||j==23||( j>24 && j<30 ))

  00081	83 fe 02	 cmp	 esi, 2
  00084	0f 84 6f 04 00
	00		 je	 $LN5@SetDataSpr
  0008a	83 fe 09	 cmp	 esi, 9
  0008d	0f 84 66 04 00
	00		 je	 $LN5@SetDataSpr
  00093	83 fe 0a	 cmp	 esi, 10			; 0000000aH
  00096	0f 84 5d 04 00
	00		 je	 $LN5@SetDataSpr
  0009c	83 fe 0b	 cmp	 esi, 11			; 0000000bH
  0009f	0f 84 54 04 00
	00		 je	 $LN5@SetDataSpr
  000a5	83 fe 0e	 cmp	 esi, 14			; 0000000eH
  000a8	0f 84 4b 04 00
	00		 je	 $LN5@SetDataSpr
  000ae	83 fe 10	 cmp	 esi, 16			; 00000010H
  000b1	0f 84 42 04 00
	00		 je	 $LN5@SetDataSpr
  000b7	83 fe 11	 cmp	 esi, 17			; 00000011H
  000ba	0f 84 39 04 00
	00		 je	 $LN5@SetDataSpr
  000c0	83 fe 13	 cmp	 esi, 19			; 00000013H
  000c3	0f 84 30 04 00
	00		 je	 $LN5@SetDataSpr
  000c9	83 fe 14	 cmp	 esi, 20			; 00000014H
  000cc	0f 84 27 04 00
	00		 je	 $LN5@SetDataSpr
  000d2	83 fe 16	 cmp	 esi, 22			; 00000016H
  000d5	0f 84 1e 04 00
	00		 je	 $LN5@SetDataSpr
  000db	83 fe 17	 cmp	 esi, 23			; 00000017H
  000de	0f 84 15 04 00
	00		 je	 $LN5@SetDataSpr
  000e4	83 fe 18	 cmp	 esi, 24			; 00000018H
  000e7	76 09		 jbe	 SHORT $LN10@SetDataSpr
  000e9	83 fe 1e	 cmp	 esi, 30			; 0000001eH
  000ec	0f 82 07 04 00
	00		 jb	 $LN5@SetDataSpr
$LN10@SetDataSpr:

; 122  : 				continue;//   .
; 123  : 
; 124  : 			Data = Strate->GetStatisticalInfo(j);

  000f2	8b 4d c8	 mov	 ecx, DWORD PTR _Strate$1$[ebp]
  000f5	56		 push	 esi
  000f6	8b 01		 mov	 eax, DWORD PTR [ecx]
  000f8	8b 40 50	 mov	 eax, DWORD PTR [eax+80]
  000fb	ff d0		 call	 eax

; 125  : 			if(j==15||j==31)

  000fd	83 ec 08	 sub	 esp, 8
  00100	8d 45 f0	 lea	 eax, DWORD PTR _strData$[ebp]
  00103	dd 5d e0	 fstp	 QWORD PTR _Data$[ebp]
  00106	f2 0f 10 45 e0	 movsd	 xmm0, QWORD PTR _Data$[ebp]
  0010b	f2 0f 11 04 24	 movsd	 QWORD PTR [esp], xmm0
  00110	83 fe 0f	 cmp	 esi, 15			; 0000000fH
  00113	74 07		 je	 SHORT $LN14@SetDataSpr

; 127  : 			else
; 128  : 				strData.Format("%.2f", Data);

  00115	68 00 00 00 00	 push	 OFFSET ??_C@_04GEFJINEE@?$CF?42f@
  0011a	eb 05		 jmp	 SHORT $LN151@SetDataSpr
$LN14@SetDataSpr:

; 126  : 				strData.Format("%.0f", Data);

  0011c	68 00 00 00 00	 push	 OFFSET ??_C@_04GHNNFJCK@?$CF?40f@
$LN151@SetDataSpr:

; 129  : 
; 130  : 			if(m_bIsJusik)

  00121	50		 push	 eax
  00122	ff d3		 call	 ebx
  00124	83 c4 10	 add	 esp, 16			; 00000010H
  00127	83 bf b0 00 00
	00 00		 cmp	 DWORD PTR [edi+176], 0
  0012e	74 52		 je	 SHORT $LN17@SetDataSpr

; 131  : 			{
; 132  : 				if(j==3||j==4||j== 5||j== 7||j== 8||j== 12||j== 13)

  00130	83 fe 03	 cmp	 esi, 3
  00133	74 32		 je	 SHORT $LN18@SetDataSpr
  00135	83 fe 04	 cmp	 esi, 4
  00138	74 2d		 je	 SHORT $LN18@SetDataSpr
  0013a	83 fe 05	 cmp	 esi, 5
  0013d	74 28		 je	 SHORT $LN18@SetDataSpr
  0013f	83 fe 07	 cmp	 esi, 7
  00142	74 23		 je	 SHORT $LN18@SetDataSpr
  00144	83 fe 08	 cmp	 esi, 8
  00147	74 1e		 je	 SHORT $LN18@SetDataSpr
  00149	83 fe 0c	 cmp	 esi, 12			; 0000000cH
  0014c	74 19		 je	 SHORT $LN18@SetDataSpr
  0014e	83 fe 0d	 cmp	 esi, 13			; 0000000dH
  00151	74 14		 je	 SHORT $LN18@SetDataSpr

; 134  : 				else
; 135  : 					strData.Format("%.2f", Data);

  00153	f2 0f 10 45 e0	 movsd	 xmm0, QWORD PTR _Data$[ebp]
  00158	83 ec 08	 sub	 esp, 8
  0015b	f2 0f 11 04 24	 movsd	 QWORD PTR [esp], xmm0
  00160	68 00 00 00 00	 push	 OFFSET ??_C@_04GEFJINEE@?$CF?42f@
  00165	eb 12		 jmp	 SHORT $LN152@SetDataSpr
$LN18@SetDataSpr:

; 133  : 					strData.Format("%.0f", Data);

  00167	f2 0f 10 45 e0	 movsd	 xmm0, QWORD PTR _Data$[ebp]
  0016c	83 ec 08	 sub	 esp, 8
  0016f	f2 0f 11 04 24	 movsd	 QWORD PTR [esp], xmm0
  00174	68 00 00 00 00	 push	 OFFSET ??_C@_04GHNNFJCK@?$CF?40f@
$LN152@SetDataSpr:

; 136  : 			}
; 137  : 
; 138  : 			if(Data == 0)

  00179	8d 45 f0	 lea	 eax, DWORD PTR _strData$[ebp]
  0017c	50		 push	 eax
  0017d	ff d3		 call	 ebx
  0017f	83 c4 10	 add	 esp, 16			; 00000010H
$LN17@SetDataSpr:
  00182	f2 0f 10 45 e0	 movsd	 xmm0, QWORD PTR _Data$[ebp]
  00187	0f 57 c9	 xorps	 xmm1, xmm1
  0018a	66 0f 2e c1	 ucomisd xmm0, xmm1
  0018e	9f		 lahf
  0018f	f6 c4 44	 test	 ah, 68			; 00000044H
  00192	7a 16		 jp	 SHORT $LN19@SetDataSpr

; 139  : 				strData.Format("0",Data);

  00194	83 ec 08	 sub	 esp, 8
  00197	8d 45 f0	 lea	 eax, DWORD PTR _strData$[ebp]
  0019a	f2 0f 11 04 24	 movsd	 QWORD PTR [esp], xmm0
  0019f	68 00 00 00 00	 push	 OFFSET ??_C@_01GBGANLPD@0@
  001a4	50		 push	 eax
  001a5	ff d3		 call	 ebx
  001a7	83 c4 10	 add	 esp, 16			; 00000010H
$LN19@SetDataSpr:

; 140  : 			strData = GetComma(strData);

  001aa	ff 75 f0	 push	 DWORD PTR _strData$[ebp]
  001ad	8d 45 c4	 lea	 eax, DWORD PTR $T2[ebp]
  001b0	50		 push	 eax
  001b1	e8 00 00 00 00	 call	 ?GetComma@CDlgInterface@@SA?AV?$CStringT@DV?$StrTraitMFC_DLL@DV?$ChTraitsCRT@D@ATL@@@@@ATL@@PBD@Z ; CDlgInterface::GetComma
  001b6	83 c4 08	 add	 esp, 8
  001b9	50		 push	 eax
  001ba	8d 4d f0	 lea	 ecx, DWORD PTR _strData$[ebp]
  001bd	c6 45 fc 01	 mov	 BYTE PTR __$EHRec$[ebp+8], 1
  001c1	ff 15 00 00 00
	00		 call	 DWORD PTR __imp_??4?$CStringT@DV?$StrTraitMFC_DLL@DV?$ChTraitsCRT@D@ATL@@@@@ATL@@QAEAAV01@ABV01@@Z
  001c7	8d 4d c4	 lea	 ecx, DWORD PTR $T2[ebp]
  001ca	c6 45 fc 00	 mov	 BYTE PTR __$EHRec$[ebp+8], 0
  001ce	ff 15 00 00 00
	00		 call	 DWORD PTR __imp_??1?$CStringT@DV?$StrTraitMFC_DLL@DV?$ChTraitsCRT@D@ATL@@@@@ATL@@QAE@XZ

; 141  : 			
; 142  : 			switch(j) 

  001d4	83 fe 1e	 cmp	 esi, 30			; 0000001eH
  001d7	0f 87 1c 03 00
	00		 ja	 $LN5@SetDataSpr
  001dd	0f b6 86 00 00
	00 00		 movzx	 eax, BYTE PTR $LN148@SetDataSpr[esi]
  001e4	ff 24 85 00 00
	00 00		 jmp	 DWORD PTR $LN149@SetDataSpr[eax*4]
$LN20@SetDataSpr:
; File C:\Program Files (x86)\Microsoft Visual Studio\2019\Community\VC\Tools\MSVC\14.29.30133\atlmfc\include\cstringt.h

; 2401 : 		CStringT strResult( str1.GetManager() );

  001eb	8d 4d f0	 lea	 ecx, DWORD PTR _strData$[ebp]
; File D:\git\src\IBK\IBK_DRFN\ProjSrc\SrcDrfn\Chart\HWSTRATEGYANALYSIS\TabStep.cpp

; 145  : 				m_StepGridCtrl.SetItemText(1,nIndex,strData+"%",nFormat);//Grid

  001ee	c6 45 fc 02	 mov	 BYTE PTR __$EHRec$[ebp+8], 2
; File C:\Program Files (x86)\Microsoft Visual Studio\2019\Community\VC\Tools\MSVC\14.29.30133\atlmfc\include\cstringt.h

; 2401 : 		CStringT strResult( str1.GetManager() );

  001f2	ff 15 00 00 00
	00		 call	 DWORD PTR __imp_?GetManager@?$CStringT@DV?$StrTraitMFC_DLL@DV?$ChTraitsCRT@D@ATL@@@@@ATL@@QBEPAUIAtlStringMgr@2@XZ
  001f8	50		 push	 eax
  001f9	8d 4d dc	 lea	 ecx, DWORD PTR $T7[ebp]
  001fc	ff 15 00 00 00
	00		 call	 DWORD PTR __imp_??0?$CStringT@DV?$StrTraitMFC_DLL@DV?$ChTraitsCRT@D@ATL@@@@@ATL@@QAE@PAUIAtlStringMgr@1@@Z

; 2404 : 
; 2405 : 		return( strResult );

  00202	8b 45 ec	 mov	 eax, DWORD PTR $T9[ebp]
  00205	83 c8 01	 or	 eax, 1
  00208	89 45 ec	 mov	 DWORD PTR $T9[ebp], eax
  0020b	89 45 e4	 mov	 DWORD PTR $T8[ebp], eax
; File C:\Program Files (x86)\Microsoft Visual Studio\2019\Community\VC\Tools\MSVC\14.29.30133\atlmfc\include\atlsimpstr.h

; 519  : 		return( GetData()->nDataLength );

  0020e	8b 45 f0	 mov	 eax, DWORD PTR _strData$[ebp]
; File C:\Program Files (x86)\Microsoft Visual Studio\2019\Community\VC\Tools\MSVC\14.29.30133\atlmfc\include\cstringt.h

; 2403 : 		CThisSimpleString::Concatenate( strResult, str1, str1.GetLength(), psz2, CThisSimpleString::StringLength( psz2 ) );

  00211	6a 01		 push	 1
  00213	68 00 00 00 00	 push	 OFFSET ??_C@_01FGNFDNOH@?$CF@
  00218	ff 70 f4	 push	 DWORD PTR [eax-12]
  0021b	50		 push	 eax
  0021c	8d 45 dc	 lea	 eax, DWORD PTR $T7[ebp]
  0021f	50		 push	 eax
  00220	ff 15 00 00 00
	00		 call	 DWORD PTR __imp_?Concatenate@?$CSimpleStringT@D$00@ATL@@KAXAAV12@PBDH1H@Z
  00226	83 c4 14	 add	 esp, 20			; 00000014H
; File D:\git\src\IBK\IBK_DRFN\ProjSrc\SrcDrfn\Chart\HWSTRATEGYANALYSIS\TabStep.cpp

; 145  : 				m_StepGridCtrl.SetItemText(1,nIndex,strData+"%",nFormat);//Grid

  00229	8d 8f d0 00 00
	00		 lea	 ecx, DWORD PTR [edi+208]
  0022f	68 26 08 00 00	 push	 2086			; 00000826H
  00234	ff 75 dc	 push	 DWORD PTR $T7[ebp]
  00237	ff 75 e8	 push	 DWORD PTR _nIndex$1$[ebp]
  0023a	6a 01		 push	 1
  0023c	e8 00 00 00 00	 call	 ?SetItemText@CGridCtrl@@QAEHHHPBDK@Z ; CGridCtrl::SetItemText
  00241	83 65 ec fe	 and	 DWORD PTR $T9[ebp], -2	; fffffffeH
  00245	8d 4d dc	 lea	 ecx, DWORD PTR $T7[ebp]

; 146  : 				break;

  00248	e9 a2 02 00 00	 jmp	 $LN153@SetDataSpr
$LN21@SetDataSpr:
; File C:\Program Files (x86)\Microsoft Visual Studio\2019\Community\VC\Tools\MSVC\14.29.30133\atlmfc\include\cstringt.h

; 2401 : 		CStringT strResult( str1.GetManager() );

  0024d	8d 4d f0	 lea	 ecx, DWORD PTR _strData$[ebp]
; File D:\git\src\IBK\IBK_DRFN\ProjSrc\SrcDrfn\Chart\HWSTRATEGYANALYSIS\TabStep.cpp

; 148  : 				m_StepGridCtrl.SetItemText(2,nIndex,strData+"%",nFormat);//Grid

  00250	c6 45 fc 03	 mov	 BYTE PTR __$EHRec$[ebp+8], 3
; File C:\Program Files (x86)\Microsoft Visual Studio\2019\Community\VC\Tools\MSVC\14.29.30133\atlmfc\include\cstringt.h

; 2401 : 		CStringT strResult( str1.GetManager() );

  00254	ff 15 00 00 00
	00		 call	 DWORD PTR __imp_?GetManager@?$CStringT@DV?$StrTraitMFC_DLL@DV?$ChTraitsCRT@D@ATL@@@@@ATL@@QBEPAUIAtlStringMgr@2@XZ
  0025a	50		 push	 eax
  0025b	8d 4d d8	 lea	 ecx, DWORD PTR $T6[ebp]
  0025e	ff 15 00 00 00
	00		 call	 DWORD PTR __imp_??0?$CStringT@DV?$StrTraitMFC_DLL@DV?$ChTraitsCRT@D@ATL@@@@@ATL@@QAE@PAUIAtlStringMgr@1@@Z

; 2404 : 
; 2405 : 		return( strResult );

  00264	8b 45 ec	 mov	 eax, DWORD PTR $T9[ebp]
  00267	83 c8 02	 or	 eax, 2
  0026a	89 45 ec	 mov	 DWORD PTR $T9[ebp], eax
  0026d	89 45 e4	 mov	 DWORD PTR $T8[ebp], eax
; File C:\Program Files (x86)\Microsoft Visual Studio\2019\Community\VC\Tools\MSVC\14.29.30133\atlmfc\include\atlsimpstr.h

; 519  : 		return( GetData()->nDataLength );

  00270	8b 45 f0	 mov	 eax, DWORD PTR _strData$[ebp]
; File C:\Program Files (x86)\Microsoft Visual Studio\2019\Community\VC\Tools\MSVC\14.29.30133\atlmfc\include\cstringt.h

; 2403 : 		CThisSimpleString::Concatenate( strResult, str1, str1.GetLength(), psz2, CThisSimpleString::StringLength( psz2 ) );

  00273	6a 01		 push	 1
  00275	68 00 00 00 00	 push	 OFFSET ??_C@_01FGNFDNOH@?$CF@
  0027a	ff 70 f4	 push	 DWORD PTR [eax-12]
  0027d	50		 push	 eax
  0027e	8d 45 d8	 lea	 eax, DWORD PTR $T6[ebp]
  00281	50		 push	 eax
  00282	ff 15 00 00 00
	00		 call	 DWORD PTR __imp_?Concatenate@?$CSimpleStringT@D$00@ATL@@KAXAAV12@PBDH1H@Z
  00288	83 c4 14	 add	 esp, 20			; 00000014H
; File D:\git\src\IBK\IBK_DRFN\ProjSrc\SrcDrfn\Chart\HWSTRATEGYANALYSIS\TabStep.cpp

; 148  : 				m_StepGridCtrl.SetItemText(2,nIndex,strData+"%",nFormat);//Grid

  0028b	8d 8f d0 00 00
	00		 lea	 ecx, DWORD PTR [edi+208]
  00291	68 26 08 00 00	 push	 2086			; 00000826H
  00296	ff 75 d8	 push	 DWORD PTR $T6[ebp]
  00299	ff 75 e8	 push	 DWORD PTR _nIndex$1$[ebp]
  0029c	6a 02		 push	 2
  0029e	e8 00 00 00 00	 call	 ?SetItemText@CGridCtrl@@QAEHHHPBDK@Z ; CGridCtrl::SetItemText
  002a3	83 65 ec fd	 and	 DWORD PTR $T9[ebp], -3	; fffffffdH
  002a7	8d 4d d8	 lea	 ecx, DWORD PTR $T6[ebp]

; 149  : 				break;

  002aa	e9 40 02 00 00	 jmp	 $LN153@SetDataSpr
$LN22@SetDataSpr:

; 150  : 			case PROFITLOSSALL:
; 151  : 				m_StepGridCtrl.SetItemText(3,nIndex,strData,nFormat);//Grid

  002af	68 26 08 00 00	 push	 2086			; 00000826H
  002b4	ff 75 f0	 push	 DWORD PTR _strData$[ebp]
  002b7	8d 8f d0 00 00
	00		 lea	 ecx, DWORD PTR [edi+208]
  002bd	ff 75 e8	 push	 DWORD PTR _nIndex$1$[ebp]
  002c0	6a 03		 push	 3
  002c2	e8 00 00 00 00	 call	 ?SetItemText@CGridCtrl@@QAEHHHPBDK@Z ; CGridCtrl::SetItemText

; 152  : 				break;

  002c7	e9 2d 02 00 00	 jmp	 $LN5@SetDataSpr
$LN23@SetDataSpr:

; 153  : 			case PROFITALL:
; 154  : 				m_StepGridCtrl.SetItemText(4,nIndex,strData,nFormat);//Grid

  002cc	68 26 08 00 00	 push	 2086			; 00000826H
  002d1	ff 75 f0	 push	 DWORD PTR _strData$[ebp]
  002d4	8d 8f d0 00 00
	00		 lea	 ecx, DWORD PTR [edi+208]
  002da	ff 75 e8	 push	 DWORD PTR _nIndex$1$[ebp]
  002dd	6a 04		 push	 4
  002df	e8 00 00 00 00	 call	 ?SetItemText@CGridCtrl@@QAEHHHPBDK@Z ; CGridCtrl::SetItemText

; 155  : 				break;

  002e4	e9 10 02 00 00	 jmp	 $LN5@SetDataSpr
$LN24@SetDataSpr:

; 156  : 			case LOSSALL:
; 157  : 				m_StepGridCtrl.SetItemText(5,nIndex,strData,nFormat);//Grid

  002e9	68 26 08 00 00	 push	 2086			; 00000826H
  002ee	ff 75 f0	 push	 DWORD PTR _strData$[ebp]
  002f1	8d 8f d0 00 00
	00		 lea	 ecx, DWORD PTR [edi+208]
  002f7	ff 75 e8	 push	 DWORD PTR _nIndex$1$[ebp]
  002fa	6a 05		 push	 5
  002fc	e8 00 00 00 00	 call	 ?SetItemText@CGridCtrl@@QAEHHHPBDK@Z ; CGridCtrl::SetItemText

; 158  : 				break;

  00301	e9 f3 01 00 00	 jmp	 $LN5@SetDataSpr
$LN25@SetDataSpr:

; 159  : 			case PROFITLOSSRATEALL:
; 160  : 				m_StepGridCtrl.SetItemText(6,nIndex,strData,nFormat);//Grid

  00306	68 26 08 00 00	 push	 2086			; 00000826H
  0030b	ff 75 f0	 push	 DWORD PTR _strData$[ebp]
  0030e	8d 8f d0 00 00
	00		 lea	 ecx, DWORD PTR [edi+208]
  00314	ff 75 e8	 push	 DWORD PTR _nIndex$1$[ebp]
  00317	6a 06		 push	 6
  00319	e8 00 00 00 00	 call	 ?SetItemText@CGridCtrl@@QAEHHHPBDK@Z ; CGridCtrl::SetItemText

; 161  : 				break;

  0031e	e9 d6 01 00 00	 jmp	 $LN5@SetDataSpr
$LN26@SetDataSpr:

; 162  : 			case MAXPROFIT:
; 163  : 				m_StepGridCtrl.SetItemText(7,nIndex,strData,nFormat);//Gridi

  00323	68 26 08 00 00	 push	 2086			; 00000826H
  00328	ff 75 f0	 push	 DWORD PTR _strData$[ebp]
  0032b	8d 8f d0 00 00
	00		 lea	 ecx, DWORD PTR [edi+208]
  00331	ff 75 e8	 push	 DWORD PTR _nIndex$1$[ebp]
  00334	6a 07		 push	 7
  00336	e8 00 00 00 00	 call	 ?SetItemText@CGridCtrl@@QAEHHHPBDK@Z ; CGridCtrl::SetItemText

; 164  : 				break;

  0033b	e9 b9 01 00 00	 jmp	 $LN5@SetDataSpr
$LN27@SetDataSpr:

; 165  : 			case MAXLOSS:
; 166  : 				m_StepGridCtrl.SetItemText(8,nIndex,strData,nFormat);//Grid

  00340	68 26 08 00 00	 push	 2086			; 00000826H
  00345	ff 75 f0	 push	 DWORD PTR _strData$[ebp]
  00348	8d 8f d0 00 00
	00		 lea	 ecx, DWORD PTR [edi+208]
  0034e	ff 75 e8	 push	 DWORD PTR _nIndex$1$[ebp]
  00351	6a 08		 push	 8
  00353	e8 00 00 00 00	 call	 ?SetItemText@CGridCtrl@@QAEHHHPBDK@Z ; CGridCtrl::SetItemText

; 167  : 				break;

  00358	e9 9c 01 00 00	 jmp	 $LN5@SetDataSpr
$LN28@SetDataSpr:

; 168  : 			case AMOUNTENTEREDALL:
; 169  : 				m_StepGridCtrl.SetItemText(9,nIndex,strData,nFormat);//Grid

  0035d	68 26 08 00 00	 push	 2086			; 00000826H
  00362	ff 75 f0	 push	 DWORD PTR _strData$[ebp]
  00365	8d 8f d0 00 00
	00		 lea	 ecx, DWORD PTR [edi+208]
  0036b	ff 75 e8	 push	 DWORD PTR _nIndex$1$[ebp]
  0036e	6a 09		 push	 9
  00370	e8 00 00 00 00	 call	 ?SetItemText@CGridCtrl@@QAEHHHPBDK@Z ; CGridCtrl::SetItemText

; 170  : 				break;

  00375	e9 7f 01 00 00	 jmp	 $LN5@SetDataSpr
$LN29@SetDataSpr:

; 171  : 			case AMOUNTEXITALL:
; 172  : 				m_StepGridCtrl.SetItemText(10,nIndex,strData,nFormat);//Grid

  0037a	68 26 08 00 00	 push	 2086			; 00000826H
  0037f	ff 75 f0	 push	 DWORD PTR _strData$[ebp]
  00382	8d 8f d0 00 00
	00		 lea	 ecx, DWORD PTR [edi+208]
  00388	ff 75 e8	 push	 DWORD PTR _nIndex$1$[ebp]
  0038b	6a 0a		 push	 10			; 0000000aH
  0038d	e8 00 00 00 00	 call	 ?SetItemText@CGridCtrl@@QAEHHHPBDK@Z ; CGridCtrl::SetItemText

; 173  : 				break;

  00392	e9 62 01 00 00	 jmp	 $LN5@SetDataSpr
$LN30@SetDataSpr:

; 174  : 			case CNTALL:
; 175  : 				m_StepGridCtrl.SetItemText(11,nIndex,strData,nFormat);//Grid

  00397	68 26 08 00 00	 push	 2086			; 00000826H
  0039c	ff 75 f0	 push	 DWORD PTR _strData$[ebp]
  0039f	8d 8f d0 00 00
	00		 lea	 ecx, DWORD PTR [edi+208]
  003a5	ff 75 e8	 push	 DWORD PTR _nIndex$1$[ebp]
  003a8	6a 0b		 push	 11			; 0000000bH
  003aa	e8 00 00 00 00	 call	 ?SetItemText@CGridCtrl@@QAEHHHPBDK@Z ; CGridCtrl::SetItemText

; 176  : 				break;

  003af	e9 45 01 00 00	 jmp	 $LN5@SetDataSpr
$LN31@SetDataSpr:

; 177  : 			case RATEPROFITLOSS:
; 178  : 				m_StepGridCtrl.SetItemText(12,nIndex,strData,nFormat);//Grid

  003b4	68 26 08 00 00	 push	 2086			; 00000826H
  003b9	ff 75 f0	 push	 DWORD PTR _strData$[ebp]
  003bc	8d 8f d0 00 00
	00		 lea	 ecx, DWORD PTR [edi+208]
  003c2	ff 75 e8	 push	 DWORD PTR _nIndex$1$[ebp]
  003c5	6a 0c		 push	 12			; 0000000cH
  003c7	e8 00 00 00 00	 call	 ?SetItemText@CGridCtrl@@QAEHHHPBDK@Z ; CGridCtrl::SetItemText

; 179  : 				break;

  003cc	e9 28 01 00 00	 jmp	 $LN5@SetDataSpr
$LN32@SetDataSpr:
; File C:\Program Files (x86)\Microsoft Visual Studio\2019\Community\VC\Tools\MSVC\14.29.30133\atlmfc\include\cstringt.h

; 2401 : 		CStringT strResult( str1.GetManager() );

  003d1	8d 4d f0	 lea	 ecx, DWORD PTR _strData$[ebp]
; File D:\git\src\IBK\IBK_DRFN\ProjSrc\SrcDrfn\Chart\HWSTRATEGYANALYSIS\TabStep.cpp

; 181  : 				m_StepGridCtrl.SetItemText(13,nIndex,strData+"%",nFormat);//Grid

  003d4	c6 45 fc 04	 mov	 BYTE PTR __$EHRec$[ebp+8], 4
; File C:\Program Files (x86)\Microsoft Visual Studio\2019\Community\VC\Tools\MSVC\14.29.30133\atlmfc\include\cstringt.h

; 2401 : 		CStringT strResult( str1.GetManager() );

  003d8	ff 15 00 00 00
	00		 call	 DWORD PTR __imp_?GetManager@?$CStringT@DV?$StrTraitMFC_DLL@DV?$ChTraitsCRT@D@ATL@@@@@ATL@@QBEPAUIAtlStringMgr@2@XZ
  003de	50		 push	 eax
  003df	8d 4d d4	 lea	 ecx, DWORD PTR $T5[ebp]
  003e2	ff 15 00 00 00
	00		 call	 DWORD PTR __imp_??0?$CStringT@DV?$StrTraitMFC_DLL@DV?$ChTraitsCRT@D@ATL@@@@@ATL@@QAE@PAUIAtlStringMgr@1@@Z

; 2404 : 
; 2405 : 		return( strResult );

  003e8	8b 45 ec	 mov	 eax, DWORD PTR $T9[ebp]
  003eb	83 c8 04	 or	 eax, 4
  003ee	89 45 ec	 mov	 DWORD PTR $T9[ebp], eax
  003f1	89 45 e4	 mov	 DWORD PTR $T8[ebp], eax
; File C:\Program Files (x86)\Microsoft Visual Studio\2019\Community\VC\Tools\MSVC\14.29.30133\atlmfc\include\atlsimpstr.h

; 519  : 		return( GetData()->nDataLength );

  003f4	8b 45 f0	 mov	 eax, DWORD PTR _strData$[ebp]
; File C:\Program Files (x86)\Microsoft Visual Studio\2019\Community\VC\Tools\MSVC\14.29.30133\atlmfc\include\cstringt.h

; 2403 : 		CThisSimpleString::Concatenate( strResult, str1, str1.GetLength(), psz2, CThisSimpleString::StringLength( psz2 ) );

  003f7	6a 01		 push	 1
  003f9	68 00 00 00 00	 push	 OFFSET ??_C@_01FGNFDNOH@?$CF@
  003fe	ff 70 f4	 push	 DWORD PTR [eax-12]
  00401	50		 push	 eax
  00402	8d 45 d4	 lea	 eax, DWORD PTR $T5[ebp]
  00405	50		 push	 eax
  00406	ff 15 00 00 00
	00		 call	 DWORD PTR __imp_?Concatenate@?$CSimpleStringT@D$00@ATL@@KAXAAV12@PBDH1H@Z
  0040c	83 c4 14	 add	 esp, 20			; 00000014H
; File D:\git\src\IBK\IBK_DRFN\ProjSrc\SrcDrfn\Chart\HWSTRATEGYANALYSIS\TabStep.cpp

; 181  : 				m_StepGridCtrl.SetItemText(13,nIndex,strData+"%",nFormat);//Grid

  0040f	8d 8f d0 00 00
	00		 lea	 ecx, DWORD PTR [edi+208]
  00415	68 26 08 00 00	 push	 2086			; 00000826H
  0041a	ff 75 d4	 push	 DWORD PTR $T5[ebp]
  0041d	ff 75 e8	 push	 DWORD PTR _nIndex$1$[ebp]
  00420	6a 0d		 push	 13			; 0000000dH
  00422	e8 00 00 00 00	 call	 ?SetItemText@CGridCtrl@@QAEHHHPBDK@Z ; CGridCtrl::SetItemText
  00427	83 65 ec fb	 and	 DWORD PTR $T9[ebp], -5	; fffffffbH
  0042b	8d 4d d4	 lea	 ecx, DWORD PTR $T5[ebp]

; 182  : 				break;

  0042e	e9 bc 00 00 00	 jmp	 $LN153@SetDataSpr
$LN33@SetDataSpr:
; File C:\Program Files (x86)\Microsoft Visual Studio\2019\Community\VC\Tools\MSVC\14.29.30133\atlmfc\include\cstringt.h

; 2401 : 		CStringT strResult( str1.GetManager() );

  00433	8d 4d f0	 lea	 ecx, DWORD PTR _strData$[ebp]
; File D:\git\src\IBK\IBK_DRFN\ProjSrc\SrcDrfn\Chart\HWSTRATEGYANALYSIS\TabStep.cpp

; 184  : 				m_StepGridCtrl.SetItemText(14,nIndex,strData+"%",nFormat);//Grid

  00436	c6 45 fc 05	 mov	 BYTE PTR __$EHRec$[ebp+8], 5
; File C:\Program Files (x86)\Microsoft Visual Studio\2019\Community\VC\Tools\MSVC\14.29.30133\atlmfc\include\cstringt.h

; 2401 : 		CStringT strResult( str1.GetManager() );

  0043a	ff 15 00 00 00
	00		 call	 DWORD PTR __imp_?GetManager@?$CStringT@DV?$StrTraitMFC_DLL@DV?$ChTraitsCRT@D@ATL@@@@@ATL@@QBEPAUIAtlStringMgr@2@XZ
  00440	50		 push	 eax
  00441	8d 4d d0	 lea	 ecx, DWORD PTR $T4[ebp]
  00444	ff 15 00 00 00
	00		 call	 DWORD PTR __imp_??0?$CStringT@DV?$StrTraitMFC_DLL@DV?$ChTraitsCRT@D@ATL@@@@@ATL@@QAE@PAUIAtlStringMgr@1@@Z

; 2404 : 
; 2405 : 		return( strResult );

  0044a	8b 45 ec	 mov	 eax, DWORD PTR $T9[ebp]
  0044d	83 c8 08	 or	 eax, 8
  00450	89 45 ec	 mov	 DWORD PTR $T9[ebp], eax
  00453	89 45 e4	 mov	 DWORD PTR $T8[ebp], eax
; File C:\Program Files (x86)\Microsoft Visual Studio\2019\Community\VC\Tools\MSVC\14.29.30133\atlmfc\include\atlsimpstr.h

; 519  : 		return( GetData()->nDataLength );

  00456	8b 45 f0	 mov	 eax, DWORD PTR _strData$[ebp]
; File C:\Program Files (x86)\Microsoft Visual Studio\2019\Community\VC\Tools\MSVC\14.29.30133\atlmfc\include\cstringt.h

; 2403 : 		CThisSimpleString::Concatenate( strResult, str1, str1.GetLength(), psz2, CThisSimpleString::StringLength( psz2 ) );

  00459	6a 01		 push	 1
  0045b	68 00 00 00 00	 push	 OFFSET ??_C@_01FGNFDNOH@?$CF@
  00460	ff 70 f4	 push	 DWORD PTR [eax-12]
  00463	50		 push	 eax
  00464	8d 45 d0	 lea	 eax, DWORD PTR $T4[ebp]
  00467	50		 push	 eax
  00468	ff 15 00 00 00
	00		 call	 DWORD PTR __imp_?Concatenate@?$CSimpleStringT@D$00@ATL@@KAXAAV12@PBDH1H@Z
  0046e	83 c4 14	 add	 esp, 20			; 00000014H
; File D:\git\src\IBK\IBK_DRFN\ProjSrc\SrcDrfn\Chart\HWSTRATEGYANALYSIS\TabStep.cpp

; 184  : 				m_StepGridCtrl.SetItemText(14,nIndex,strData+"%",nFormat);//Grid

  00471	8d 8f d0 00 00
	00		 lea	 ecx, DWORD PTR [edi+208]
  00477	68 26 08 00 00	 push	 2086			; 00000826H
  0047c	ff 75 d0	 push	 DWORD PTR $T4[ebp]
  0047f	ff 75 e8	 push	 DWORD PTR _nIndex$1$[ebp]
  00482	6a 0e		 push	 14			; 0000000eH
  00484	e8 00 00 00 00	 call	 ?SetItemText@CGridCtrl@@QAEHHHPBDK@Z ; CGridCtrl::SetItemText
  00489	83 65 ec f7	 and	 DWORD PTR $T9[ebp], -9	; fffffff7H
  0048d	8d 4d d0	 lea	 ecx, DWORD PTR $T4[ebp]

; 185  : 				break;

  00490	eb 5d		 jmp	 SHORT $LN153@SetDataSpr
$LN34@SetDataSpr:
; File C:\Program Files (x86)\Microsoft Visual Studio\2019\Community\VC\Tools\MSVC\14.29.30133\atlmfc\include\cstringt.h

; 2401 : 		CStringT strResult( str1.GetManager() );

  00492	8d 4d f0	 lea	 ecx, DWORD PTR _strData$[ebp]
; File D:\git\src\IBK\IBK_DRFN\ProjSrc\SrcDrfn\Chart\HWSTRATEGYANALYSIS\TabStep.cpp

; 187  : 				m_StepGridCtrl.SetItemText(15,nIndex,strData+"%",nFormat);//Grid

  00495	c6 45 fc 06	 mov	 BYTE PTR __$EHRec$[ebp+8], 6
; File C:\Program Files (x86)\Microsoft Visual Studio\2019\Community\VC\Tools\MSVC\14.29.30133\atlmfc\include\cstringt.h

; 2401 : 		CStringT strResult( str1.GetManager() );

  00499	ff 15 00 00 00
	00		 call	 DWORD PTR __imp_?GetManager@?$CStringT@DV?$StrTraitMFC_DLL@DV?$ChTraitsCRT@D@ATL@@@@@ATL@@QBEPAUIAtlStringMgr@2@XZ
  0049f	50		 push	 eax
  004a0	8d 4d cc	 lea	 ecx, DWORD PTR $T3[ebp]
  004a3	ff 15 00 00 00
	00		 call	 DWORD PTR __imp_??0?$CStringT@DV?$StrTraitMFC_DLL@DV?$ChTraitsCRT@D@ATL@@@@@ATL@@QAE@PAUIAtlStringMgr@1@@Z

; 2404 : 
; 2405 : 		return( strResult );

  004a9	8b 45 ec	 mov	 eax, DWORD PTR $T9[ebp]
  004ac	83 c8 10	 or	 eax, 16			; 00000010H
  004af	89 45 ec	 mov	 DWORD PTR $T9[ebp], eax
  004b2	89 45 e4	 mov	 DWORD PTR $T8[ebp], eax
; File C:\Program Files (x86)\Microsoft Visual Studio\2019\Community\VC\Tools\MSVC\14.29.30133\atlmfc\include\atlsimpstr.h

; 519  : 		return( GetData()->nDataLength );

  004b5	8b 45 f0	 mov	 eax, DWORD PTR _strData$[ebp]
; File C:\Program Files (x86)\Microsoft Visual Studio\2019\Community\VC\Tools\MSVC\14.29.30133\atlmfc\include\cstringt.h

; 2403 : 		CThisSimpleString::Concatenate( strResult, str1, str1.GetLength(), psz2, CThisSimpleString::StringLength( psz2 ) );

  004b8	6a 01		 push	 1
  004ba	68 00 00 00 00	 push	 OFFSET ??_C@_01FGNFDNOH@?$CF@
  004bf	ff 70 f4	 push	 DWORD PTR [eax-12]
  004c2	50		 push	 eax
  004c3	8d 45 cc	 lea	 eax, DWORD PTR $T3[ebp]
  004c6	50		 push	 eax
  004c7	ff 15 00 00 00
	00		 call	 DWORD PTR __imp_?Concatenate@?$CSimpleStringT@D$00@ATL@@KAXAAV12@PBDH1H@Z
  004cd	83 c4 14	 add	 esp, 20			; 00000014H
; File D:\git\src\IBK\IBK_DRFN\ProjSrc\SrcDrfn\Chart\HWSTRATEGYANALYSIS\TabStep.cpp

; 187  : 				m_StepGridCtrl.SetItemText(15,nIndex,strData+"%",nFormat);//Grid

  004d0	8d 8f d0 00 00
	00		 lea	 ecx, DWORD PTR [edi+208]
  004d6	68 26 08 00 00	 push	 2086			; 00000826H
  004db	ff 75 cc	 push	 DWORD PTR $T3[ebp]
  004de	ff 75 e8	 push	 DWORD PTR _nIndex$1$[ebp]
  004e1	6a 0f		 push	 15			; 0000000fH
  004e3	e8 00 00 00 00	 call	 ?SetItemText@CGridCtrl@@QAEHHHPBDK@Z ; CGridCtrl::SetItemText
  004e8	83 65 ec ef	 and	 DWORD PTR $T9[ebp], -17	; ffffffefH
  004ec	8d 4d cc	 lea	 ecx, DWORD PTR $T3[ebp]
$LN153@SetDataSpr:

; 119  : 		for(int j =0;j<31;j++)

  004ef	c6 45 fc 00	 mov	 BYTE PTR __$EHRec$[ebp+8], 0
  004f3	ff 15 00 00 00
	00		 call	 DWORD PTR __imp_??1?$CStringT@DV?$StrTraitMFC_DLL@DV?$ChTraitsCRT@D@ATL@@@@@ATL@@QAE@XZ
$LN5@SetDataSpr:
  004f9	46		 inc	 esi
  004fa	83 fe 1f	 cmp	 esi, 31			; 0000001fH
  004fd	0f 8c 7e fb ff
	ff		 jl	 $LL7@SetDataSpr

; 112  : 	DWORD nFormat = DT_RIGHT|DT_VCENTER|DT_SINGLELINE|DT_NOPREFIX;// 
; 113  : 	//  ..!!!!
; 114  : 	int nIndex = 0;
; 115  : 	for(int i = 0; i<= m_nDiv ;i++)//Index .

  00503	8b 45 e8	 mov	 eax, DWORD PTR _nIndex$1$[ebp]
  00506	3b 87 c8 00 00
	00		 cmp	 eax, DWORD PTR [edi+200]
  0050c	0f 8e 5e fb ff
	ff		 jle	 $LL4@SetDataSpr
$LN3@SetDataSpr:

; 188  : 				break;
; 189  : 			}
; 190  : 		}
; 191  : 	}
; 192  : }

  00512	8d 4d f0	 lea	 ecx, DWORD PTR _strData$[ebp]
  00515	ff 15 00 00 00
	00		 call	 DWORD PTR __imp_??1?$CStringT@DV?$StrTraitMFC_DLL@DV?$ChTraitsCRT@D@ATL@@@@@ATL@@QAE@XZ
  0051b	8b 4d f4	 mov	 ecx, DWORD PTR __$EHRec$[ebp]
  0051e	64 89 0d 00 00
	00 00		 mov	 DWORD PTR fs:0, ecx
  00525	59		 pop	 ecx
  00526	5f		 pop	 edi
  00527	5e		 pop	 esi
  00528	5b		 pop	 ebx
  00529	8b e5		 mov	 esp, ebp
  0052b	5d		 pop	 ebp
  0052c	c3		 ret	 0
  0052d	0f 1f 00	 npad	 3
$LN149@SetDataSpr:
  00530	00 00 00 00	 DD	 $LN20@SetDataSpr
  00534	00 00 00 00	 DD	 $LN21@SetDataSpr
  00538	00 00 00 00	 DD	 $LN22@SetDataSpr
  0053c	00 00 00 00	 DD	 $LN23@SetDataSpr
  00540	00 00 00 00	 DD	 $LN24@SetDataSpr
  00544	00 00 00 00	 DD	 $LN25@SetDataSpr
  00548	00 00 00 00	 DD	 $LN26@SetDataSpr
  0054c	00 00 00 00	 DD	 $LN27@SetDataSpr
  00550	00 00 00 00	 DD	 $LN28@SetDataSpr
  00554	00 00 00 00	 DD	 $LN29@SetDataSpr
  00558	00 00 00 00	 DD	 $LN30@SetDataSpr
  0055c	00 00 00 00	 DD	 $LN31@SetDataSpr
  00560	00 00 00 00	 DD	 $LN32@SetDataSpr
  00564	00 00 00 00	 DD	 $LN33@SetDataSpr
  00568	00 00 00 00	 DD	 $LN34@SetDataSpr
  0056c	00 00 00 00	 DD	 $LN5@SetDataSpr
$LN148@SetDataSpr:
  00570	00		 DB	 0
  00571	01		 DB	 1
  00572	0f		 DB	 15			; 0000000fH
  00573	02		 DB	 2
  00574	03		 DB	 3
  00575	04		 DB	 4
  00576	05		 DB	 5
  00577	06		 DB	 6
  00578	07		 DB	 7
  00579	0f		 DB	 15			; 0000000fH
  0057a	0f		 DB	 15			; 0000000fH
  0057b	0f		 DB	 15			; 0000000fH
  0057c	08		 DB	 8
  0057d	09		 DB	 9
  0057e	0f		 DB	 15			; 0000000fH
  0057f	0a		 DB	 10			; 0000000aH
  00580	0f		 DB	 15			; 0000000fH
  00581	0f		 DB	 15			; 0000000fH
  00582	0b		 DB	 11			; 0000000bH
  00583	0f		 DB	 15			; 0000000fH
  00584	0f		 DB	 15			; 0000000fH
  00585	0c		 DB	 12			; 0000000cH
  00586	0f		 DB	 15			; 0000000fH
  00587	0f		 DB	 15			; 0000000fH
  00588	0d		 DB	 13			; 0000000dH
  00589	0f		 DB	 15			; 0000000fH
  0058a	0f		 DB	 15			; 0000000fH
  0058b	0f		 DB	 15			; 0000000fH
  0058c	0f		 DB	 15			; 0000000fH
  0058d	0f		 DB	 15			; 0000000fH
  0058e	0e		 DB	 14			; 0000000eH
_TEXT	ENDS
;	COMDAT text$x
text$x	SEGMENT
__unwindfunclet$?SetDataSpreadGrid@CTabStep@@QAEXXZ$0:
  00000	8d 4d f0	 lea	 ecx, DWORD PTR _strData$[ebp]
  00003	ff 25 00 00 00
	00		 jmp	 DWORD PTR __imp_??1?$CStringT@DV?$StrTraitMFC_DLL@DV?$ChTraitsCRT@D@ATL@@@@@ATL@@QAE@XZ
__unwindfunclet$?SetDataSpreadGrid@CTabStep@@QAEXXZ$1:
  00009	8d 4d c4	 lea	 ecx, DWORD PTR $T2[ebp]
  0000c	ff 25 00 00 00
	00		 jmp	 DWORD PTR __imp_??1?$CStringT@DV?$StrTraitMFC_DLL@DV?$ChTraitsCRT@D@ATL@@@@@ATL@@QAE@XZ
__unwindfunclet$?SetDataSpreadGrid@CTabStep@@QAEXXZ$7:
  00012	8b 45 e4	 mov	 eax, DWORD PTR $T8[ebp]
  00015	83 e0 01	 and	 eax, 1
  00018	0f 84 0d 00 00
	00		 je	 $LN48@SetDataSpr
  0001e	83 65 e4 fe	 and	 DWORD PTR $T8[ebp], -2	; fffffffeH
  00022	8d 4d dc	 lea	 ecx, DWORD PTR $T7[ebp]
  00025	ff 25 00 00 00
	00		 jmp	 DWORD PTR __imp_??1?$CStringT@DV?$StrTraitMFC_DLL@DV?$ChTraitsCRT@D@ATL@@@@@ATL@@QAE@XZ
$LN48@SetDataSpr:
  0002b	c3		 ret	 0
__unwindfunclet$?SetDataSpreadGrid@CTabStep@@QAEXXZ$8:
  0002c	8b 45 e4	 mov	 eax, DWORD PTR $T8[ebp]
  0002f	83 e0 02	 and	 eax, 2
  00032	0f 84 0d 00 00
	00		 je	 $LN63@SetDataSpr
  00038	83 65 e4 fd	 and	 DWORD PTR $T8[ebp], -3	; fffffffdH
  0003c	8d 4d d8	 lea	 ecx, DWORD PTR $T6[ebp]
  0003f	ff 25 00 00 00
	00		 jmp	 DWORD PTR __imp_??1?$CStringT@DV?$StrTraitMFC_DLL@DV?$ChTraitsCRT@D@ATL@@@@@ATL@@QAE@XZ
$LN63@SetDataSpr:
  00045	c3		 ret	 0
__unwindfunclet$?SetDataSpreadGrid@CTabStep@@QAEXXZ$9:
  00046	8b 45 e4	 mov	 eax, DWORD PTR $T8[ebp]
  00049	83 e0 04	 and	 eax, 4
  0004c	0f 84 0d 00 00
	00		 je	 $LN98@SetDataSpr
  00052	83 65 e4 fb	 and	 DWORD PTR $T8[ebp], -5	; fffffffbH
  00056	8d 4d d4	 lea	 ecx, DWORD PTR $T5[ebp]
  00059	ff 25 00 00 00
	00		 jmp	 DWORD PTR __imp_??1?$CStringT@DV?$StrTraitMFC_DLL@DV?$ChTraitsCRT@D@ATL@@@@@ATL@@QAE@XZ
$LN98@SetDataSpr:
  0005f	c3		 ret	 0
__unwindfunclet$?SetDataSpreadGrid@CTabStep@@QAEXXZ$10:
  00060	8b 45 e4	 mov	 eax, DWORD PTR $T8[ebp]
  00063	83 e0 08	 and	 eax, 8
  00066	0f 84 0d 00 00
	00		 je	 $LN113@SetDataSpr
  0006c	83 65 e4 f7	 and	 DWORD PTR $T8[ebp], -9	; fffffff7H
  00070	8d 4d d0	 lea	 ecx, DWORD PTR $T4[ebp]
  00073	ff 25 00 00 00
	00		 jmp	 DWORD PTR __imp_??1?$CStringT@DV?$StrTraitMFC_DLL@DV?$ChTraitsCRT@D@ATL@@@@@ATL@@QAE@XZ
$LN113@SetDataSpr:
  00079	c3		 ret	 0
__unwindfunclet$?SetDataSpreadGrid@CTabStep@@QAEXXZ$11:
  0007a	8b 45 e4	 mov	 eax, DWORD PTR $T8[ebp]
  0007d	83 e0 10	 and	 eax, 16			; 00000010H
  00080	0f 84 0d 00 00
	00		 je	 $LN128@SetDataSpr
  00086	83 65 e4 ef	 and	 DWORD PTR $T8[ebp], -17	; ffffffefH
  0008a	8d 4d cc	 lea	 ecx, DWORD PTR $T3[ebp]
  0008d	ff 25 00 00 00
	00		 jmp	 DWORD PTR __imp_??1?$CStringT@DV?$StrTraitMFC_DLL@DV?$ChTraitsCRT@D@ATL@@@@@ATL@@QAE@XZ
$LN128@SetDataSpr:
  00093	c3		 ret	 0
  00094	cc		 int	 3
  00095	cc		 int	 3
  00096	cc		 int	 3
  00097	cc		 int	 3
  00098	cc		 int	 3
__ehhandler$?SetDataSpreadGrid@CTabStep@@QAEXXZ:
  00099	90		 npad	 1
  0009a	90		 npad	 1
  0009b	8b 54 24 08	 mov	 edx, DWORD PTR [esp+8]
  0009f	8d 42 0c	 lea	 eax, DWORD PTR [edx+12]
  000a2	8b 4a c0	 mov	 ecx, DWORD PTR [edx-64]
  000a5	33 c8		 xor	 ecx, eax
  000a7	e8 00 00 00 00	 call	 @__security_check_cookie@4
  000ac	b8 00 00 00 00	 mov	 eax, OFFSET __ehfuncinfo$?SetDataSpreadGrid@CTabStep@@QAEXXZ
  000b1	e9 00 00 00 00	 jmp	 ___CxxFrameHandler3
text$x	ENDS
?SetDataSpreadGrid@CTabStep@@QAEXXZ ENDP		; CTabStep::SetDataSpreadGrid
; Function compile flags: /Ogtp
; File D:\git\src\IBK\IBK_DRFN\ProjSrc\SrcDrfn\Chart\HWSTRATEGYANALYSIS\TabStep.cpp
; File C:\Program Files (x86)\Microsoft Visual Studio\2019\Community\VC\Tools\MSVC\14.29.30133\atlmfc\include\afxwin2.inl
; File D:\git\src\IBK\IBK_DRFN\ProjSrc\SrcDrfn\Chart\HWSTRATEGYANALYSIS\TabStep.cpp
; File C:\Program Files (x86)\Microsoft Visual Studio\2019\Community\VC\Tools\MSVC\14.29.30133\atlmfc\include\afxwin2.inl
; File C:\Program Files (x86)\Microsoft Visual Studio\2019\Community\VC\Tools\MSVC\14.29.30133\atlmfc\include\atltypes.h
; File C:\Program Files (x86)\Microsoft Visual Studio\2019\Community\VC\Tools\MSVC\14.29.30133\atlmfc\include\afxwin2.inl
; File D:\git\src\IBK\IBK_DRFN\ProjSrc\SrcDrfn\Chart\HWSTRATEGYANALYSIS\TabStep.cpp
; File C:\Program Files (x86)\Microsoft Visual Studio\2019\Community\VC\Tools\MSVC\14.29.30133\atlmfc\include\afxwin1.inl
; File D:\git\src\IBK\IBK_DRFN\ProjSrc\SrcDrfn\Chart\HWSTRATEGYANALYSIS\TabStep.cpp
; File C:\Program Files (x86)\Microsoft Visual Studio\2019\Community\VC\Tools\MSVC\14.29.30133\atlmfc\include\afxwin1.inl
; File D:\git\src\IBK\IBK_DRFN\ProjSrc\SrcDrfn\Chart\HWSTRATEGYANALYSIS\TabStep.cpp
; File C:\Program Files (x86)\Microsoft Visual Studio\2019\Community\VC\Tools\MSVC\14.29.30133\atlmfc\include\afxwin1.inl
; File D:\git\src\IBK\IBK_DRFN\ProjSrc\SrcDrfn\Chart\HWSTRATEGYANALYSIS\TabStep.cpp
; File D:\git\src\IBK\IBK_DRFN\ProjSrc\SrcDrfn\Chart\HWSTRATEGYANALYSIS\GridCtrl_src\GridCtrl.h
; File D:\git\src\IBK\IBK_DRFN\ProjSrc\SrcDrfn\Chart\HWSTRATEGYANALYSIS\TabStep.cpp
; File C:\Program Files (x86)\Microsoft Visual Studio\2019\Community\VC\Tools\MSVC\14.29.30133\atlmfc\include\afxwin2.inl
; File D:\git\src\IBK\IBK_DRFN\ProjSrc\SrcDrfn\Chart\HWSTRATEGYANALYSIS\TabStep.cpp
;	COMDAT ?InitGrid@CTabStep@@QAEXXZ
_TEXT	SEGMENT
_rect1$1 = -132						; size = 16
_IndexName2$2 = -116					; size = 64
_IndexName$3 = -52					; size = 48
__$ArrayPad$ = -4					; size = 4
?InitGrid@CTabStep@@QAEXXZ PROC				; CTabStep::InitGrid, COMDAT
; _this$ = ecx

; 59   : {

  00000	55		 push	 ebp
  00001	8b ec		 mov	 ebp, esp
  00003	81 ec 84 00 00
	00		 sub	 esp, 132		; 00000084H
  00009	a1 00 00 00 00	 mov	 eax, DWORD PTR ___security_cookie
  0000e	33 c5		 xor	 eax, ebp
  00010	89 45 fc	 mov	 DWORD PTR __$ArrayPad$[ebp], eax
  00013	53		 push	 ebx
  00014	8b d9		 mov	 ebx, ecx
  00016	57		 push	 edi

; 60   : 	if(!m_StepGridCtrl.GetSafeHwnd())

  00017	8d bb d0 00 00
	00		 lea	 edi, DWORD PTR [ebx+208]
; File C:\Program Files (x86)\Microsoft Visual Studio\2019\Community\VC\Tools\MSVC\14.29.30133\atlmfc\include\afxwin2.inl

; 25   : 	{ return this == NULL ? NULL : m_hWnd; }

  0001d	85 ff		 test	 edi, edi
  0001f	74 0a		 je	 SHORT $LN45@InitGrid
; File D:\git\src\IBK\IBK_DRFN\ProjSrc\SrcDrfn\Chart\HWSTRATEGYANALYSIS\TabStep.cpp

; 60   : 	if(!m_StepGridCtrl.GetSafeHwnd())

  00021	83 7f 20 00	 cmp	 DWORD PTR [edi+32], 0
  00025	0f 85 2e 02 00
	00		 jne	 $LN3@InitGrid
$LN45@InitGrid:
  0002b	56		 push	 esi
; File C:\Program Files (x86)\Microsoft Visual Studio\2019\Community\VC\Tools\MSVC\14.29.30133\atlmfc\include\afxwin2.inl

; 86   : 	{ ASSERT(::IsWindow(m_hWnd)); ::GetClientRect(m_hWnd, lpRect); }

  0002c	8d 85 7c ff ff
	ff		 lea	 eax, DWORD PTR _rect1$1[ebp]
  00032	0f 57 c0	 xorps	 xmm0, xmm0
  00035	50		 push	 eax
  00036	ff 73 20	 push	 DWORD PTR [ebx+32]
; File C:\Program Files (x86)\Microsoft Visual Studio\2019\Community\VC\Tools\MSVC\14.29.30133\atlmfc\include\atltypes.h

; 528  : 	left = 0;

  00039	0f 11 85 7c ff
	ff ff		 movups	 XMMWORD PTR _rect1$1[ebp], xmm0
; File C:\Program Files (x86)\Microsoft Visual Studio\2019\Community\VC\Tools\MSVC\14.29.30133\atlmfc\include\afxwin2.inl

; 86   : 	{ ASSERT(::IsWindow(m_hWnd)); ::GetClientRect(m_hWnd, lpRect); }

  00040	ff 15 00 00 00
	00		 call	 DWORD PTR __imp__GetClientRect@8
; File D:\git\src\IBK\IBK_DRFN\ProjSrc\SrcDrfn\Chart\HWSTRATEGYANALYSIS\TabStep.cpp

; 65   : 		rect1.left +=1;

  00046	ff 85 7c ff ff
	ff		 inc	 DWORD PTR _rect1$1[ebp]

; 66   : 		rect1.right-=10;

  0004c	83 6d 84 0a	 sub	 DWORD PTR _rect1$1[ebp+8], 10 ; 0000000aH
  00050	c7 45 80 01 00
	00 00		 mov	 DWORD PTR _rect1$1[ebp+4], 1
; File C:\Program Files (x86)\Microsoft Visual Studio\2019\Community\VC\Tools\MSVC\14.29.30133\atlmfc\include\afxwin1.inl

; 25   : 		return afxCurrentResourceHandle; }

  00057	e8 00 00 00 00	 call	 ?AfxGetModuleState@@YGPAVAFX_MODULE_STATE@@XZ ; AfxGetModuleState
; File D:\git\src\IBK\IBK_DRFN\ProjSrc\SrcDrfn\Chart\HWSTRATEGYANALYSIS\TabStep.cpp

; 69   : 		AfxSetResourceHandle(m_pDlgAnalysis->m_hRsc);

  0005c	8b 83 ac 00 00
	00		 mov	 eax, DWORD PTR [ebx+172]
  00062	8b b0 f8 00 00
	00		 mov	 esi, DWORD PTR [eax+248]
; File C:\Program Files (x86)\Microsoft Visual Studio\2019\Community\VC\Tools\MSVC\14.29.30133\atlmfc\include\afxwin1.inl

; 27   : 	{ ASSERT(hInstResource != NULL); afxCurrentResourceHandle = hInstResource; }

  00068	e8 00 00 00 00	 call	 ?AfxGetModuleState@@YGPAVAFX_MODULE_STATE@@XZ ; AfxGetModuleState
; File D:\git\src\IBK\IBK_DRFN\ProjSrc\SrcDrfn\Chart\HWSTRATEGYANALYSIS\TabStep.cpp

; 70   : 		if(!m_StepGridCtrl.Create(rect1,this,IDC_STATIC_RESULT,WS_CHILD | WS_TABSTOP | WS_VISIBLE ))

  0006d	68 00 00 01 50	 push	 1342242816		; 50010000H
  00072	68 f3 0b 00 00	 push	 3059			; 00000bf3H
  00077	53		 push	 ebx
; File C:\Program Files (x86)\Microsoft Visual Studio\2019\Community\VC\Tools\MSVC\14.29.30133\atlmfc\include\afxwin1.inl

; 27   : 	{ ASSERT(hInstResource != NULL); afxCurrentResourceHandle = hInstResource; }

  00078	89 70 0c	 mov	 DWORD PTR [eax+12], esi
; File D:\git\src\IBK\IBK_DRFN\ProjSrc\SrcDrfn\Chart\HWSTRATEGYANALYSIS\TabStep.cpp

; 70   : 		if(!m_StepGridCtrl.Create(rect1,this,IDC_STATIC_RESULT,WS_CHILD | WS_TABSTOP | WS_VISIBLE ))

  0007b	8b cf		 mov	 ecx, edi
  0007d	8d 85 7c ff ff
	ff		 lea	 eax, DWORD PTR _rect1$1[ebp]
  00083	50		 push	 eax
  00084	e8 00 00 00 00	 call	 ?Create@CGridCtrl@@QAEHABUtagRECT@@PAVCWnd@@IK@Z ; CGridCtrl::Create
  00089	85 c0		 test	 eax, eax
  0008b	75 1d		 jne	 SHORT $LN9@InitGrid

; 71   : 		{
; 72   : 			AfxMessageBox("No");

  0008d	50		 push	 eax
  0008e	50		 push	 eax
  0008f	68 00 00 00 00	 push	 OFFSET ??_C@_02JINPPBEP@No@
  00094	e8 00 00 00 00	 call	 ?AfxMessageBox@@YGHPBDII@Z ; AfxMessageBox
  00099	5e		 pop	 esi
  0009a	5f		 pop	 edi

; 103  : 		}
; 104  : 	}
; 105  : }

  0009b	5b		 pop	 ebx
  0009c	8b 4d fc	 mov	 ecx, DWORD PTR __$ArrayPad$[ebp]
  0009f	33 cd		 xor	 ecx, ebp
  000a1	e8 00 00 00 00	 call	 @__security_check_cookie@4
  000a6	8b e5		 mov	 esp, ebp
  000a8	5d		 pop	 ebp
  000a9	c3		 ret	 0
$LN9@InitGrid:
; File D:\git\src\IBK\IBK_DRFN\ProjSrc\SrcDrfn\Chart\HWSTRATEGYANALYSIS\GridCtrl_src\GridCtrl.h

; 793  :     return (CGridCellBase*) &m_cellDefault;

  000aa	8d 8b 2c 02 00
	00		 lea	 ecx, DWORD PTR [ebx+556]
; File D:\git\src\IBK\IBK_DRFN\ProjSrc\SrcDrfn\Chart\HWSTRATEGYANALYSIS\TabStep.cpp

; 75   : 		m_StepGridCtrl.SetEditable(FALSE);

  000b0	c7 83 88 01 00
	00 00 00 00 00	 mov	 DWORD PTR [ebx+392], 0

; 76   : 		m_StepGridCtrl.GetDefaultCell(FALSE, FALSE)->SetBackClr(RGB(255, 255, 255));

  000ba	8b 01		 mov	 eax, DWORD PTR [ecx]
  000bc	68 ff ff ff 00	 push	 16777215		; 00ffffffH
  000c1	ff 50 2c	 call	 DWORD PTR [eax+44]

; 77   : 		m_StepGridCtrl.SetGridLineColor(RGB(204,210,224));
; 78   : 		m_StepGridCtrl.SetColumnCount(12);

  000c4	6a 0c		 push	 12			; 0000000cH
  000c6	8b cf		 mov	 ecx, edi
  000c8	c7 83 5c 01 00
	00 cc d2 e0 00	 mov	 DWORD PTR [ebx+348], 14734028 ; 00e0d2ccH
  000d2	e8 00 00 00 00	 call	 ?SetColumnCount@CGridCtrl@@QAEHH@Z ; CGridCtrl::SetColumnCount

; 79   : 		m_StepGridCtrl.SetRowCount(16);

  000d7	6a 10		 push	 16			; 00000010H
  000d9	8b cf		 mov	 ecx, edi
  000db	e8 00 00 00 00	 call	 ?SetRowCount@CGridCtrl@@QAEHH@Z ; CGridCtrl::SetRowCount

; 80   : 		m_StepGridCtrl.SetBkColor(CLR_BACKGROUND);		
; 81   : 		m_StepGridCtrl.SetRowHeight(0,23);

  000e0	6a 17		 push	 23			; 00000017H
  000e2	6a 00		 push	 0
  000e4	8b cf		 mov	 ecx, edi
  000e6	c7 83 58 01 00
	00 ff ff ff 00	 mov	 DWORD PTR [ebx+344], 16777215 ; 00ffffffH
  000f0	e8 00 00 00 00	 call	 ?SetRowHeight@CGridCtrl@@QAEHHH@Z ; CGridCtrl::SetRowHeight

; 82   : 		if(m_pFont)

  000f5	8b 83 60 05 00
	00		 mov	 eax, DWORD PTR [ebx+1376]
  000fb	85 c0		 test	 eax, eax
  000fd	74 13		 je	 SHORT $LN10@InitGrid
; File C:\Program Files (x86)\Microsoft Visual Studio\2019\Community\VC\Tools\MSVC\14.29.30133\atlmfc\include\afxwin2.inl

; 43   : 	{ ASSERT(::IsWindow(m_hWnd)); ::SendMessage(m_hWnd, WM_SETFONT, (WPARAM)pFont->GetSafeHandle(), bRedraw); }

  000ff	6a 01		 push	 1
  00101	ff 70 04	 push	 DWORD PTR [eax+4]
  00104	6a 30		 push	 48			; 00000030H
  00106	ff b3 f0 00 00
	00		 push	 DWORD PTR [ebx+240]
  0010c	ff 15 00 00 00
	00		 call	 DWORD PTR __imp__SendMessageA@16
$LN10@InitGrid:
; File D:\git\src\IBK\IBK_DRFN\ProjSrc\SrcDrfn\Chart\HWSTRATEGYANALYSIS\TabStep.cpp

; 85   : 		char* IndexName[] = {"","","1","2","3","4","5","6","7","8","9","10"};

  00112	c7 45 cc 00 00
	00 00		 mov	 DWORD PTR _IndexName$3[ebp], OFFSET ??_C@_04IFENPBOK@?$LB?$LI?$LK?P@
  00119	33 db		 xor	 ebx, ebx
  0011b	c7 45 d0 00 00
	00 00		 mov	 DWORD PTR _IndexName$3[ebp+4], OFFSET ??_C@_04MHOBIAIL@?$MA?$PM?C?$LM@
  00122	c7 45 d4 00 00
	00 00		 mov	 DWORD PTR _IndexName$3[ebp+8], OFFSET ??_C@_01HIHLOKLC@1@
  00129	c7 45 d8 00 00
	00 00		 mov	 DWORD PTR _IndexName$3[ebp+12], OFFSET ??_C@_01FDFGLJHB@2@
  00130	c7 45 dc 00 00
	00 00		 mov	 DWORD PTR _IndexName$3[ebp+16], OFFSET ??_C@_01EKENIIDA@3@
  00137	c7 45 e0 00 00
	00 00		 mov	 DWORD PTR _IndexName$3[ebp+20], OFFSET ??_C@_01FAMBOPH@4@
  0013e	c7 45 e4 00 00
	00 00		 mov	 DWORD PTR _IndexName$3[ebp+24], OFFSET ??_C@_01BMBHCPLG@5@
  00145	c7 45 e8 00 00
	00 00		 mov	 DWORD PTR _IndexName$3[ebp+28], OFFSET ??_C@_01DHDKHMHF@6@
  0014c	c7 45 ec 00 00
	00 00		 mov	 DWORD PTR _IndexName$3[ebp+32], OFFSET ??_C@_01COCBENDE@7@
  00153	c7 45 f0 00 00
	00 00		 mov	 DWORD PTR _IndexName$3[ebp+36], OFFSET ??_C@_01KJLJFBPL@8@
  0015a	c7 45 f4 00 00
	00 00		 mov	 DWORD PTR _IndexName$3[ebp+40], OFFSET ??_C@_01LAKCGALK@9@
  00161	c7 45 f8 00 00
	00 00		 mov	 DWORD PTR _IndexName$3[ebp+44], OFFSET ??_C@_02PKFBJPLJ@10@

; 86   : 		char* IndexName2[] = {"","","","","","","/","","","","","","/","","",""};

  00168	c7 45 8c 00 00
	00 00		 mov	 DWORD PTR _IndexName2$2[ebp], OFFSET ??_C@_00CNPNBAHC@@
  0016f	c7 45 90 00 00
	00 00		 mov	 DWORD PTR _IndexName2$2[ebp+4], OFFSET ??_C@_0L@FJFCOKJ@?$LE?$KJ?$MA?$PL?$LM?v?$MA?M?$LH?$PM@
  00176	c7 45 94 00 00
	00 00		 mov	 DWORD PTR _IndexName2$2[ebp+8], OFFSET ??_C@_0P@JJNKLJJO@?$LA?G?$LK?$LA?F?r?$LB?U?$LM?v?$MA?M?$LH?$PM@
  0017d	c7 45 98 00 00
	00 00		 mov	 DWORD PTR _IndexName2$2[ebp+12], OFFSET ??_C@_06GNECPJOA@?C?Q?$LM?U?$MA?M@
  00184	c7 45 9c 00 00
	00 00		 mov	 DWORD PTR _IndexName2$2[ebp+16], OFFSET ??_C@_06HMHBOMDL@?C?Q?$MA?L?$MA?M@
  0018b	c7 45 a0 00 00
	00 00		 mov	 DWORD PTR _IndexName2$2[ebp+20], OFFSET ??_C@_06MLIEOKGJ@?C?Q?$LM?U?$LN?G@
  00192	c7 45 a4 00 00
	00 00		 mov	 DWORD PTR _IndexName2$2[ebp+24], OFFSET ??_C@_0O@KHPIEGBI@?C?Q?$MA?L?$MA?M?1?C?Q?$LM?U?$LN?G@
  00199	c7 45 a8 00 00
	00 00		 mov	 DWORD PTR _IndexName2$2[ebp+28], OFFSET ??_C@_08MKACKNJD@?C?V?$LE?k?$MA?L?$MA?M@
  001a0	c7 45 ac 00 00
	00 00		 mov	 DWORD PTR _IndexName2$2[ebp+32], OFFSET ??_C@_08HNPHKLMB@?C?V?$LE?k?$LM?U?$LN?G@
  001a7	c7 45 b0 00 00
	00 00		 mov	 DWORD PTR _IndexName2$2[ebp+36], OFFSET ??_C@_06KFFIADGF@?C?Q?A?x?$MA?T@
  001ae	c7 45 b4 00 00
	00 00		 mov	 DWORD PTR _IndexName2$2[ebp+40], OFFSET ??_C@_0BB@NJCLLDAP@?$LJ?L?C?$LL?$LL?j?F?w?G?T?C?Q?C?$LL?$LL?j@
  001b5	c7 45 b8 00 00
	00 00		 mov	 DWORD PTR _IndexName2$2[ebp+44], OFFSET ??_C@_08OPDCDADA@?C?Q?$LI?E?$LI?E?$LM?v@
  001bc	c7 45 bc 00 00
	00 00		 mov	 DWORD PTR _IndexName2$2[ebp+48], OFFSET ??_C@_0O@CIHDHIEL@?$MA?L?$MA?M?$LM?v?1?$LM?U?$LN?G?$LM?v@
  001c3	c7 45 c0 00 00
	00 00		 mov	 DWORD PTR _IndexName2$2[ebp+52], OFFSET ??_C@_0L@OFFEDCHL@?$LB?b?$LA?$KD?$LF?n?$LG?t?$LH?$PM@
  001ca	c7 45 c4 00 00
	00 00		 mov	 DWORD PTR _IndexName2$2[ebp+56], OFFSET ??_C@_0P@HMJADPNA@?$MA?$PM?$LH?$KL?C?J?$LA?z?$LM?v?$MA?M?$LH?$PM@
  001d1	c7 45 c8 00 00
	00 00		 mov	 DWORD PTR _IndexName2$2[ebp+60], OFFSET ??_C@_0L@IJLGNGBO@?$LB?b?$LA?$KD?B?$PM?$LP?$KJ?$MA?$LC@
$LL4@InitGrid:

; 88   : 		{		
; 89   : 			m_StepGridCtrl.SetItemBkColour(0,col,RGB(218,222,237));

  001d8	68 da de ed 00	 push	 15589082		; 00eddedaH
  001dd	53		 push	 ebx
  001de	6a 00		 push	 0
  001e0	8b cf		 mov	 ecx, edi
  001e2	e8 00 00 00 00	 call	 ?SetItemBkColour@CGridCtrl@@QAEHHHK@Z ; CGridCtrl::SetItemBkColour

; 90   : 			m_StepGridCtrl.SetItemText(0,col,IndexName[col]);

  001e7	ff 74 9d cc	 push	 DWORD PTR _IndexName$3[ebp+ebx*4]
  001eb	8b cf		 mov	 ecx, edi
  001ed	53		 push	 ebx
  001ee	6a 00		 push	 0
  001f0	e8 00 00 00 00	 call	 ?SetItemText@CGridCtrl@@QAEHHHPBD@Z ; CGridCtrl::SetItemText

; 91   : 			if(col==0)

  001f5	8b cf		 mov	 ecx, edi
  001f7	85 db		 test	 ebx, ebx
  001f9	75 3c		 jne	 SHORT $LN11@InitGrid

; 92   : 			{
; 93   : 				m_StepGridCtrl.SetColumnWidth(0, 95);

  001fb	6a 5f		 push	 95			; 0000005fH
  001fd	53		 push	 ebx
  001fe	e8 00 00 00 00	 call	 ?SetColumnWidth@CGridCtrl@@QAEHHH@Z ; CGridCtrl::SetColumnWidth
  00203	be 01 00 00 00	 mov	 esi, 1
$LL7@InitGrid:

; 94   : 				for(int row =1; row < 16 ; row++)
; 95   : 				{
; 96   : 					m_StepGridCtrl.SetRowHeight(row,23);

  00208	6a 17		 push	 23			; 00000017H
  0020a	56		 push	 esi
  0020b	8b cf		 mov	 ecx, edi
  0020d	e8 00 00 00 00	 call	 ?SetRowHeight@CGridCtrl@@QAEHHH@Z ; CGridCtrl::SetRowHeight

; 97   : 					m_StepGridCtrl.SetItemBkColour(row,col,RGB(242,248,254));

  00212	68 f2 f8 fe 00	 push	 16709874		; 00fef8f2H
  00217	6a 00		 push	 0
  00219	56		 push	 esi
  0021a	8b cf		 mov	 ecx, edi
  0021c	e8 00 00 00 00	 call	 ?SetItemBkColour@CGridCtrl@@QAEHHHK@Z ; CGridCtrl::SetItemBkColour

; 98   : 					m_StepGridCtrl.SetItemText(row,col,IndexName2[row]);

  00221	ff 74 b5 8c	 push	 DWORD PTR _IndexName2$2[ebp+esi*4]
  00225	8b cf		 mov	 ecx, edi
  00227	6a 00		 push	 0
  00229	56		 push	 esi
  0022a	e8 00 00 00 00	 call	 ?SetItemText@CGridCtrl@@QAEHHHPBD@Z ; CGridCtrl::SetItemText
  0022f	46		 inc	 esi
  00230	83 fe 10	 cmp	 esi, 16			; 00000010H
  00233	7c d3		 jl	 SHORT $LL7@InitGrid

; 99   : 				}
; 100  : 			}

  00235	eb 1b		 jmp	 SHORT $LN2@InitGrid
$LN11@InitGrid:

; 101  : 			else
; 102  : 				m_StepGridCtrl.SetColumnWidth(col, (rect1.right/11)-9);

  00237	b8 e9 a2 8b 2e	 mov	 eax, 780903145		; 2e8ba2e9H
  0023c	f7 6d 84	 imul	 DWORD PTR _rect1$1[ebp+8]
  0023f	d1 fa		 sar	 edx, 1
  00241	8b c2		 mov	 eax, edx
  00243	83 c2 f7	 add	 edx, -9			; fffffff7H
  00246	c1 e8 1f	 shr	 eax, 31			; 0000001fH
  00249	03 c2		 add	 eax, edx
  0024b	50		 push	 eax
  0024c	53		 push	 ebx
  0024d	e8 00 00 00 00	 call	 ?SetColumnWidth@CGridCtrl@@QAEHHH@Z ; CGridCtrl::SetColumnWidth
$LN2@InitGrid:

; 87   : 		for(int col = 0; col< 12;col++)

  00252	43		 inc	 ebx
  00253	83 fb 0c	 cmp	 ebx, 12			; 0000000cH
  00256	7c 80		 jl	 SHORT $LL4@InitGrid
  00258	5e		 pop	 esi
$LN3@InitGrid:

; 103  : 		}
; 104  : 	}
; 105  : }

  00259	8b 4d fc	 mov	 ecx, DWORD PTR __$ArrayPad$[ebp]
  0025c	5f		 pop	 edi
  0025d	33 cd		 xor	 ecx, ebp
  0025f	5b		 pop	 ebx
  00260	e8 00 00 00 00	 call	 @__security_check_cookie@4
  00265	8b e5		 mov	 esp, ebp
  00267	5d		 pop	 ebp
  00268	c3		 ret	 0
?InitGrid@CTabStep@@QAEXXZ ENDP				; CTabStep::InitGrid
_TEXT	ENDS
; Function compile flags: /Ogtp
; File D:\git\src\IBK\IBK_DRFN\ProjSrc\SrcDrfn\Chart\HWSTRATEGYANALYSIS\TabStep.cpp
; File C:\Program Files (x86)\Microsoft Visual Studio\2019\Community\VC\Tools\MSVC\14.29.30133\atlmfc\include\afxcoll.inl
; File D:\git\src\IBK\IBK_DRFN\ProjSrc\SrcDrfn\Chart\HWSTRATEGYANALYSIS\TabStep.cpp
; File C:\Program Files (x86)\Microsoft Visual Studio\2019\Community\VC\Tools\MSVC\14.29.30133\atlmfc\include\afxcoll.inl
; File D:\git\src\IBK\IBK_DRFN\ProjSrc\SrcDrfn\Chart\HWSTRATEGYANALYSIS\TabStep.cpp
; File C:\Program Files (x86)\Microsoft Visual Studio\2019\Community\VC\Tools\MSVC\14.29.30133\atlmfc\include\afxcoll.inl
; File D:\git\src\IBK\IBK_DRFN\ProjSrc\SrcDrfn\Chart\HWSTRATEGYANALYSIS\TabStep.cpp
; File C:\Program Files (x86)\Microsoft Visual Studio\2019\Community\VC\Tools\MSVC\14.29.30133\atlmfc\include\afxcoll.inl
; File D:\git\src\IBK\IBK_DRFN\ProjSrc\SrcDrfn\Chart\HWSTRATEGYANALYSIS\TabStep.cpp
; File C:\Program Files (x86)\Microsoft Visual Studio\2019\Community\VC\Tools\MSVC\14.29.30133\atlmfc\include\afxcoll.inl
; File D:\git\src\IBK\IBK_DRFN\ProjSrc\SrcDrfn\Chart\HWSTRATEGYANALYSIS\TabStep.cpp
;	COMDAT ?ParsingstrHtml@CTabStep@@QAE?AV?$CStringT@DV?$StrTraitMFC_DLL@DV?$ChTraitsCRT@D@ATL@@@@@ATL@@V23@@Z
_TEXT	SEGMENT
___$ReturnUdt$GSCopy$ = -732				; size = 4
_strDataArray$ = -728					; size = 20
$T2 = -708						; size = 4
___$ReturnUdt$GSCopy$1$ = -704				; size = 4
$T3 = -700						; size = 4
_Data$ = -696						; size = 8
_i$1$ = -688						; size = 4
_str$4 = -688						; size = 4
_this$GSCopy$1$ = -684					; size = 4
_Code$5 = -684						; size = 4
_strData$ = -680					; size = 4
_m_pHtmlCodeNameArray$ = -676				; size = 660
__$ArrayPad$ = -16					; size = 4
__$EHRec$ = -12						; size = 12
___$ReturnUdt$ = 8					; size = 4
_strHtml$ = 12						; size = 4
?ParsingstrHtml@CTabStep@@QAE?AV?$CStringT@DV?$StrTraitMFC_DLL@DV?$ChTraitsCRT@D@ATL@@@@@ATL@@V23@@Z PROC ; CTabStep::ParsingstrHtml, COMDAT
; _this$ = ecx

; 203  : {

  00000	55		 push	 ebp
  00001	8b ec		 mov	 ebp, esp
  00003	6a ff		 push	 -1
  00005	68 00 00 00 00	 push	 __ehhandler$?ParsingstrHtml@CTabStep@@QAE?AV?$CStringT@DV?$StrTraitMFC_DLL@DV?$ChTraitsCRT@D@ATL@@@@@ATL@@V23@@Z
  0000a	64 a1 00 00 00
	00		 mov	 eax, DWORD PTR fs:0
  00010	50		 push	 eax
  00011	81 ec d0 02 00
	00		 sub	 esp, 720		; 000002d0H
  00017	a1 00 00 00 00	 mov	 eax, DWORD PTR ___security_cookie
  0001c	33 c5		 xor	 eax, ebp
  0001e	89 45 f0	 mov	 DWORD PTR __$ArrayPad$[ebp], eax
  00021	53		 push	 ebx
  00022	56		 push	 esi
  00023	57		 push	 edi
  00024	50		 push	 eax
  00025	8d 45 f4	 lea	 eax, DWORD PTR __$EHRec$[ebp]
  00028	64 a3 00 00 00
	00		 mov	 DWORD PTR fs:0, eax
  0002e	8b f1		 mov	 esi, ecx
  00030	89 b5 54 fd ff
	ff		 mov	 DWORD PTR _this$GSCopy$1$[ebp], esi
  00036	8b 45 08	 mov	 eax, DWORD PTR ___$ReturnUdt$[ebp]
  00039	89 85 24 fd ff
	ff		 mov	 DWORD PTR ___$ReturnUdt$GSCopy$[ebp], eax
  0003f	89 85 40 fd ff
	ff		 mov	 DWORD PTR ___$ReturnUdt$GSCopy$1$[ebp], eax
  00045	c7 85 3c fd ff
	ff 00 00 00 00	 mov	 DWORD PTR $T2[ebp], 0

; 204  : 
; 205  : 	double Data;
; 206  : 	CString strData;

  0004f	8d 8d 58 fd ff
	ff		 lea	 ecx, DWORD PTR _strData$[ebp]
  00055	c7 45 fc 01 00
	00 00		 mov	 DWORD PTR __$EHRec$[ebp+8], 1
  0005c	ff 15 00 00 00
	00		 call	 DWORD PTR __imp_??0?$CStringT@DV?$StrTraitMFC_DLL@DV?$ChTraitsCRT@D@ATL@@@@@ATL@@QAE@XZ

; 207  : 	CString m_pHtmlCodeNameArray[STEPMAXDATANUM] =
; 208  : 	{"APR0","AAP0","TLP0","TPF0","TLR0","TTT0","MPF0","MLS0","TER0","TCI0","TTN0","PLN0","PSR0","SOR0","PPR0",

  00062	68 00 00 00 00	 push	 OFFSET ??_C@_04CHDNLKJE@APR0@
  00067	8d 8d 5c fd ff
	ff		 lea	 ecx, DWORD PTR _m_pHtmlCodeNameArray$[ebp]
  0006d	c6 45 fc 02	 mov	 BYTE PTR __$EHRec$[ebp+8], 2
  00071	ff 15 00 00 00
	00		 call	 DWORD PTR __imp_??0?$CStringT@DV?$StrTraitMFC_DLL@DV?$ChTraitsCRT@D@ATL@@@@@ATL@@QAE@PBD@Z
  00077	68 00 00 00 00	 push	 OFFSET ??_C@_04MMBMFOAA@AAP0@
  0007c	8d 8d 60 fd ff
	ff		 lea	 ecx, DWORD PTR _m_pHtmlCodeNameArray$[ebp+4]
  00082	c6 45 fc 03	 mov	 BYTE PTR __$EHRec$[ebp+8], 3
  00086	ff 15 00 00 00
	00		 call	 DWORD PTR __imp_??0?$CStringT@DV?$StrTraitMFC_DLL@DV?$ChTraitsCRT@D@ATL@@@@@ATL@@QAE@PBD@Z
  0008c	68 00 00 00 00	 push	 OFFSET ??_C@_04JGHGJOCP@TLP0@
  00091	8d 8d 64 fd ff
	ff		 lea	 ecx, DWORD PTR _m_pHtmlCodeNameArray$[ebp+8]
  00097	c6 45 fc 04	 mov	 BYTE PTR __$EHRec$[ebp+8], 4
  0009b	ff 15 00 00 00
	00		 call	 DWORD PTR __imp_??0?$CStringT@DV?$StrTraitMFC_DLL@DV?$ChTraitsCRT@D@ATL@@@@@ATL@@QAE@PBD@Z
  000a1	68 00 00 00 00	 push	 OFFSET ??_C@_04JEBCKJMK@TPF0@
  000a6	8d 8d 68 fd ff
	ff		 lea	 ecx, DWORD PTR _m_pHtmlCodeNameArray$[ebp+12]
  000ac	c6 45 fc 05	 mov	 BYTE PTR __$EHRec$[ebp+8], 5
  000b0	ff 15 00 00 00
	00		 call	 DWORD PTR __imp_??0?$CStringT@DV?$StrTraitMFC_DLL@DV?$ChTraitsCRT@D@ATL@@@@@ATL@@QAE@PBD@Z
  000b6	68 00 00 00 00	 push	 OFFSET ??_C@_04JFPCEKEB@TLR0@
  000bb	8d 8d 6c fd ff
	ff		 lea	 ecx, DWORD PTR _m_pHtmlCodeNameArray$[ebp+16]
  000c1	c6 45 fc 06	 mov	 BYTE PTR __$EHRec$[ebp+8], 6
  000c5	ff 15 00 00 00
	00		 call	 DWORD PTR __imp_??0?$CStringT@DV?$StrTraitMFC_DLL@DV?$ChTraitsCRT@D@ATL@@@@@ATL@@QAE@PBD@Z
  000cb	68 00 00 00 00	 push	 OFFSET ??_C@_04ENCEJID@TTT0@
  000d0	8d 8d 70 fd ff
	ff		 lea	 ecx, DWORD PTR _m_pHtmlCodeNameArray$[ebp+20]
  000d6	c6 45 fc 07	 mov	 BYTE PTR __$EHRec$[ebp+8], 7
  000da	ff 15 00 00 00
	00		 call	 DWORD PTR __imp_??0?$CStringT@DV?$StrTraitMFC_DLL@DV?$ChTraitsCRT@D@ATL@@@@@ATL@@QAE@PBD@Z
  000e0	68 00 00 00 00	 push	 OFFSET ??_C@_04PJOCFMDJ@MPF0@
  000e5	8d 8d 74 fd ff
	ff		 lea	 ecx, DWORD PTR _m_pHtmlCodeNameArray$[ebp+24]
  000eb	c6 45 fc 08	 mov	 BYTE PTR __$EHRec$[ebp+8], 8
  000ef	ff 15 00 00 00
	00		 call	 DWORD PTR __imp_??0?$CStringT@DV?$StrTraitMFC_DLL@DV?$ChTraitsCRT@D@ATL@@@@@ATL@@QAE@PBD@Z
  000f5	68 00 00 00 00	 push	 OFFSET ??_C@_04PJMANFIF@MLS0@
  000fa	8d 8d 78 fd ff
	ff		 lea	 ecx, DWORD PTR _m_pHtmlCodeNameArray$[ebp+28]
  00100	c6 45 fc 09	 mov	 BYTE PTR __$EHRec$[ebp+8], 9
  00104	ff 15 00 00 00
	00		 call	 DWORD PTR __imp_??0?$CStringT@DV?$StrTraitMFC_DLL@DV?$ChTraitsCRT@D@ATL@@@@@ATL@@QAE@PBD@Z
  0010a	68 00 00 00 00	 push	 OFFSET ??_C@_04OIPKAFML@TER0@
  0010f	8d 8d 7c fd ff
	ff		 lea	 ecx, DWORD PTR _m_pHtmlCodeNameArray$[ebp+32]
  00115	c6 45 fc 0a	 mov	 BYTE PTR __$EHRec$[ebp+8], 10 ; 0000000aH
  00119	ff 15 00 00 00
	00		 call	 DWORD PTR __imp_??0?$CStringT@DV?$StrTraitMFC_DLL@DV?$ChTraitsCRT@D@ATL@@@@@ATL@@QAE@PBD@Z
  0011f	68 00 00 00 00	 push	 OFFSET ??_C@_04NNOCBGIG@TCI0@
  00124	8d 8d 80 fd ff
	ff		 lea	 ecx, DWORD PTR _m_pHtmlCodeNameArray$[ebp+36]
  0012a	c6 45 fc 0b	 mov	 BYTE PTR __$EHRec$[ebp+8], 11 ; 0000000bH
  0012e	ff 15 00 00 00
	00		 call	 DWORD PTR __imp_??0?$CStringT@DV?$StrTraitMFC_DLL@DV?$ChTraitsCRT@D@ATL@@@@@ATL@@QAE@PBD@Z
  00134	68 00 00 00 00	 push	 OFFSET ??_C@_04BFGDGPCF@TTN0@
  00139	8d 8d 84 fd ff
	ff		 lea	 ecx, DWORD PTR _m_pHtmlCodeNameArray$[ebp+40]
  0013f	c6 45 fc 0c	 mov	 BYTE PTR __$EHRec$[ebp+8], 12 ; 0000000cH
  00143	ff 15 00 00 00
	00		 call	 DWORD PTR __imp_??0?$CStringT@DV?$StrTraitMFC_DLL@DV?$ChTraitsCRT@D@ATL@@@@@ATL@@QAE@PBD@Z
  00149	68 00 00 00 00	 push	 OFFSET ??_C@_04HFEOLGJF@PLN0@
  0014e	8d 8d 88 fd ff
	ff		 lea	 ecx, DWORD PTR _m_pHtmlCodeNameArray$[ebp+44]
  00154	c6 45 fc 0d	 mov	 BYTE PTR __$EHRec$[ebp+8], 13 ; 0000000dH
  00158	ff 15 00 00 00
	00		 call	 DWORD PTR __imp_??0?$CStringT@DV?$StrTraitMFC_DLL@DV?$ChTraitsCRT@D@ATL@@@@@ATL@@QAE@PBD@Z
  0015e	68 00 00 00 00	 push	 OFFSET ??_C@_04GIAIKLEI@PSR0@
  00163	8d 8d 8c fd ff
	ff		 lea	 ecx, DWORD PTR _m_pHtmlCodeNameArray$[ebp+48]
  00169	c6 45 fc 0e	 mov	 BYTE PTR __$EHRec$[ebp+8], 14 ; 0000000eH
  0016d	ff 15 00 00 00
	00		 call	 DWORD PTR __imp_??0?$CStringT@DV?$StrTraitMFC_DLL@DV?$ChTraitsCRT@D@ATL@@@@@ATL@@QAE@PBD@Z
  00173	68 00 00 00 00	 push	 OFFSET ??_C@_04DFGHDJLP@SOR0@
  00178	8d 8d 90 fd ff
	ff		 lea	 ecx, DWORD PTR _m_pHtmlCodeNameArray$[ebp+52]
  0017e	c6 45 fc 0f	 mov	 BYTE PTR __$EHRec$[ebp+8], 15 ; 0000000fH
  00182	ff 15 00 00 00
	00		 call	 DWORD PTR __imp_??0?$CStringT@DV?$StrTraitMFC_DLL@DV?$ChTraitsCRT@D@ATL@@@@@ATL@@QAE@PBD@Z
  00188	c6 45 fc 10	 mov	 BYTE PTR __$EHRec$[ebp+8], 16 ; 00000010H
  0018c	68 00 00 00 00	 push	 OFFSET ??_C@_04HKLNAEKG@PPR0@
  00191	8d 8d 94 fd ff
	ff		 lea	 ecx, DWORD PTR _m_pHtmlCodeNameArray$[ebp+56]
  00197	ff 15 00 00 00
	00		 call	 DWORD PTR __imp_??0?$CStringT@DV?$StrTraitMFC_DLL@DV?$ChTraitsCRT@D@ATL@@@@@ATL@@QAE@PBD@Z

; 209  : 	 "APR1","AAP1","TLP1","TPF1","TLR1","TTT1","MPF1","MLS1","TER1","TCI1","TTN1","PLN1","PSR1","SOR1","PPR1",

  0019d	68 00 00 00 00	 push	 OFFSET ??_C@_04DOCGILNF@APR1@
  001a2	8d 8d 98 fd ff
	ff		 lea	 ecx, DWORD PTR _m_pHtmlCodeNameArray$[ebp+60]
  001a8	c6 45 fc 11	 mov	 BYTE PTR __$EHRec$[ebp+8], 17 ; 00000011H
  001ac	ff 15 00 00 00
	00		 call	 DWORD PTR __imp_??0?$CStringT@DV?$StrTraitMFC_DLL@DV?$ChTraitsCRT@D@ATL@@@@@ATL@@QAE@PBD@Z
  001b2	68 00 00 00 00	 push	 OFFSET ??_C@_04NFAHGPEB@AAP1@
  001b7	8d 8d 9c fd ff
	ff		 lea	 ecx, DWORD PTR _m_pHtmlCodeNameArray$[ebp+64]
  001bd	c6 45 fc 12	 mov	 BYTE PTR __$EHRec$[ebp+8], 18 ; 00000012H
  001c1	ff 15 00 00 00
	00		 call	 DWORD PTR __imp_??0?$CStringT@DV?$StrTraitMFC_DLL@DV?$ChTraitsCRT@D@ATL@@@@@ATL@@QAE@PBD@Z
  001c7	68 00 00 00 00	 push	 OFFSET ??_C@_04IPGNKPGO@TLP1@
  001cc	8d 8d a0 fd ff
	ff		 lea	 ecx, DWORD PTR _m_pHtmlCodeNameArray$[ebp+68]
  001d2	c6 45 fc 13	 mov	 BYTE PTR __$EHRec$[ebp+8], 19 ; 00000013H
  001d6	ff 15 00 00 00
	00		 call	 DWORD PTR __imp_??0?$CStringT@DV?$StrTraitMFC_DLL@DV?$ChTraitsCRT@D@ATL@@@@@ATL@@QAE@PBD@Z
  001dc	68 00 00 00 00	 push	 OFFSET ??_C@_04INAJJIIL@TPF1@
  001e1	8d 8d a4 fd ff
	ff		 lea	 ecx, DWORD PTR _m_pHtmlCodeNameArray$[ebp+72]
  001e7	c6 45 fc 14	 mov	 BYTE PTR __$EHRec$[ebp+8], 20 ; 00000014H
  001eb	ff 15 00 00 00
	00		 call	 DWORD PTR __imp_??0?$CStringT@DV?$StrTraitMFC_DLL@DV?$ChTraitsCRT@D@ATL@@@@@ATL@@QAE@PBD@Z
  001f1	68 00 00 00 00	 push	 OFFSET ??_C@_04IMOJHLAA@TLR1@
  001f6	8d 8d a8 fd ff
	ff		 lea	 ecx, DWORD PTR _m_pHtmlCodeNameArray$[ebp+76]
  001fc	c6 45 fc 15	 mov	 BYTE PTR __$EHRec$[ebp+8], 21 ; 00000015H
  00200	ff 15 00 00 00
	00		 call	 DWORD PTR __imp_??0?$CStringT@DV?$StrTraitMFC_DLL@DV?$ChTraitsCRT@D@ATL@@@@@ATL@@QAE@PBD@Z
  00206	68 00 00 00 00	 push	 OFFSET ??_C@_04BNMJHIMC@TTT1@
  0020b	8d 8d ac fd ff
	ff		 lea	 ecx, DWORD PTR _m_pHtmlCodeNameArray$[ebp+80]
  00211	c6 45 fc 16	 mov	 BYTE PTR __$EHRec$[ebp+8], 22 ; 00000016H
  00215	ff 15 00 00 00
	00		 call	 DWORD PTR __imp_??0?$CStringT@DV?$StrTraitMFC_DLL@DV?$ChTraitsCRT@D@ATL@@@@@ATL@@QAE@PBD@Z
  0021b	68 00 00 00 00	 push	 OFFSET ??_C@_04OAPJGNHI@MPF1@
  00220	8d 8d b0 fd ff
	ff		 lea	 ecx, DWORD PTR _m_pHtmlCodeNameArray$[ebp+84]
  00226	c6 45 fc 17	 mov	 BYTE PTR __$EHRec$[ebp+8], 23 ; 00000017H
  0022a	ff 15 00 00 00
	00		 call	 DWORD PTR __imp_??0?$CStringT@DV?$StrTraitMFC_DLL@DV?$ChTraitsCRT@D@ATL@@@@@ATL@@QAE@PBD@Z
  00230	68 00 00 00 00	 push	 OFFSET ??_C@_04OANLOEME@MLS1@
  00235	8d 8d b4 fd ff
	ff		 lea	 ecx, DWORD PTR _m_pHtmlCodeNameArray$[ebp+88]
  0023b	c6 45 fc 18	 mov	 BYTE PTR __$EHRec$[ebp+8], 24 ; 00000018H
  0023f	ff 15 00 00 00
	00		 call	 DWORD PTR __imp_??0?$CStringT@DV?$StrTraitMFC_DLL@DV?$ChTraitsCRT@D@ATL@@@@@ATL@@QAE@PBD@Z
  00245	68 00 00 00 00	 push	 OFFSET ??_C@_04PBOBDEIK@TER1@
  0024a	8d 8d b8 fd ff
	ff		 lea	 ecx, DWORD PTR _m_pHtmlCodeNameArray$[ebp+92]
  00250	c6 45 fc 19	 mov	 BYTE PTR __$EHRec$[ebp+8], 25 ; 00000019H
  00254	ff 15 00 00 00
	00		 call	 DWORD PTR __imp_??0?$CStringT@DV?$StrTraitMFC_DLL@DV?$ChTraitsCRT@D@ATL@@@@@ATL@@QAE@PBD@Z
  0025a	68 00 00 00 00	 push	 OFFSET ??_C@_04MEPJCHMH@TCI1@
  0025f	8d 8d bc fd ff
	ff		 lea	 ecx, DWORD PTR _m_pHtmlCodeNameArray$[ebp+96]
  00265	c6 45 fc 1a	 mov	 BYTE PTR __$EHRec$[ebp+8], 26 ; 0000001aH
  00269	ff 15 00 00 00
	00		 call	 DWORD PTR __imp_??0?$CStringT@DV?$StrTraitMFC_DLL@DV?$ChTraitsCRT@D@ATL@@@@@ATL@@QAE@PBD@Z
  0026f	68 00 00 00 00	 push	 OFFSET ??_C@_04MHIFOGE@TTN1@
  00274	8d 8d c0 fd ff
	ff		 lea	 ecx, DWORD PTR _m_pHtmlCodeNameArray$[ebp+100]
  0027a	c6 45 fc 1b	 mov	 BYTE PTR __$EHRec$[ebp+8], 27 ; 0000001bH
  0027e	ff 15 00 00 00
	00		 call	 DWORD PTR __imp_??0?$CStringT@DV?$StrTraitMFC_DLL@DV?$ChTraitsCRT@D@ATL@@@@@ATL@@QAE@PBD@Z
  00284	68 00 00 00 00	 push	 OFFSET ??_C@_04GMFFIHNE@PLN1@
  00289	8d 8d c4 fd ff
	ff		 lea	 ecx, DWORD PTR _m_pHtmlCodeNameArray$[ebp+104]
  0028f	c6 45 fc 1c	 mov	 BYTE PTR __$EHRec$[ebp+8], 28 ; 0000001cH
  00293	ff 15 00 00 00
	00		 call	 DWORD PTR __imp_??0?$CStringT@DV?$StrTraitMFC_DLL@DV?$ChTraitsCRT@D@ATL@@@@@ATL@@QAE@PBD@Z
  00299	68 00 00 00 00	 push	 OFFSET ??_C@_04HBBDJKAJ@PSR1@
  0029e	8d 8d c8 fd ff
	ff		 lea	 ecx, DWORD PTR _m_pHtmlCodeNameArray$[ebp+108]
  002a4	c6 45 fc 1d	 mov	 BYTE PTR __$EHRec$[ebp+8], 29 ; 0000001dH
  002a8	ff 15 00 00 00
	00		 call	 DWORD PTR __imp_??0?$CStringT@DV?$StrTraitMFC_DLL@DV?$ChTraitsCRT@D@ATL@@@@@ATL@@QAE@PBD@Z
  002ae	68 00 00 00 00	 push	 OFFSET ??_C@_04CMHMAIPO@SOR1@
  002b3	8d 8d cc fd ff
	ff		 lea	 ecx, DWORD PTR _m_pHtmlCodeNameArray$[ebp+112]
  002b9	c6 45 fc 1e	 mov	 BYTE PTR __$EHRec$[ebp+8], 30 ; 0000001eH
  002bd	ff 15 00 00 00
	00		 call	 DWORD PTR __imp_??0?$CStringT@DV?$StrTraitMFC_DLL@DV?$ChTraitsCRT@D@ATL@@@@@ATL@@QAE@PBD@Z
  002c3	68 00 00 00 00	 push	 OFFSET ??_C@_04GDKGDFOH@PPR1@
  002c8	8d 8d d0 fd ff
	ff		 lea	 ecx, DWORD PTR _m_pHtmlCodeNameArray$[ebp+116]
  002ce	c6 45 fc 1f	 mov	 BYTE PTR __$EHRec$[ebp+8], 31 ; 0000001fH
  002d2	ff 15 00 00 00
	00		 call	 DWORD PTR __imp_??0?$CStringT@DV?$StrTraitMFC_DLL@DV?$ChTraitsCRT@D@ATL@@@@@ATL@@QAE@PBD@Z
  002d8	c6 45 fc 20	 mov	 BYTE PTR __$EHRec$[ebp+8], 32 ; 00000020H

; 210  : 	 "APR2","AAP2","TLP2","TPF2","TLR2","TTT2","MPF2","MLS2","TER2","TCI2","TTN2","PLN2","PSR2","SOR2","PPR2",

  002dc	8d 8d d4 fd ff
	ff		 lea	 ecx, DWORD PTR _m_pHtmlCodeNameArray$[ebp+120]
  002e2	68 00 00 00 00	 push	 OFFSET ??_C@_04BFALNIBG@APR2@
  002e7	ff 15 00 00 00
	00		 call	 DWORD PTR __imp_??0?$CStringT@DV?$StrTraitMFC_DLL@DV?$ChTraitsCRT@D@ATL@@@@@ATL@@QAE@PBD@Z
  002ed	68 00 00 00 00	 push	 OFFSET ??_C@_04POCKDMIC@AAP2@
  002f2	8d 8d d8 fd ff
	ff		 lea	 ecx, DWORD PTR _m_pHtmlCodeNameArray$[ebp+124]
  002f8	c6 45 fc 21	 mov	 BYTE PTR __$EHRec$[ebp+8], 33 ; 00000021H
  002fc	ff 15 00 00 00
	00		 call	 DWORD PTR __imp_??0?$CStringT@DV?$StrTraitMFC_DLL@DV?$ChTraitsCRT@D@ATL@@@@@ATL@@QAE@PBD@Z
  00302	68 00 00 00 00	 push	 OFFSET ??_C@_04KEEAPMKN@TLP2@
  00307	8d 8d dc fd ff
	ff		 lea	 ecx, DWORD PTR _m_pHtmlCodeNameArray$[ebp+128]
  0030d	c6 45 fc 22	 mov	 BYTE PTR __$EHRec$[ebp+8], 34 ; 00000022H
  00311	ff 15 00 00 00
	00		 call	 DWORD PTR __imp_??0?$CStringT@DV?$StrTraitMFC_DLL@DV?$ChTraitsCRT@D@ATL@@@@@ATL@@QAE@PBD@Z
  00317	68 00 00 00 00	 push	 OFFSET ??_C@_04KGCEMLEI@TPF2@
  0031c	8d 8d e0 fd ff
	ff		 lea	 ecx, DWORD PTR _m_pHtmlCodeNameArray$[ebp+132]
  00322	c6 45 fc 23	 mov	 BYTE PTR __$EHRec$[ebp+8], 35 ; 00000023H
  00326	ff 15 00 00 00
	00		 call	 DWORD PTR __imp_??0?$CStringT@DV?$StrTraitMFC_DLL@DV?$ChTraitsCRT@D@ATL@@@@@ATL@@QAE@PBD@Z
  0032c	68 00 00 00 00	 push	 OFFSET ??_C@_04KHMECIMD@TLR2@
  00331	8d 8d e4 fd ff
	ff		 lea	 ecx, DWORD PTR _m_pHtmlCodeNameArray$[ebp+136]
  00337	c6 45 fc 24	 mov	 BYTE PTR __$EHRec$[ebp+8], 36 ; 00000024H
  0033b	ff 15 00 00 00
	00		 call	 DWORD PTR __imp_??0?$CStringT@DV?$StrTraitMFC_DLL@DV?$ChTraitsCRT@D@ATL@@@@@ATL@@QAE@PBD@Z
  00341	68 00 00 00 00	 push	 OFFSET ??_C@_04DGOECLAB@TTT2@
  00346	8d 8d e8 fd ff
	ff		 lea	 ecx, DWORD PTR _m_pHtmlCodeNameArray$[ebp+140]
  0034c	c6 45 fc 25	 mov	 BYTE PTR __$EHRec$[ebp+8], 37 ; 00000025H
  00350	ff 15 00 00 00
	00		 call	 DWORD PTR __imp_??0?$CStringT@DV?$StrTraitMFC_DLL@DV?$ChTraitsCRT@D@ATL@@@@@ATL@@QAE@PBD@Z
  00356	68 00 00 00 00	 push	 OFFSET ??_C@_04MLNEDOLL@MPF2@
  0035b	8d 8d ec fd ff
	ff		 lea	 ecx, DWORD PTR _m_pHtmlCodeNameArray$[ebp+144]
  00361	c6 45 fc 26	 mov	 BYTE PTR __$EHRec$[ebp+8], 38 ; 00000026H
  00365	ff 15 00 00 00
	00		 call	 DWORD PTR __imp_??0?$CStringT@DV?$StrTraitMFC_DLL@DV?$ChTraitsCRT@D@ATL@@@@@ATL@@QAE@PBD@Z
  0036b	68 00 00 00 00	 push	 OFFSET ??_C@_04MLPGLHAH@MLS2@
  00370	8d 8d f0 fd ff
	ff		 lea	 ecx, DWORD PTR _m_pHtmlCodeNameArray$[ebp+148]
  00376	c6 45 fc 27	 mov	 BYTE PTR __$EHRec$[ebp+8], 39 ; 00000027H
  0037a	ff 15 00 00 00
	00		 call	 DWORD PTR __imp_??0?$CStringT@DV?$StrTraitMFC_DLL@DV?$ChTraitsCRT@D@ATL@@@@@ATL@@QAE@PBD@Z
  00380	68 00 00 00 00	 push	 OFFSET ??_C@_04NKMMGHEJ@TER2@
  00385	8d 8d f4 fd ff
	ff		 lea	 ecx, DWORD PTR _m_pHtmlCodeNameArray$[ebp+152]
  0038b	c6 45 fc 28	 mov	 BYTE PTR __$EHRec$[ebp+8], 40 ; 00000028H
  0038f	ff 15 00 00 00
	00		 call	 DWORD PTR __imp_??0?$CStringT@DV?$StrTraitMFC_DLL@DV?$ChTraitsCRT@D@ATL@@@@@ATL@@QAE@PBD@Z
  00395	68 00 00 00 00	 push	 OFFSET ??_C@_04OPNEHEAE@TCI2@
  0039a	8d 8d f8 fd ff
	ff		 lea	 ecx, DWORD PTR _m_pHtmlCodeNameArray$[ebp+156]
  003a0	c6 45 fc 29	 mov	 BYTE PTR __$EHRec$[ebp+8], 41 ; 00000029H
  003a4	ff 15 00 00 00
	00		 call	 DWORD PTR __imp_??0?$CStringT@DV?$StrTraitMFC_DLL@DV?$ChTraitsCRT@D@ATL@@@@@ATL@@QAE@PBD@Z
  003aa	68 00 00 00 00	 push	 OFFSET ??_C@_04CHFFANKH@TTN2@
  003af	8d 8d fc fd ff
	ff		 lea	 ecx, DWORD PTR _m_pHtmlCodeNameArray$[ebp+160]
  003b5	c6 45 fc 2a	 mov	 BYTE PTR __$EHRec$[ebp+8], 42 ; 0000002aH
  003b9	ff 15 00 00 00
	00		 call	 DWORD PTR __imp_??0?$CStringT@DV?$StrTraitMFC_DLL@DV?$ChTraitsCRT@D@ATL@@@@@ATL@@QAE@PBD@Z
  003bf	68 00 00 00 00	 push	 OFFSET ??_C@_04EHHINEBH@PLN2@
  003c4	8d 8d 00 fe ff
	ff		 lea	 ecx, DWORD PTR _m_pHtmlCodeNameArray$[ebp+164]
  003ca	c6 45 fc 2b	 mov	 BYTE PTR __$EHRec$[ebp+8], 43 ; 0000002bH
  003ce	ff 15 00 00 00
	00		 call	 DWORD PTR __imp_??0?$CStringT@DV?$StrTraitMFC_DLL@DV?$ChTraitsCRT@D@ATL@@@@@ATL@@QAE@PBD@Z
  003d4	68 00 00 00 00	 push	 OFFSET ??_C@_04FKDOMJMK@PSR2@
  003d9	8d 8d 04 fe ff
	ff		 lea	 ecx, DWORD PTR _m_pHtmlCodeNameArray$[ebp+168]
  003df	c6 45 fc 2c	 mov	 BYTE PTR __$EHRec$[ebp+8], 44 ; 0000002cH
  003e3	ff 15 00 00 00
	00		 call	 DWORD PTR __imp_??0?$CStringT@DV?$StrTraitMFC_DLL@DV?$ChTraitsCRT@D@ATL@@@@@ATL@@QAE@PBD@Z
  003e9	68 00 00 00 00	 push	 OFFSET ??_C@_04HFBFLDN@SOR2@
  003ee	8d 8d 08 fe ff
	ff		 lea	 ecx, DWORD PTR _m_pHtmlCodeNameArray$[ebp+172]
  003f4	c6 45 fc 2d	 mov	 BYTE PTR __$EHRec$[ebp+8], 45 ; 0000002dH
  003f8	ff 15 00 00 00
	00		 call	 DWORD PTR __imp_??0?$CStringT@DV?$StrTraitMFC_DLL@DV?$ChTraitsCRT@D@ATL@@@@@ATL@@QAE@PBD@Z
  003fe	68 00 00 00 00	 push	 OFFSET ??_C@_04EIILGGCE@PPR2@
  00403	8d 8d 0c fe ff
	ff		 lea	 ecx, DWORD PTR _m_pHtmlCodeNameArray$[ebp+176]
  00409	c6 45 fc 2e	 mov	 BYTE PTR __$EHRec$[ebp+8], 46 ; 0000002eH
  0040d	ff 15 00 00 00
	00		 call	 DWORD PTR __imp_??0?$CStringT@DV?$StrTraitMFC_DLL@DV?$ChTraitsCRT@D@ATL@@@@@ATL@@QAE@PBD@Z

; 211  : 	 "APR3","AAP3","TLP3","TPF3","TLR3","TTT3","MPF3","MLS3","TER3","TCI3","TTN3","PLN3","PSR3","SOR3","PPR3",

  00413	68 00 00 00 00	 push	 OFFSET ??_C@_04MBAOJFH@APR3@
  00418	8d 8d 10 fe ff
	ff		 lea	 ecx, DWORD PTR _m_pHtmlCodeNameArray$[ebp+180]
  0041e	c6 45 fc 2f	 mov	 BYTE PTR __$EHRec$[ebp+8], 47 ; 0000002fH
  00422	ff 15 00 00 00
	00		 call	 DWORD PTR __imp_??0?$CStringT@DV?$StrTraitMFC_DLL@DV?$ChTraitsCRT@D@ATL@@@@@ATL@@QAE@PBD@Z
  00428	68 00 00 00 00	 push	 OFFSET ??_C@_04OHDBANMD@AAP3@
  0042d	8d 8d 14 fe ff
	ff		 lea	 ecx, DWORD PTR _m_pHtmlCodeNameArray$[ebp+184]
  00433	c6 45 fc 30	 mov	 BYTE PTR __$EHRec$[ebp+8], 48 ; 00000030H
  00437	ff 15 00 00 00
	00		 call	 DWORD PTR __imp_??0?$CStringT@DV?$StrTraitMFC_DLL@DV?$ChTraitsCRT@D@ATL@@@@@ATL@@QAE@PBD@Z
  0043d	68 00 00 00 00	 push	 OFFSET ??_C@_04LNFLMNOM@TLP3@
  00442	8d 8d 18 fe ff
	ff		 lea	 ecx, DWORD PTR _m_pHtmlCodeNameArray$[ebp+188]
  00448	c6 45 fc 31	 mov	 BYTE PTR __$EHRec$[ebp+8], 49 ; 00000031H
  0044c	ff 15 00 00 00
	00		 call	 DWORD PTR __imp_??0?$CStringT@DV?$StrTraitMFC_DLL@DV?$ChTraitsCRT@D@ATL@@@@@ATL@@QAE@PBD@Z
  00452	68 00 00 00 00	 push	 OFFSET ??_C@_04LPDPPKAJ@TPF3@
  00457	8d 8d 1c fe ff
	ff		 lea	 ecx, DWORD PTR _m_pHtmlCodeNameArray$[ebp+192]
  0045d	c6 45 fc 32	 mov	 BYTE PTR __$EHRec$[ebp+8], 50 ; 00000032H
  00461	ff 15 00 00 00
	00		 call	 DWORD PTR __imp_??0?$CStringT@DV?$StrTraitMFC_DLL@DV?$ChTraitsCRT@D@ATL@@@@@ATL@@QAE@PBD@Z
  00467	68 00 00 00 00	 push	 OFFSET ??_C@_04LONPBJIC@TLR3@
  0046c	8d 8d 20 fe ff
	ff		 lea	 ecx, DWORD PTR _m_pHtmlCodeNameArray$[ebp+196]
  00472	c6 45 fc 33	 mov	 BYTE PTR __$EHRec$[ebp+8], 51 ; 00000033H
  00476	ff 15 00 00 00
	00		 call	 DWORD PTR __imp_??0?$CStringT@DV?$StrTraitMFC_DLL@DV?$ChTraitsCRT@D@ATL@@@@@ATL@@QAE@PBD@Z
  0047c	68 00 00 00 00	 push	 OFFSET ??_C@_04CPPPBKEA@TTT3@
  00481	8d 8d 24 fe ff
	ff		 lea	 ecx, DWORD PTR _m_pHtmlCodeNameArray$[ebp+200]
  00487	c6 45 fc 34	 mov	 BYTE PTR __$EHRec$[ebp+8], 52 ; 00000034H
  0048b	ff 15 00 00 00
	00		 call	 DWORD PTR __imp_??0?$CStringT@DV?$StrTraitMFC_DLL@DV?$ChTraitsCRT@D@ATL@@@@@ATL@@QAE@PBD@Z
  00491	68 00 00 00 00	 push	 OFFSET ??_C@_04NCMPAPPK@MPF3@
  00496	8d 8d 28 fe ff
	ff		 lea	 ecx, DWORD PTR _m_pHtmlCodeNameArray$[ebp+204]
  0049c	c6 45 fc 35	 mov	 BYTE PTR __$EHRec$[ebp+8], 53 ; 00000035H
  004a0	ff 15 00 00 00
	00		 call	 DWORD PTR __imp_??0?$CStringT@DV?$StrTraitMFC_DLL@DV?$ChTraitsCRT@D@ATL@@@@@ATL@@QAE@PBD@Z
  004a6	68 00 00 00 00	 push	 OFFSET ??_C@_04NCONIGEG@MLS3@
  004ab	8d 8d 2c fe ff
	ff		 lea	 ecx, DWORD PTR _m_pHtmlCodeNameArray$[ebp+208]
  004b1	c6 45 fc 36	 mov	 BYTE PTR __$EHRec$[ebp+8], 54 ; 00000036H
  004b5	ff 15 00 00 00
	00		 call	 DWORD PTR __imp_??0?$CStringT@DV?$StrTraitMFC_DLL@DV?$ChTraitsCRT@D@ATL@@@@@ATL@@QAE@PBD@Z
  004bb	68 00 00 00 00	 push	 OFFSET ??_C@_04MDNHFGAI@TER3@
  004c0	8d 8d 30 fe ff
	ff		 lea	 ecx, DWORD PTR _m_pHtmlCodeNameArray$[ebp+212]
  004c6	c6 45 fc 37	 mov	 BYTE PTR __$EHRec$[ebp+8], 55 ; 00000037H
  004ca	ff 15 00 00 00
	00		 call	 DWORD PTR __imp_??0?$CStringT@DV?$StrTraitMFC_DLL@DV?$ChTraitsCRT@D@ATL@@@@@ATL@@QAE@PBD@Z
  004d0	68 00 00 00 00	 push	 OFFSET ??_C@_04PGMPEFEF@TCI3@
  004d5	8d 8d 34 fe ff
	ff		 lea	 ecx, DWORD PTR _m_pHtmlCodeNameArray$[ebp+216]
  004db	c6 45 fc 38	 mov	 BYTE PTR __$EHRec$[ebp+8], 56 ; 00000038H
  004df	ff 15 00 00 00
	00		 call	 DWORD PTR __imp_??0?$CStringT@DV?$StrTraitMFC_DLL@DV?$ChTraitsCRT@D@ATL@@@@@ATL@@QAE@PBD@Z
  004e5	68 00 00 00 00	 push	 OFFSET ??_C@_04DOEODMOG@TTN3@
  004ea	8d 8d 38 fe ff
	ff		 lea	 ecx, DWORD PTR _m_pHtmlCodeNameArray$[ebp+220]
  004f0	c6 45 fc 39	 mov	 BYTE PTR __$EHRec$[ebp+8], 57 ; 00000039H
  004f4	ff 15 00 00 00
	00		 call	 DWORD PTR __imp_??0?$CStringT@DV?$StrTraitMFC_DLL@DV?$ChTraitsCRT@D@ATL@@@@@ATL@@QAE@PBD@Z
  004fa	68 00 00 00 00	 push	 OFFSET ??_C@_04FOGDOFFG@PLN3@
  004ff	8d 8d 3c fe ff
	ff		 lea	 ecx, DWORD PTR _m_pHtmlCodeNameArray$[ebp+224]
  00505	c6 45 fc 3a	 mov	 BYTE PTR __$EHRec$[ebp+8], 58 ; 0000003aH
  00509	ff 15 00 00 00
	00		 call	 DWORD PTR __imp_??0?$CStringT@DV?$StrTraitMFC_DLL@DV?$ChTraitsCRT@D@ATL@@@@@ATL@@QAE@PBD@Z
  0050f	68 00 00 00 00	 push	 OFFSET ??_C@_04EDCFPIIL@PSR3@
  00514	8d 8d 40 fe ff
	ff		 lea	 ecx, DWORD PTR _m_pHtmlCodeNameArray$[ebp+228]
  0051a	c6 45 fc 3b	 mov	 BYTE PTR __$EHRec$[ebp+8], 59 ; 0000003bH
  0051e	ff 15 00 00 00
	00		 call	 DWORD PTR __imp_??0?$CStringT@DV?$StrTraitMFC_DLL@DV?$ChTraitsCRT@D@ATL@@@@@ATL@@QAE@PBD@Z
  00524	68 00 00 00 00	 push	 OFFSET ??_C@_04BOEKGKHM@SOR3@
  00529	8d 8d 44 fe ff
	ff		 lea	 ecx, DWORD PTR _m_pHtmlCodeNameArray$[ebp+232]
  0052f	c6 45 fc 3c	 mov	 BYTE PTR __$EHRec$[ebp+8], 60 ; 0000003cH
  00533	ff 15 00 00 00
	00		 call	 DWORD PTR __imp_??0?$CStringT@DV?$StrTraitMFC_DLL@DV?$ChTraitsCRT@D@ATL@@@@@ATL@@QAE@PBD@Z
  00539	68 00 00 00 00	 push	 OFFSET ??_C@_04FBJAFHGF@PPR3@
  0053e	8d 8d 48 fe ff
	ff		 lea	 ecx, DWORD PTR _m_pHtmlCodeNameArray$[ebp+236]
  00544	c6 45 fc 3d	 mov	 BYTE PTR __$EHRec$[ebp+8], 61 ; 0000003dH
  00548	ff 15 00 00 00
	00		 call	 DWORD PTR __imp_??0?$CStringT@DV?$StrTraitMFC_DLL@DV?$ChTraitsCRT@D@ATL@@@@@ATL@@QAE@PBD@Z

; 212  : 	 "APR4","AAP4","TLP4","TPF4","TLR4","TTT4","MPF4","MLS4","TER4","TCI4","TTN4","PLN4","PSR4","SOR4","PPR4",

  0054e	68 00 00 00 00	 push	 OFFSET ??_C@_04EDFBHPJA@APR4@
  00553	8d 8d 4c fe ff
	ff		 lea	 ecx, DWORD PTR _m_pHtmlCodeNameArray$[ebp+240]
  00559	c6 45 fc 3e	 mov	 BYTE PTR __$EHRec$[ebp+8], 62 ; 0000003eH
  0055d	ff 15 00 00 00
	00		 call	 DWORD PTR __imp_??0?$CStringT@DV?$StrTraitMFC_DLL@DV?$ChTraitsCRT@D@ATL@@@@@ATL@@QAE@PBD@Z
  00563	68 00 00 00 00	 push	 OFFSET ??_C@_04KIHAJLAE@AAP4@
  00568	8d 8d 50 fe ff
	ff		 lea	 ecx, DWORD PTR _m_pHtmlCodeNameArray$[ebp+244]
  0056e	c6 45 fc 3f	 mov	 BYTE PTR __$EHRec$[ebp+8], 63 ; 0000003fH
  00572	ff 15 00 00 00
	00		 call	 DWORD PTR __imp_??0?$CStringT@DV?$StrTraitMFC_DLL@DV?$ChTraitsCRT@D@ATL@@@@@ATL@@QAE@PBD@Z
  00578	68 00 00 00 00	 push	 OFFSET ??_C@_04PCBKFLCL@TLP4@
  0057d	8d 8d 54 fe ff
	ff		 lea	 ecx, DWORD PTR _m_pHtmlCodeNameArray$[ebp+248]
  00583	c6 45 fc 40	 mov	 BYTE PTR __$EHRec$[ebp+8], 64 ; 00000040H
  00587	ff 15 00 00 00
	00		 call	 DWORD PTR __imp_??0?$CStringT@DV?$StrTraitMFC_DLL@DV?$ChTraitsCRT@D@ATL@@@@@ATL@@QAE@PBD@Z
  0058d	68 00 00 00 00	 push	 OFFSET ??_C@_04PAHOGMMO@TPF4@
  00592	8d 8d 58 fe ff
	ff		 lea	 ecx, DWORD PTR _m_pHtmlCodeNameArray$[ebp+252]
  00598	c6 45 fc 41	 mov	 BYTE PTR __$EHRec$[ebp+8], 65 ; 00000041H
  0059c	ff 15 00 00 00
	00		 call	 DWORD PTR __imp_??0?$CStringT@DV?$StrTraitMFC_DLL@DV?$ChTraitsCRT@D@ATL@@@@@ATL@@QAE@PBD@Z
  005a2	68 00 00 00 00	 push	 OFFSET ??_C@_04PBJOIPEF@TLR4@
  005a7	8d 8d 5c fe ff
	ff		 lea	 ecx, DWORD PTR _m_pHtmlCodeNameArray$[ebp+256]
  005ad	c6 45 fc 42	 mov	 BYTE PTR __$EHRec$[ebp+8], 66 ; 00000042H
  005b1	ff 15 00 00 00
	00		 call	 DWORD PTR __imp_??0?$CStringT@DV?$StrTraitMFC_DLL@DV?$ChTraitsCRT@D@ATL@@@@@ATL@@QAE@PBD@Z
  005b7	68 00 00 00 00	 push	 OFFSET ??_C@_04GALOIMIH@TTT4@
  005bc	8d 8d 60 fe ff
	ff		 lea	 ecx, DWORD PTR _m_pHtmlCodeNameArray$[ebp+260]
  005c2	c6 45 fc 43	 mov	 BYTE PTR __$EHRec$[ebp+8], 67 ; 00000043H
  005c6	ff 15 00 00 00
	00		 call	 DWORD PTR __imp_??0?$CStringT@DV?$StrTraitMFC_DLL@DV?$ChTraitsCRT@D@ATL@@@@@ATL@@QAE@PBD@Z
  005cc	68 00 00 00 00	 push	 OFFSET ??_C@_04JNIOJJDN@MPF4@
  005d1	8d 8d 64 fe ff
	ff		 lea	 ecx, DWORD PTR _m_pHtmlCodeNameArray$[ebp+264]
  005d7	c6 45 fc 44	 mov	 BYTE PTR __$EHRec$[ebp+8], 68 ; 00000044H
  005db	ff 15 00 00 00
	00		 call	 DWORD PTR __imp_??0?$CStringT@DV?$StrTraitMFC_DLL@DV?$ChTraitsCRT@D@ATL@@@@@ATL@@QAE@PBD@Z
  005e1	68 00 00 00 00	 push	 OFFSET ??_C@_04JNKMBAIB@MLS4@
  005e6	8d 8d 68 fe ff
	ff		 lea	 ecx, DWORD PTR _m_pHtmlCodeNameArray$[ebp+268]
  005ec	c6 45 fc 45	 mov	 BYTE PTR __$EHRec$[ebp+8], 69 ; 00000045H
  005f0	ff 15 00 00 00
	00		 call	 DWORD PTR __imp_??0?$CStringT@DV?$StrTraitMFC_DLL@DV?$ChTraitsCRT@D@ATL@@@@@ATL@@QAE@PBD@Z
  005f6	68 00 00 00 00	 push	 OFFSET ??_C@_04IMJGMAMP@TER4@
  005fb	8d 8d 6c fe ff
	ff		 lea	 ecx, DWORD PTR _m_pHtmlCodeNameArray$[ebp+272]
  00601	c6 45 fc 46	 mov	 BYTE PTR __$EHRec$[ebp+8], 70 ; 00000046H
  00605	ff 15 00 00 00
	00		 call	 DWORD PTR __imp_??0?$CStringT@DV?$StrTraitMFC_DLL@DV?$ChTraitsCRT@D@ATL@@@@@ATL@@QAE@PBD@Z
  0060b	68 00 00 00 00	 push	 OFFSET ??_C@_04LJIONDIC@TCI4@
  00610	8d 8d 70 fe ff
	ff		 lea	 ecx, DWORD PTR _m_pHtmlCodeNameArray$[ebp+276]
  00616	c6 45 fc 47	 mov	 BYTE PTR __$EHRec$[ebp+8], 71 ; 00000047H
  0061a	ff 15 00 00 00
	00		 call	 DWORD PTR __imp_??0?$CStringT@DV?$StrTraitMFC_DLL@DV?$ChTraitsCRT@D@ATL@@@@@ATL@@QAE@PBD@Z
  00620	68 00 00 00 00	 push	 OFFSET ??_C@_04HBAPKKCB@TTN4@
  00625	8d 8d 74 fe ff
	ff		 lea	 ecx, DWORD PTR _m_pHtmlCodeNameArray$[ebp+280]
  0062b	c6 45 fc 48	 mov	 BYTE PTR __$EHRec$[ebp+8], 72 ; 00000048H
  0062f	ff 15 00 00 00
	00		 call	 DWORD PTR __imp_??0?$CStringT@DV?$StrTraitMFC_DLL@DV?$ChTraitsCRT@D@ATL@@@@@ATL@@QAE@PBD@Z
  00635	68 00 00 00 00	 push	 OFFSET ??_C@_04BBCCHDJB@PLN4@
  0063a	8d 8d 78 fe ff
	ff		 lea	 ecx, DWORD PTR _m_pHtmlCodeNameArray$[ebp+284]
  00640	c6 45 fc 49	 mov	 BYTE PTR __$EHRec$[ebp+8], 73 ; 00000049H
  00644	ff 15 00 00 00
	00		 call	 DWORD PTR __imp_??0?$CStringT@DV?$StrTraitMFC_DLL@DV?$ChTraitsCRT@D@ATL@@@@@ATL@@QAE@PBD@Z
  0064a	68 00 00 00 00	 push	 OFFSET ??_C@_04MGEGOEM@PSR4@
  0064f	8d 8d 7c fe ff
	ff		 lea	 ecx, DWORD PTR _m_pHtmlCodeNameArray$[ebp+288]
  00655	c6 45 fc 4a	 mov	 BYTE PTR __$EHRec$[ebp+8], 74 ; 0000004aH
  00659	ff 15 00 00 00
	00		 call	 DWORD PTR __imp_??0?$CStringT@DV?$StrTraitMFC_DLL@DV?$ChTraitsCRT@D@ATL@@@@@ATL@@QAE@PBD@Z
  0065f	68 00 00 00 00	 push	 OFFSET ??_C@_04FBALPMLL@SOR4@
  00664	8d 8d 80 fe ff
	ff		 lea	 ecx, DWORD PTR _m_pHtmlCodeNameArray$[ebp+292]
  0066a	c6 45 fc 4b	 mov	 BYTE PTR __$EHRec$[ebp+8], 75 ; 0000004bH
  0066e	ff 15 00 00 00
	00		 call	 DWORD PTR __imp_??0?$CStringT@DV?$StrTraitMFC_DLL@DV?$ChTraitsCRT@D@ATL@@@@@ATL@@QAE@PBD@Z
  00674	68 00 00 00 00	 push	 OFFSET ??_C@_04BONBMBKC@PPR4@
  00679	8d 8d 84 fe ff
	ff		 lea	 ecx, DWORD PTR _m_pHtmlCodeNameArray$[ebp+296]
  0067f	c6 45 fc 4c	 mov	 BYTE PTR __$EHRec$[ebp+8], 76 ; 0000004cH
  00683	ff 15 00 00 00
	00		 call	 DWORD PTR __imp_??0?$CStringT@DV?$StrTraitMFC_DLL@DV?$ChTraitsCRT@D@ATL@@@@@ATL@@QAE@PBD@Z

; 213  : 	 "APR5","AAP5","TLP5","TPF5","TLR5","TTT5","MPF5","MLS5","TER5","TCI5","TTN5","PLN5","PSR5","SOR5","PPR5",

  00689	68 00 00 00 00	 push	 OFFSET ??_C@_04FKEKEONB@APR5@
  0068e	8d 8d 88 fe ff
	ff		 lea	 ecx, DWORD PTR _m_pHtmlCodeNameArray$[ebp+300]
  00694	c6 45 fc 4d	 mov	 BYTE PTR __$EHRec$[ebp+8], 77 ; 0000004dH
  00698	ff 15 00 00 00
	00		 call	 DWORD PTR __imp_??0?$CStringT@DV?$StrTraitMFC_DLL@DV?$ChTraitsCRT@D@ATL@@@@@ATL@@QAE@PBD@Z
  0069e	68 00 00 00 00	 push	 OFFSET ??_C@_04LBGLKKEF@AAP5@
  006a3	8d 8d 8c fe ff
	ff		 lea	 ecx, DWORD PTR _m_pHtmlCodeNameArray$[ebp+304]
  006a9	c6 45 fc 4e	 mov	 BYTE PTR __$EHRec$[ebp+8], 78 ; 0000004eH
  006ad	ff 15 00 00 00
	00		 call	 DWORD PTR __imp_??0?$CStringT@DV?$StrTraitMFC_DLL@DV?$ChTraitsCRT@D@ATL@@@@@ATL@@QAE@PBD@Z
  006b3	68 00 00 00 00	 push	 OFFSET ??_C@_04OLABGKGK@TLP5@
  006b8	8d 8d 90 fe ff
	ff		 lea	 ecx, DWORD PTR _m_pHtmlCodeNameArray$[ebp+308]
  006be	c6 45 fc 4f	 mov	 BYTE PTR __$EHRec$[ebp+8], 79 ; 0000004fH
  006c2	ff 15 00 00 00
	00		 call	 DWORD PTR __imp_??0?$CStringT@DV?$StrTraitMFC_DLL@DV?$ChTraitsCRT@D@ATL@@@@@ATL@@QAE@PBD@Z
  006c8	68 00 00 00 00	 push	 OFFSET ??_C@_04OJGFFNIP@TPF5@
  006cd	8d 8d 94 fe ff
	ff		 lea	 ecx, DWORD PTR _m_pHtmlCodeNameArray$[ebp+312]
  006d3	c6 45 fc 50	 mov	 BYTE PTR __$EHRec$[ebp+8], 80 ; 00000050H
  006d7	ff 15 00 00 00
	00		 call	 DWORD PTR __imp_??0?$CStringT@DV?$StrTraitMFC_DLL@DV?$ChTraitsCRT@D@ATL@@@@@ATL@@QAE@PBD@Z
  006dd	c6 45 fc 51	 mov	 BYTE PTR __$EHRec$[ebp+8], 81 ; 00000051H
  006e1	68 00 00 00 00	 push	 OFFSET ??_C@_04OIIFLOAE@TLR5@
  006e6	8d 8d 98 fe ff
	ff		 lea	 ecx, DWORD PTR _m_pHtmlCodeNameArray$[ebp+316]
  006ec	ff 15 00 00 00
	00		 call	 DWORD PTR __imp_??0?$CStringT@DV?$StrTraitMFC_DLL@DV?$ChTraitsCRT@D@ATL@@@@@ATL@@QAE@PBD@Z
  006f2	68 00 00 00 00	 push	 OFFSET ??_C@_04HJKFLNMG@TTT5@
  006f7	8d 8d 9c fe ff
	ff		 lea	 ecx, DWORD PTR _m_pHtmlCodeNameArray$[ebp+320]
  006fd	c6 45 fc 52	 mov	 BYTE PTR __$EHRec$[ebp+8], 82 ; 00000052H
  00701	ff 15 00 00 00
	00		 call	 DWORD PTR __imp_??0?$CStringT@DV?$StrTraitMFC_DLL@DV?$ChTraitsCRT@D@ATL@@@@@ATL@@QAE@PBD@Z
  00707	68 00 00 00 00	 push	 OFFSET ??_C@_04IEJFKIHM@MPF5@
  0070c	8d 8d a0 fe ff
	ff		 lea	 ecx, DWORD PTR _m_pHtmlCodeNameArray$[ebp+324]
  00712	c6 45 fc 53	 mov	 BYTE PTR __$EHRec$[ebp+8], 83 ; 00000053H
  00716	ff 15 00 00 00
	00		 call	 DWORD PTR __imp_??0?$CStringT@DV?$StrTraitMFC_DLL@DV?$ChTraitsCRT@D@ATL@@@@@ATL@@QAE@PBD@Z
  0071c	68 00 00 00 00	 push	 OFFSET ??_C@_04IELHCBMA@MLS5@
  00721	8d 8d a4 fe ff
	ff		 lea	 ecx, DWORD PTR _m_pHtmlCodeNameArray$[ebp+328]
  00727	c6 45 fc 54	 mov	 BYTE PTR __$EHRec$[ebp+8], 84 ; 00000054H
  0072b	ff 15 00 00 00
	00		 call	 DWORD PTR __imp_??0?$CStringT@DV?$StrTraitMFC_DLL@DV?$ChTraitsCRT@D@ATL@@@@@ATL@@QAE@PBD@Z
  00731	68 00 00 00 00	 push	 OFFSET ??_C@_04JFINPBIO@TER5@
  00736	8d 8d a8 fe ff
	ff		 lea	 ecx, DWORD PTR _m_pHtmlCodeNameArray$[ebp+332]
  0073c	c6 45 fc 55	 mov	 BYTE PTR __$EHRec$[ebp+8], 85 ; 00000055H
  00740	ff 15 00 00 00
	00		 call	 DWORD PTR __imp_??0?$CStringT@DV?$StrTraitMFC_DLL@DV?$ChTraitsCRT@D@ATL@@@@@ATL@@QAE@PBD@Z
  00746	68 00 00 00 00	 push	 OFFSET ??_C@_04KAJFOCMD@TCI5@
  0074b	8d 8d ac fe ff
	ff		 lea	 ecx, DWORD PTR _m_pHtmlCodeNameArray$[ebp+336]
  00751	c6 45 fc 56	 mov	 BYTE PTR __$EHRec$[ebp+8], 86 ; 00000056H
  00755	ff 15 00 00 00
	00		 call	 DWORD PTR __imp_??0?$CStringT@DV?$StrTraitMFC_DLL@DV?$ChTraitsCRT@D@ATL@@@@@ATL@@QAE@PBD@Z
  0075b	68 00 00 00 00	 push	 OFFSET ??_C@_04GIBEJLGA@TTN5@
  00760	8d 8d b0 fe ff
	ff		 lea	 ecx, DWORD PTR _m_pHtmlCodeNameArray$[ebp+340]
  00766	c6 45 fc 57	 mov	 BYTE PTR __$EHRec$[ebp+8], 87 ; 00000057H
  0076a	ff 15 00 00 00
	00		 call	 DWORD PTR __imp_??0?$CStringT@DV?$StrTraitMFC_DLL@DV?$ChTraitsCRT@D@ATL@@@@@ATL@@QAE@PBD@Z
  00770	68 00 00 00 00	 push	 OFFSET ??_C@_04IDJECNA@PLN5@
  00775	8d 8d b4 fe ff
	ff		 lea	 ecx, DWORD PTR _m_pHtmlCodeNameArray$[ebp+344]
  0077b	c6 45 fc 58	 mov	 BYTE PTR __$EHRec$[ebp+8], 88 ; 00000058H
  0077f	ff 15 00 00 00
	00		 call	 DWORD PTR __imp_??0?$CStringT@DV?$StrTraitMFC_DLL@DV?$ChTraitsCRT@D@ATL@@@@@ATL@@QAE@PBD@Z
  00785	68 00 00 00 00	 push	 OFFSET ??_C@_04BFHPFPAN@PSR5@
  0078a	8d 8d b8 fe ff
	ff		 lea	 ecx, DWORD PTR _m_pHtmlCodeNameArray$[ebp+348]
  00790	c6 45 fc 59	 mov	 BYTE PTR __$EHRec$[ebp+8], 89 ; 00000059H
  00794	ff 15 00 00 00
	00		 call	 DWORD PTR __imp_??0?$CStringT@DV?$StrTraitMFC_DLL@DV?$ChTraitsCRT@D@ATL@@@@@ATL@@QAE@PBD@Z
  0079a	68 00 00 00 00	 push	 OFFSET ??_C@_04EIBAMNPK@SOR5@
  0079f	8d 8d bc fe ff
	ff		 lea	 ecx, DWORD PTR _m_pHtmlCodeNameArray$[ebp+352]
  007a5	c6 45 fc 5a	 mov	 BYTE PTR __$EHRec$[ebp+8], 90 ; 0000005aH
  007a9	ff 15 00 00 00
	00		 call	 DWORD PTR __imp_??0?$CStringT@DV?$StrTraitMFC_DLL@DV?$ChTraitsCRT@D@ATL@@@@@ATL@@QAE@PBD@Z
  007af	68 00 00 00 00	 push	 OFFSET ??_C@_04HMKPAOD@PPR5@
  007b4	8d 8d c0 fe ff
	ff		 lea	 ecx, DWORD PTR _m_pHtmlCodeNameArray$[ebp+356]
  007ba	c6 45 fc 5b	 mov	 BYTE PTR __$EHRec$[ebp+8], 91 ; 0000005bH
  007be	ff 15 00 00 00
	00		 call	 DWORD PTR __imp_??0?$CStringT@DV?$StrTraitMFC_DLL@DV?$ChTraitsCRT@D@ATL@@@@@ATL@@QAE@PBD@Z

; 214  : 	 "APR6","AAP6","TLP6","TPF6","TLR6","TTT6","MPF6","MLS6","TER6","TCI6","TTN6","PLN6","PSR6","SOR6","PPR6",

  007c4	68 00 00 00 00	 push	 OFFSET ??_C@_04HBGHBNBC@APR6@
  007c9	8d 8d c4 fe ff
	ff		 lea	 ecx, DWORD PTR _m_pHtmlCodeNameArray$[ebp+360]
  007cf	c6 45 fc 5c	 mov	 BYTE PTR __$EHRec$[ebp+8], 92 ; 0000005cH
  007d3	ff 15 00 00 00
	00		 call	 DWORD PTR __imp_??0?$CStringT@DV?$StrTraitMFC_DLL@DV?$ChTraitsCRT@D@ATL@@@@@ATL@@QAE@PBD@Z
  007d9	68 00 00 00 00	 push	 OFFSET ??_C@_04JKEGPJIG@AAP6@
  007de	8d 8d c8 fe ff
	ff		 lea	 ecx, DWORD PTR _m_pHtmlCodeNameArray$[ebp+364]
  007e4	c6 45 fc 5d	 mov	 BYTE PTR __$EHRec$[ebp+8], 93 ; 0000005dH
  007e8	ff 15 00 00 00
	00		 call	 DWORD PTR __imp_??0?$CStringT@DV?$StrTraitMFC_DLL@DV?$ChTraitsCRT@D@ATL@@@@@ATL@@QAE@PBD@Z
  007ee	68 00 00 00 00	 push	 OFFSET ??_C@_04MACMDJKJ@TLP6@
  007f3	8d 8d cc fe ff
	ff		 lea	 ecx, DWORD PTR _m_pHtmlCodeNameArray$[ebp+368]
  007f9	c6 45 fc 5e	 mov	 BYTE PTR __$EHRec$[ebp+8], 94 ; 0000005eH
  007fd	ff 15 00 00 00
	00		 call	 DWORD PTR __imp_??0?$CStringT@DV?$StrTraitMFC_DLL@DV?$ChTraitsCRT@D@ATL@@@@@ATL@@QAE@PBD@Z
  00803	68 00 00 00 00	 push	 OFFSET ??_C@_04MCEIAOEM@TPF6@
  00808	8d 8d d0 fe ff
	ff		 lea	 ecx, DWORD PTR _m_pHtmlCodeNameArray$[ebp+372]
  0080e	c6 45 fc 5f	 mov	 BYTE PTR __$EHRec$[ebp+8], 95 ; 0000005fH
  00812	ff 15 00 00 00
	00		 call	 DWORD PTR __imp_??0?$CStringT@DV?$StrTraitMFC_DLL@DV?$ChTraitsCRT@D@ATL@@@@@ATL@@QAE@PBD@Z
  00818	68 00 00 00 00	 push	 OFFSET ??_C@_04MDKIONMH@TLR6@
  0081d	8d 8d d4 fe ff
	ff		 lea	 ecx, DWORD PTR _m_pHtmlCodeNameArray$[ebp+376]
  00823	c6 45 fc 60	 mov	 BYTE PTR __$EHRec$[ebp+8], 96 ; 00000060H
  00827	ff 15 00 00 00
	00		 call	 DWORD PTR __imp_??0?$CStringT@DV?$StrTraitMFC_DLL@DV?$ChTraitsCRT@D@ATL@@@@@ATL@@QAE@PBD@Z
  0082d	c6 45 fc 61	 mov	 BYTE PTR __$EHRec$[ebp+8], 97 ; 00000061H
  00831	68 00 00 00 00	 push	 OFFSET ??_C@_04FCIIOOAF@TTT6@
  00836	8d 8d d8 fe ff
	ff		 lea	 ecx, DWORD PTR _m_pHtmlCodeNameArray$[ebp+380]
  0083c	ff 15 00 00 00
	00		 call	 DWORD PTR __imp_??0?$CStringT@DV?$StrTraitMFC_DLL@DV?$ChTraitsCRT@D@ATL@@@@@ATL@@QAE@PBD@Z
  00842	68 00 00 00 00	 push	 OFFSET ??_C@_04KPLIPLLP@MPF6@
  00847	8d 8d dc fe ff
	ff		 lea	 ecx, DWORD PTR _m_pHtmlCodeNameArray$[ebp+384]
  0084d	c6 45 fc 62	 mov	 BYTE PTR __$EHRec$[ebp+8], 98 ; 00000062H
  00851	ff 15 00 00 00
	00		 call	 DWORD PTR __imp_??0?$CStringT@DV?$StrTraitMFC_DLL@DV?$ChTraitsCRT@D@ATL@@@@@ATL@@QAE@PBD@Z
  00857	68 00 00 00 00	 push	 OFFSET ??_C@_04KPJKHCAD@MLS6@
  0085c	8d 8d e0 fe ff
	ff		 lea	 ecx, DWORD PTR _m_pHtmlCodeNameArray$[ebp+388]
  00862	c6 45 fc 63	 mov	 BYTE PTR __$EHRec$[ebp+8], 99 ; 00000063H
  00866	ff 15 00 00 00
	00		 call	 DWORD PTR __imp_??0?$CStringT@DV?$StrTraitMFC_DLL@DV?$ChTraitsCRT@D@ATL@@@@@ATL@@QAE@PBD@Z
  0086c	68 00 00 00 00	 push	 OFFSET ??_C@_04LOKAKCEN@TER6@
  00871	8d 8d e4 fe ff
	ff		 lea	 ecx, DWORD PTR _m_pHtmlCodeNameArray$[ebp+392]
  00877	c6 45 fc 64	 mov	 BYTE PTR __$EHRec$[ebp+8], 100 ; 00000064H
  0087b	ff 15 00 00 00
	00		 call	 DWORD PTR __imp_??0?$CStringT@DV?$StrTraitMFC_DLL@DV?$ChTraitsCRT@D@ATL@@@@@ATL@@QAE@PBD@Z
  00881	68 00 00 00 00	 push	 OFFSET ??_C@_04ILLILBAA@TCI6@
  00886	8d 8d e8 fe ff
	ff		 lea	 ecx, DWORD PTR _m_pHtmlCodeNameArray$[ebp+396]
  0088c	c6 45 fc 65	 mov	 BYTE PTR __$EHRec$[ebp+8], 101 ; 00000065H
  00890	ff 15 00 00 00
	00		 call	 DWORD PTR __imp_??0?$CStringT@DV?$StrTraitMFC_DLL@DV?$ChTraitsCRT@D@ATL@@@@@ATL@@QAE@PBD@Z
  00896	68 00 00 00 00	 push	 OFFSET ??_C@_04EDDJMIKD@TTN6@
  0089b	8d 8d ec fe ff
	ff		 lea	 ecx, DWORD PTR _m_pHtmlCodeNameArray$[ebp+400]
  008a1	c6 45 fc 66	 mov	 BYTE PTR __$EHRec$[ebp+8], 102 ; 00000066H
  008a5	ff 15 00 00 00
	00		 call	 DWORD PTR __imp_??0?$CStringT@DV?$StrTraitMFC_DLL@DV?$ChTraitsCRT@D@ATL@@@@@ATL@@QAE@PBD@Z
  008ab	68 00 00 00 00	 push	 OFFSET ??_C@_04CDBEBBBD@PLN6@
  008b0	8d 8d f0 fe ff
	ff		 lea	 ecx, DWORD PTR _m_pHtmlCodeNameArray$[ebp+404]
  008b6	c6 45 fc 67	 mov	 BYTE PTR __$EHRec$[ebp+8], 103 ; 00000067H
  008ba	ff 15 00 00 00
	00		 call	 DWORD PTR __imp_??0?$CStringT@DV?$StrTraitMFC_DLL@DV?$ChTraitsCRT@D@ATL@@@@@ATL@@QAE@PBD@Z
  008c0	68 00 00 00 00	 push	 OFFSET ??_C@_04DOFCAMMO@PSR6@
  008c5	8d 8d f4 fe ff
	ff		 lea	 ecx, DWORD PTR _m_pHtmlCodeNameArray$[ebp+408]
  008cb	c6 45 fc 68	 mov	 BYTE PTR __$EHRec$[ebp+8], 104 ; 00000068H
  008cf	ff 15 00 00 00
	00		 call	 DWORD PTR __imp_??0?$CStringT@DV?$StrTraitMFC_DLL@DV?$ChTraitsCRT@D@ATL@@@@@ATL@@QAE@PBD@Z
  008d5	68 00 00 00 00	 push	 OFFSET ??_C@_04GDDNJODJ@SOR6@
  008da	8d 8d f8 fe ff
	ff		 lea	 ecx, DWORD PTR _m_pHtmlCodeNameArray$[ebp+412]
  008e0	c6 45 fc 69	 mov	 BYTE PTR __$EHRec$[ebp+8], 105 ; 00000069H
  008e4	ff 15 00 00 00
	00		 call	 DWORD PTR __imp_??0?$CStringT@DV?$StrTraitMFC_DLL@DV?$ChTraitsCRT@D@ATL@@@@@ATL@@QAE@PBD@Z
  008ea	68 00 00 00 00	 push	 OFFSET ??_C@_04CMOHKDCA@PPR6@
  008ef	8d 8d fc fe ff
	ff		 lea	 ecx, DWORD PTR _m_pHtmlCodeNameArray$[ebp+416]
  008f5	c6 45 fc 6a	 mov	 BYTE PTR __$EHRec$[ebp+8], 106 ; 0000006aH
  008f9	ff 15 00 00 00
	00		 call	 DWORD PTR __imp_??0?$CStringT@DV?$StrTraitMFC_DLL@DV?$ChTraitsCRT@D@ATL@@@@@ATL@@QAE@PBD@Z

; 215  : 	 "APR7","AAP7","TLP7","TPF7","TLR7","TTT7","MPF7","MLS7","TER7","TCI7","TTN7","PLN7","PSR7","SOR7","PPR7",

  008ff	68 00 00 00 00	 push	 OFFSET ??_C@_04GIHMCMFD@APR7@
  00904	8d 8d 00 ff ff
	ff		 lea	 ecx, DWORD PTR _m_pHtmlCodeNameArray$[ebp+420]
  0090a	c6 45 fc 6b	 mov	 BYTE PTR __$EHRec$[ebp+8], 107 ; 0000006bH
  0090e	ff 15 00 00 00
	00		 call	 DWORD PTR __imp_??0?$CStringT@DV?$StrTraitMFC_DLL@DV?$ChTraitsCRT@D@ATL@@@@@ATL@@QAE@PBD@Z
  00914	68 00 00 00 00	 push	 OFFSET ??_C@_04IDFNMIMH@AAP7@
  00919	8d 8d 04 ff ff
	ff		 lea	 ecx, DWORD PTR _m_pHtmlCodeNameArray$[ebp+424]
  0091f	c6 45 fc 6c	 mov	 BYTE PTR __$EHRec$[ebp+8], 108 ; 0000006cH
  00923	ff 15 00 00 00
	00		 call	 DWORD PTR __imp_??0?$CStringT@DV?$StrTraitMFC_DLL@DV?$ChTraitsCRT@D@ATL@@@@@ATL@@QAE@PBD@Z
  00929	68 00 00 00 00	 push	 OFFSET ??_C@_04NJDHAIOI@TLP7@
  0092e	8d 8d 08 ff ff
	ff		 lea	 ecx, DWORD PTR _m_pHtmlCodeNameArray$[ebp+428]
  00934	c6 45 fc 6d	 mov	 BYTE PTR __$EHRec$[ebp+8], 109 ; 0000006dH
  00938	ff 15 00 00 00
	00		 call	 DWORD PTR __imp_??0?$CStringT@DV?$StrTraitMFC_DLL@DV?$ChTraitsCRT@D@ATL@@@@@ATL@@QAE@PBD@Z
  0093e	68 00 00 00 00	 push	 OFFSET ??_C@_04NLFDDPAN@TPF7@
  00943	8d 8d 0c ff ff
	ff		 lea	 ecx, DWORD PTR _m_pHtmlCodeNameArray$[ebp+432]
  00949	c6 45 fc 6e	 mov	 BYTE PTR __$EHRec$[ebp+8], 110 ; 0000006eH
  0094d	ff 15 00 00 00
	00		 call	 DWORD PTR __imp_??0?$CStringT@DV?$StrTraitMFC_DLL@DV?$ChTraitsCRT@D@ATL@@@@@ATL@@QAE@PBD@Z
  00953	68 00 00 00 00	 push	 OFFSET ??_C@_04NKLDNMIG@TLR7@
  00958	8d 8d 10 ff ff
	ff		 lea	 ecx, DWORD PTR _m_pHtmlCodeNameArray$[ebp+436]
  0095e	c6 45 fc 6f	 mov	 BYTE PTR __$EHRec$[ebp+8], 111 ; 0000006fH
  00962	ff 15 00 00 00
	00		 call	 DWORD PTR __imp_??0?$CStringT@DV?$StrTraitMFC_DLL@DV?$ChTraitsCRT@D@ATL@@@@@ATL@@QAE@PBD@Z
  00968	68 00 00 00 00	 push	 OFFSET ??_C@_04ELJDNPEE@TTT7@
  0096d	8d 8d 14 ff ff
	ff		 lea	 ecx, DWORD PTR _m_pHtmlCodeNameArray$[ebp+440]
  00973	c6 45 fc 70	 mov	 BYTE PTR __$EHRec$[ebp+8], 112 ; 00000070H
  00977	ff 15 00 00 00
	00		 call	 DWORD PTR __imp_??0?$CStringT@DV?$StrTraitMFC_DLL@DV?$ChTraitsCRT@D@ATL@@@@@ATL@@QAE@PBD@Z
  0097d	c6 45 fc 71	 mov	 BYTE PTR __$EHRec$[ebp+8], 113 ; 00000071H
  00981	8d 8d 18 ff ff
	ff		 lea	 ecx, DWORD PTR _m_pHtmlCodeNameArray$[ebp+444]
  00987	68 00 00 00 00	 push	 OFFSET ??_C@_04LGKDMKPO@MPF7@
  0098c	ff 15 00 00 00
	00		 call	 DWORD PTR __imp_??0?$CStringT@DV?$StrTraitMFC_DLL@DV?$ChTraitsCRT@D@ATL@@@@@ATL@@QAE@PBD@Z
  00992	68 00 00 00 00	 push	 OFFSET ??_C@_04LGIBEDEC@MLS7@
  00997	8d 8d 1c ff ff
	ff		 lea	 ecx, DWORD PTR _m_pHtmlCodeNameArray$[ebp+448]
  0099d	c6 45 fc 72	 mov	 BYTE PTR __$EHRec$[ebp+8], 114 ; 00000072H
  009a1	ff 15 00 00 00
	00		 call	 DWORD PTR __imp_??0?$CStringT@DV?$StrTraitMFC_DLL@DV?$ChTraitsCRT@D@ATL@@@@@ATL@@QAE@PBD@Z
  009a7	68 00 00 00 00	 push	 OFFSET ??_C@_04KHLLJDAM@TER7@
  009ac	8d 8d 20 ff ff
	ff		 lea	 ecx, DWORD PTR _m_pHtmlCodeNameArray$[ebp+452]
  009b2	c6 45 fc 73	 mov	 BYTE PTR __$EHRec$[ebp+8], 115 ; 00000073H
  009b6	ff 15 00 00 00
	00		 call	 DWORD PTR __imp_??0?$CStringT@DV?$StrTraitMFC_DLL@DV?$ChTraitsCRT@D@ATL@@@@@ATL@@QAE@PBD@Z
  009bc	68 00 00 00 00	 push	 OFFSET ??_C@_04JCKDIAEB@TCI7@
  009c1	8d 8d 24 ff ff
	ff		 lea	 ecx, DWORD PTR _m_pHtmlCodeNameArray$[ebp+456]
  009c7	c6 45 fc 74	 mov	 BYTE PTR __$EHRec$[ebp+8], 116 ; 00000074H
  009cb	ff 15 00 00 00
	00		 call	 DWORD PTR __imp_??0?$CStringT@DV?$StrTraitMFC_DLL@DV?$ChTraitsCRT@D@ATL@@@@@ATL@@QAE@PBD@Z
  009d1	68 00 00 00 00	 push	 OFFSET ??_C@_04FKCCPJOC@TTN7@
  009d6	8d 8d 28 ff ff
	ff		 lea	 ecx, DWORD PTR _m_pHtmlCodeNameArray$[ebp+460]
  009dc	c6 45 fc 75	 mov	 BYTE PTR __$EHRec$[ebp+8], 117 ; 00000075H
  009e0	ff 15 00 00 00
	00		 call	 DWORD PTR __imp_??0?$CStringT@DV?$StrTraitMFC_DLL@DV?$ChTraitsCRT@D@ATL@@@@@ATL@@QAE@PBD@Z
  009e6	68 00 00 00 00	 push	 OFFSET ??_C@_04DKAPCAFC@PLN7@
  009eb	8d 8d 2c ff ff
	ff		 lea	 ecx, DWORD PTR _m_pHtmlCodeNameArray$[ebp+464]
  009f1	c6 45 fc 76	 mov	 BYTE PTR __$EHRec$[ebp+8], 118 ; 00000076H
  009f5	ff 15 00 00 00
	00		 call	 DWORD PTR __imp_??0?$CStringT@DV?$StrTraitMFC_DLL@DV?$ChTraitsCRT@D@ATL@@@@@ATL@@QAE@PBD@Z
  009fb	68 00 00 00 00	 push	 OFFSET ??_C@_04CHEJDNIP@PSR7@
  00a00	8d 8d 30 ff ff
	ff		 lea	 ecx, DWORD PTR _m_pHtmlCodeNameArray$[ebp+468]
  00a06	c6 45 fc 77	 mov	 BYTE PTR __$EHRec$[ebp+8], 119 ; 00000077H
  00a0a	ff 15 00 00 00
	00		 call	 DWORD PTR __imp_??0?$CStringT@DV?$StrTraitMFC_DLL@DV?$ChTraitsCRT@D@ATL@@@@@ATL@@QAE@PBD@Z
  00a10	68 00 00 00 00	 push	 OFFSET ??_C@_04HKCGKPHI@SOR7@
  00a15	8d 8d 34 ff ff
	ff		 lea	 ecx, DWORD PTR _m_pHtmlCodeNameArray$[ebp+472]
  00a1b	c6 45 fc 78	 mov	 BYTE PTR __$EHRec$[ebp+8], 120 ; 00000078H
  00a1f	ff 15 00 00 00
	00		 call	 DWORD PTR __imp_??0?$CStringT@DV?$StrTraitMFC_DLL@DV?$ChTraitsCRT@D@ATL@@@@@ATL@@QAE@PBD@Z
  00a25	68 00 00 00 00	 push	 OFFSET ??_C@_04DFPMJCGB@PPR7@
  00a2a	8d 8d 38 ff ff
	ff		 lea	 ecx, DWORD PTR _m_pHtmlCodeNameArray$[ebp+476]
  00a30	c6 45 fc 79	 mov	 BYTE PTR __$EHRec$[ebp+8], 121 ; 00000079H
  00a34	ff 15 00 00 00
	00		 call	 DWORD PTR __imp_??0?$CStringT@DV?$StrTraitMFC_DLL@DV?$ChTraitsCRT@D@ATL@@@@@ATL@@QAE@PBD@Z

; 216  : 	 "APR8","AAP8","TLP8","TPF8","TLR8","TTT8","MPF8","MLS8","TER8","TCI8","TTN8","PLN8","PSR8","SOR8","PPR8",

  00a3a	68 00 00 00 00	 push	 OFFSET ??_C@_04OPOEDAJM@APR8@
  00a3f	8d 8d 3c ff ff
	ff		 lea	 ecx, DWORD PTR _m_pHtmlCodeNameArray$[ebp+480]
  00a45	c6 45 fc 7a	 mov	 BYTE PTR __$EHRec$[ebp+8], 122 ; 0000007aH
  00a49	ff 15 00 00 00
	00		 call	 DWORD PTR __imp_??0?$CStringT@DV?$StrTraitMFC_DLL@DV?$ChTraitsCRT@D@ATL@@@@@ATL@@QAE@PBD@Z
  00a4f	68 00 00 00 00	 push	 OFFSET ??_C@_04EMFNEAI@AAP8@
  00a54	8d 8d 40 ff ff
	ff		 lea	 ecx, DWORD PTR _m_pHtmlCodeNameArray$[ebp+484]
  00a5a	c6 45 fc 7b	 mov	 BYTE PTR __$EHRec$[ebp+8], 123 ; 0000007bH
  00a5e	ff 15 00 00 00
	00		 call	 DWORD PTR __imp_??0?$CStringT@DV?$StrTraitMFC_DLL@DV?$ChTraitsCRT@D@ATL@@@@@ATL@@QAE@PBD@Z
  00a64	68 00 00 00 00	 push	 OFFSET ??_C@_04FOKPBECH@TLP8@
  00a69	8d 8d 44 ff ff
	ff		 lea	 ecx, DWORD PTR _m_pHtmlCodeNameArray$[ebp+488]
  00a6f	c6 45 fc 7c	 mov	 BYTE PTR __$EHRec$[ebp+8], 124 ; 0000007cH
  00a73	ff 15 00 00 00
	00		 call	 DWORD PTR __imp_??0?$CStringT@DV?$StrTraitMFC_DLL@DV?$ChTraitsCRT@D@ATL@@@@@ATL@@QAE@PBD@Z
  00a79	68 00 00 00 00	 push	 OFFSET ??_C@_04FMMLCDMC@TPF8@
  00a7e	8d 8d 48 ff ff
	ff		 lea	 ecx, DWORD PTR _m_pHtmlCodeNameArray$[ebp+492]
  00a84	c6 45 fc 7d	 mov	 BYTE PTR __$EHRec$[ebp+8], 125 ; 0000007dH
  00a88	ff 15 00 00 00
	00		 call	 DWORD PTR __imp_??0?$CStringT@DV?$StrTraitMFC_DLL@DV?$ChTraitsCRT@D@ATL@@@@@ATL@@QAE@PBD@Z
  00a8e	68 00 00 00 00	 push	 OFFSET ??_C@_04FNCLMAEJ@TLR8@
  00a93	8d 8d 4c ff ff
	ff		 lea	 ecx, DWORD PTR _m_pHtmlCodeNameArray$[ebp+496]
  00a99	c6 45 fc 7e	 mov	 BYTE PTR __$EHRec$[ebp+8], 126 ; 0000007eH
  00a9d	ff 15 00 00 00
	00		 call	 DWORD PTR __imp_??0?$CStringT@DV?$StrTraitMFC_DLL@DV?$ChTraitsCRT@D@ATL@@@@@ATL@@QAE@PBD@Z
  00aa3	68 00 00 00 00	 push	 OFFSET ??_C@_04MMALMDIL@TTT8@
  00aa8	8d 8d 50 ff ff
	ff		 lea	 ecx, DWORD PTR _m_pHtmlCodeNameArray$[ebp+500]
  00aae	c6 45 fc 7f	 mov	 BYTE PTR __$EHRec$[ebp+8], 127 ; 0000007fH
  00ab2	ff 15 00 00 00
	00		 call	 DWORD PTR __imp_??0?$CStringT@DV?$StrTraitMFC_DLL@DV?$ChTraitsCRT@D@ATL@@@@@ATL@@QAE@PBD@Z
  00ab8	68 00 00 00 00	 push	 OFFSET ??_C@_04DBDLNGDB@MPF8@
  00abd	8d 8d 54 ff ff
	ff		 lea	 ecx, DWORD PTR _m_pHtmlCodeNameArray$[ebp+504]
  00ac3	c6 45 fc 80	 mov	 BYTE PTR __$EHRec$[ebp+8], 128 ; 00000080H
  00ac7	ff 15 00 00 00
	00		 call	 DWORD PTR __imp_??0?$CStringT@DV?$StrTraitMFC_DLL@DV?$ChTraitsCRT@D@ATL@@@@@ATL@@QAE@PBD@Z
  00acd	68 00 00 00 00	 push	 OFFSET ??_C@_04DBBJFPIN@MLS8@
  00ad2	8d 8d 58 ff ff
	ff		 lea	 ecx, DWORD PTR _m_pHtmlCodeNameArray$[ebp+508]
  00ad8	c6 45 fc 81	 mov	 BYTE PTR __$EHRec$[ebp+8], 129 ; 00000081H
  00adc	ff 15 00 00 00
	00		 call	 DWORD PTR __imp_??0?$CStringT@DV?$StrTraitMFC_DLL@DV?$ChTraitsCRT@D@ATL@@@@@ATL@@QAE@PBD@Z
  00ae2	68 00 00 00 00	 push	 OFFSET ??_C@_04CACDIPMD@TER8@
  00ae7	8d 8d 5c ff ff
	ff		 lea	 ecx, DWORD PTR _m_pHtmlCodeNameArray$[ebp+512]
  00aed	c6 45 fc 82	 mov	 BYTE PTR __$EHRec$[ebp+8], 130 ; 00000082H
  00af1	ff 15 00 00 00
	00		 call	 DWORD PTR __imp_??0?$CStringT@DV?$StrTraitMFC_DLL@DV?$ChTraitsCRT@D@ATL@@@@@ATL@@QAE@PBD@Z
  00af7	68 00 00 00 00	 push	 OFFSET ??_C@_04BFDLJMIO@TCI8@
  00afc	8d 8d 60 ff ff
	ff		 lea	 ecx, DWORD PTR _m_pHtmlCodeNameArray$[ebp+516]
  00b02	c6 45 fc 83	 mov	 BYTE PTR __$EHRec$[ebp+8], 131 ; 00000083H
  00b06	ff 15 00 00 00
	00		 call	 DWORD PTR __imp_??0?$CStringT@DV?$StrTraitMFC_DLL@DV?$ChTraitsCRT@D@ATL@@@@@ATL@@QAE@PBD@Z
  00b0c	68 00 00 00 00	 push	 OFFSET ??_C@_04NNLKOFCN@TTN8@
  00b11	8d 8d 64 ff ff
	ff		 lea	 ecx, DWORD PTR _m_pHtmlCodeNameArray$[ebp+520]
  00b17	c6 45 fc 84	 mov	 BYTE PTR __$EHRec$[ebp+8], 132 ; 00000084H
  00b1b	ff 15 00 00 00
	00		 call	 DWORD PTR __imp_??0?$CStringT@DV?$StrTraitMFC_DLL@DV?$ChTraitsCRT@D@ATL@@@@@ATL@@QAE@PBD@Z
  00b21	68 00 00 00 00	 push	 OFFSET ??_C@_04LNJHDMJN@PLN8@
  00b26	8d 8d 68 ff ff
	ff		 lea	 ecx, DWORD PTR _m_pHtmlCodeNameArray$[ebp+524]
  00b2c	c6 45 fc 85	 mov	 BYTE PTR __$EHRec$[ebp+8], 133 ; 00000085H
  00b30	ff 15 00 00 00
	00		 call	 DWORD PTR __imp_??0?$CStringT@DV?$StrTraitMFC_DLL@DV?$ChTraitsCRT@D@ATL@@@@@ATL@@QAE@PBD@Z
  00b36	68 00 00 00 00	 push	 OFFSET ??_C@_04KANBCBEA@PSR8@
  00b3b	8d 8d 6c ff ff
	ff		 lea	 ecx, DWORD PTR _m_pHtmlCodeNameArray$[ebp+528]
  00b41	c6 45 fc 86	 mov	 BYTE PTR __$EHRec$[ebp+8], 134 ; 00000086H
  00b45	ff 15 00 00 00
	00		 call	 DWORD PTR __imp_??0?$CStringT@DV?$StrTraitMFC_DLL@DV?$ChTraitsCRT@D@ATL@@@@@ATL@@QAE@PBD@Z
  00b4b	68 00 00 00 00	 push	 OFFSET ??_C@_04PNLOLDLH@SOR8@
  00b50	8d 8d 70 ff ff
	ff		 lea	 ecx, DWORD PTR _m_pHtmlCodeNameArray$[ebp+532]
  00b56	c6 45 fc 87	 mov	 BYTE PTR __$EHRec$[ebp+8], 135 ; 00000087H
  00b5a	ff 15 00 00 00
	00		 call	 DWORD PTR __imp_??0?$CStringT@DV?$StrTraitMFC_DLL@DV?$ChTraitsCRT@D@ATL@@@@@ATL@@QAE@PBD@Z
  00b60	68 00 00 00 00	 push	 OFFSET ??_C@_04LCGEIOKO@PPR8@
  00b65	8d 8d 74 ff ff
	ff		 lea	 ecx, DWORD PTR _m_pHtmlCodeNameArray$[ebp+536]
  00b6b	c6 45 fc 88	 mov	 BYTE PTR __$EHRec$[ebp+8], 136 ; 00000088H
  00b6f	ff 15 00 00 00
	00		 call	 DWORD PTR __imp_??0?$CStringT@DV?$StrTraitMFC_DLL@DV?$ChTraitsCRT@D@ATL@@@@@ATL@@QAE@PBD@Z

; 217  : 	 "APR9","AAP9","TLP9","TPF9","TLR9","TTT9","MPF9","MLS9","TER9","TCI9","TTN9","PLN9","PSR9","SOR9","PPR9",

  00b75	68 00 00 00 00	 push	 OFFSET ??_C@_04PGPPABNN@APR9@
  00b7a	8d 8d 78 ff ff
	ff		 lea	 ecx, DWORD PTR _m_pHtmlCodeNameArray$[ebp+540]
  00b80	c6 45 fc 89	 mov	 BYTE PTR __$EHRec$[ebp+8], 137 ; 00000089H
  00b84	ff 15 00 00 00
	00		 call	 DWORD PTR __imp_??0?$CStringT@DV?$StrTraitMFC_DLL@DV?$ChTraitsCRT@D@ATL@@@@@ATL@@QAE@PBD@Z
  00b8a	68 00 00 00 00	 push	 OFFSET ??_C@_04BNNOOFEJ@AAP9@
  00b8f	8d 8d 7c ff ff
	ff		 lea	 ecx, DWORD PTR _m_pHtmlCodeNameArray$[ebp+544]
  00b95	c6 45 fc 8a	 mov	 BYTE PTR __$EHRec$[ebp+8], 138 ; 0000008aH
  00b99	ff 15 00 00 00
	00		 call	 DWORD PTR __imp_??0?$CStringT@DV?$StrTraitMFC_DLL@DV?$ChTraitsCRT@D@ATL@@@@@ATL@@QAE@PBD@Z
  00b9f	68 00 00 00 00	 push	 OFFSET ??_C@_04EHLECFGG@TLP9@
  00ba4	8d 4d 80	 lea	 ecx, DWORD PTR _m_pHtmlCodeNameArray$[ebp+548]
  00ba7	c6 45 fc 8b	 mov	 BYTE PTR __$EHRec$[ebp+8], 139 ; 0000008bH
  00bab	ff 15 00 00 00
	00		 call	 DWORD PTR __imp_??0?$CStringT@DV?$StrTraitMFC_DLL@DV?$ChTraitsCRT@D@ATL@@@@@ATL@@QAE@PBD@Z
  00bb1	68 00 00 00 00	 push	 OFFSET ??_C@_04EFNABCID@TPF9@
  00bb6	8d 4d 84	 lea	 ecx, DWORD PTR _m_pHtmlCodeNameArray$[ebp+552]
  00bb9	c6 45 fc 8c	 mov	 BYTE PTR __$EHRec$[ebp+8], 140 ; 0000008cH
  00bbd	ff 15 00 00 00
	00		 call	 DWORD PTR __imp_??0?$CStringT@DV?$StrTraitMFC_DLL@DV?$ChTraitsCRT@D@ATL@@@@@ATL@@QAE@PBD@Z
  00bc3	68 00 00 00 00	 push	 OFFSET ??_C@_04EEDAPBAI@TLR9@
  00bc8	8d 4d 88	 lea	 ecx, DWORD PTR _m_pHtmlCodeNameArray$[ebp+556]
  00bcb	c6 45 fc 8d	 mov	 BYTE PTR __$EHRec$[ebp+8], 141 ; 0000008dH
  00bcf	ff 15 00 00 00
	00		 call	 DWORD PTR __imp_??0?$CStringT@DV?$StrTraitMFC_DLL@DV?$ChTraitsCRT@D@ATL@@@@@ATL@@QAE@PBD@Z
  00bd5	68 00 00 00 00	 push	 OFFSET ??_C@_04NFBAPCMK@TTT9@
  00bda	8d 4d 8c	 lea	 ecx, DWORD PTR _m_pHtmlCodeNameArray$[ebp+560]
  00bdd	c6 45 fc 8e	 mov	 BYTE PTR __$EHRec$[ebp+8], 142 ; 0000008eH
  00be1	ff 15 00 00 00
	00		 call	 DWORD PTR __imp_??0?$CStringT@DV?$StrTraitMFC_DLL@DV?$ChTraitsCRT@D@ATL@@@@@ATL@@QAE@PBD@Z
  00be7	68 00 00 00 00	 push	 OFFSET ??_C@_04CICAOHHA@MPF9@
  00bec	8d 4d 90	 lea	 ecx, DWORD PTR _m_pHtmlCodeNameArray$[ebp+564]
  00bef	c6 45 fc 8f	 mov	 BYTE PTR __$EHRec$[ebp+8], 143 ; 0000008fH
  00bf3	ff 15 00 00 00
	00		 call	 DWORD PTR __imp_??0?$CStringT@DV?$StrTraitMFC_DLL@DV?$ChTraitsCRT@D@ATL@@@@@ATL@@QAE@PBD@Z
  00bf9	68 00 00 00 00	 push	 OFFSET ??_C@_04CIACGOMM@MLS9@
  00bfe	8d 4d 94	 lea	 ecx, DWORD PTR _m_pHtmlCodeNameArray$[ebp+568]
  00c01	c6 45 fc 90	 mov	 BYTE PTR __$EHRec$[ebp+8], 144 ; 00000090H
  00c05	ff 15 00 00 00
	00		 call	 DWORD PTR __imp_??0?$CStringT@DV?$StrTraitMFC_DLL@DV?$ChTraitsCRT@D@ATL@@@@@ATL@@QAE@PBD@Z
  00c0b	68 00 00 00 00	 push	 OFFSET ??_C@_04DJDILOIC@TER9@
  00c10	8d 4d 98	 lea	 ecx, DWORD PTR _m_pHtmlCodeNameArray$[ebp+572]
  00c13	c6 45 fc 91	 mov	 BYTE PTR __$EHRec$[ebp+8], 145 ; 00000091H
  00c17	ff 15 00 00 00
	00		 call	 DWORD PTR __imp_??0?$CStringT@DV?$StrTraitMFC_DLL@DV?$ChTraitsCRT@D@ATL@@@@@ATL@@QAE@PBD@Z
  00c1d	68 00 00 00 00	 push	 OFFSET ??_C@_04MCAKNMP@TCI9@
  00c22	8d 4d 9c	 lea	 ecx, DWORD PTR _m_pHtmlCodeNameArray$[ebp+576]
  00c25	c6 45 fc 92	 mov	 BYTE PTR __$EHRec$[ebp+8], 146 ; 00000092H
  00c29	ff 15 00 00 00
	00		 call	 DWORD PTR __imp_??0?$CStringT@DV?$StrTraitMFC_DLL@DV?$ChTraitsCRT@D@ATL@@@@@ATL@@QAE@PBD@Z
  00c2f	68 00 00 00 00	 push	 OFFSET ??_C@_04MEKBNEGM@TTN9@
  00c34	8d 4d a0	 lea	 ecx, DWORD PTR _m_pHtmlCodeNameArray$[ebp+580]
  00c37	c6 45 fc 93	 mov	 BYTE PTR __$EHRec$[ebp+8], 147 ; 00000093H
  00c3b	ff 15 00 00 00
	00		 call	 DWORD PTR __imp_??0?$CStringT@DV?$StrTraitMFC_DLL@DV?$ChTraitsCRT@D@ATL@@@@@ATL@@QAE@PBD@Z
  00c41	68 00 00 00 00	 push	 OFFSET ??_C@_04KEIMANNM@PLN9@
  00c46	8d 4d a4	 lea	 ecx, DWORD PTR _m_pHtmlCodeNameArray$[ebp+584]
  00c49	c6 45 fc 94	 mov	 BYTE PTR __$EHRec$[ebp+8], 148 ; 00000094H
  00c4d	ff 15 00 00 00
	00		 call	 DWORD PTR __imp_??0?$CStringT@DV?$StrTraitMFC_DLL@DV?$ChTraitsCRT@D@ATL@@@@@ATL@@QAE@PBD@Z
  00c53	68 00 00 00 00	 push	 OFFSET ??_C@_04LJMKBAAB@PSR9@
  00c58	8d 4d a8	 lea	 ecx, DWORD PTR _m_pHtmlCodeNameArray$[ebp+588]
  00c5b	c6 45 fc 95	 mov	 BYTE PTR __$EHRec$[ebp+8], 149 ; 00000095H
  00c5f	ff 15 00 00 00
	00		 call	 DWORD PTR __imp_??0?$CStringT@DV?$StrTraitMFC_DLL@DV?$ChTraitsCRT@D@ATL@@@@@ATL@@QAE@PBD@Z
  00c65	68 00 00 00 00	 push	 OFFSET ??_C@_04OEKFICPG@SOR9@
  00c6a	8d 4d ac	 lea	 ecx, DWORD PTR _m_pHtmlCodeNameArray$[ebp+592]
  00c6d	c6 45 fc 96	 mov	 BYTE PTR __$EHRec$[ebp+8], 150 ; 00000096H
  00c71	ff 15 00 00 00
	00		 call	 DWORD PTR __imp_??0?$CStringT@DV?$StrTraitMFC_DLL@DV?$ChTraitsCRT@D@ATL@@@@@ATL@@QAE@PBD@Z
  00c77	68 00 00 00 00	 push	 OFFSET ??_C@_04KLHPLPOP@PPR9@
  00c7c	8d 4d b0	 lea	 ecx, DWORD PTR _m_pHtmlCodeNameArray$[ebp+596]
  00c7f	c6 45 fc 97	 mov	 BYTE PTR __$EHRec$[ebp+8], 151 ; 00000097H
  00c83	ff 15 00 00 00
	00		 call	 DWORD PTR __imp_??0?$CStringT@DV?$StrTraitMFC_DLL@DV?$ChTraitsCRT@D@ATL@@@@@ATL@@QAE@PBD@Z

; 218  : 	 "APRTen","AAPTen","TLPTen","TPFTen","TLRTen","TTTTen","MPFTen","MLSTen","TERTen","TCITen","TTNTen","PLNTen","PSRTen","SORTen","PPRTen"

  00c89	68 00 00 00 00	 push	 OFFSET ??_C@_06DPLPBNAH@APRTen@
  00c8e	8d 4d b4	 lea	 ecx, DWORD PTR _m_pHtmlCodeNameArray$[ebp+600]
  00c91	c6 45 fc 98	 mov	 BYTE PTR __$EHRec$[ebp+8], 152 ; 00000098H
  00c95	ff 15 00 00 00
	00		 call	 DWORD PTR __imp_??0?$CStringT@DV?$StrTraitMFC_DLL@DV?$ChTraitsCRT@D@ATL@@@@@ATL@@QAE@PBD@Z
  00c9b	68 00 00 00 00	 push	 OFFSET ??_C@_06INPFJPFJ@AAPTen@
  00ca0	8d 4d b8	 lea	 ecx, DWORD PTR _m_pHtmlCodeNameArray$[ebp+604]
  00ca3	c6 45 fc 99	 mov	 BYTE PTR __$EHRec$[ebp+8], 153 ; 00000099H
  00ca7	ff 15 00 00 00
	00		 call	 DWORD PTR __imp_??0?$CStringT@DV?$StrTraitMFC_DLL@DV?$ChTraitsCRT@D@ATL@@@@@ATL@@QAE@PBD@Z
  00cad	68 00 00 00 00	 push	 OFFSET ??_C@_06EINDPOO@TLPTen@
  00cb2	8d 4d bc	 lea	 ecx, DWORD PTR _m_pHtmlCodeNameArray$[ebp+608]
  00cb5	c6 45 fc 9a	 mov	 BYTE PTR __$EHRec$[ebp+8], 154 ; 0000009aH
  00cb9	ff 15 00 00 00
	00		 call	 DWORD PTR __imp_??0?$CStringT@DV?$StrTraitMFC_DLL@DV?$ChTraitsCRT@D@ATL@@@@@ATL@@QAE@PBD@Z
  00cbf	68 00 00 00 00	 push	 OFFSET ??_C@_06JPDJJPCM@TPFTen@
  00cc4	8d 4d c0	 lea	 ecx, DWORD PTR _m_pHtmlCodeNameArray$[ebp+612]
  00cc7	c6 45 fc 9b	 mov	 BYTE PTR __$EHRec$[ebp+8], 155 ; 0000009bH
  00ccb	ff 15 00 00 00
	00		 call	 DWORD PTR __imp_??0?$CStringT@DV?$StrTraitMFC_DLL@DV?$ChTraitsCRT@D@ATL@@@@@ATL@@QAE@PBD@Z
  00cd1	68 00 00 00 00	 push	 OFFSET ??_C@_06HOENGMIO@TLRTen@
  00cd6	8d 4d c4	 lea	 ecx, DWORD PTR _m_pHtmlCodeNameArray$[ebp+616]
  00cd9	c6 45 fc 9c	 mov	 BYTE PTR __$EHRec$[ebp+8], 156 ; 0000009cH
  00cdd	ff 15 00 00 00
	00		 call	 DWORD PTR __imp_??0?$CStringT@DV?$StrTraitMFC_DLL@DV?$ChTraitsCRT@D@ATL@@@@@ATL@@QAE@PBD@Z
  00ce3	68 00 00 00 00	 push	 OFFSET ??_C@_06BOIIBJNI@TTTTen@
  00ce8	8d 4d c8	 lea	 ecx, DWORD PTR _m_pHtmlCodeNameArray$[ebp+620]
  00ceb	c6 45 fc 9d	 mov	 BYTE PTR __$EHRec$[ebp+8], 157 ; 0000009dH
  00cef	ff 15 00 00 00
	00		 call	 DWORD PTR __imp_??0?$CStringT@DV?$StrTraitMFC_DLL@DV?$ChTraitsCRT@D@ATL@@@@@ATL@@QAE@PBD@Z
  00cf5	68 00 00 00 00	 push	 OFFSET ??_C@_06GNHPEGDB@MPFTen@
  00cfa	8d 4d cc	 lea	 ecx, DWORD PTR _m_pHtmlCodeNameArray$[ebp+624]
  00cfd	c6 45 fc 9e	 mov	 BYTE PTR __$EHRec$[ebp+8], 158 ; 0000009eH
  00d01	ff 15 00 00 00
	00		 call	 DWORD PTR __imp_??0?$CStringT@DV?$StrTraitMFC_DLL@DV?$ChTraitsCRT@D@ATL@@@@@ATL@@QAE@PBD@Z
  00d07	68 00 00 00 00	 push	 OFFSET ??_C@_06LBGLJMCD@MLSTen@
  00d0c	8d 4d d0	 lea	 ecx, DWORD PTR _m_pHtmlCodeNameArray$[ebp+628]
  00d0f	c6 45 fc 9f	 mov	 BYTE PTR __$EHRec$[ebp+8], 159 ; 0000009fH
  00d13	ff 15 00 00 00
	00		 call	 DWORD PTR __imp_??0?$CStringT@DV?$StrTraitMFC_DLL@DV?$ChTraitsCRT@D@ATL@@@@@ATL@@QAE@PBD@Z
  00d19	68 00 00 00 00	 push	 OFFSET ??_C@_06FJECDNEG@TERTen@
  00d1e	8d 4d d4	 lea	 ecx, DWORD PTR _m_pHtmlCodeNameArray$[ebp+632]
  00d21	c6 45 fc a0	 mov	 BYTE PTR __$EHRec$[ebp+8], 160 ; 000000a0H
  00d25	ff 15 00 00 00
	00		 call	 DWORD PTR __imp_??0?$CStringT@DV?$StrTraitMFC_DLL@DV?$ChTraitsCRT@D@ATL@@@@@ATL@@QAE@PBD@Z
  00d2b	68 00 00 00 00	 push	 OFFSET ??_C@_06JICLHIMI@TCITen@
  00d30	8d 4d d8	 lea	 ecx, DWORD PTR _m_pHtmlCodeNameArray$[ebp+636]
  00d33	c6 45 fc a1	 mov	 BYTE PTR __$EHRec$[ebp+8], 161 ; 000000a1H
  00d37	ff 15 00 00 00
	00		 call	 DWORD PTR __imp_??0?$CStringT@DV?$StrTraitMFC_DLL@DV?$ChTraitsCRT@D@ATL@@@@@ATL@@QAE@PBD@Z
  00d3d	c6 45 fc a2	 mov	 BYTE PTR __$EHRec$[ebp+8], 162 ; 000000a2H
  00d41	68 00 00 00 00	 push	 OFFSET ??_C@_06DENIJGPL@TTNTen@
  00d46	8d 4d dc	 lea	 ecx, DWORD PTR _m_pHtmlCodeNameArray$[ebp+640]
  00d49	ff 15 00 00 00
	00		 call	 DWORD PTR __imp_??0?$CStringT@DV?$StrTraitMFC_DLL@DV?$ChTraitsCRT@D@ATL@@@@@ATL@@QAE@PBD@Z
  00d4f	68 00 00 00 00	 push	 OFFSET ??_C@_06CPBCDCBO@PLNTen@
  00d54	8d 4d e0	 lea	 ecx, DWORD PTR _m_pHtmlCodeNameArray$[ebp+644]
  00d57	c6 45 fc a3	 mov	 BYTE PTR __$EHRec$[ebp+8], 163 ; 000000a3H
  00d5b	ff 15 00 00 00
	00		 call	 DWORD PTR __imp_??0?$CStringT@DV?$StrTraitMFC_DLL@DV?$ChTraitsCRT@D@ATL@@@@@ATL@@QAE@PBD@Z
  00d61	68 00 00 00 00	 push	 OFFSET ??_C@_06HIICPIND@PSRTen@
  00d66	8d 4d e4	 lea	 ecx, DWORD PTR _m_pHtmlCodeNameArray$[ebp+648]
  00d69	c6 45 fc a4	 mov	 BYTE PTR __$EHRec$[ebp+8], 164 ; 000000a4H
  00d6d	ff 15 00 00 00
	00		 call	 DWORD PTR __imp_??0?$CStringT@DV?$StrTraitMFC_DLL@DV?$ChTraitsCRT@D@ATL@@@@@ATL@@QAE@PBD@Z
  00d73	68 00 00 00 00	 push	 OFFSET ??_C@_06DNHOCAKO@SORTen@
  00d78	8d 4d e8	 lea	 ecx, DWORD PTR _m_pHtmlCodeNameArray$[ebp+652]
  00d7b	c6 45 fc a5	 mov	 BYTE PTR __$EHRec$[ebp+8], 165 ; 000000a5H
  00d7f	ff 15 00 00 00
	00		 call	 DWORD PTR __imp_??0?$CStringT@DV?$StrTraitMFC_DLL@DV?$ChTraitsCRT@D@ATL@@@@@ATL@@QAE@PBD@Z
  00d85	68 00 00 00 00	 push	 OFFSET ??_C@_06POBGIKHN@PPRTen@
  00d8a	8d 4d ec	 lea	 ecx, DWORD PTR _m_pHtmlCodeNameArray$[ebp+656]
  00d8d	c6 45 fc a6	 mov	 BYTE PTR __$EHRec$[ebp+8], 166 ; 000000a6H
  00d91	ff 15 00 00 00
	00		 call	 DWORD PTR __imp_??0?$CStringT@DV?$StrTraitMFC_DLL@DV?$ChTraitsCRT@D@ATL@@@@@ATL@@QAE@PBD@Z

; 219  : 	};
; 220  : 
; 221  : //	CInputLeft* Input = GetCInputLeft();
; 222  : 	CIStrategyItem* Strate = m_pDlgAnalysis->GetStrategyItem();

  00d97	8b 86 ac 00 00
	00		 mov	 eax, DWORD PTR [esi+172]

; 223  : 
; 224  : 	//  ..!!!!
; 225  : 	CStringArray strDataArray;

  00d9d	8d 8d 28 fd ff
	ff		 lea	 ecx, DWORD PTR _strDataArray$[ebp]
  00da3	c6 45 fc a7	 mov	 BYTE PTR __$EHRec$[ebp+8], 167 ; 000000a7H
  00da7	8b 98 c4 00 00
	00		 mov	 ebx, DWORD PTR [eax+196]
  00dad	e8 00 00 00 00	 call	 ??0CStringArray@@QAE@XZ	; CStringArray::CStringArray

; 226  : 	int i = 0;
; 227  : 	for( i = 0; i<= m_nDiv ;i++)//Index .

  00db2	33 c0		 xor	 eax, eax
  00db4	c6 45 fc a8	 mov	 BYTE PTR __$EHRec$[ebp+8], 168 ; 000000a8H
  00db8	89 85 50 fd ff
	ff		 mov	 DWORD PTR _i$1$[ebp], eax
  00dbe	39 86 c8 00 00
	00		 cmp	 DWORD PTR [esi+200], eax
  00dc4	0f 8c d3 01 00
	00		 jl	 $LN3@Parsingstr
  00dca	8b 3d 00 00 00
	00		 mov	 edi, DWORD PTR __imp_?Format@?$CStringT@DV?$StrTraitMFC_DLL@DV?$ChTraitsCRT@D@ATL@@@@@ATL@@QAAXPBDZZ
$LL4@Parsingstr:

; 228  : 	{		
; 229  : 		m_pDlgAnalysis->SetCalculateData(i);

  00dd0	8b 8e ac 00 00
	00		 mov	 ecx, DWORD PTR [esi+172]
  00dd6	50		 push	 eax
  00dd7	e8 00 00 00 00	 call	 ?SetCalculateData@CDlgAnalysis@@QAEXH@Z ; CDlgAnalysis::SetCalculateData

; 230  : 		for(int j =0;j<31;j++)

  00ddc	33 f6		 xor	 esi, esi
  00dde	66 90		 npad	 2
$LL7@Parsingstr:

; 231  : 		{
; 232  : 			if(j==2||j==9||j==10||j==11||j==14||j==16||j==17) 

  00de0	83 fe 02	 cmp	 esi, 2
  00de3	0f 84 8b 01 00
	00		 je	 $LN5@Parsingstr
  00de9	83 fe 09	 cmp	 esi, 9
  00dec	0f 84 82 01 00
	00		 je	 $LN5@Parsingstr
  00df2	83 fe 0a	 cmp	 esi, 10			; 0000000aH
  00df5	0f 84 79 01 00
	00		 je	 $LN5@Parsingstr
  00dfb	83 fe 0b	 cmp	 esi, 11			; 0000000bH
  00dfe	0f 84 70 01 00
	00		 je	 $LN5@Parsingstr
  00e04	83 fe 0e	 cmp	 esi, 14			; 0000000eH
  00e07	0f 84 67 01 00
	00		 je	 $LN5@Parsingstr
  00e0d	83 fe 10	 cmp	 esi, 16			; 00000010H
  00e10	0f 84 5e 01 00
	00		 je	 $LN5@Parsingstr
  00e16	83 fe 11	 cmp	 esi, 17			; 00000011H
  00e19	0f 84 55 01 00
	00		 je	 $LN5@Parsingstr

; 233  : 				continue;//   .
; 234  : 			if(j==19||j==20||j==22||j==23||( j>24 && j<30 ))

  00e1f	83 fe 13	 cmp	 esi, 19			; 00000013H
  00e22	0f 84 4c 01 00
	00		 je	 $LN5@Parsingstr
  00e28	83 fe 14	 cmp	 esi, 20			; 00000014H
  00e2b	0f 84 43 01 00
	00		 je	 $LN5@Parsingstr
  00e31	83 fe 16	 cmp	 esi, 22			; 00000016H
  00e34	0f 84 3a 01 00
	00		 je	 $LN5@Parsingstr
  00e3a	83 fe 17	 cmp	 esi, 23			; 00000017H
  00e3d	0f 84 31 01 00
	00		 je	 $LN5@Parsingstr
  00e43	83 fe 18	 cmp	 esi, 24			; 00000018H
  00e46	76 09		 jbe	 SHORT $LN16@Parsingstr
  00e48	83 fe 1e	 cmp	 esi, 30			; 0000001eH
  00e4b	0f 82 23 01 00
	00		 jb	 $LN5@Parsingstr
$LN16@Parsingstr:

; 235  : 				continue; 
; 236  : 			Data = Strate->GetStatisticalInfo(j);

  00e51	8b 03		 mov	 eax, DWORD PTR [ebx]
  00e53	8b cb		 mov	 ecx, ebx
  00e55	56		 push	 esi
  00e56	8b 40 50	 mov	 eax, DWORD PTR [eax+80]
  00e59	ff d0		 call	 eax

; 237  : 
; 238  : 			if(j==15||j==31)

  00e5b	83 ec 08	 sub	 esp, 8
  00e5e	8d 85 58 fd ff
	ff		 lea	 eax, DWORD PTR _strData$[ebp]
  00e64	dd 9d 48 fd ff
	ff		 fstp	 QWORD PTR _Data$[ebp]
  00e6a	f2 0f 10 85 48
	fd ff ff	 movsd	 xmm0, QWORD PTR _Data$[ebp]
  00e72	f2 0f 11 04 24	 movsd	 QWORD PTR [esp], xmm0
  00e77	83 fe 0f	 cmp	 esi, 15			; 0000000fH
  00e7a	74 07		 je	 SHORT $LN20@Parsingstr

; 240  : 			else
; 241  : 				strData.Format("%.2f", Data);

  00e7c	68 00 00 00 00	 push	 OFFSET ??_C@_04GEFJINEE@?$CF?42f@
  00e81	eb 05		 jmp	 SHORT $LN243@Parsingstr
$LN20@Parsingstr:

; 239  : 				strData.Format("%.0f", Data);

  00e83	68 00 00 00 00	 push	 OFFSET ??_C@_04GHNNFJCK@?$CF?40f@
$LN243@Parsingstr:

; 242  : 
; 243  : 			if(m_bIsJusik)

  00e88	50		 push	 eax
  00e89	ff d7		 call	 edi
  00e8b	8b 85 54 fd ff
	ff		 mov	 eax, DWORD PTR _this$GSCopy$1$[ebp]
  00e91	83 c4 10	 add	 esp, 16			; 00000010H
  00e94	83 b8 b0 00 00
	00 00		 cmp	 DWORD PTR [eax+176], 0
  00e9b	74 5b		 je	 SHORT $LN23@Parsingstr

; 244  : 			{
; 245  : 			if(j==3||j==4||j== 5||j== 7||j== 8||j== 12||j== 13)

  00e9d	83 fe 03	 cmp	 esi, 3
  00ea0	74 35		 je	 SHORT $LN24@Parsingstr
  00ea2	83 fe 04	 cmp	 esi, 4
  00ea5	74 30		 je	 SHORT $LN24@Parsingstr
  00ea7	83 fe 05	 cmp	 esi, 5
  00eaa	74 2b		 je	 SHORT $LN24@Parsingstr
  00eac	83 fe 07	 cmp	 esi, 7
  00eaf	74 26		 je	 SHORT $LN24@Parsingstr
  00eb1	83 fe 08	 cmp	 esi, 8
  00eb4	74 21		 je	 SHORT $LN24@Parsingstr
  00eb6	83 fe 0c	 cmp	 esi, 12			; 0000000cH
  00eb9	74 1c		 je	 SHORT $LN24@Parsingstr
  00ebb	83 fe 0d	 cmp	 esi, 13			; 0000000dH
  00ebe	74 17		 je	 SHORT $LN24@Parsingstr

; 247  : 			else
; 248  : 				strData.Format("%.2f", Data);

  00ec0	f2 0f 10 85 48
	fd ff ff	 movsd	 xmm0, QWORD PTR _Data$[ebp]
  00ec8	83 ec 08	 sub	 esp, 8
  00ecb	f2 0f 11 04 24	 movsd	 QWORD PTR [esp], xmm0
  00ed0	68 00 00 00 00	 push	 OFFSET ??_C@_04GEFJINEE@?$CF?42f@
  00ed5	eb 15		 jmp	 SHORT $LN244@Parsingstr
$LN24@Parsingstr:

; 246  : 				strData.Format("%.0f", Data);

  00ed7	f2 0f 10 85 48
	fd ff ff	 movsd	 xmm0, QWORD PTR _Data$[ebp]
  00edf	83 ec 08	 sub	 esp, 8
  00ee2	f2 0f 11 04 24	 movsd	 QWORD PTR [esp], xmm0
  00ee7	68 00 00 00 00	 push	 OFFSET ??_C@_04GHNNFJCK@?$CF?40f@
$LN244@Parsingstr:

; 249  : 			}
; 250  : 			
; 251  : 			if(Data == 0)

  00eec	8d 85 58 fd ff
	ff		 lea	 eax, DWORD PTR _strData$[ebp]
  00ef2	50		 push	 eax
  00ef3	ff d7		 call	 edi
  00ef5	83 c4 10	 add	 esp, 16			; 00000010H
$LN23@Parsingstr:
  00ef8	f2 0f 10 85 48
	fd ff ff	 movsd	 xmm0, QWORD PTR _Data$[ebp]
  00f00	0f 57 c9	 xorps	 xmm1, xmm1
  00f03	66 0f 2e c1	 ucomisd xmm0, xmm1
  00f07	9f		 lahf
  00f08	f6 c4 44	 test	 ah, 68			; 00000044H
  00f0b	7a 19		 jp	 SHORT $LN25@Parsingstr

; 252  : 				strData.Format("0",Data);

  00f0d	83 ec 08	 sub	 esp, 8
  00f10	8d 85 58 fd ff
	ff		 lea	 eax, DWORD PTR _strData$[ebp]
  00f16	f2 0f 11 04 24	 movsd	 QWORD PTR [esp], xmm0
  00f1b	68 00 00 00 00	 push	 OFFSET ??_C@_01GBGANLPD@0@
  00f20	50		 push	 eax
  00f21	ff d7		 call	 edi
  00f23	83 c4 10	 add	 esp, 16			; 00000010H
$LN25@Parsingstr:

; 253  : 			strData = GetComma(strData);

  00f26	ff b5 58 fd ff
	ff		 push	 DWORD PTR _strData$[ebp]
  00f2c	8d 85 44 fd ff
	ff		 lea	 eax, DWORD PTR $T3[ebp]
  00f32	50		 push	 eax
  00f33	e8 00 00 00 00	 call	 ?GetComma@CDlgInterface@@SA?AV?$CStringT@DV?$StrTraitMFC_DLL@DV?$ChTraitsCRT@D@ATL@@@@@ATL@@PBD@Z ; CDlgInterface::GetComma
  00f38	83 c4 08	 add	 esp, 8
  00f3b	50		 push	 eax
  00f3c	8d 8d 58 fd ff
	ff		 lea	 ecx, DWORD PTR _strData$[ebp]
  00f42	c6 45 fc a9	 mov	 BYTE PTR __$EHRec$[ebp+8], 169 ; 000000a9H
  00f46	ff 15 00 00 00
	00		 call	 DWORD PTR __imp_??4?$CStringT@DV?$StrTraitMFC_DLL@DV?$ChTraitsCRT@D@ATL@@@@@ATL@@QAEAAV01@ABV01@@Z
  00f4c	8d 8d 44 fd ff
	ff		 lea	 ecx, DWORD PTR $T3[ebp]
  00f52	c6 45 fc a8	 mov	 BYTE PTR __$EHRec$[ebp+8], 168 ; 000000a8H
  00f56	ff 15 00 00 00
	00		 call	 DWORD PTR __imp_??1?$CStringT@DV?$StrTraitMFC_DLL@DV?$ChTraitsCRT@D@ATL@@@@@ATL@@QAE@XZ
; File C:\Program Files (x86)\Microsoft Visual Studio\2019\Community\VC\Tools\MSVC\14.29.30133\atlmfc\include\afxcoll.inl

; 321  : 		SetAtGrow(nIndex, newElement);

  00f5c	8d 85 58 fd ff
	ff		 lea	 eax, DWORD PTR _strData$[ebp]
  00f62	50		 push	 eax
  00f63	ff b5 30 fd ff
	ff		 push	 DWORD PTR _strDataArray$[ebp+8]
  00f69	8d 8d 28 fd ff
	ff		 lea	 ecx, DWORD PTR _strDataArray$[ebp]
  00f6f	e8 00 00 00 00	 call	 ?SetAtGrow@CStringArray@@QAEXHABV?$CStringT@DV?$StrTraitMFC_DLL@DV?$ChTraitsCRT@D@ATL@@@@@ATL@@@Z ; CStringArray::SetAtGrow
$LN5@Parsingstr:
; File D:\git\src\IBK\IBK_DRFN\ProjSrc\SrcDrfn\Chart\HWSTRATEGYANALYSIS\TabStep.cpp

; 230  : 		for(int j =0;j<31;j++)

  00f74	46		 inc	 esi
  00f75	83 fe 1f	 cmp	 esi, 31			; 0000001fH
  00f78	0f 8c 62 fe ff
	ff		 jl	 $LL7@Parsingstr

; 226  : 	int i = 0;
; 227  : 	for( i = 0; i<= m_nDiv ;i++)//Index .

  00f7e	8b 85 50 fd ff
	ff		 mov	 eax, DWORD PTR _i$1$[ebp]
  00f84	8b b5 54 fd ff
	ff		 mov	 esi, DWORD PTR _this$GSCopy$1$[ebp]
  00f8a	40		 inc	 eax
  00f8b	89 85 50 fd ff
	ff		 mov	 DWORD PTR _i$1$[ebp], eax
  00f91	3b 86 c8 00 00
	00		 cmp	 eax, DWORD PTR [esi+200]
  00f97	0f 8e 33 fe ff
	ff		 jle	 $LL4@Parsingstr
$LN3@Parsingstr:

; 254  : 			strDataArray.Add(strData);		
; 255  : 		}
; 256  : 	}
; 257  : 	
; 258  : 	for(i =0;i< strDataArray.GetSize();i++)

  00f9d	8b bd 30 fd ff
	ff		 mov	 edi, DWORD PTR _strDataArray$[ebp+8]
  00fa3	33 f6		 xor	 esi, esi
  00fa5	85 ff		 test	 edi, edi
  00fa7	0f 8e e6 00 00
	00		 jle	 $LN9@Parsingstr
  00fad	0f 1f 00	 npad	 3
$LL10@Parsingstr:

; 259  : 	{
; 260  : 		CString str,Code;

  00fb0	8d 8d 50 fd ff
	ff		 lea	 ecx, DWORD PTR _str$4[ebp]
  00fb6	ff 15 00 00 00
	00		 call	 DWORD PTR __imp_??0?$CStringT@DV?$StrTraitMFC_DLL@DV?$ChTraitsCRT@D@ATL@@@@@ATL@@QAE@XZ
  00fbc	8d 8d 54 fd ff
	ff		 lea	 ecx, DWORD PTR _Code$5[ebp]
  00fc2	ff 15 00 00 00
	00		 call	 DWORD PTR __imp_??0?$CStringT@DV?$StrTraitMFC_DLL@DV?$ChTraitsCRT@D@ATL@@@@@ATL@@QAE@XZ
  00fc8	c6 45 fc ab	 mov	 BYTE PTR __$EHRec$[ebp+8], 171 ; 000000abH
; File C:\Program Files (x86)\Microsoft Visual Studio\2019\Community\VC\Tools\MSVC\14.29.30133\atlmfc\include\afxcoll.inl

; 289  : 		if( nIndex < 0 || nIndex >= m_nSize )

  00fcc	85 f6		 test	 esi, esi
  00fce	0f 88 65 01 00
	00		 js	 $LN208@Parsingstr
  00fd4	3b b5 30 fd ff
	ff		 cmp	 esi, DWORD PTR _strDataArray$[ebp+8]
  00fda	0f 8d 59 01 00
	00		 jge	 $LN208@Parsingstr

; 291  : 		return m_pData[nIndex]; }

  00fe0	8b 85 2c fd ff
	ff		 mov	 eax, DWORD PTR _strDataArray$[ebp+4]
; File D:\git\src\IBK\IBK_DRFN\ProjSrc\SrcDrfn\Chart\HWSTRATEGYANALYSIS\TabStep.cpp

; 262  : 		str = strDataArray.GetAt(i);

  00fe6	8d 8d 50 fd ff
	ff		 lea	 ecx, DWORD PTR _str$4[ebp]
; File C:\Program Files (x86)\Microsoft Visual Studio\2019\Community\VC\Tools\MSVC\14.29.30133\atlmfc\include\afxcoll.inl

; 291  : 		return m_pData[nIndex]; }

  00fec	8d 04 b0	 lea	 eax, DWORD PTR [eax+esi*4]
; File D:\git\src\IBK\IBK_DRFN\ProjSrc\SrcDrfn\Chart\HWSTRATEGYANALYSIS\TabStep.cpp

; 262  : 		str = strDataArray.GetAt(i);

  00fef	50		 push	 eax
  00ff0	ff 15 00 00 00
	00		 call	 DWORD PTR __imp_??4?$CStringT@DV?$StrTraitMFC_DLL@DV?$ChTraitsCRT@D@ATL@@@@@ATL@@QAEAAV01@ABV01@@Z

; 263  : 		Code = m_pHtmlCodeNameArray[i];

  00ff6	8d bd 5c fd ff
	ff		 lea	 edi, DWORD PTR _m_pHtmlCodeNameArray$[ebp]
  00ffc	8d 3c b7	 lea	 edi, DWORD PTR [edi+esi*4]
  00fff	57		 push	 edi
  01000	8d 8d 54 fd ff
	ff		 lea	 ecx, DWORD PTR _Code$5[ebp]
  01006	ff 15 00 00 00
	00		 call	 DWORD PTR __imp_??4?$CStringT@DV?$StrTraitMFC_DLL@DV?$ChTraitsCRT@D@ATL@@@@@ATL@@QAEAAV01@ABV01@@Z

; 264  : 		int Index = strHtml.Find(Code,0);

  0100c	6a 00		 push	 0
  0100e	ff b5 54 fd ff
	ff		 push	 DWORD PTR _Code$5[ebp]
  01014	8d 4d 0c	 lea	 ecx, DWORD PTR _strHtml$[ebp]
  01017	ff 15 00 00 00
	00		 call	 DWORD PTR __imp_?Find@?$CStringT@DV?$StrTraitMFC_DLL@DV?$ChTraitsCRT@D@ATL@@@@@ATL@@QBEHPBDH@Z

; 265  : 		if(str.Find("-",0)>=0)

  0101d	6a 00		 push	 0
  0101f	68 00 00 00 00	 push	 OFFSET ??_C@_01JOAMLHOP@?9@
  01024	8d 8d 50 fd ff
	ff		 lea	 ecx, DWORD PTR _str$4[ebp]
  0102a	8b d8		 mov	 ebx, eax
  0102c	ff 15 00 00 00
	00		 call	 DWORD PTR __imp_?Find@?$CStringT@DV?$StrTraitMFC_DLL@DV?$ChTraitsCRT@D@ATL@@@@@ATL@@QBEHPBDH@Z
  01032	85 c0		 test	 eax, eax
  01034	78 12		 js	 SHORT $LN26@Parsingstr

; 266  : 		{
; 267  : 			//strHtml.Delete(Index-15, 13);
; 268  : 			strHtml.Insert(Index-2, " Color=BLUE");

  01036	68 00 00 00 00	 push	 OFFSET ??_C@_0M@JHFKGMBK@?5Color?$DNBLUE@
  0103b	8d 43 fe	 lea	 eax, DWORD PTR [ebx-2]
  0103e	50		 push	 eax
  0103f	8d 4d 0c	 lea	 ecx, DWORD PTR _strHtml$[ebp]
  01042	ff 15 00 00 00
	00		 call	 DWORD PTR __imp_?Insert@?$CStringT@DV?$StrTraitMFC_DLL@DV?$ChTraitsCRT@D@ATL@@@@@ATL@@QAEHHPBD@Z
$LN26@Parsingstr:
; File C:\Program Files (x86)\Microsoft Visual Studio\2019\Community\VC\Tools\MSVC\14.29.30133\atlmfc\include\afxcoll.inl

; 289  : 		if( nIndex < 0 || nIndex >= m_nSize )

  01048	3b b5 30 fd ff
	ff		 cmp	 esi, DWORD PTR _strDataArray$[ebp+8]
  0104e	0f 8d e5 00 00
	00		 jge	 $LN208@Parsingstr

; 291  : 		return m_pData[nIndex]; }

  01054	8b 85 2c fd ff
	ff		 mov	 eax, DWORD PTR _strDataArray$[ebp+4]
; File D:\git\src\IBK\IBK_DRFN\ProjSrc\SrcDrfn\Chart\HWSTRATEGYANALYSIS\TabStep.cpp

; 270  : 		strHtml.Replace(m_pHtmlCodeNameArray[i],strDataArray.GetAt(i));

  0105a	8d 4d 0c	 lea	 ecx, DWORD PTR _strHtml$[ebp]
  0105d	ff 34 b0	 push	 DWORD PTR [eax+esi*4]
  01060	ff 37		 push	 DWORD PTR [edi]
  01062	ff 15 00 00 00
	00		 call	 DWORD PTR __imp_?Replace@?$CStringT@DV?$StrTraitMFC_DLL@DV?$ChTraitsCRT@D@ATL@@@@@ATL@@QAEHPBD0@Z

; 271  : 	}

  01068	8d 8d 54 fd ff
	ff		 lea	 ecx, DWORD PTR _Code$5[ebp]
  0106e	ff 15 00 00 00
	00		 call	 DWORD PTR __imp_??1?$CStringT@DV?$StrTraitMFC_DLL@DV?$ChTraitsCRT@D@ATL@@@@@ATL@@QAE@XZ
  01074	8d 8d 50 fd ff
	ff		 lea	 ecx, DWORD PTR _str$4[ebp]
  0107a	c6 45 fc a8	 mov	 BYTE PTR __$EHRec$[ebp+8], 168 ; 000000a8H
  0107e	ff 15 00 00 00
	00		 call	 DWORD PTR __imp_??1?$CStringT@DV?$StrTraitMFC_DLL@DV?$ChTraitsCRT@D@ATL@@@@@ATL@@QAE@XZ
  01084	8b bd 30 fd ff
	ff		 mov	 edi, DWORD PTR _strDataArray$[ebp+8]
  0108a	46		 inc	 esi
  0108b	3b f7		 cmp	 esi, edi
  0108d	0f 8c 1d ff ff
	ff		 jl	 $LL10@Parsingstr
$LN9@Parsingstr:

; 272  : 	for(i = strDataArray.GetSize(); i<STEPMAXDATANUM;i++)

  01093	81 ff a5 00 00
	00		 cmp	 edi, 165		; 000000a5H
  01099	7d 23		 jge	 SHORT $LN12@Parsingstr
  0109b	0f 1f 44 00 00	 npad	 5
$LL13@Parsingstr:

; 273  : 		strHtml.Replace(m_pHtmlCodeNameArray[i], "  ");

  010a0	68 00 00 00 00	 push	 OFFSET ??_C@_02KNHHEEKP@?5?5@
  010a5	ff b4 bd 5c fd
	ff ff		 push	 DWORD PTR _m_pHtmlCodeNameArray$[ebp+edi*4]
  010ac	8d 4d 0c	 lea	 ecx, DWORD PTR _strHtml$[ebp]
  010af	ff 15 00 00 00
	00		 call	 DWORD PTR __imp_?Replace@?$CStringT@DV?$StrTraitMFC_DLL@DV?$ChTraitsCRT@D@ATL@@@@@ATL@@QAEHPBD0@Z
  010b5	47		 inc	 edi
  010b6	81 ff a5 00 00
	00		 cmp	 edi, 165		; 000000a5H
  010bc	7c e2		 jl	 SHORT $LL13@Parsingstr
$LN12@Parsingstr:

; 274  : 	
; 275  : 	return strHtml;

  010be	8b 8d 40 fd ff
	ff		 mov	 ecx, DWORD PTR ___$ReturnUdt$GSCopy$1$[ebp]
  010c4	8d 45 0c	 lea	 eax, DWORD PTR _strHtml$[ebp]
  010c7	50		 push	 eax
  010c8	ff 15 00 00 00
	00		 call	 DWORD PTR __imp_??0?$CStringT@DV?$StrTraitMFC_DLL@DV?$ChTraitsCRT@D@ATL@@@@@ATL@@QAE@ABV01@@Z
  010ce	8d 8d 28 fd ff
	ff		 lea	 ecx, DWORD PTR _strDataArray$[ebp]
  010d4	c7 85 3c fd ff
	ff 01 00 00 00	 mov	 DWORD PTR $T2[ebp], 1
  010de	e8 00 00 00 00	 call	 ??1CStringArray@@UAE@XZ	; CStringArray::~CStringArray
  010e3	ff 35 00 00 00
	00		 push	 DWORD PTR __imp_??1?$CStringT@DV?$StrTraitMFC_DLL@DV?$ChTraitsCRT@D@ATL@@@@@ATL@@QAE@XZ
  010e9	8d 85 5c fd ff
	ff		 lea	 eax, DWORD PTR _m_pHtmlCodeNameArray$[ebp]
  010ef	c6 45 fc 02	 mov	 BYTE PTR __$EHRec$[ebp+8], 2
  010f3	68 a5 00 00 00	 push	 165			; 000000a5H
  010f8	6a 04		 push	 4
  010fa	50		 push	 eax
  010fb	e8 00 00 00 00	 call	 ??_M@YGXPAXIIP6EX0@Z@Z
  01100	8d 8d 58 fd ff
	ff		 lea	 ecx, DWORD PTR _strData$[ebp]
  01106	ff 15 00 00 00
	00		 call	 DWORD PTR __imp_??1?$CStringT@DV?$StrTraitMFC_DLL@DV?$ChTraitsCRT@D@ATL@@@@@ATL@@QAE@XZ
  0110c	8d 4d 0c	 lea	 ecx, DWORD PTR _strHtml$[ebp]
  0110f	ff 15 00 00 00
	00		 call	 DWORD PTR __imp_??1?$CStringT@DV?$StrTraitMFC_DLL@DV?$ChTraitsCRT@D@ATL@@@@@ATL@@QAE@XZ
  01115	8b 85 40 fd ff
	ff		 mov	 eax, DWORD PTR ___$ReturnUdt$GSCopy$1$[ebp]

; 276  : }

  0111b	8b 4d f4	 mov	 ecx, DWORD PTR __$EHRec$[ebp]
  0111e	64 89 0d 00 00
	00 00		 mov	 DWORD PTR fs:0, ecx
  01125	59		 pop	 ecx
  01126	5f		 pop	 edi
  01127	5e		 pop	 esi
  01128	5b		 pop	 ebx
  01129	8b 4d f0	 mov	 ecx, DWORD PTR __$ArrayPad$[ebp]
  0112c	33 cd		 xor	 ecx, ebp
  0112e	e8 00 00 00 00	 call	 @__security_check_cookie@4
  01133	8b e5		 mov	 esp, ebp
  01135	5d		 pop	 ebp
  01136	c2 08 00	 ret	 8
$LN208@Parsingstr:
; File C:\Program Files (x86)\Microsoft Visual Studio\2019\Community\VC\Tools\MSVC\14.29.30133\atlmfc\include\afxcoll.inl

; 290  : 			AfxThrowInvalidArgException();

  01139	e8 00 00 00 00	 call	 ?AfxThrowInvalidArgException@@YGXXZ ; AfxThrowInvalidArgException
$LN242@Parsingstr:
  0113e	cc		 int	 3
_TEXT	ENDS
;	COMDAT text$x
text$x	SEGMENT
__unwindfunclet$?ParsingstrHtml@CTabStep@@QAE?AV?$CStringT@DV?$StrTraitMFC_DLL@DV?$ChTraitsCRT@D@ATL@@@@@ATL@@V23@@Z$0:
  00000	8d 4d 0c	 lea	 ecx, DWORD PTR _strHtml$[ebp]
  00003	ff 25 00 00 00
	00		 jmp	 DWORD PTR __imp_??1?$CStringT@DV?$StrTraitMFC_DLL@DV?$ChTraitsCRT@D@ATL@@@@@ATL@@QAE@XZ
__unwindfunclet$?ParsingstrHtml@CTabStep@@QAE?AV?$CStringT@DV?$StrTraitMFC_DLL@DV?$ChTraitsCRT@D@ATL@@@@@ATL@@V23@@Z$1:
  00009	8d 8d 58 fd ff
	ff		 lea	 ecx, DWORD PTR _strData$[ebp]
  0000f	ff 25 00 00 00
	00		 jmp	 DWORD PTR __imp_??1?$CStringT@DV?$StrTraitMFC_DLL@DV?$ChTraitsCRT@D@ATL@@@@@ATL@@QAE@XZ
__unwindfunclet$?ParsingstrHtml@CTabStep@@QAE?AV?$CStringT@DV?$StrTraitMFC_DLL@DV?$ChTraitsCRT@D@ATL@@@@@ATL@@V23@@Z$2:
  00015	8d 8d 5c fd ff
	ff		 lea	 ecx, DWORD PTR _m_pHtmlCodeNameArray$[ebp]
  0001b	ff 25 00 00 00
	00		 jmp	 DWORD PTR __imp_??1?$CStringT@DV?$StrTraitMFC_DLL@DV?$ChTraitsCRT@D@ATL@@@@@ATL@@QAE@XZ
__unwindfunclet$?ParsingstrHtml@CTabStep@@QAE?AV?$CStringT@DV?$StrTraitMFC_DLL@DV?$ChTraitsCRT@D@ATL@@@@@ATL@@V23@@Z$3:
  00021	8d 8d 60 fd ff
	ff		 lea	 ecx, DWORD PTR _m_pHtmlCodeNameArray$[ebp+4]
  00027	ff 25 00 00 00
	00		 jmp	 DWORD PTR __imp_??1?$CStringT@DV?$StrTraitMFC_DLL@DV?$ChTraitsCRT@D@ATL@@@@@ATL@@QAE@XZ
__unwindfunclet$?ParsingstrHtml@CTabStep@@QAE?AV?$CStringT@DV?$StrTraitMFC_DLL@DV?$ChTraitsCRT@D@ATL@@@@@ATL@@V23@@Z$4:
  0002d	8d 8d 64 fd ff
	ff		 lea	 ecx, DWORD PTR _m_pHtmlCodeNameArray$[ebp+8]
  00033	ff 25 00 00 00
	00		 jmp	 DWORD PTR __imp_??1?$CStringT@DV?$StrTraitMFC_DLL@DV?$ChTraitsCRT@D@ATL@@@@@ATL@@QAE@XZ
__unwindfunclet$?ParsingstrHtml@CTabStep@@QAE?AV?$CStringT@DV?$StrTraitMFC_DLL@DV?$ChTraitsCRT@D@ATL@@@@@ATL@@V23@@Z$5:
  00039	8d 8d 68 fd ff
	ff		 lea	 ecx, DWORD PTR _m_pHtmlCodeNameArray$[ebp+12]
  0003f	ff 25 00 00 00
	00		 jmp	 DWORD PTR __imp_??1?$CStringT@DV?$StrTraitMFC_DLL@DV?$ChTraitsCRT@D@ATL@@@@@ATL@@QAE@XZ
__unwindfunclet$?ParsingstrHtml@CTabStep@@QAE?AV?$CStringT@DV?$StrTraitMFC_DLL@DV?$ChTraitsCRT@D@ATL@@@@@ATL@@V23@@Z$6:
  00045	8d 8d 6c fd ff
	ff		 lea	 ecx, DWORD PTR _m_pHtmlCodeNameArray$[ebp+16]
  0004b	ff 25 00 00 00
	00		 jmp	 DWORD PTR __imp_??1?$CStringT@DV?$StrTraitMFC_DLL@DV?$ChTraitsCRT@D@ATL@@@@@ATL@@QAE@XZ
__unwindfunclet$?ParsingstrHtml@CTabStep@@QAE?AV?$CStringT@DV?$StrTraitMFC_DLL@DV?$ChTraitsCRT@D@ATL@@@@@ATL@@V23@@Z$7:
  00051	8d 8d 70 fd ff
	ff		 lea	 ecx, DWORD PTR _m_pHtmlCodeNameArray$[ebp+20]
  00057	ff 25 00 00 00
	00		 jmp	 DWORD PTR __imp_??1?$CStringT@DV?$StrTraitMFC_DLL@DV?$ChTraitsCRT@D@ATL@@@@@ATL@@QAE@XZ
__unwindfunclet$?ParsingstrHtml@CTabStep@@QAE?AV?$CStringT@DV?$StrTraitMFC_DLL@DV?$ChTraitsCRT@D@ATL@@@@@ATL@@V23@@Z$8:
  0005d	8d 8d 74 fd ff
	ff		 lea	 ecx, DWORD PTR _m_pHtmlCodeNameArray$[ebp+24]
  00063	ff 25 00 00 00
	00		 jmp	 DWORD PTR __imp_??1?$CStringT@DV?$StrTraitMFC_DLL@DV?$ChTraitsCRT@D@ATL@@@@@ATL@@QAE@XZ
__unwindfunclet$?ParsingstrHtml@CTabStep@@QAE?AV?$CStringT@DV?$StrTraitMFC_DLL@DV?$ChTraitsCRT@D@ATL@@@@@ATL@@V23@@Z$9:
  00069	8d 8d 78 fd ff
	ff		 lea	 ecx, DWORD PTR _m_pHtmlCodeNameArray$[ebp+28]
  0006f	ff 25 00 00 00
	00		 jmp	 DWORD PTR __imp_??1?$CStringT@DV?$StrTraitMFC_DLL@DV?$ChTraitsCRT@D@ATL@@@@@ATL@@QAE@XZ
__unwindfunclet$?ParsingstrHtml@CTabStep@@QAE?AV?$CStringT@DV?$StrTraitMFC_DLL@DV?$ChTraitsCRT@D@ATL@@@@@ATL@@V23@@Z$10:
  00075	8d 8d 7c fd ff
	ff		 lea	 ecx, DWORD PTR _m_pHtmlCodeNameArray$[ebp+32]
  0007b	ff 25 00 00 00
	00		 jmp	 DWORD PTR __imp_??1?$CStringT@DV?$StrTraitMFC_DLL@DV?$ChTraitsCRT@D@ATL@@@@@ATL@@QAE@XZ
__unwindfunclet$?ParsingstrHtml@CTabStep@@QAE?AV?$CStringT@DV?$StrTraitMFC_DLL@DV?$ChTraitsCRT@D@ATL@@@@@ATL@@V23@@Z$11:
  00081	8d 8d 80 fd ff
	ff		 lea	 ecx, DWORD PTR _m_pHtmlCodeNameArray$[ebp+36]
  00087	ff 25 00 00 00
	00		 jmp	 DWORD PTR __imp_??1?$CStringT@DV?$StrTraitMFC_DLL@DV?$ChTraitsCRT@D@ATL@@@@@ATL@@QAE@XZ
__unwindfunclet$?ParsingstrHtml@CTabStep@@QAE?AV?$CStringT@DV?$StrTraitMFC_DLL@DV?$ChTraitsCRT@D@ATL@@@@@ATL@@V23@@Z$12:
  0008d	8d 8d 84 fd ff
	ff		 lea	 ecx, DWORD PTR _m_pHtmlCodeNameArray$[ebp+40]
  00093	ff 25 00 00 00
	00		 jmp	 DWORD PTR __imp_??1?$CStringT@DV?$StrTraitMFC_DLL@DV?$ChTraitsCRT@D@ATL@@@@@ATL@@QAE@XZ
__unwindfunclet$?ParsingstrHtml@CTabStep@@QAE?AV?$CStringT@DV?$StrTraitMFC_DLL@DV?$ChTraitsCRT@D@ATL@@@@@ATL@@V23@@Z$13:
  00099	8d 8d 88 fd ff
	ff		 lea	 ecx, DWORD PTR _m_pHtmlCodeNameArray$[ebp+44]
  0009f	ff 25 00 00 00
	00		 jmp	 DWORD PTR __imp_??1?$CStringT@DV?$StrTraitMFC_DLL@DV?$ChTraitsCRT@D@ATL@@@@@ATL@@QAE@XZ
__unwindfunclet$?ParsingstrHtml@CTabStep@@QAE?AV?$CStringT@DV?$StrTraitMFC_DLL@DV?$ChTraitsCRT@D@ATL@@@@@ATL@@V23@@Z$14:
  000a5	8d 8d 8c fd ff
	ff		 lea	 ecx, DWORD PTR _m_pHtmlCodeNameArray$[ebp+48]
  000ab	ff 25 00 00 00
	00		 jmp	 DWORD PTR __imp_??1?$CStringT@DV?$StrTraitMFC_DLL@DV?$ChTraitsCRT@D@ATL@@@@@ATL@@QAE@XZ
__unwindfunclet$?ParsingstrHtml@CTabStep@@QAE?AV?$CStringT@DV?$StrTraitMFC_DLL@DV?$ChTraitsCRT@D@ATL@@@@@ATL@@V23@@Z$15:
  000b1	8d 8d 90 fd ff
	ff		 lea	 ecx, DWORD PTR _m_pHtmlCodeNameArray$[ebp+52]
  000b7	ff 25 00 00 00
	00		 jmp	 DWORD PTR __imp_??1?$CStringT@DV?$StrTraitMFC_DLL@DV?$ChTraitsCRT@D@ATL@@@@@ATL@@QAE@XZ
__unwindfunclet$?ParsingstrHtml@CTabStep@@QAE?AV?$CStringT@DV?$StrTraitMFC_DLL@DV?$ChTraitsCRT@D@ATL@@@@@ATL@@V23@@Z$16:
  000bd	8d 8d 94 fd ff
	ff		 lea	 ecx, DWORD PTR _m_pHtmlCodeNameArray$[ebp+56]
  000c3	ff 25 00 00 00
	00		 jmp	 DWORD PTR __imp_??1?$CStringT@DV?$StrTraitMFC_DLL@DV?$ChTraitsCRT@D@ATL@@@@@ATL@@QAE@XZ
__unwindfunclet$?ParsingstrHtml@CTabStep@@QAE?AV?$CStringT@DV?$StrTraitMFC_DLL@DV?$ChTraitsCRT@D@ATL@@@@@ATL@@V23@@Z$17:
  000c9	8d 8d 98 fd ff
	ff		 lea	 ecx, DWORD PTR _m_pHtmlCodeNameArray$[ebp+60]
  000cf	ff 25 00 00 00
	00		 jmp	 DWORD PTR __imp_??1?$CStringT@DV?$StrTraitMFC_DLL@DV?$ChTraitsCRT@D@ATL@@@@@ATL@@QAE@XZ
__unwindfunclet$?ParsingstrHtml@CTabStep@@QAE?AV?$CStringT@DV?$StrTraitMFC_DLL@DV?$ChTraitsCRT@D@ATL@@@@@ATL@@V23@@Z$18:
  000d5	8d 8d 9c fd ff
	ff		 lea	 ecx, DWORD PTR _m_pHtmlCodeNameArray$[ebp+64]
  000db	ff 25 00 00 00
	00		 jmp	 DWORD PTR __imp_??1?$CStringT@DV?$StrTraitMFC_DLL@DV?$ChTraitsCRT@D@ATL@@@@@ATL@@QAE@XZ
__unwindfunclet$?ParsingstrHtml@CTabStep@@QAE?AV?$CStringT@DV?$StrTraitMFC_DLL@DV?$ChTraitsCRT@D@ATL@@@@@ATL@@V23@@Z$19:
  000e1	8d 8d a0 fd ff
	ff		 lea	 ecx, DWORD PTR _m_pHtmlCodeNameArray$[ebp+68]
  000e7	ff 25 00 00 00
	00		 jmp	 DWORD PTR __imp_??1?$CStringT@DV?$StrTraitMFC_DLL@DV?$ChTraitsCRT@D@ATL@@@@@ATL@@QAE@XZ
__unwindfunclet$?ParsingstrHtml@CTabStep@@QAE?AV?$CStringT@DV?$StrTraitMFC_DLL@DV?$ChTraitsCRT@D@ATL@@@@@ATL@@V23@@Z$20:
  000ed	8d 8d a4 fd ff
	ff		 lea	 ecx, DWORD PTR _m_pHtmlCodeNameArray$[ebp+72]
  000f3	ff 25 00 00 00
	00		 jmp	 DWORD PTR __imp_??1?$CStringT@DV?$StrTraitMFC_DLL@DV?$ChTraitsCRT@D@ATL@@@@@ATL@@QAE@XZ
__unwindfunclet$?ParsingstrHtml@CTabStep@@QAE?AV?$CStringT@DV?$StrTraitMFC_DLL@DV?$ChTraitsCRT@D@ATL@@@@@ATL@@V23@@Z$21:
  000f9	8d 8d a8 fd ff
	ff		 lea	 ecx, DWORD PTR _m_pHtmlCodeNameArray$[ebp+76]
  000ff	ff 25 00 00 00
	00		 jmp	 DWORD PTR __imp_??1?$CStringT@DV?$StrTraitMFC_DLL@DV?$ChTraitsCRT@D@ATL@@@@@ATL@@QAE@XZ
__unwindfunclet$?ParsingstrHtml@CTabStep@@QAE?AV?$CStringT@DV?$StrTraitMFC_DLL@DV?$ChTraitsCRT@D@ATL@@@@@ATL@@V23@@Z$22:
  00105	8d 8d ac fd ff
	ff		 lea	 ecx, DWORD PTR _m_pHtmlCodeNameArray$[ebp+80]
  0010b	ff 25 00 00 00
	00		 jmp	 DWORD PTR __imp_??1?$CStringT@DV?$StrTraitMFC_DLL@DV?$ChTraitsCRT@D@ATL@@@@@ATL@@QAE@XZ
__unwindfunclet$?ParsingstrHtml@CTabStep@@QAE?AV?$CStringT@DV?$StrTraitMFC_DLL@DV?$ChTraitsCRT@D@ATL@@@@@ATL@@V23@@Z$23:
  00111	8d 8d b0 fd ff
	ff		 lea	 ecx, DWORD PTR _m_pHtmlCodeNameArray$[ebp+84]
  00117	ff 25 00 00 00
	00		 jmp	 DWORD PTR __imp_??1?$CStringT@DV?$StrTraitMFC_DLL@DV?$ChTraitsCRT@D@ATL@@@@@ATL@@QAE@XZ
__unwindfunclet$?ParsingstrHtml@CTabStep@@QAE?AV?$CStringT@DV?$StrTraitMFC_DLL@DV?$ChTraitsCRT@D@ATL@@@@@ATL@@V23@@Z$24:
  0011d	8d 8d b4 fd ff
	ff		 lea	 ecx, DWORD PTR _m_pHtmlCodeNameArray$[ebp+88]
  00123	ff 25 00 00 00
	00		 jmp	 DWORD PTR __imp_??1?$CStringT@DV?$StrTraitMFC_DLL@DV?$ChTraitsCRT@D@ATL@@@@@ATL@@QAE@XZ
__unwindfunclet$?ParsingstrHtml@CTabStep@@QAE?AV?$CStringT@DV?$StrTraitMFC_DLL@DV?$ChTraitsCRT@D@ATL@@@@@ATL@@V23@@Z$25:
  00129	8d 8d b8 fd ff
	ff		 lea	 ecx, DWORD PTR _m_pHtmlCodeNameArray$[ebp+92]
  0012f	ff 25 00 00 00
	00		 jmp	 DWORD PTR __imp_??1?$CStringT@DV?$StrTraitMFC_DLL@DV?$ChTraitsCRT@D@ATL@@@@@ATL@@QAE@XZ
__unwindfunclet$?ParsingstrHtml@CTabStep@@QAE?AV?$CStringT@DV?$StrTraitMFC_DLL@DV?$ChTraitsCRT@D@ATL@@@@@ATL@@V23@@Z$26:
  00135	8d 8d bc fd ff
	ff		 lea	 ecx, DWORD PTR _m_pHtmlCodeNameArray$[ebp+96]
  0013b	ff 25 00 00 00
	00		 jmp	 DWORD PTR __imp_??1?$CStringT@DV?$StrTraitMFC_DLL@DV?$ChTraitsCRT@D@ATL@@@@@ATL@@QAE@XZ
__unwindfunclet$?ParsingstrHtml@CTabStep@@QAE?AV?$CStringT@DV?$StrTraitMFC_DLL@DV?$ChTraitsCRT@D@ATL@@@@@ATL@@V23@@Z$27:
  00141	8d 8d c0 fd ff
	ff		 lea	 ecx, DWORD PTR _m_pHtmlCodeNameArray$[ebp+100]
  00147	ff 25 00 00 00
	00		 jmp	 DWORD PTR __imp_??1?$CStringT@DV?$StrTraitMFC_DLL@DV?$ChTraitsCRT@D@ATL@@@@@ATL@@QAE@XZ
__unwindfunclet$?ParsingstrHtml@CTabStep@@QAE?AV?$CStringT@DV?$StrTraitMFC_DLL@DV?$ChTraitsCRT@D@ATL@@@@@ATL@@V23@@Z$28:
  0014d	8d 8d c4 fd ff
	ff		 lea	 ecx, DWORD PTR _m_pHtmlCodeNameArray$[ebp+104]
  00153	ff 25 00 00 00
	00		 jmp	 DWORD PTR __imp_??1?$CStringT@DV?$StrTraitMFC_DLL@DV?$ChTraitsCRT@D@ATL@@@@@ATL@@QAE@XZ
__unwindfunclet$?ParsingstrHtml@CTabStep@@QAE?AV?$CStringT@DV?$StrTraitMFC_DLL@DV?$ChTraitsCRT@D@ATL@@@@@ATL@@V23@@Z$29:
  00159	8d 8d c8 fd ff
	ff		 lea	 ecx, DWORD PTR _m_pHtmlCodeNameArray$[ebp+108]
  0015f	ff 25 00 00 00
	00		 jmp	 DWORD PTR __imp_??1?$CStringT@DV?$StrTraitMFC_DLL@DV?$ChTraitsCRT@D@ATL@@@@@ATL@@QAE@XZ
__unwindfunclet$?ParsingstrHtml@CTabStep@@QAE?AV?$CStringT@DV?$StrTraitMFC_DLL@DV?$ChTraitsCRT@D@ATL@@@@@ATL@@V23@@Z$30:
  00165	8d 8d cc fd ff
	ff		 lea	 ecx, DWORD PTR _m_pHtmlCodeNameArray$[ebp+112]
  0016b	ff 25 00 00 00
	00		 jmp	 DWORD PTR __imp_??1?$CStringT@DV?$StrTraitMFC_DLL@DV?$ChTraitsCRT@D@ATL@@@@@ATL@@QAE@XZ
__unwindfunclet$?ParsingstrHtml@CTabStep@@QAE?AV?$CStringT@DV?$StrTraitMFC_DLL@DV?$ChTraitsCRT@D@ATL@@@@@ATL@@V23@@Z$31:
  00171	8d 8d d0 fd ff
	ff		 lea	 ecx, DWORD PTR _m_pHtmlCodeNameArray$[ebp+116]
  00177	ff 25 00 00 00
	00		 jmp	 DWORD PTR __imp_??1?$CStringT@DV?$StrTraitMFC_DLL@DV?$ChTraitsCRT@D@ATL@@@@@ATL@@QAE@XZ
__unwindfunclet$?ParsingstrHtml@CTabStep@@QAE?AV?$CStringT@DV?$StrTraitMFC_DLL@DV?$ChTraitsCRT@D@ATL@@@@@ATL@@V23@@Z$32:
  0017d	8d 8d d4 fd ff
	ff		 lea	 ecx, DWORD PTR _m_pHtmlCodeNameArray$[ebp+120]
  00183	ff 25 00 00 00
	00		 jmp	 DWORD PTR __imp_??1?$CStringT@DV?$StrTraitMFC_DLL@DV?$ChTraitsCRT@D@ATL@@@@@ATL@@QAE@XZ
__unwindfunclet$?ParsingstrHtml@CTabStep@@QAE?AV?$CStringT@DV?$StrTraitMFC_DLL@DV?$ChTraitsCRT@D@ATL@@@@@ATL@@V23@@Z$33:
  00189	8d 8d d8 fd ff
	ff		 lea	 ecx, DWORD PTR _m_pHtmlCodeNameArray$[ebp+124]
  0018f	ff 25 00 00 00
	00		 jmp	 DWORD PTR __imp_??1?$CStringT@DV?$StrTraitMFC_DLL@DV?$ChTraitsCRT@D@ATL@@@@@ATL@@QAE@XZ
__unwindfunclet$?ParsingstrHtml@CTabStep@@QAE?AV?$CStringT@DV?$StrTraitMFC_DLL@DV?$ChTraitsCRT@D@ATL@@@@@ATL@@V23@@Z$34:
  00195	8d 8d dc fd ff
	ff		 lea	 ecx, DWORD PTR _m_pHtmlCodeNameArray$[ebp+128]
  0019b	ff 25 00 00 00
	00		 jmp	 DWORD PTR __imp_??1?$CStringT@DV?$StrTraitMFC_DLL@DV?$ChTraitsCRT@D@ATL@@@@@ATL@@QAE@XZ
__unwindfunclet$?ParsingstrHtml@CTabStep@@QAE?AV?$CStringT@DV?$StrTraitMFC_DLL@DV?$ChTraitsCRT@D@ATL@@@@@ATL@@V23@@Z$35:
  001a1	8d 8d e0 fd ff
	ff		 lea	 ecx, DWORD PTR _m_pHtmlCodeNameArray$[ebp+132]
  001a7	ff 25 00 00 00
	00		 jmp	 DWORD PTR __imp_??1?$CStringT@DV?$StrTraitMFC_DLL@DV?$ChTraitsCRT@D@ATL@@@@@ATL@@QAE@XZ
__unwindfunclet$?ParsingstrHtml@CTabStep@@QAE?AV?$CStringT@DV?$StrTraitMFC_DLL@DV?$ChTraitsCRT@D@ATL@@@@@ATL@@V23@@Z$36:
  001ad	8d 8d e4 fd ff
	ff		 lea	 ecx, DWORD PTR _m_pHtmlCodeNameArray$[ebp+136]
  001b3	ff 25 00 00 00
	00		 jmp	 DWORD PTR __imp_??1?$CStringT@DV?$StrTraitMFC_DLL@DV?$ChTraitsCRT@D@ATL@@@@@ATL@@QAE@XZ
__unwindfunclet$?ParsingstrHtml@CTabStep@@QAE?AV?$CStringT@DV?$StrTraitMFC_DLL@DV?$ChTraitsCRT@D@ATL@@@@@ATL@@V23@@Z$37:
  001b9	8d 8d e8 fd ff
	ff		 lea	 ecx, DWORD PTR _m_pHtmlCodeNameArray$[ebp+140]
  001bf	ff 25 00 00 00
	00		 jmp	 DWORD PTR __imp_??1?$CStringT@DV?$StrTraitMFC_DLL@DV?$ChTraitsCRT@D@ATL@@@@@ATL@@QAE@XZ
__unwindfunclet$?ParsingstrHtml@CTabStep@@QAE?AV?$CStringT@DV?$StrTraitMFC_DLL@DV?$ChTraitsCRT@D@ATL@@@@@ATL@@V23@@Z$38:
  001c5	8d 8d ec fd ff
	ff		 lea	 ecx, DWORD PTR _m_pHtmlCodeNameArray$[ebp+144]
  001cb	ff 25 00 00 00
	00		 jmp	 DWORD PTR __imp_??1?$CStringT@DV?$StrTraitMFC_DLL@DV?$ChTraitsCRT@D@ATL@@@@@ATL@@QAE@XZ
__unwindfunclet$?ParsingstrHtml@CTabStep@@QAE?AV?$CStringT@DV?$StrTraitMFC_DLL@DV?$ChTraitsCRT@D@ATL@@@@@ATL@@V23@@Z$39:
  001d1	8d 8d f0 fd ff
	ff		 lea	 ecx, DWORD PTR _m_pHtmlCodeNameArray$[ebp+148]
  001d7	ff 25 00 00 00
	00		 jmp	 DWORD PTR __imp_??1?$CStringT@DV?$StrTraitMFC_DLL@DV?$ChTraitsCRT@D@ATL@@@@@ATL@@QAE@XZ
__unwindfunclet$?ParsingstrHtml@CTabStep@@QAE?AV?$CStringT@DV?$StrTraitMFC_DLL@DV?$ChTraitsCRT@D@ATL@@@@@ATL@@V23@@Z$40:
  001dd	8d 8d f4 fd ff
	ff		 lea	 ecx, DWORD PTR _m_pHtmlCodeNameArray$[ebp+152]
  001e3	ff 25 00 00 00
	00		 jmp	 DWORD PTR __imp_??1?$CStringT@DV?$StrTraitMFC_DLL@DV?$ChTraitsCRT@D@ATL@@@@@ATL@@QAE@XZ
__unwindfunclet$?ParsingstrHtml@CTabStep@@QAE?AV?$CStringT@DV?$StrTraitMFC_DLL@DV?$ChTraitsCRT@D@ATL@@@@@ATL@@V23@@Z$41:
  001e9	8d 8d f8 fd ff
	ff		 lea	 ecx, DWORD PTR _m_pHtmlCodeNameArray$[ebp+156]
  001ef	ff 25 00 00 00
	00		 jmp	 DWORD PTR __imp_??1?$CStringT@DV?$StrTraitMFC_DLL@DV?$ChTraitsCRT@D@ATL@@@@@ATL@@QAE@XZ
__unwindfunclet$?ParsingstrHtml@CTabStep@@QAE?AV?$CStringT@DV?$StrTraitMFC_DLL@DV?$ChTraitsCRT@D@ATL@@@@@ATL@@V23@@Z$42:
  001f5	8d 8d fc fd ff
	ff		 lea	 ecx, DWORD PTR _m_pHtmlCodeNameArray$[ebp+160]
  001fb	ff 25 00 00 00
	00		 jmp	 DWORD PTR __imp_??1?$CStringT@DV?$StrTraitMFC_DLL@DV?$ChTraitsCRT@D@ATL@@@@@ATL@@QAE@XZ
__unwindfunclet$?ParsingstrHtml@CTabStep@@QAE?AV?$CStringT@DV?$StrTraitMFC_DLL@DV?$ChTraitsCRT@D@ATL@@@@@ATL@@V23@@Z$43:
  00201	8d 8d 00 fe ff
	ff		 lea	 ecx, DWORD PTR _m_pHtmlCodeNameArray$[ebp+164]
  00207	ff 25 00 00 00
	00		 jmp	 DWORD PTR __imp_??1?$CStringT@DV?$StrTraitMFC_DLL@DV?$ChTraitsCRT@D@ATL@@@@@ATL@@QAE@XZ
__unwindfunclet$?ParsingstrHtml@CTabStep@@QAE?AV?$CStringT@DV?$StrTraitMFC_DLL@DV?$ChTraitsCRT@D@ATL@@@@@ATL@@V23@@Z$44:
  0020d	8d 8d 04 fe ff
	ff		 lea	 ecx, DWORD PTR _m_pHtmlCodeNameArray$[ebp+168]
  00213	ff 25 00 00 00
	00		 jmp	 DWORD PTR __imp_??1?$CStringT@DV?$StrTraitMFC_DLL@DV?$ChTraitsCRT@D@ATL@@@@@ATL@@QAE@XZ
__unwindfunclet$?ParsingstrHtml@CTabStep@@QAE?AV?$CStringT@DV?$StrTraitMFC_DLL@DV?$ChTraitsCRT@D@ATL@@@@@ATL@@V23@@Z$45:
  00219	8d 8d 08 fe ff
	ff		 lea	 ecx, DWORD PTR _m_pHtmlCodeNameArray$[ebp+172]
  0021f	ff 25 00 00 00
	00		 jmp	 DWORD PTR __imp_??1?$CStringT@DV?$StrTraitMFC_DLL@DV?$ChTraitsCRT@D@ATL@@@@@ATL@@QAE@XZ
__unwindfunclet$?ParsingstrHtml@CTabStep@@QAE?AV?$CStringT@DV?$StrTraitMFC_DLL@DV?$ChTraitsCRT@D@ATL@@@@@ATL@@V23@@Z$46:
  00225	8d 8d 0c fe ff
	ff		 lea	 ecx, DWORD PTR _m_pHtmlCodeNameArray$[ebp+176]
  0022b	ff 25 00 00 00
	00		 jmp	 DWORD PTR __imp_??1?$CStringT@DV?$StrTraitMFC_DLL@DV?$ChTraitsCRT@D@ATL@@@@@ATL@@QAE@XZ
__unwindfunclet$?ParsingstrHtml@CTabStep@@QAE?AV?$CStringT@DV?$StrTraitMFC_DLL@DV?$ChTraitsCRT@D@ATL@@@@@ATL@@V23@@Z$47:
  00231	8d 8d 10 fe ff
	ff		 lea	 ecx, DWORD PTR _m_pHtmlCodeNameArray$[ebp+180]
  00237	ff 25 00 00 00
	00		 jmp	 DWORD PTR __imp_??1?$CStringT@DV?$StrTraitMFC_DLL@DV?$ChTraitsCRT@D@ATL@@@@@ATL@@QAE@XZ
__unwindfunclet$?ParsingstrHtml@CTabStep@@QAE?AV?$CStringT@DV?$StrTraitMFC_DLL@DV?$ChTraitsCRT@D@ATL@@@@@ATL@@V23@@Z$48:
  0023d	8d 8d 14 fe ff
	ff		 lea	 ecx, DWORD PTR _m_pHtmlCodeNameArray$[ebp+184]
  00243	ff 25 00 00 00
	00		 jmp	 DWORD PTR __imp_??1?$CStringT@DV?$StrTraitMFC_DLL@DV?$ChTraitsCRT@D@ATL@@@@@ATL@@QAE@XZ
__unwindfunclet$?ParsingstrHtml@CTabStep@@QAE?AV?$CStringT@DV?$StrTraitMFC_DLL@DV?$ChTraitsCRT@D@ATL@@@@@ATL@@V23@@Z$49:
  00249	8d 8d 18 fe ff
	ff		 lea	 ecx, DWORD PTR _m_pHtmlCodeNameArray$[ebp+188]
  0024f	ff 25 00 00 00
	00		 jmp	 DWORD PTR __imp_??1?$CStringT@DV?$StrTraitMFC_DLL@DV?$ChTraitsCRT@D@ATL@@@@@ATL@@QAE@XZ
__unwindfunclet$?ParsingstrHtml@CTabStep@@QAE?AV?$CStringT@DV?$StrTraitMFC_DLL@DV?$ChTraitsCRT@D@ATL@@@@@ATL@@V23@@Z$50:
  00255	8d 8d 1c fe ff
	ff		 lea	 ecx, DWORD PTR _m_pHtmlCodeNameArray$[ebp+192]
  0025b	ff 25 00 00 00
	00		 jmp	 DWORD PTR __imp_??1?$CStringT@DV?$StrTraitMFC_DLL@DV?$ChTraitsCRT@D@ATL@@@@@ATL@@QAE@XZ
__unwindfunclet$?ParsingstrHtml@CTabStep@@QAE?AV?$CStringT@DV?$StrTraitMFC_DLL@DV?$ChTraitsCRT@D@ATL@@@@@ATL@@V23@@Z$51:
  00261	8d 8d 20 fe ff
	ff		 lea	 ecx, DWORD PTR _m_pHtmlCodeNameArray$[ebp+196]
  00267	ff 25 00 00 00
	00		 jmp	 DWORD PTR __imp_??1?$CStringT@DV?$StrTraitMFC_DLL@DV?$ChTraitsCRT@D@ATL@@@@@ATL@@QAE@XZ
__unwindfunclet$?ParsingstrHtml@CTabStep@@QAE?AV?$CStringT@DV?$StrTraitMFC_DLL@DV?$ChTraitsCRT@D@ATL@@@@@ATL@@V23@@Z$52:
  0026d	8d 8d 24 fe ff
	ff		 lea	 ecx, DWORD PTR _m_pHtmlCodeNameArray$[ebp+200]
  00273	ff 25 00 00 00
	00		 jmp	 DWORD PTR __imp_??1?$CStringT@DV?$StrTraitMFC_DLL@DV?$ChTraitsCRT@D@ATL@@@@@ATL@@QAE@XZ
__unwindfunclet$?ParsingstrHtml@CTabStep@@QAE?AV?$CStringT@DV?$StrTraitMFC_DLL@DV?$ChTraitsCRT@D@ATL@@@@@ATL@@V23@@Z$53:
  00279	8d 8d 28 fe ff
	ff		 lea	 ecx, DWORD PTR _m_pHtmlCodeNameArray$[ebp+204]
  0027f	ff 25 00 00 00
	00		 jmp	 DWORD PTR __imp_??1?$CStringT@DV?$StrTraitMFC_DLL@DV?$ChTraitsCRT@D@ATL@@@@@ATL@@QAE@XZ
__unwindfunclet$?ParsingstrHtml@CTabStep@@QAE?AV?$CStringT@DV?$StrTraitMFC_DLL@DV?$ChTraitsCRT@D@ATL@@@@@ATL@@V23@@Z$54:
  00285	8d 8d 2c fe ff
	ff		 lea	 ecx, DWORD PTR _m_pHtmlCodeNameArray$[ebp+208]
  0028b	ff 25 00 00 00
	00		 jmp	 DWORD PTR __imp_??1?$CStringT@DV?$StrTraitMFC_DLL@DV?$ChTraitsCRT@D@ATL@@@@@ATL@@QAE@XZ
__unwindfunclet$?ParsingstrHtml@CTabStep@@QAE?AV?$CStringT@DV?$StrTraitMFC_DLL@DV?$ChTraitsCRT@D@ATL@@@@@ATL@@V23@@Z$55:
  00291	8d 8d 30 fe ff
	ff		 lea	 ecx, DWORD PTR _m_pHtmlCodeNameArray$[ebp+212]
  00297	ff 25 00 00 00
	00		 jmp	 DWORD PTR __imp_??1?$CStringT@DV?$StrTraitMFC_DLL@DV?$ChTraitsCRT@D@ATL@@@@@ATL@@QAE@XZ
__unwindfunclet$?ParsingstrHtml@CTabStep@@QAE?AV?$CStringT@DV?$StrTraitMFC_DLL@DV?$ChTraitsCRT@D@ATL@@@@@ATL@@V23@@Z$56:
  0029d	8d 8d 34 fe ff
	ff		 lea	 ecx, DWORD PTR _m_pHtmlCodeNameArray$[ebp+216]
  002a3	ff 25 00 00 00
	00		 jmp	 DWORD PTR __imp_??1?$CStringT@DV?$StrTraitMFC_DLL@DV?$ChTraitsCRT@D@ATL@@@@@ATL@@QAE@XZ
__unwindfunclet$?ParsingstrHtml@CTabStep@@QAE?AV?$CStringT@DV?$StrTraitMFC_DLL@DV?$ChTraitsCRT@D@ATL@@@@@ATL@@V23@@Z$57:
  002a9	8d 8d 38 fe ff
	ff		 lea	 ecx, DWORD PTR _m_pHtmlCodeNameArray$[ebp+220]
  002af	ff 25 00 00 00
	00		 jmp	 DWORD PTR __imp_??1?$CStringT@DV?$StrTraitMFC_DLL@DV?$ChTraitsCRT@D@ATL@@@@@ATL@@QAE@XZ
__unwindfunclet$?ParsingstrHtml@CTabStep@@QAE?AV?$CStringT@DV?$StrTraitMFC_DLL@DV?$ChTraitsCRT@D@ATL@@@@@ATL@@V23@@Z$58:
  002b5	8d 8d 3c fe ff
	ff		 lea	 ecx, DWORD PTR _m_pHtmlCodeNameArray$[ebp+224]
  002bb	ff 25 00 00 00
	00		 jmp	 DWORD PTR __imp_??1?$CStringT@DV?$StrTraitMFC_DLL@DV?$ChTraitsCRT@D@ATL@@@@@ATL@@QAE@XZ
__unwindfunclet$?ParsingstrHtml@CTabStep@@QAE?AV?$CStringT@DV?$StrTraitMFC_DLL@DV?$ChTraitsCRT@D@ATL@@@@@ATL@@V23@@Z$59:
  002c1	8d 8d 40 fe ff
	ff		 lea	 ecx, DWORD PTR _m_pHtmlCodeNameArray$[ebp+228]
  002c7	ff 25 00 00 00
	00		 jmp	 DWORD PTR __imp_??1?$CStringT@DV?$StrTraitMFC_DLL@DV?$ChTraitsCRT@D@ATL@@@@@ATL@@QAE@XZ
__unwindfunclet$?ParsingstrHtml@CTabStep@@QAE?AV?$CStringT@DV?$StrTraitMFC_DLL@DV?$ChTraitsCRT@D@ATL@@@@@ATL@@V23@@Z$60:
  002cd	8d 8d 44 fe ff
	ff		 lea	 ecx, DWORD PTR _m_pHtmlCodeNameArray$[ebp+232]
  002d3	ff 25 00 00 00
	00		 jmp	 DWORD PTR __imp_??1?$CStringT@DV?$StrTraitMFC_DLL@DV?$ChTraitsCRT@D@ATL@@@@@ATL@@QAE@XZ
__unwindfunclet$?ParsingstrHtml@CTabStep@@QAE?AV?$CStringT@DV?$StrTraitMFC_DLL@DV?$ChTraitsCRT@D@ATL@@@@@ATL@@V23@@Z$61:
  002d9	8d 8d 48 fe ff
	ff		 lea	 ecx, DWORD PTR _m_pHtmlCodeNameArray$[ebp+236]
  002df	ff 25 00 00 00
	00		 jmp	 DWORD PTR __imp_??1?$CStringT@DV?$StrTraitMFC_DLL@DV?$ChTraitsCRT@D@ATL@@@@@ATL@@QAE@XZ
__unwindfunclet$?ParsingstrHtml@CTabStep@@QAE?AV?$CStringT@DV?$StrTraitMFC_DLL@DV?$ChTraitsCRT@D@ATL@@@@@ATL@@V23@@Z$62:
  002e5	8d 8d 4c fe ff
	ff		 lea	 ecx, DWORD PTR _m_pHtmlCodeNameArray$[ebp+240]
  002eb	ff 25 00 00 00
	00		 jmp	 DWORD PTR __imp_??1?$CStringT@DV?$StrTraitMFC_DLL@DV?$ChTraitsCRT@D@ATL@@@@@ATL@@QAE@XZ
__unwindfunclet$?ParsingstrHtml@CTabStep@@QAE?AV?$CStringT@DV?$StrTraitMFC_DLL@DV?$ChTraitsCRT@D@ATL@@@@@ATL@@V23@@Z$63:
  002f1	8d 8d 50 fe ff
	ff		 lea	 ecx, DWORD PTR _m_pHtmlCodeNameArray$[ebp+244]
  002f7	ff 25 00 00 00
	00		 jmp	 DWORD PTR __imp_??1?$CStringT@DV?$StrTraitMFC_DLL@DV?$ChTraitsCRT@D@ATL@@@@@ATL@@QAE@XZ
__unwindfunclet$?ParsingstrHtml@CTabStep@@QAE?AV?$CStringT@DV?$StrTraitMFC_DLL@DV?$ChTraitsCRT@D@ATL@@@@@ATL@@V23@@Z$64:
  002fd	8d 8d 54 fe ff
	ff		 lea	 ecx, DWORD PTR _m_pHtmlCodeNameArray$[ebp+248]
  00303	ff 25 00 00 00
	00		 jmp	 DWORD PTR __imp_??1?$CStringT@DV?$StrTraitMFC_DLL@DV?$ChTraitsCRT@D@ATL@@@@@ATL@@QAE@XZ
__unwindfunclet$?ParsingstrHtml@CTabStep@@QAE?AV?$CStringT@DV?$StrTraitMFC_DLL@DV?$ChTraitsCRT@D@ATL@@@@@ATL@@V23@@Z$65:
  00309	8d 8d 58 fe ff
	ff		 lea	 ecx, DWORD PTR _m_pHtmlCodeNameArray$[ebp+252]
  0030f	ff 25 00 00 00
	00		 jmp	 DWORD PTR __imp_??1?$CStringT@DV?$StrTraitMFC_DLL@DV?$ChTraitsCRT@D@ATL@@@@@ATL@@QAE@XZ
__unwindfunclet$?ParsingstrHtml@CTabStep@@QAE?AV?$CStringT@DV?$StrTraitMFC_DLL@DV?$ChTraitsCRT@D@ATL@@@@@ATL@@V23@@Z$66:
  00315	8d 8d 5c fe ff
	ff		 lea	 ecx, DWORD PTR _m_pHtmlCodeNameArray$[ebp+256]
  0031b	ff 25 00 00 00
	00		 jmp	 DWORD PTR __imp_??1?$CStringT@DV?$StrTraitMFC_DLL@DV?$ChTraitsCRT@D@ATL@@@@@ATL@@QAE@XZ
__unwindfunclet$?ParsingstrHtml@CTabStep@@QAE?AV?$CStringT@DV?$StrTraitMFC_DLL@DV?$ChTraitsCRT@D@ATL@@@@@ATL@@V23@@Z$67:
  00321	8d 8d 60 fe ff
	ff		 lea	 ecx, DWORD PTR _m_pHtmlCodeNameArray$[ebp+260]
  00327	ff 25 00 00 00
	00		 jmp	 DWORD PTR __imp_??1?$CStringT@DV?$StrTraitMFC_DLL@DV?$ChTraitsCRT@D@ATL@@@@@ATL@@QAE@XZ
__unwindfunclet$?ParsingstrHtml@CTabStep@@QAE?AV?$CStringT@DV?$StrTraitMFC_DLL@DV?$ChTraitsCRT@D@ATL@@@@@ATL@@V23@@Z$68:
  0032d	8d 8d 64 fe ff
	ff		 lea	 ecx, DWORD PTR _m_pHtmlCodeNameArray$[ebp+264]
  00333	ff 25 00 00 00
	00		 jmp	 DWORD PTR __imp_??1?$CStringT@DV?$StrTraitMFC_DLL@DV?$ChTraitsCRT@D@ATL@@@@@ATL@@QAE@XZ
__unwindfunclet$?ParsingstrHtml@CTabStep@@QAE?AV?$CStringT@DV?$StrTraitMFC_DLL@DV?$ChTraitsCRT@D@ATL@@@@@ATL@@V23@@Z$69:
  00339	8d 8d 68 fe ff
	ff		 lea	 ecx, DWORD PTR _m_pHtmlCodeNameArray$[ebp+268]
  0033f	ff 25 00 00 00
	00		 jmp	 DWORD PTR __imp_??1?$CStringT@DV?$StrTraitMFC_DLL@DV?$ChTraitsCRT@D@ATL@@@@@ATL@@QAE@XZ
__unwindfunclet$?ParsingstrHtml@CTabStep@@QAE?AV?$CStringT@DV?$StrTraitMFC_DLL@DV?$ChTraitsCRT@D@ATL@@@@@ATL@@V23@@Z$70:
  00345	8d 8d 6c fe ff
	ff		 lea	 ecx, DWORD PTR _m_pHtmlCodeNameArray$[ebp+272]
  0034b	ff 25 00 00 00
	00		 jmp	 DWORD PTR __imp_??1?$CStringT@DV?$StrTraitMFC_DLL@DV?$ChTraitsCRT@D@ATL@@@@@ATL@@QAE@XZ
__unwindfunclet$?ParsingstrHtml@CTabStep@@QAE?AV?$CStringT@DV?$StrTraitMFC_DLL@DV?$ChTraitsCRT@D@ATL@@@@@ATL@@V23@@Z$71:
  00351	8d 8d 70 fe ff
	ff		 lea	 ecx, DWORD PTR _m_pHtmlCodeNameArray$[ebp+276]
  00357	ff 25 00 00 00
	00		 jmp	 DWORD PTR __imp_??1?$CStringT@DV?$StrTraitMFC_DLL@DV?$ChTraitsCRT@D@ATL@@@@@ATL@@QAE@XZ
__unwindfunclet$?ParsingstrHtml@CTabStep@@QAE?AV?$CStringT@DV?$StrTraitMFC_DLL@DV?$ChTraitsCRT@D@ATL@@@@@ATL@@V23@@Z$72:
  0035d	8d 8d 74 fe ff
	ff		 lea	 ecx, DWORD PTR _m_pHtmlCodeNameArray$[ebp+280]
  00363	ff 25 00 00 00
	00		 jmp	 DWORD PTR __imp_??1?$CStringT@DV?$StrTraitMFC_DLL@DV?$ChTraitsCRT@D@ATL@@@@@ATL@@QAE@XZ
__unwindfunclet$?ParsingstrHtml@CTabStep@@QAE?AV?$CStringT@DV?$StrTraitMFC_DLL@DV?$ChTraitsCRT@D@ATL@@@@@ATL@@V23@@Z$73:
  00369	8d 8d 78 fe ff
	ff		 lea	 ecx, DWORD PTR _m_pHtmlCodeNameArray$[ebp+284]
  0036f	ff 25 00 00 00
	00		 jmp	 DWORD PTR __imp_??1?$CStringT@DV?$StrTraitMFC_DLL@DV?$ChTraitsCRT@D@ATL@@@@@ATL@@QAE@XZ
__unwindfunclet$?ParsingstrHtml@CTabStep@@QAE?AV?$CStringT@DV?$StrTraitMFC_DLL@DV?$ChTraitsCRT@D@ATL@@@@@ATL@@V23@@Z$74:
  00375	8d 8d 7c fe ff
	ff		 lea	 ecx, DWORD PTR _m_pHtmlCodeNameArray$[ebp+288]
  0037b	ff 25 00 00 00
	00		 jmp	 DWORD PTR __imp_??1?$CStringT@DV?$StrTraitMFC_DLL@DV?$ChTraitsCRT@D@ATL@@@@@ATL@@QAE@XZ
__unwindfunclet$?ParsingstrHtml@CTabStep@@QAE?AV?$CStringT@DV?$StrTraitMFC_DLL@DV?$ChTraitsCRT@D@ATL@@@@@ATL@@V23@@Z$75:
  00381	8d 8d 80 fe ff
	ff		 lea	 ecx, DWORD PTR _m_pHtmlCodeNameArray$[ebp+292]
  00387	ff 25 00 00 00
	00		 jmp	 DWORD PTR __imp_??1?$CStringT@DV?$StrTraitMFC_DLL@DV?$ChTraitsCRT@D@ATL@@@@@ATL@@QAE@XZ
__unwindfunclet$?ParsingstrHtml@CTabStep@@QAE?AV?$CStringT@DV?$StrTraitMFC_DLL@DV?$ChTraitsCRT@D@ATL@@@@@ATL@@V23@@Z$76:
  0038d	8d 8d 84 fe ff
	ff		 lea	 ecx, DWORD PTR _m_pHtmlCodeNameArray$[ebp+296]
  00393	ff 25 00 00 00
	00		 jmp	 DWORD PTR __imp_??1?$CStringT@DV?$StrTraitMFC_DLL@DV?$ChTraitsCRT@D@ATL@@@@@ATL@@QAE@XZ
__unwindfunclet$?ParsingstrHtml@CTabStep@@QAE?AV?$CStringT@DV?$StrTraitMFC_DLL@DV?$ChTraitsCRT@D@ATL@@@@@ATL@@V23@@Z$77:
  00399	8d 8d 88 fe ff
	ff		 lea	 ecx, DWORD PTR _m_pHtmlCodeNameArray$[ebp+300]
  0039f	ff 25 00 00 00
	00		 jmp	 DWORD PTR __imp_??1?$CStringT@DV?$StrTraitMFC_DLL@DV?$ChTraitsCRT@D@ATL@@@@@ATL@@QAE@XZ
__unwindfunclet$?ParsingstrHtml@CTabStep@@QAE?AV?$CStringT@DV?$StrTraitMFC_DLL@DV?$ChTraitsCRT@D@ATL@@@@@ATL@@V23@@Z$78:
  003a5	8d 8d 8c fe ff
	ff		 lea	 ecx, DWORD PTR _m_pHtmlCodeNameArray$[ebp+304]
  003ab	ff 25 00 00 00
	00		 jmp	 DWORD PTR __imp_??1?$CStringT@DV?$StrTraitMFC_DLL@DV?$ChTraitsCRT@D@ATL@@@@@ATL@@QAE@XZ
__unwindfunclet$?ParsingstrHtml@CTabStep@@QAE?AV?$CStringT@DV?$StrTraitMFC_DLL@DV?$ChTraitsCRT@D@ATL@@@@@ATL@@V23@@Z$79:
  003b1	8d 8d 90 fe ff
	ff		 lea	 ecx, DWORD PTR _m_pHtmlCodeNameArray$[ebp+308]
  003b7	ff 25 00 00 00
	00		 jmp	 DWORD PTR __imp_??1?$CStringT@DV?$StrTraitMFC_DLL@DV?$ChTraitsCRT@D@ATL@@@@@ATL@@QAE@XZ
__unwindfunclet$?ParsingstrHtml@CTabStep@@QAE?AV?$CStringT@DV?$StrTraitMFC_DLL@DV?$ChTraitsCRT@D@ATL@@@@@ATL@@V23@@Z$80:
  003bd	8d 8d 94 fe ff
	ff		 lea	 ecx, DWORD PTR _m_pHtmlCodeNameArray$[ebp+312]
  003c3	ff 25 00 00 00
	00		 jmp	 DWORD PTR __imp_??1?$CStringT@DV?$StrTraitMFC_DLL@DV?$ChTraitsCRT@D@ATL@@@@@ATL@@QAE@XZ
__unwindfunclet$?ParsingstrHtml@CTabStep@@QAE?AV?$CStringT@DV?$StrTraitMFC_DLL@DV?$ChTraitsCRT@D@ATL@@@@@ATL@@V23@@Z$81:
  003c9	8d 8d 98 fe ff
	ff		 lea	 ecx, DWORD PTR _m_pHtmlCodeNameArray$[ebp+316]
  003cf	ff 25 00 00 00
	00		 jmp	 DWORD PTR __imp_??1?$CStringT@DV?$StrTraitMFC_DLL@DV?$ChTraitsCRT@D@ATL@@@@@ATL@@QAE@XZ
__unwindfunclet$?ParsingstrHtml@CTabStep@@QAE?AV?$CStringT@DV?$StrTraitMFC_DLL@DV?$ChTraitsCRT@D@ATL@@@@@ATL@@V23@@Z$82:
  003d5	8d 8d 9c fe ff
	ff		 lea	 ecx, DWORD PTR _m_pHtmlCodeNameArray$[ebp+320]
  003db	ff 25 00 00 00
	00		 jmp	 DWORD PTR __imp_??1?$CStringT@DV?$StrTraitMFC_DLL@DV?$ChTraitsCRT@D@ATL@@@@@ATL@@QAE@XZ
__unwindfunclet$?ParsingstrHtml@CTabStep@@QAE?AV?$CStringT@DV?$StrTraitMFC_DLL@DV?$ChTraitsCRT@D@ATL@@@@@ATL@@V23@@Z$83:
  003e1	8d 8d a0 fe ff
	ff		 lea	 ecx, DWORD PTR _m_pHtmlCodeNameArray$[ebp+324]
  003e7	ff 25 00 00 00
	00		 jmp	 DWORD PTR __imp_??1?$CStringT@DV?$StrTraitMFC_DLL@DV?$ChTraitsCRT@D@ATL@@@@@ATL@@QAE@XZ
__unwindfunclet$?ParsingstrHtml@CTabStep@@QAE?AV?$CStringT@DV?$StrTraitMFC_DLL@DV?$ChTraitsCRT@D@ATL@@@@@ATL@@V23@@Z$84:
  003ed	8d 8d a4 fe ff
	ff		 lea	 ecx, DWORD PTR _m_pHtmlCodeNameArray$[ebp+328]
  003f3	ff 25 00 00 00
	00		 jmp	 DWORD PTR __imp_??1?$CStringT@DV?$StrTraitMFC_DLL@DV?$ChTraitsCRT@D@ATL@@@@@ATL@@QAE@XZ
__unwindfunclet$?ParsingstrHtml@CTabStep@@QAE?AV?$CStringT@DV?$StrTraitMFC_DLL@DV?$ChTraitsCRT@D@ATL@@@@@ATL@@V23@@Z$85:
  003f9	8d 8d a8 fe ff
	ff		 lea	 ecx, DWORD PTR _m_pHtmlCodeNameArray$[ebp+332]
  003ff	ff 25 00 00 00
	00		 jmp	 DWORD PTR __imp_??1?$CStringT@DV?$StrTraitMFC_DLL@DV?$ChTraitsCRT@D@ATL@@@@@ATL@@QAE@XZ
__unwindfunclet$?ParsingstrHtml@CTabStep@@QAE?AV?$CStringT@DV?$StrTraitMFC_DLL@DV?$ChTraitsCRT@D@ATL@@@@@ATL@@V23@@Z$86:
  00405	8d 8d ac fe ff
	ff		 lea	 ecx, DWORD PTR _m_pHtmlCodeNameArray$[ebp+336]
  0040b	ff 25 00 00 00
	00		 jmp	 DWORD PTR __imp_??1?$CStringT@DV?$StrTraitMFC_DLL@DV?$ChTraitsCRT@D@ATL@@@@@ATL@@QAE@XZ
__unwindfunclet$?ParsingstrHtml@CTabStep@@QAE?AV?$CStringT@DV?$StrTraitMFC_DLL@DV?$ChTraitsCRT@D@ATL@@@@@ATL@@V23@@Z$87:
  00411	8d 8d b0 fe ff
	ff		 lea	 ecx, DWORD PTR _m_pHtmlCodeNameArray$[ebp+340]
  00417	ff 25 00 00 00
	00		 jmp	 DWORD PTR __imp_??1?$CStringT@DV?$StrTraitMFC_DLL@DV?$ChTraitsCRT@D@ATL@@@@@ATL@@QAE@XZ
__unwindfunclet$?ParsingstrHtml@CTabStep@@QAE?AV?$CStringT@DV?$StrTraitMFC_DLL@DV?$ChTraitsCRT@D@ATL@@@@@ATL@@V23@@Z$88:
  0041d	8d 8d b4 fe ff
	ff		 lea	 ecx, DWORD PTR _m_pHtmlCodeNameArray$[ebp+344]
  00423	ff 25 00 00 00
	00		 jmp	 DWORD PTR __imp_??1?$CStringT@DV?$StrTraitMFC_DLL@DV?$ChTraitsCRT@D@ATL@@@@@ATL@@QAE@XZ
__unwindfunclet$?ParsingstrHtml@CTabStep@@QAE?AV?$CStringT@DV?$StrTraitMFC_DLL@DV?$ChTraitsCRT@D@ATL@@@@@ATL@@V23@@Z$89:
  00429	8d 8d b8 fe ff
	ff		 lea	 ecx, DWORD PTR _m_pHtmlCodeNameArray$[ebp+348]
  0042f	ff 25 00 00 00
	00		 jmp	 DWORD PTR __imp_??1?$CStringT@DV?$StrTraitMFC_DLL@DV?$ChTraitsCRT@D@ATL@@@@@ATL@@QAE@XZ
__unwindfunclet$?ParsingstrHtml@CTabStep@@QAE?AV?$CStringT@DV?$StrTraitMFC_DLL@DV?$ChTraitsCRT@D@ATL@@@@@ATL@@V23@@Z$90:
  00435	8d 8d bc fe ff
	ff		 lea	 ecx, DWORD PTR _m_pHtmlCodeNameArray$[ebp+352]
  0043b	ff 25 00 00 00
	00		 jmp	 DWORD PTR __imp_??1?$CStringT@DV?$StrTraitMFC_DLL@DV?$ChTraitsCRT@D@ATL@@@@@ATL@@QAE@XZ
__unwindfunclet$?ParsingstrHtml@CTabStep@@QAE?AV?$CStringT@DV?$StrTraitMFC_DLL@DV?$ChTraitsCRT@D@ATL@@@@@ATL@@V23@@Z$91:
  00441	8d 8d c0 fe ff
	ff		 lea	 ecx, DWORD PTR _m_pHtmlCodeNameArray$[ebp+356]
  00447	ff 25 00 00 00
	00		 jmp	 DWORD PTR __imp_??1?$CStringT@DV?$StrTraitMFC_DLL@DV?$ChTraitsCRT@D@ATL@@@@@ATL@@QAE@XZ
__unwindfunclet$?ParsingstrHtml@CTabStep@@QAE?AV?$CStringT@DV?$StrTraitMFC_DLL@DV?$ChTraitsCRT@D@ATL@@@@@ATL@@V23@@Z$92:
  0044d	8d 8d c4 fe ff
	ff		 lea	 ecx, DWORD PTR _m_pHtmlCodeNameArray$[ebp+360]
  00453	ff 25 00 00 00
	00		 jmp	 DWORD PTR __imp_??1?$CStringT@DV?$StrTraitMFC_DLL@DV?$ChTraitsCRT@D@ATL@@@@@ATL@@QAE@XZ
__unwindfunclet$?ParsingstrHtml@CTabStep@@QAE?AV?$CStringT@DV?$StrTraitMFC_DLL@DV?$ChTraitsCRT@D@ATL@@@@@ATL@@V23@@Z$93:
  00459	8d 8d c8 fe ff
	ff		 lea	 ecx, DWORD PTR _m_pHtmlCodeNameArray$[ebp+364]
  0045f	ff 25 00 00 00
	00		 jmp	 DWORD PTR __imp_??1?$CStringT@DV?$StrTraitMFC_DLL@DV?$ChTraitsCRT@D@ATL@@@@@ATL@@QAE@XZ
__unwindfunclet$?ParsingstrHtml@CTabStep@@QAE?AV?$CStringT@DV?$StrTraitMFC_DLL@DV?$ChTraitsCRT@D@ATL@@@@@ATL@@V23@@Z$94:
  00465	8d 8d cc fe ff
	ff		 lea	 ecx, DWORD PTR _m_pHtmlCodeNameArray$[ebp+368]
  0046b	ff 25 00 00 00
	00		 jmp	 DWORD PTR __imp_??1?$CStringT@DV?$StrTraitMFC_DLL@DV?$ChTraitsCRT@D@ATL@@@@@ATL@@QAE@XZ
__unwindfunclet$?ParsingstrHtml@CTabStep@@QAE?AV?$CStringT@DV?$StrTraitMFC_DLL@DV?$ChTraitsCRT@D@ATL@@@@@ATL@@V23@@Z$95:
  00471	8d 8d d0 fe ff
	ff		 lea	 ecx, DWORD PTR _m_pHtmlCodeNameArray$[ebp+372]
  00477	ff 25 00 00 00
	00		 jmp	 DWORD PTR __imp_??1?$CStringT@DV?$StrTraitMFC_DLL@DV?$ChTraitsCRT@D@ATL@@@@@ATL@@QAE@XZ
__unwindfunclet$?ParsingstrHtml@CTabStep@@QAE?AV?$CStringT@DV?$StrTraitMFC_DLL@DV?$ChTraitsCRT@D@ATL@@@@@ATL@@V23@@Z$96:
  0047d	8d 8d d4 fe ff
	ff		 lea	 ecx, DWORD PTR _m_pHtmlCodeNameArray$[ebp+376]
  00483	ff 25 00 00 00
	00		 jmp	 DWORD PTR __imp_??1?$CStringT@DV?$StrTraitMFC_DLL@DV?$ChTraitsCRT@D@ATL@@@@@ATL@@QAE@XZ
__unwindfunclet$?ParsingstrHtml@CTabStep@@QAE?AV?$CStringT@DV?$StrTraitMFC_DLL@DV?$ChTraitsCRT@D@ATL@@@@@ATL@@V23@@Z$97:
  00489	8d 8d d8 fe ff
	ff		 lea	 ecx, DWORD PTR _m_pHtmlCodeNameArray$[ebp+380]
  0048f	ff 25 00 00 00
	00		 jmp	 DWORD PTR __imp_??1?$CStringT@DV?$StrTraitMFC_DLL@DV?$ChTraitsCRT@D@ATL@@@@@ATL@@QAE@XZ
__unwindfunclet$?ParsingstrHtml@CTabStep@@QAE?AV?$CStringT@DV?$StrTraitMFC_DLL@DV?$ChTraitsCRT@D@ATL@@@@@ATL@@V23@@Z$98:
  00495	8d 8d dc fe ff
	ff		 lea	 ecx, DWORD PTR _m_pHtmlCodeNameArray$[ebp+384]
  0049b	ff 25 00 00 00
	00		 jmp	 DWORD PTR __imp_??1?$CStringT@DV?$StrTraitMFC_DLL@DV?$ChTraitsCRT@D@ATL@@@@@ATL@@QAE@XZ
__unwindfunclet$?ParsingstrHtml@CTabStep@@QAE?AV?$CStringT@DV?$StrTraitMFC_DLL@DV?$ChTraitsCRT@D@ATL@@@@@ATL@@V23@@Z$99:
  004a1	8d 8d e0 fe ff
	ff		 lea	 ecx, DWORD PTR _m_pHtmlCodeNameArray$[ebp+388]
  004a7	ff 25 00 00 00
	00		 jmp	 DWORD PTR __imp_??1?$CStringT@DV?$StrTraitMFC_DLL@DV?$ChTraitsCRT@D@ATL@@@@@ATL@@QAE@XZ
__unwindfunclet$?ParsingstrHtml@CTabStep@@QAE?AV?$CStringT@DV?$StrTraitMFC_DLL@DV?$ChTraitsCRT@D@ATL@@@@@ATL@@V23@@Z$100:
  004ad	8d 8d e4 fe ff
	ff		 lea	 ecx, DWORD PTR _m_pHtmlCodeNameArray$[ebp+392]
  004b3	ff 25 00 00 00
	00		 jmp	 DWORD PTR __imp_??1?$CStringT@DV?$StrTraitMFC_DLL@DV?$ChTraitsCRT@D@ATL@@@@@ATL@@QAE@XZ
__unwindfunclet$?ParsingstrHtml@CTabStep@@QAE?AV?$CStringT@DV?$StrTraitMFC_DLL@DV?$ChTraitsCRT@D@ATL@@@@@ATL@@V23@@Z$101:
  004b9	8d 8d e8 fe ff
	ff		 lea	 ecx, DWORD PTR _m_pHtmlCodeNameArray$[ebp+396]
  004bf	ff 25 00 00 00
	00		 jmp	 DWORD PTR __imp_??1?$CStringT@DV?$StrTraitMFC_DLL@DV?$ChTraitsCRT@D@ATL@@@@@ATL@@QAE@XZ
__unwindfunclet$?ParsingstrHtml@CTabStep@@QAE?AV?$CStringT@DV?$StrTraitMFC_DLL@DV?$ChTraitsCRT@D@ATL@@@@@ATL@@V23@@Z$102:
  004c5	8d 8d ec fe ff
	ff		 lea	 ecx, DWORD PTR _m_pHtmlCodeNameArray$[ebp+400]
  004cb	ff 25 00 00 00
	00		 jmp	 DWORD PTR __imp_??1?$CStringT@DV?$StrTraitMFC_DLL@DV?$ChTraitsCRT@D@ATL@@@@@ATL@@QAE@XZ
__unwindfunclet$?ParsingstrHtml@CTabStep@@QAE?AV?$CStringT@DV?$StrTraitMFC_DLL@DV?$ChTraitsCRT@D@ATL@@@@@ATL@@V23@@Z$103:
  004d1	8d 8d f0 fe ff
	ff		 lea	 ecx, DWORD PTR _m_pHtmlCodeNameArray$[ebp+404]
  004d7	ff 25 00 00 00
	00		 jmp	 DWORD PTR __imp_??1?$CStringT@DV?$StrTraitMFC_DLL@DV?$ChTraitsCRT@D@ATL@@@@@ATL@@QAE@XZ
__unwindfunclet$?ParsingstrHtml@CTabStep@@QAE?AV?$CStringT@DV?$StrTraitMFC_DLL@DV?$ChTraitsCRT@D@ATL@@@@@ATL@@V23@@Z$104:
  004dd	8d 8d f4 fe ff
	ff		 lea	 ecx, DWORD PTR _m_pHtmlCodeNameArray$[ebp+408]
  004e3	ff 25 00 00 00
	00		 jmp	 DWORD PTR __imp_??1?$CStringT@DV?$StrTraitMFC_DLL@DV?$ChTraitsCRT@D@ATL@@@@@ATL@@QAE@XZ
__unwindfunclet$?ParsingstrHtml@CTabStep@@QAE?AV?$CStringT@DV?$StrTraitMFC_DLL@DV?$ChTraitsCRT@D@ATL@@@@@ATL@@V23@@Z$105:
  004e9	8d 8d f8 fe ff
	ff		 lea	 ecx, DWORD PTR _m_pHtmlCodeNameArray$[ebp+412]
  004ef	ff 25 00 00 00
	00		 jmp	 DWORD PTR __imp_??1?$CStringT@DV?$StrTraitMFC_DLL@DV?$ChTraitsCRT@D@ATL@@@@@ATL@@QAE@XZ
__unwindfunclet$?ParsingstrHtml@CTabStep@@QAE?AV?$CStringT@DV?$StrTraitMFC_DLL@DV?$ChTraitsCRT@D@ATL@@@@@ATL@@V23@@Z$106:
  004f5	8d 8d fc fe ff
	ff		 lea	 ecx, DWORD PTR _m_pHtmlCodeNameArray$[ebp+416]
  004fb	ff 25 00 00 00
	00		 jmp	 DWORD PTR __imp_??1?$CStringT@DV?$StrTraitMFC_DLL@DV?$ChTraitsCRT@D@ATL@@@@@ATL@@QAE@XZ
__unwindfunclet$?ParsingstrHtml@CTabStep@@QAE?AV?$CStringT@DV?$StrTraitMFC_DLL@DV?$ChTraitsCRT@D@ATL@@@@@ATL@@V23@@Z$107:
  00501	8d 8d 00 ff ff
	ff		 lea	 ecx, DWORD PTR _m_pHtmlCodeNameArray$[ebp+420]
  00507	ff 25 00 00 00
	00		 jmp	 DWORD PTR __imp_??1?$CStringT@DV?$StrTraitMFC_DLL@DV?$ChTraitsCRT@D@ATL@@@@@ATL@@QAE@XZ
__unwindfunclet$?ParsingstrHtml@CTabStep@@QAE?AV?$CStringT@DV?$StrTraitMFC_DLL@DV?$ChTraitsCRT@D@ATL@@@@@ATL@@V23@@Z$108:
  0050d	8d 8d 04 ff ff
	ff		 lea	 ecx, DWORD PTR _m_pHtmlCodeNameArray$[ebp+424]
  00513	ff 25 00 00 00
	00		 jmp	 DWORD PTR __imp_??1?$CStringT@DV?$StrTraitMFC_DLL@DV?$ChTraitsCRT@D@ATL@@@@@ATL@@QAE@XZ
__unwindfunclet$?ParsingstrHtml@CTabStep@@QAE?AV?$CStringT@DV?$StrTraitMFC_DLL@DV?$ChTraitsCRT@D@ATL@@@@@ATL@@V23@@Z$109:
  00519	8d 8d 08 ff ff
	ff		 lea	 ecx, DWORD PTR _m_pHtmlCodeNameArray$[ebp+428]
  0051f	ff 25 00 00 00
	00		 jmp	 DWORD PTR __imp_??1?$CStringT@DV?$StrTraitMFC_DLL@DV?$ChTraitsCRT@D@ATL@@@@@ATL@@QAE@XZ
__unwindfunclet$?ParsingstrHtml@CTabStep@@QAE?AV?$CStringT@DV?$StrTraitMFC_DLL@DV?$ChTraitsCRT@D@ATL@@@@@ATL@@V23@@Z$110:
  00525	8d 8d 0c ff ff
	ff		 lea	 ecx, DWORD PTR _m_pHtmlCodeNameArray$[ebp+432]
  0052b	ff 25 00 00 00
	00		 jmp	 DWORD PTR __imp_??1?$CStringT@DV?$StrTraitMFC_DLL@DV?$ChTraitsCRT@D@ATL@@@@@ATL@@QAE@XZ
__unwindfunclet$?ParsingstrHtml@CTabStep@@QAE?AV?$CStringT@DV?$StrTraitMFC_DLL@DV?$ChTraitsCRT@D@ATL@@@@@ATL@@V23@@Z$111:
  00531	8d 8d 10 ff ff
	ff		 lea	 ecx, DWORD PTR _m_pHtmlCodeNameArray$[ebp+436]
  00537	ff 25 00 00 00
	00		 jmp	 DWORD PTR __imp_??1?$CStringT@DV?$StrTraitMFC_DLL@DV?$ChTraitsCRT@D@ATL@@@@@ATL@@QAE@XZ
__unwindfunclet$?ParsingstrHtml@CTabStep@@QAE?AV?$CStringT@DV?$StrTraitMFC_DLL@DV?$ChTraitsCRT@D@ATL@@@@@ATL@@V23@@Z$112:
  0053d	8d 8d 14 ff ff
	ff		 lea	 ecx, DWORD PTR _m_pHtmlCodeNameArray$[ebp+440]
  00543	ff 25 00 00 00
	00		 jmp	 DWORD PTR __imp_??1?$CStringT@DV?$StrTraitMFC_DLL@DV?$ChTraitsCRT@D@ATL@@@@@ATL@@QAE@XZ
__unwindfunclet$?ParsingstrHtml@CTabStep@@QAE?AV?$CStringT@DV?$StrTraitMFC_DLL@DV?$ChTraitsCRT@D@ATL@@@@@ATL@@V23@@Z$113:
  00549	8d 8d 18 ff ff
	ff		 lea	 ecx, DWORD PTR _m_pHtmlCodeNameArray$[ebp+444]
  0054f	ff 25 00 00 00
	00		 jmp	 DWORD PTR __imp_??1?$CStringT@DV?$StrTraitMFC_DLL@DV?$ChTraitsCRT@D@ATL@@@@@ATL@@QAE@XZ
__unwindfunclet$?ParsingstrHtml@CTabStep@@QAE?AV?$CStringT@DV?$StrTraitMFC_DLL@DV?$ChTraitsCRT@D@ATL@@@@@ATL@@V23@@Z$114:
  00555	8d 8d 1c ff ff
	ff		 lea	 ecx, DWORD PTR _m_pHtmlCodeNameArray$[ebp+448]
  0055b	ff 25 00 00 00
	00		 jmp	 DWORD PTR __imp_??1?$CStringT@DV?$StrTraitMFC_DLL@DV?$ChTraitsCRT@D@ATL@@@@@ATL@@QAE@XZ
__unwindfunclet$?ParsingstrHtml@CTabStep@@QAE?AV?$CStringT@DV?$StrTraitMFC_DLL@DV?$ChTraitsCRT@D@ATL@@@@@ATL@@V23@@Z$115:
  00561	8d 8d 20 ff ff
	ff		 lea	 ecx, DWORD PTR _m_pHtmlCodeNameArray$[ebp+452]
  00567	ff 25 00 00 00
	00		 jmp	 DWORD PTR __imp_??1?$CStringT@DV?$StrTraitMFC_DLL@DV?$ChTraitsCRT@D@ATL@@@@@ATL@@QAE@XZ
__unwindfunclet$?ParsingstrHtml@CTabStep@@QAE?AV?$CStringT@DV?$StrTraitMFC_DLL@DV?$ChTraitsCRT@D@ATL@@@@@ATL@@V23@@Z$116:
  0056d	8d 8d 24 ff ff
	ff		 lea	 ecx, DWORD PTR _m_pHtmlCodeNameArray$[ebp+456]
  00573	ff 25 00 00 00
	00		 jmp	 DWORD PTR __imp_??1?$CStringT@DV?$StrTraitMFC_DLL@DV?$ChTraitsCRT@D@ATL@@@@@ATL@@QAE@XZ
__unwindfunclet$?ParsingstrHtml@CTabStep@@QAE?AV?$CStringT@DV?$StrTraitMFC_DLL@DV?$ChTraitsCRT@D@ATL@@@@@ATL@@V23@@Z$117:
  00579	8d 8d 28 ff ff
	ff		 lea	 ecx, DWORD PTR _m_pHtmlCodeNameArray$[ebp+460]
  0057f	ff 25 00 00 00
	00		 jmp	 DWORD PTR __imp_??1?$CStringT@DV?$StrTraitMFC_DLL@DV?$ChTraitsCRT@D@ATL@@@@@ATL@@QAE@XZ
__unwindfunclet$?ParsingstrHtml@CTabStep@@QAE?AV?$CStringT@DV?$StrTraitMFC_DLL@DV?$ChTraitsCRT@D@ATL@@@@@ATL@@V23@@Z$118:
  00585	8d 8d 2c ff ff
	ff		 lea	 ecx, DWORD PTR _m_pHtmlCodeNameArray$[ebp+464]
  0058b	ff 25 00 00 00
	00		 jmp	 DWORD PTR __imp_??1?$CStringT@DV?$StrTraitMFC_DLL@DV?$ChTraitsCRT@D@ATL@@@@@ATL@@QAE@XZ
__unwindfunclet$?ParsingstrHtml@CTabStep@@QAE?AV?$CStringT@DV?$StrTraitMFC_DLL@DV?$ChTraitsCRT@D@ATL@@@@@ATL@@V23@@Z$119:
  00591	8d 8d 30 ff ff
	ff		 lea	 ecx, DWORD PTR _m_pHtmlCodeNameArray$[ebp+468]
  00597	ff 25 00 00 00
	00		 jmp	 DWORD PTR __imp_??1?$CStringT@DV?$StrTraitMFC_DLL@DV?$ChTraitsCRT@D@ATL@@@@@ATL@@QAE@XZ
__unwindfunclet$?ParsingstrHtml@CTabStep@@QAE?AV?$CStringT@DV?$StrTraitMFC_DLL@DV?$ChTraitsCRT@D@ATL@@@@@ATL@@V23@@Z$120:
  0059d	8d 8d 34 ff ff
	ff		 lea	 ecx, DWORD PTR _m_pHtmlCodeNameArray$[ebp+472]
  005a3	ff 25 00 00 00
	00		 jmp	 DWORD PTR __imp_??1?$CStringT@DV?$StrTraitMFC_DLL@DV?$ChTraitsCRT@D@ATL@@@@@ATL@@QAE@XZ
__unwindfunclet$?ParsingstrHtml@CTabStep@@QAE?AV?$CStringT@DV?$StrTraitMFC_DLL@DV?$ChTraitsCRT@D@ATL@@@@@ATL@@V23@@Z$121:
  005a9	8d 8d 38 ff ff
	ff		 lea	 ecx, DWORD PTR _m_pHtmlCodeNameArray$[ebp+476]
  005af	ff 25 00 00 00
	00		 jmp	 DWORD PTR __imp_??1?$CStringT@DV?$StrTraitMFC_DLL@DV?$ChTraitsCRT@D@ATL@@@@@ATL@@QAE@XZ
__unwindfunclet$?ParsingstrHtml@CTabStep@@QAE?AV?$CStringT@DV?$StrTraitMFC_DLL@DV?$ChTraitsCRT@D@ATL@@@@@ATL@@V23@@Z$122:
  005b5	8d 8d 3c ff ff
	ff		 lea	 ecx, DWORD PTR _m_pHtmlCodeNameArray$[ebp+480]
  005bb	ff 25 00 00 00
	00		 jmp	 DWORD PTR __imp_??1?$CStringT@DV?$StrTraitMFC_DLL@DV?$ChTraitsCRT@D@ATL@@@@@ATL@@QAE@XZ
__unwindfunclet$?ParsingstrHtml@CTabStep@@QAE?AV?$CStringT@DV?$StrTraitMFC_DLL@DV?$ChTraitsCRT@D@ATL@@@@@ATL@@V23@@Z$123:
  005c1	8d 8d 40 ff ff
	ff		 lea	 ecx, DWORD PTR _m_pHtmlCodeNameArray$[ebp+484]
  005c7	ff 25 00 00 00
	00		 jmp	 DWORD PTR __imp_??1?$CStringT@DV?$StrTraitMFC_DLL@DV?$ChTraitsCRT@D@ATL@@@@@ATL@@QAE@XZ
__unwindfunclet$?ParsingstrHtml@CTabStep@@QAE?AV?$CStringT@DV?$StrTraitMFC_DLL@DV?$ChTraitsCRT@D@ATL@@@@@ATL@@V23@@Z$124:
  005cd	8d 8d 44 ff ff
	ff		 lea	 ecx, DWORD PTR _m_pHtmlCodeNameArray$[ebp+488]
  005d3	ff 25 00 00 00
	00		 jmp	 DWORD PTR __imp_??1?$CStringT@DV?$StrTraitMFC_DLL@DV?$ChTraitsCRT@D@ATL@@@@@ATL@@QAE@XZ
__unwindfunclet$?ParsingstrHtml@CTabStep@@QAE?AV?$CStringT@DV?$StrTraitMFC_DLL@DV?$ChTraitsCRT@D@ATL@@@@@ATL@@V23@@Z$125:
  005d9	8d 8d 48 ff ff
	ff		 lea	 ecx, DWORD PTR _m_pHtmlCodeNameArray$[ebp+492]
  005df	ff 25 00 00 00
	00		 jmp	 DWORD PTR __imp_??1?$CStringT@DV?$StrTraitMFC_DLL@DV?$ChTraitsCRT@D@ATL@@@@@ATL@@QAE@XZ
__unwindfunclet$?ParsingstrHtml@CTabStep@@QAE?AV?$CStringT@DV?$StrTraitMFC_DLL@DV?$ChTraitsCRT@D@ATL@@@@@ATL@@V23@@Z$126:
  005e5	8d 8d 4c ff ff
	ff		 lea	 ecx, DWORD PTR _m_pHtmlCodeNameArray$[ebp+496]
  005eb	ff 25 00 00 00
	00		 jmp	 DWORD PTR __imp_??1?$CStringT@DV?$StrTraitMFC_DLL@DV?$ChTraitsCRT@D@ATL@@@@@ATL@@QAE@XZ
__unwindfunclet$?ParsingstrHtml@CTabStep@@QAE?AV?$CStringT@DV?$StrTraitMFC_DLL@DV?$ChTraitsCRT@D@ATL@@@@@ATL@@V23@@Z$127:
  005f1	8d 8d 50 ff ff
	ff		 lea	 ecx, DWORD PTR _m_pHtmlCodeNameArray$[ebp+500]
  005f7	ff 25 00 00 00
	00		 jmp	 DWORD PTR __imp_??1?$CStringT@DV?$StrTraitMFC_DLL@DV?$ChTraitsCRT@D@ATL@@@@@ATL@@QAE@XZ
__unwindfunclet$?ParsingstrHtml@CTabStep@@QAE?AV?$CStringT@DV?$StrTraitMFC_DLL@DV?$ChTraitsCRT@D@ATL@@@@@ATL@@V23@@Z$128:
  005fd	8d 8d 54 ff ff
	ff		 lea	 ecx, DWORD PTR _m_pHtmlCodeNameArray$[ebp+504]
  00603	ff 25 00 00 00
	00		 jmp	 DWORD PTR __imp_??1?$CStringT@DV?$StrTraitMFC_DLL@DV?$ChTraitsCRT@D@ATL@@@@@ATL@@QAE@XZ
__unwindfunclet$?ParsingstrHtml@CTabStep@@QAE?AV?$CStringT@DV?$StrTraitMFC_DLL@DV?$ChTraitsCRT@D@ATL@@@@@ATL@@V23@@Z$129:
  00609	8d 8d 58 ff ff
	ff		 lea	 ecx, DWORD PTR _m_pHtmlCodeNameArray$[ebp+508]
  0060f	ff 25 00 00 00
	00		 jmp	 DWORD PTR __imp_??1?$CStringT@DV?$StrTraitMFC_DLL@DV?$ChTraitsCRT@D@ATL@@@@@ATL@@QAE@XZ
__unwindfunclet$?ParsingstrHtml@CTabStep@@QAE?AV?$CStringT@DV?$StrTraitMFC_DLL@DV?$ChTraitsCRT@D@ATL@@@@@ATL@@V23@@Z$130:
  00615	8d 8d 5c ff ff
	ff		 lea	 ecx, DWORD PTR _m_pHtmlCodeNameArray$[ebp+512]
  0061b	ff 25 00 00 00
	00		 jmp	 DWORD PTR __imp_??1?$CStringT@DV?$StrTraitMFC_DLL@DV?$ChTraitsCRT@D@ATL@@@@@ATL@@QAE@XZ
__unwindfunclet$?ParsingstrHtml@CTabStep@@QAE?AV?$CStringT@DV?$StrTraitMFC_DLL@DV?$ChTraitsCRT@D@ATL@@@@@ATL@@V23@@Z$131:
  00621	8d 8d 60 ff ff
	ff		 lea	 ecx, DWORD PTR _m_pHtmlCodeNameArray$[ebp+516]
  00627	ff 25 00 00 00
	00		 jmp	 DWORD PTR __imp_??1?$CStringT@DV?$StrTraitMFC_DLL@DV?$ChTraitsCRT@D@ATL@@@@@ATL@@QAE@XZ
__unwindfunclet$?ParsingstrHtml@CTabStep@@QAE?AV?$CStringT@DV?$StrTraitMFC_DLL@DV?$ChTraitsCRT@D@ATL@@@@@ATL@@V23@@Z$132:
  0062d	8d 8d 64 ff ff
	ff		 lea	 ecx, DWORD PTR _m_pHtmlCodeNameArray$[ebp+520]
  00633	ff 25 00 00 00
	00		 jmp	 DWORD PTR __imp_??1?$CStringT@DV?$StrTraitMFC_DLL@DV?$ChTraitsCRT@D@ATL@@@@@ATL@@QAE@XZ
__unwindfunclet$?ParsingstrHtml@CTabStep@@QAE?AV?$CStringT@DV?$StrTraitMFC_DLL@DV?$ChTraitsCRT@D@ATL@@@@@ATL@@V23@@Z$133:
  00639	8d 8d 68 ff ff
	ff		 lea	 ecx, DWORD PTR _m_pHtmlCodeNameArray$[ebp+524]
  0063f	ff 25 00 00 00
	00		 jmp	 DWORD PTR __imp_??1?$CStringT@DV?$StrTraitMFC_DLL@DV?$ChTraitsCRT@D@ATL@@@@@ATL@@QAE@XZ
__unwindfunclet$?ParsingstrHtml@CTabStep@@QAE?AV?$CStringT@DV?$StrTraitMFC_DLL@DV?$ChTraitsCRT@D@ATL@@@@@ATL@@V23@@Z$134:
  00645	8d 8d 6c ff ff
	ff		 lea	 ecx, DWORD PTR _m_pHtmlCodeNameArray$[ebp+528]
  0064b	ff 25 00 00 00
	00		 jmp	 DWORD PTR __imp_??1?$CStringT@DV?$StrTraitMFC_DLL@DV?$ChTraitsCRT@D@ATL@@@@@ATL@@QAE@XZ
__unwindfunclet$?ParsingstrHtml@CTabStep@@QAE?AV?$CStringT@DV?$StrTraitMFC_DLL@DV?$ChTraitsCRT@D@ATL@@@@@ATL@@V23@@Z$135:
  00651	8d 8d 70 ff ff
	ff		 lea	 ecx, DWORD PTR _m_pHtmlCodeNameArray$[ebp+532]
  00657	ff 25 00 00 00
	00		 jmp	 DWORD PTR __imp_??1?$CStringT@DV?$StrTraitMFC_DLL@DV?$ChTraitsCRT@D@ATL@@@@@ATL@@QAE@XZ
__unwindfunclet$?ParsingstrHtml@CTabStep@@QAE?AV?$CStringT@DV?$StrTraitMFC_DLL@DV?$ChTraitsCRT@D@ATL@@@@@ATL@@V23@@Z$136:
  0065d	8d 8d 74 ff ff
	ff		 lea	 ecx, DWORD PTR _m_pHtmlCodeNameArray$[ebp+536]
  00663	ff 25 00 00 00
	00		 jmp	 DWORD PTR __imp_??1?$CStringT@DV?$StrTraitMFC_DLL@DV?$ChTraitsCRT@D@ATL@@@@@ATL@@QAE@XZ
__unwindfunclet$?ParsingstrHtml@CTabStep@@QAE?AV?$CStringT@DV?$StrTraitMFC_DLL@DV?$ChTraitsCRT@D@ATL@@@@@ATL@@V23@@Z$137:
  00669	8d 8d 78 ff ff
	ff		 lea	 ecx, DWORD PTR _m_pHtmlCodeNameArray$[ebp+540]
  0066f	ff 25 00 00 00
	00		 jmp	 DWORD PTR __imp_??1?$CStringT@DV?$StrTraitMFC_DLL@DV?$ChTraitsCRT@D@ATL@@@@@ATL@@QAE@XZ
__unwindfunclet$?ParsingstrHtml@CTabStep@@QAE?AV?$CStringT@DV?$StrTraitMFC_DLL@DV?$ChTraitsCRT@D@ATL@@@@@ATL@@V23@@Z$138:
  00675	8d 8d 7c ff ff
	ff		 lea	 ecx, DWORD PTR _m_pHtmlCodeNameArray$[ebp+544]
  0067b	ff 25 00 00 00
	00		 jmp	 DWORD PTR __imp_??1?$CStringT@DV?$StrTraitMFC_DLL@DV?$ChTraitsCRT@D@ATL@@@@@ATL@@QAE@XZ
__unwindfunclet$?ParsingstrHtml@CTabStep@@QAE?AV?$CStringT@DV?$StrTraitMFC_DLL@DV?$ChTraitsCRT@D@ATL@@@@@ATL@@V23@@Z$139:
  00681	8d 4d 80	 lea	 ecx, DWORD PTR _m_pHtmlCodeNameArray$[ebp+548]
  00684	ff 25 00 00 00
	00		 jmp	 DWORD PTR __imp_??1?$CStringT@DV?$StrTraitMFC_DLL@DV?$ChTraitsCRT@D@ATL@@@@@ATL@@QAE@XZ
__unwindfunclet$?ParsingstrHtml@CTabStep@@QAE?AV?$CStringT@DV?$StrTraitMFC_DLL@DV?$ChTraitsCRT@D@ATL@@@@@ATL@@V23@@Z$140:
  0068a	8d 4d 84	 lea	 ecx, DWORD PTR _m_pHtmlCodeNameArray$[ebp+552]
  0068d	ff 25 00 00 00
	00		 jmp	 DWORD PTR __imp_??1?$CStringT@DV?$StrTraitMFC_DLL@DV?$ChTraitsCRT@D@ATL@@@@@ATL@@QAE@XZ
__unwindfunclet$?ParsingstrHtml@CTabStep@@QAE?AV?$CStringT@DV?$StrTraitMFC_DLL@DV?$ChTraitsCRT@D@ATL@@@@@ATL@@V23@@Z$141:
  00693	8d 4d 88	 lea	 ecx, DWORD PTR _m_pHtmlCodeNameArray$[ebp+556]
  00696	ff 25 00 00 00
	00		 jmp	 DWORD PTR __imp_??1?$CStringT@DV?$StrTraitMFC_DLL@DV?$ChTraitsCRT@D@ATL@@@@@ATL@@QAE@XZ
__unwindfunclet$?ParsingstrHtml@CTabStep@@QAE?AV?$CStringT@DV?$StrTraitMFC_DLL@DV?$ChTraitsCRT@D@ATL@@@@@ATL@@V23@@Z$142:
  0069c	8d 4d 8c	 lea	 ecx, DWORD PTR _m_pHtmlCodeNameArray$[ebp+560]
  0069f	ff 25 00 00 00
	00		 jmp	 DWORD PTR __imp_??1?$CStringT@DV?$StrTraitMFC_DLL@DV?$ChTraitsCRT@D@ATL@@@@@ATL@@QAE@XZ
__unwindfunclet$?ParsingstrHtml@CTabStep@@QAE?AV?$CStringT@DV?$StrTraitMFC_DLL@DV?$ChTraitsCRT@D@ATL@@@@@ATL@@V23@@Z$143:
  006a5	8d 4d 90	 lea	 ecx, DWORD PTR _m_pHtmlCodeNameArray$[ebp+564]
  006a8	ff 25 00 00 00
	00		 jmp	 DWORD PTR __imp_??1?$CStringT@DV?$StrTraitMFC_DLL@DV?$ChTraitsCRT@D@ATL@@@@@ATL@@QAE@XZ
__unwindfunclet$?ParsingstrHtml@CTabStep@@QAE?AV?$CStringT@DV?$StrTraitMFC_DLL@DV?$ChTraitsCRT@D@ATL@@@@@ATL@@V23@@Z$144:
  006ae	8d 4d 94	 lea	 ecx, DWORD PTR _m_pHtmlCodeNameArray$[ebp+568]
  006b1	ff 25 00 00 00
	00		 jmp	 DWORD PTR __imp_??1?$CStringT@DV?$StrTraitMFC_DLL@DV?$ChTraitsCRT@D@ATL@@@@@ATL@@QAE@XZ
__unwindfunclet$?ParsingstrHtml@CTabStep@@QAE?AV?$CStringT@DV?$StrTraitMFC_DLL@DV?$ChTraitsCRT@D@ATL@@@@@ATL@@V23@@Z$145:
  006b7	8d 4d 98	 lea	 ecx, DWORD PTR _m_pHtmlCodeNameArray$[ebp+572]
  006ba	ff 25 00 00 00
	00		 jmp	 DWORD PTR __imp_??1?$CStringT@DV?$StrTraitMFC_DLL@DV?$ChTraitsCRT@D@ATL@@@@@ATL@@QAE@XZ
__unwindfunclet$?ParsingstrHtml@CTabStep@@QAE?AV?$CStringT@DV?$StrTraitMFC_DLL@DV?$ChTraitsCRT@D@ATL@@@@@ATL@@V23@@Z$146:
  006c0	8d 4d 9c	 lea	 ecx, DWORD PTR _m_pHtmlCodeNameArray$[ebp+576]
  006c3	ff 25 00 00 00
	00		 jmp	 DWORD PTR __imp_??1?$CStringT@DV?$StrTraitMFC_DLL@DV?$ChTraitsCRT@D@ATL@@@@@ATL@@QAE@XZ
__unwindfunclet$?ParsingstrHtml@CTabStep@@QAE?AV?$CStringT@DV?$StrTraitMFC_DLL@DV?$ChTraitsCRT@D@ATL@@@@@ATL@@V23@@Z$147:
  006c9	8d 4d a0	 lea	 ecx, DWORD PTR _m_pHtmlCodeNameArray$[ebp+580]
  006cc	ff 25 00 00 00
	00		 jmp	 DWORD PTR __imp_??1?$CStringT@DV?$StrTraitMFC_DLL@DV?$ChTraitsCRT@D@ATL@@@@@ATL@@QAE@XZ
__unwindfunclet$?ParsingstrHtml@CTabStep@@QAE?AV?$CStringT@DV?$StrTraitMFC_DLL@DV?$ChTraitsCRT@D@ATL@@@@@ATL@@V23@@Z$148:
  006d2	8d 4d a4	 lea	 ecx, DWORD PTR _m_pHtmlCodeNameArray$[ebp+584]
  006d5	ff 25 00 00 00
	00		 jmp	 DWORD PTR __imp_??1?$CStringT@DV?$StrTraitMFC_DLL@DV?$ChTraitsCRT@D@ATL@@@@@ATL@@QAE@XZ
__unwindfunclet$?ParsingstrHtml@CTabStep@@QAE?AV?$CStringT@DV?$StrTraitMFC_DLL@DV?$ChTraitsCRT@D@ATL@@@@@ATL@@V23@@Z$149:
  006db	8d 4d a8	 lea	 ecx, DWORD PTR _m_pHtmlCodeNameArray$[ebp+588]
  006de	ff 25 00 00 00
	00		 jmp	 DWORD PTR __imp_??1?$CStringT@DV?$StrTraitMFC_DLL@DV?$ChTraitsCRT@D@ATL@@@@@ATL@@QAE@XZ
__unwindfunclet$?ParsingstrHtml@CTabStep@@QAE?AV?$CStringT@DV?$StrTraitMFC_DLL@DV?$ChTraitsCRT@D@ATL@@@@@ATL@@V23@@Z$150:
  006e4	8d 4d ac	 lea	 ecx, DWORD PTR _m_pHtmlCodeNameArray$[ebp+592]
  006e7	ff 25 00 00 00
	00		 jmp	 DWORD PTR __imp_??1?$CStringT@DV?$StrTraitMFC_DLL@DV?$ChTraitsCRT@D@ATL@@@@@ATL@@QAE@XZ
__unwindfunclet$?ParsingstrHtml@CTabStep@@QAE?AV?$CStringT@DV?$StrTraitMFC_DLL@DV?$ChTraitsCRT@D@ATL@@@@@ATL@@V23@@Z$151:
  006ed	8d 4d b0	 lea	 ecx, DWORD PTR _m_pHtmlCodeNameArray$[ebp+596]
  006f0	ff 25 00 00 00
	00		 jmp	 DWORD PTR __imp_??1?$CStringT@DV?$StrTraitMFC_DLL@DV?$ChTraitsCRT@D@ATL@@@@@ATL@@QAE@XZ
__unwindfunclet$?ParsingstrHtml@CTabStep@@QAE?AV?$CStringT@DV?$StrTraitMFC_DLL@DV?$ChTraitsCRT@D@ATL@@@@@ATL@@V23@@Z$152:
  006f6	8d 4d b4	 lea	 ecx, DWORD PTR _m_pHtmlCodeNameArray$[ebp+600]
  006f9	ff 25 00 00 00
	00		 jmp	 DWORD PTR __imp_??1?$CStringT@DV?$StrTraitMFC_DLL@DV?$ChTraitsCRT@D@ATL@@@@@ATL@@QAE@XZ
__unwindfunclet$?ParsingstrHtml@CTabStep@@QAE?AV?$CStringT@DV?$StrTraitMFC_DLL@DV?$ChTraitsCRT@D@ATL@@@@@ATL@@V23@@Z$153:
  006ff	8d 4d b8	 lea	 ecx, DWORD PTR _m_pHtmlCodeNameArray$[ebp+604]
  00702	ff 25 00 00 00
	00		 jmp	 DWORD PTR __imp_??1?$CStringT@DV?$StrTraitMFC_DLL@DV?$ChTraitsCRT@D@ATL@@@@@ATL@@QAE@XZ
__unwindfunclet$?ParsingstrHtml@CTabStep@@QAE?AV?$CStringT@DV?$StrTraitMFC_DLL@DV?$ChTraitsCRT@D@ATL@@@@@ATL@@V23@@Z$154:
  00708	8d 4d bc	 lea	 ecx, DWORD PTR _m_pHtmlCodeNameArray$[ebp+608]
  0070b	ff 25 00 00 00
	00		 jmp	 DWORD PTR __imp_??1?$CStringT@DV?$StrTraitMFC_DLL@DV?$ChTraitsCRT@D@ATL@@@@@ATL@@QAE@XZ
__unwindfunclet$?ParsingstrHtml@CTabStep@@QAE?AV?$CStringT@DV?$StrTraitMFC_DLL@DV?$ChTraitsCRT@D@ATL@@@@@ATL@@V23@@Z$155:
  00711	8d 4d c0	 lea	 ecx, DWORD PTR _m_pHtmlCodeNameArray$[ebp+612]
  00714	ff 25 00 00 00
	00		 jmp	 DWORD PTR __imp_??1?$CStringT@DV?$StrTraitMFC_DLL@DV?$ChTraitsCRT@D@ATL@@@@@ATL@@QAE@XZ
__unwindfunclet$?ParsingstrHtml@CTabStep@@QAE?AV?$CStringT@DV?$StrTraitMFC_DLL@DV?$ChTraitsCRT@D@ATL@@@@@ATL@@V23@@Z$156:
  0071a	8d 4d c4	 lea	 ecx, DWORD PTR _m_pHtmlCodeNameArray$[ebp+616]
  0071d	ff 25 00 00 00
	00		 jmp	 DWORD PTR __imp_??1?$CStringT@DV?$StrTraitMFC_DLL@DV?$ChTraitsCRT@D@ATL@@@@@ATL@@QAE@XZ
__unwindfunclet$?ParsingstrHtml@CTabStep@@QAE?AV?$CStringT@DV?$StrTraitMFC_DLL@DV?$ChTraitsCRT@D@ATL@@@@@ATL@@V23@@Z$157:
  00723	8d 4d c8	 lea	 ecx, DWORD PTR _m_pHtmlCodeNameArray$[ebp+620]
  00726	ff 25 00 00 00
	00		 jmp	 DWORD PTR __imp_??1?$CStringT@DV?$StrTraitMFC_DLL@DV?$ChTraitsCRT@D@ATL@@@@@ATL@@QAE@XZ
__unwindfunclet$?ParsingstrHtml@CTabStep@@QAE?AV?$CStringT@DV?$StrTraitMFC_DLL@DV?$ChTraitsCRT@D@ATL@@@@@ATL@@V23@@Z$158:
  0072c	8d 4d cc	 lea	 ecx, DWORD PTR _m_pHtmlCodeNameArray$[ebp+624]
  0072f	ff 25 00 00 00
	00		 jmp	 DWORD PTR __imp_??1?$CStringT@DV?$StrTraitMFC_DLL@DV?$ChTraitsCRT@D@ATL@@@@@ATL@@QAE@XZ
__unwindfunclet$?ParsingstrHtml@CTabStep@@QAE?AV?$CStringT@DV?$StrTraitMFC_DLL@DV?$ChTraitsCRT@D@ATL@@@@@ATL@@V23@@Z$159:
  00735	8d 4d d0	 lea	 ecx, DWORD PTR _m_pHtmlCodeNameArray$[ebp+628]
  00738	ff 25 00 00 00
	00		 jmp	 DWORD PTR __imp_??1?$CStringT@DV?$StrTraitMFC_DLL@DV?$ChTraitsCRT@D@ATL@@@@@ATL@@QAE@XZ
__unwindfunclet$?ParsingstrHtml@CTabStep@@QAE?AV?$CStringT@DV?$StrTraitMFC_DLL@DV?$ChTraitsCRT@D@ATL@@@@@ATL@@V23@@Z$160:
  0073e	8d 4d d4	 lea	 ecx, DWORD PTR _m_pHtmlCodeNameArray$[ebp+632]
  00741	ff 25 00 00 00
	00		 jmp	 DWORD PTR __imp_??1?$CStringT@DV?$StrTraitMFC_DLL@DV?$ChTraitsCRT@D@ATL@@@@@ATL@@QAE@XZ
__unwindfunclet$?ParsingstrHtml@CTabStep@@QAE?AV?$CStringT@DV?$StrTraitMFC_DLL@DV?$ChTraitsCRT@D@ATL@@@@@ATL@@V23@@Z$161:
  00747	8d 4d d8	 lea	 ecx, DWORD PTR _m_pHtmlCodeNameArray$[ebp+636]
  0074a	ff 25 00 00 00
	00		 jmp	 DWORD PTR __imp_??1?$CStringT@DV?$StrTraitMFC_DLL@DV?$ChTraitsCRT@D@ATL@@@@@ATL@@QAE@XZ
__unwindfunclet$?ParsingstrHtml@CTabStep@@QAE?AV?$CStringT@DV?$StrTraitMFC_DLL@DV?$ChTraitsCRT@D@ATL@@@@@ATL@@V23@@Z$162:
  00750	8d 4d dc	 lea	 ecx, DWORD PTR _m_pHtmlCodeNameArray$[ebp+640]
  00753	ff 25 00 00 00
	00		 jmp	 DWORD PTR __imp_??1?$CStringT@DV?$StrTraitMFC_DLL@DV?$ChTraitsCRT@D@ATL@@@@@ATL@@QAE@XZ
__unwindfunclet$?ParsingstrHtml@CTabStep@@QAE?AV?$CStringT@DV?$StrTraitMFC_DLL@DV?$ChTraitsCRT@D@ATL@@@@@ATL@@V23@@Z$163:
  00759	8d 4d e0	 lea	 ecx, DWORD PTR _m_pHtmlCodeNameArray$[ebp+644]
  0075c	ff 25 00 00 00
	00		 jmp	 DWORD PTR __imp_??1?$CStringT@DV?$StrTraitMFC_DLL@DV?$ChTraitsCRT@D@ATL@@@@@ATL@@QAE@XZ
__unwindfunclet$?ParsingstrHtml@CTabStep@@QAE?AV?$CStringT@DV?$StrTraitMFC_DLL@DV?$ChTraitsCRT@D@ATL@@@@@ATL@@V23@@Z$164:
  00762	8d 4d e4	 lea	 ecx, DWORD PTR _m_pHtmlCodeNameArray$[ebp+648]
  00765	ff 25 00 00 00
	00		 jmp	 DWORD PTR __imp_??1?$CStringT@DV?$StrTraitMFC_DLL@DV?$ChTraitsCRT@D@ATL@@@@@ATL@@QAE@XZ
__unwindfunclet$?ParsingstrHtml@CTabStep@@QAE?AV?$CStringT@DV?$StrTraitMFC_DLL@DV?$ChTraitsCRT@D@ATL@@@@@ATL@@V23@@Z$165:
  0076b	8d 4d e8	 lea	 ecx, DWORD PTR _m_pHtmlCodeNameArray$[ebp+652]
  0076e	ff 25 00 00 00
	00		 jmp	 DWORD PTR __imp_??1?$CStringT@DV?$StrTraitMFC_DLL@DV?$ChTraitsCRT@D@ATL@@@@@ATL@@QAE@XZ
__unwindfunclet$?ParsingstrHtml@CTabStep@@QAE?AV?$CStringT@DV?$StrTraitMFC_DLL@DV?$ChTraitsCRT@D@ATL@@@@@ATL@@V23@@Z$167:
  00774	a1 00 00 00 00	 mov	 eax, DWORD PTR __imp_??1?$CStringT@DV?$StrTraitMFC_DLL@DV?$ChTraitsCRT@D@ATL@@@@@ATL@@QAE@XZ
  00779	50		 push	 eax
  0077a	68 a5 00 00 00	 push	 165			; 000000a5H
  0077f	6a 04		 push	 4
  00781	8d 85 5c fd ff
	ff		 lea	 eax, DWORD PTR _m_pHtmlCodeNameArray$[ebp]
  00787	50		 push	 eax
  00788	e8 00 00 00 00	 call	 ??_M@YGXPAXIIP6EX0@Z@Z
  0078d	c3		 ret	 0
__unwindfunclet$?ParsingstrHtml@CTabStep@@QAE?AV?$CStringT@DV?$StrTraitMFC_DLL@DV?$ChTraitsCRT@D@ATL@@@@@ATL@@V23@@Z$168:
  0078e	8d 8d 28 fd ff
	ff		 lea	 ecx, DWORD PTR _strDataArray$[ebp]
  00794	e9 00 00 00 00	 jmp	 ??1CStringArray@@UAE@XZ	; CStringArray::~CStringArray
__unwindfunclet$?ParsingstrHtml@CTabStep@@QAE?AV?$CStringT@DV?$StrTraitMFC_DLL@DV?$ChTraitsCRT@D@ATL@@@@@ATL@@V23@@Z$169:
  00799	8d 8d 44 fd ff
	ff		 lea	 ecx, DWORD PTR $T3[ebp]
  0079f	ff 25 00 00 00
	00		 jmp	 DWORD PTR __imp_??1?$CStringT@DV?$StrTraitMFC_DLL@DV?$ChTraitsCRT@D@ATL@@@@@ATL@@QAE@XZ
__unwindfunclet$?ParsingstrHtml@CTabStep@@QAE?AV?$CStringT@DV?$StrTraitMFC_DLL@DV?$ChTraitsCRT@D@ATL@@@@@ATL@@V23@@Z$170:
  007a5	8d 8d 50 fd ff
	ff		 lea	 ecx, DWORD PTR _str$4[ebp]
  007ab	ff 25 00 00 00
	00		 jmp	 DWORD PTR __imp_??1?$CStringT@DV?$StrTraitMFC_DLL@DV?$ChTraitsCRT@D@ATL@@@@@ATL@@QAE@XZ
__unwindfunclet$?ParsingstrHtml@CTabStep@@QAE?AV?$CStringT@DV?$StrTraitMFC_DLL@DV?$ChTraitsCRT@D@ATL@@@@@ATL@@V23@@Z$171:
  007b1	8d 8d 54 fd ff
	ff		 lea	 ecx, DWORD PTR _Code$5[ebp]
  007b7	ff 25 00 00 00
	00		 jmp	 DWORD PTR __imp_??1?$CStringT@DV?$StrTraitMFC_DLL@DV?$ChTraitsCRT@D@ATL@@@@@ATL@@QAE@XZ
__unwindfunclet$?ParsingstrHtml@CTabStep@@QAE?AV?$CStringT@DV?$StrTraitMFC_DLL@DV?$ChTraitsCRT@D@ATL@@@@@ATL@@V23@@Z$172:
  007bd	8b 85 3c fd ff
	ff		 mov	 eax, DWORD PTR $T2[ebp]
  007c3	83 e0 01	 and	 eax, 1
  007c6	0f 84 13 00 00
	00		 je	 $LN201@Parsingstr
  007cc	83 a5 3c fd ff
	ff fe		 and	 DWORD PTR $T2[ebp], -2	; fffffffeH
  007d3	8b 8d 24 fd ff
	ff		 mov	 ecx, DWORD PTR ___$ReturnUdt$GSCopy$[ebp]
  007d9	ff 25 00 00 00
	00		 jmp	 DWORD PTR __imp_??1?$CStringT@DV?$StrTraitMFC_DLL@DV?$ChTraitsCRT@D@ATL@@@@@ATL@@QAE@XZ
$LN201@Parsingstr:
  007df	c3		 ret	 0
  007e0	cc		 int	 3
  007e1	cc		 int	 3
  007e2	cc		 int	 3
  007e3	cc		 int	 3
  007e4	cc		 int	 3
__ehhandler$?ParsingstrHtml@CTabStep@@QAE?AV?$CStringT@DV?$StrTraitMFC_DLL@DV?$ChTraitsCRT@D@ATL@@@@@ATL@@V23@@Z:
  007e5	90		 npad	 1
  007e6	90		 npad	 1
  007e7	8b 54 24 08	 mov	 edx, DWORD PTR [esp+8]
  007eb	8d 42 0c	 lea	 eax, DWORD PTR [edx+12]
  007ee	8b 8a 20 fd ff
	ff		 mov	 ecx, DWORD PTR [edx-736]
  007f4	33 c8		 xor	 ecx, eax
  007f6	e8 00 00 00 00	 call	 @__security_check_cookie@4
  007fb	8b 4a fc	 mov	 ecx, DWORD PTR [edx-4]
  007fe	33 c8		 xor	 ecx, eax
  00800	e8 00 00 00 00	 call	 @__security_check_cookie@4
  00805	b8 00 00 00 00	 mov	 eax, OFFSET __ehfuncinfo$?ParsingstrHtml@CTabStep@@QAE?AV?$CStringT@DV?$StrTraitMFC_DLL@DV?$ChTraitsCRT@D@ATL@@@@@ATL@@V23@@Z
  0080a	e9 00 00 00 00	 jmp	 ___CxxFrameHandler3
text$x	ENDS
?ParsingstrHtml@CTabStep@@QAE?AV?$CStringT@DV?$StrTraitMFC_DLL@DV?$ChTraitsCRT@D@ATL@@@@@ATL@@V23@@Z ENDP ; CTabStep::ParsingstrHtml
; Function compile flags: /Ogtp
; File D:\git\src\IBK\IBK_DRFN\ProjSrc\SrcDrfn\Chart\HWSTRATEGYANALYSIS\TabStep.cpp
; File C:\Program Files (x86)\Microsoft Visual Studio\2019\Community\VC\Tools\MSVC\14.29.30133\atlmfc\include\cstringt.h
; File D:\git\src\IBK\IBK_DRFN\ProjSrc\SrcDrfn\Chart\HWSTRATEGYANALYSIS\TabStep.cpp
; File C:\Program Files (x86)\Microsoft Visual Studio\2019\Community\VC\Tools\MSVC\14.29.30133\atlmfc\include\cstringt.h
; File D:\git\src\IBK\IBK_DRFN\ProjSrc\SrcDrfn\Chart\HWSTRATEGYANALYSIS\TabStep.cpp
; File C:\Program Files (x86)\Microsoft Visual Studio\2019\Community\VC\Tools\MSVC\14.29.30133\atlmfc\include\cstringt.h
; File C:\Program Files (x86)\Microsoft Visual Studio\2019\Community\VC\Tools\MSVC\14.29.30133\atlmfc\include\atlsimpstr.h
; File C:\Program Files (x86)\Microsoft Visual Studio\2019\Community\VC\Tools\MSVC\14.29.30133\atlmfc\include\cstringt.h
; File D:\git\src\IBK\IBK_DRFN\ProjSrc\SrcDrfn\Chart\HWSTRATEGYANALYSIS\TabStep.cpp
;	COMDAT ?InitHtml@CTabStep@@QAEXXZ
_TEXT	SEGMENT
_DefaultFile$ = -52					; size = 24
_HtmlData$ = -28					; size = 4
$T2 = -24						; size = 4
$T3 = -20						; size = 4
_str$ = -16						; size = 4
__$EHRec$ = -12						; size = 12
?InitHtml@CTabStep@@QAEXXZ PROC				; CTabStep::InitHtml, COMDAT
; _this$ = ecx

; 287  : {

  00000	55		 push	 ebp
  00001	8b ec		 mov	 ebp, esp
  00003	6a ff		 push	 -1
  00005	68 00 00 00 00	 push	 __ehhandler$?InitHtml@CTabStep@@QAEXXZ
  0000a	64 a1 00 00 00
	00		 mov	 eax, DWORD PTR fs:0
  00010	50		 push	 eax
  00011	83 ec 28	 sub	 esp, 40			; 00000028H
  00014	56		 push	 esi
  00015	57		 push	 edi
  00016	a1 00 00 00 00	 mov	 eax, DWORD PTR ___security_cookie
  0001b	33 c5		 xor	 eax, ebp
  0001d	50		 push	 eax
  0001e	8d 45 f4	 lea	 eax, DWORD PTR __$EHRec$[ebp]
  00021	64 a3 00 00 00
	00		 mov	 DWORD PTR fs:0, eax
  00027	8b f1		 mov	 esi, ecx

; 288  : 	if(m_strHtml!="")return;

  00029	8d be cc 00 00
	00		 lea	 edi, DWORD PTR [esi+204]
  0002f	c7 45 e8 00 00
	00 00		 mov	 DWORD PTR $T2[ebp], 0
; File C:\Program Files (x86)\Microsoft Visual Studio\2019\Community\VC\Tools\MSVC\14.29.30133\atlmfc\include\cstringt.h

; 2567 : 		return( str1.Compare( psz2 ) != 0 );

  00036	68 00 00 00 00	 push	 OFFSET ??_C@_00CNPNBAHC@@
  0003b	8b cf		 mov	 ecx, edi
  0003d	ff 15 00 00 00
	00		 call	 DWORD PTR __imp_?Compare@?$CStringT@DV?$StrTraitMFC_DLL@DV?$ChTraitsCRT@D@ATL@@@@@ATL@@QBEHPBD@Z
  00043	85 c0		 test	 eax, eax
; File D:\git\src\IBK\IBK_DRFN\ProjSrc\SrcDrfn\Chart\HWSTRATEGYANALYSIS\TabStep.cpp

; 288  : 	if(m_strHtml!="")return;

  00045	0f 85 f5 00 00
	00		 jne	 $LN1@InitHtml

; 289  : 	CStdioFile DefaultFile;

  0004b	8d 4d cc	 lea	 ecx, DWORD PTR _DefaultFile$[ebp]
  0004e	e8 00 00 00 00	 call	 ??0CStdioFile@@QAE@XZ	; CStdioFile::CStdioFile

; 290  : 	CString str,HtmlData;

  00053	8d 4d f0	 lea	 ecx, DWORD PTR _str$[ebp]
  00056	c7 45 fc 00 00
	00 00		 mov	 DWORD PTR __$EHRec$[ebp+8], 0
  0005d	ff 15 00 00 00
	00		 call	 DWORD PTR __imp_??0?$CStringT@DV?$StrTraitMFC_DLL@DV?$ChTraitsCRT@D@ATL@@@@@ATL@@QAE@XZ
  00063	8d 4d e4	 lea	 ecx, DWORD PTR _HtmlData$[ebp]
  00066	ff 15 00 00 00
	00		 call	 DWORD PTR __imp_??0?$CStringT@DV?$StrTraitMFC_DLL@DV?$ChTraitsCRT@D@ATL@@@@@ATL@@QAE@XZ
; File C:\Program Files (x86)\Microsoft Visual Studio\2019\Community\VC\Tools\MSVC\14.29.30133\atlmfc\include\cstringt.h

; 2401 : 		CStringT strResult( str1.GetManager() );

  0006c	8d 8e c4 00 00
	00		 lea	 ecx, DWORD PTR [esi+196]
; File D:\git\src\IBK\IBK_DRFN\ProjSrc\SrcDrfn\Chart\HWSTRATEGYANALYSIS\TabStep.cpp

; 292  : 	if(!DefaultFile.Open(m_strFilePath+"\\-.htm",CFile::modeRead))

  00072	c6 45 fc 03	 mov	 BYTE PTR __$EHRec$[ebp+8], 3
; File C:\Program Files (x86)\Microsoft Visual Studio\2019\Community\VC\Tools\MSVC\14.29.30133\atlmfc\include\cstringt.h

; 2401 : 		CStringT strResult( str1.GetManager() );

  00076	ff 15 00 00 00
	00		 call	 DWORD PTR __imp_?GetManager@?$CStringT@DV?$StrTraitMFC_DLL@DV?$ChTraitsCRT@D@ATL@@@@@ATL@@QBEPAUIAtlStringMgr@2@XZ
  0007c	50		 push	 eax
  0007d	8d 4d ec	 lea	 ecx, DWORD PTR $T3[ebp]
  00080	ff 15 00 00 00
	00		 call	 DWORD PTR __imp_??0?$CStringT@DV?$StrTraitMFC_DLL@DV?$ChTraitsCRT@D@ATL@@@@@ATL@@QAE@PAUIAtlStringMgr@1@@Z
; File C:\Program Files (x86)\Microsoft Visual Studio\2019\Community\VC\Tools\MSVC\14.29.30133\atlmfc\include\atlsimpstr.h

; 519  : 		return( GetData()->nDataLength );

  00086	8b 86 c4 00 00
	00		 mov	 eax, DWORD PTR [esi+196]
; File C:\Program Files (x86)\Microsoft Visual Studio\2019\Community\VC\Tools\MSVC\14.29.30133\atlmfc\include\cstringt.h

; 2403 : 		CThisSimpleString::Concatenate( strResult, str1, str1.GetLength(), psz2, CThisSimpleString::StringLength( psz2 ) );

  0008c	6a 14		 push	 20			; 00000014H
  0008e	68 00 00 00 00	 push	 OFFSET ??_C@_0BF@DJJBNDDF@?2?$LK?$LI?$LA?m?$LM?$KN?9?$MA?$PM?A?x?$LK?P?$LM?$KO?4htm@

; 2404 : 
; 2405 : 		return( strResult );

  00093	c7 45 e8 01 00
	00 00		 mov	 DWORD PTR $T2[ebp], 1
  0009a	ff 70 f4	 push	 DWORD PTR [eax-12]
  0009d	50		 push	 eax
  0009e	8d 45 ec	 lea	 eax, DWORD PTR $T3[ebp]
  000a1	50		 push	 eax
  000a2	ff 15 00 00 00
	00		 call	 DWORD PTR __imp_?Concatenate@?$CSimpleStringT@D$00@ATL@@KAXAAV12@PBDH1H@Z
  000a8	83 c4 14	 add	 esp, 20			; 00000014H
; File D:\git\src\IBK\IBK_DRFN\ProjSrc\SrcDrfn\Chart\HWSTRATEGYANALYSIS\TabStep.cpp

; 292  : 	if(!DefaultFile.Open(m_strFilePath+"\\-.htm",CFile::modeRead))

  000ab	8d 4d cc	 lea	 ecx, DWORD PTR _DefaultFile$[ebp]
  000ae	6a 00		 push	 0
  000b0	6a 00		 push	 0
  000b2	ff 75 ec	 push	 DWORD PTR $T3[ebp]
  000b5	e8 00 00 00 00	 call	 ?Open@CStdioFile@@UAEHPBDIPAVCFileException@@@Z ; CStdioFile::Open
  000ba	8d 4d ec	 lea	 ecx, DWORD PTR $T3[ebp]
  000bd	c6 45 fc 02	 mov	 BYTE PTR __$EHRec$[ebp+8], 2
  000c1	8b f0		 mov	 esi, eax
  000c3	ff 15 00 00 00
	00		 call	 DWORD PTR __imp_??1?$CStringT@DV?$StrTraitMFC_DLL@DV?$ChTraitsCRT@D@ATL@@@@@ATL@@QAE@XZ
  000c9	85 f6		 test	 esi, esi
  000cb	75 0e		 jne	 SHORT $LN6@InitHtml

; 293  : 	{
; 294  : 		AfxMessageBox("Do Not Create Html File.");

  000cd	56		 push	 esi
  000ce	56		 push	 esi
  000cf	68 00 00 00 00	 push	 OFFSET ??_C@_0BJ@EJHFGNNM@Do?5Not?5Create?5Html?5File?4@
  000d4	e8 00 00 00 00	 call	 ?AfxMessageBox@@YGHPBDII@Z ; AfxMessageBox
  000d9	eb 4b		 jmp	 SHORT $LN14@InitHtml
$LN6@InitHtml:

; 295  : 		return;
; 296  : 	}
; 297  : 
; 298  : 	for(;;){
; 299  : 		if(DefaultFile.ReadString(str))

  000db	8d 45 f0	 lea	 eax, DWORD PTR _str$[ebp]
  000de	50		 push	 eax
  000df	8d 4d cc	 lea	 ecx, DWORD PTR _DefaultFile$[ebp]
  000e2	e8 00 00 00 00	 call	 ?ReadString@CStdioFile@@UAEHAAV?$CStringT@DV?$StrTraitMFC_DLL@DV?$ChTraitsCRT@D@ATL@@@@@ATL@@@Z ; CStdioFile::ReadString
  000e7	85 c0		 test	 eax, eax
  000e9	74 21		 je	 SHORT $LN7@InitHtml
  000eb	0f 1f 44 00 00	 npad	 5
$LL2@InitHtml:

; 300  : 			m_strHtml+=str;

  000f0	8d 45 f0	 lea	 eax, DWORD PTR _str$[ebp]
  000f3	8b cf		 mov	 ecx, edi
  000f5	50		 push	 eax
  000f6	ff 15 00 00 00
	00		 call	 DWORD PTR __imp_??Y?$CStringT@DV?$StrTraitMFC_DLL@DV?$ChTraitsCRT@D@ATL@@@@@ATL@@QAEAAV01@ABV?$CSimpleStringT@D$00@1@@Z
  000fc	8d 45 f0	 lea	 eax, DWORD PTR _str$[ebp]
  000ff	50		 push	 eax
  00100	8d 4d cc	 lea	 ecx, DWORD PTR _DefaultFile$[ebp]
  00103	e8 00 00 00 00	 call	 ?ReadString@CStdioFile@@UAEHAAV?$CStringT@DV?$StrTraitMFC_DLL@DV?$ChTraitsCRT@D@ATL@@@@@ATL@@@Z ; CStdioFile::ReadString
  00108	85 c0		 test	 eax, eax
  0010a	75 e4		 jne	 SHORT $LL2@InitHtml
$LN7@InitHtml:

; 301  : 		else
; 302  : 			break;
; 303  : 	}	
; 304  : 	m_strHtml.Replace("color=\"white\"", "");

  0010c	68 00 00 00 00	 push	 OFFSET ??_C@_00CNPNBAHC@@
  00111	68 00 00 00 00	 push	 OFFSET ??_C@_0O@NLCHHJFD@color?$DN?$CCwhite?$CC@
  00116	8b cf		 mov	 ecx, edi
  00118	ff 15 00 00 00
	00		 call	 DWORD PTR __imp_?Replace@?$CStringT@DV?$StrTraitMFC_DLL@DV?$ChTraitsCRT@D@ATL@@@@@ATL@@QAEHPBD0@Z

; 305  : 	DefaultFile.Close();

  0011e	8d 4d cc	 lea	 ecx, DWORD PTR _DefaultFile$[ebp]
  00121	e8 00 00 00 00	 call	 ?Close@CStdioFile@@UAEXXZ ; CStdioFile::Close
$LN14@InitHtml:

; 306  : }

  00126	8d 4d e4	 lea	 ecx, DWORD PTR _HtmlData$[ebp]
  00129	ff 15 00 00 00
	00		 call	 DWORD PTR __imp_??1?$CStringT@DV?$StrTraitMFC_DLL@DV?$ChTraitsCRT@D@ATL@@@@@ATL@@QAE@XZ
  0012f	8d 4d f0	 lea	 ecx, DWORD PTR _str$[ebp]
  00132	ff 15 00 00 00
	00		 call	 DWORD PTR __imp_??1?$CStringT@DV?$StrTraitMFC_DLL@DV?$ChTraitsCRT@D@ATL@@@@@ATL@@QAE@XZ
  00138	8d 4d cc	 lea	 ecx, DWORD PTR _DefaultFile$[ebp]
  0013b	e8 00 00 00 00	 call	 ??1CStdioFile@@UAE@XZ	; CStdioFile::~CStdioFile
$LN1@InitHtml:
  00140	8b 4d f4	 mov	 ecx, DWORD PTR __$EHRec$[ebp]
  00143	64 89 0d 00 00
	00 00		 mov	 DWORD PTR fs:0, ecx
  0014a	59		 pop	 ecx
  0014b	5f		 pop	 edi
  0014c	5e		 pop	 esi
  0014d	8b e5		 mov	 esp, ebp
  0014f	5d		 pop	 ebp
  00150	c3		 ret	 0
_TEXT	ENDS
;	COMDAT text$x
text$x	SEGMENT
__unwindfunclet$?InitHtml@CTabStep@@QAEXXZ$0:
  00000	8d 4d cc	 lea	 ecx, DWORD PTR _DefaultFile$[ebp]
  00003	e9 00 00 00 00	 jmp	 ??1CStdioFile@@UAE@XZ	; CStdioFile::~CStdioFile
__unwindfunclet$?InitHtml@CTabStep@@QAEXXZ$1:
  00008	8d 4d f0	 lea	 ecx, DWORD PTR _str$[ebp]
  0000b	ff 25 00 00 00
	00		 jmp	 DWORD PTR __imp_??1?$CStringT@DV?$StrTraitMFC_DLL@DV?$ChTraitsCRT@D@ATL@@@@@ATL@@QAE@XZ
__unwindfunclet$?InitHtml@CTabStep@@QAEXXZ$2:
  00011	8d 4d e4	 lea	 ecx, DWORD PTR _HtmlData$[ebp]
  00014	ff 25 00 00 00
	00		 jmp	 DWORD PTR __imp_??1?$CStringT@DV?$StrTraitMFC_DLL@DV?$ChTraitsCRT@D@ATL@@@@@ATL@@QAE@XZ
__unwindfunclet$?InitHtml@CTabStep@@QAEXXZ$4:
  0001a	8b 45 e8	 mov	 eax, DWORD PTR $T2[ebp]
  0001d	83 e0 01	 and	 eax, 1
  00020	0f 84 0d 00 00
	00		 je	 $LN20@InitHtml
  00026	83 65 e8 fe	 and	 DWORD PTR $T2[ebp], -2	; fffffffeH
  0002a	8d 4d ec	 lea	 ecx, DWORD PTR $T3[ebp]
  0002d	ff 25 00 00 00
	00		 jmp	 DWORD PTR __imp_??1?$CStringT@DV?$StrTraitMFC_DLL@DV?$ChTraitsCRT@D@ATL@@@@@ATL@@QAE@XZ
$LN20@InitHtml:
  00033	c3		 ret	 0
  00034	cc		 int	 3
  00035	cc		 int	 3
  00036	cc		 int	 3
  00037	cc		 int	 3
  00038	cc		 int	 3
__ehhandler$?InitHtml@CTabStep@@QAEXXZ:
  00039	90		 npad	 1
  0003a	90		 npad	 1
  0003b	8b 54 24 08	 mov	 edx, DWORD PTR [esp+8]
  0003f	8d 42 0c	 lea	 eax, DWORD PTR [edx+12]
  00042	8b 4a cc	 mov	 ecx, DWORD PTR [edx-52]
  00045	33 c8		 xor	 ecx, eax
  00047	e8 00 00 00 00	 call	 @__security_check_cookie@4
  0004c	b8 00 00 00 00	 mov	 eax, OFFSET __ehfuncinfo$?InitHtml@CTabStep@@QAEXXZ
  00051	e9 00 00 00 00	 jmp	 ___CxxFrameHandler3
text$x	ENDS
?InitHtml@CTabStep@@QAEXXZ ENDP				; CTabStep::InitHtml
; Function compile flags: /Ogtp
; File D:\git\src\IBK\IBK_DRFN\ProjSrc\SrcDrfn\Chart\HWSTRATEGYANALYSIS\TabStep.cpp
;	COMDAT ?MakeHtmlFile@CTabStep@@QAEXXZ
_TEXT	SEGMENT
?MakeHtmlFile@CTabStep@@QAEXXZ PROC			; CTabStep::MakeHtmlFile, COMDAT
; _this$ = ecx

; 200  : }

  00000	c2 00 00	 ret	 0
?MakeHtmlFile@CTabStep@@QAEXXZ ENDP			; CTabStep::MakeHtmlFile
_TEXT	ENDS
; Function compile flags: /Ogtp
; File D:\git\src\IBK\IBK_DRFN\ProjSrc\SrcDrfn\Chart\HWSTRATEGYANALYSIS\TabStep.cpp
;	COMDAT ?OpenWebView@CTabStep@@QAEXV?$CStringT@DV?$StrTraitMFC_DLL@DV?$ChTraitsCRT@D@ATL@@@@@ATL@@@Z
_TEXT	SEGMENT
_FileName$ = 8						; size = 4
?OpenWebView@CTabStep@@QAEXV?$CStringT@DV?$StrTraitMFC_DLL@DV?$ChTraitsCRT@D@ATL@@@@@ATL@@@Z PROC ; CTabStep::OpenWebView, COMDAT
; _this$ = ecx

; 194  : { 

  00000	55		 push	 ebp
  00001	8b ec		 mov	 ebp, esp

; 195  : }

  00003	8d 4d 08	 lea	 ecx, DWORD PTR _FileName$[ebp]
  00006	ff 15 00 00 00
	00		 call	 DWORD PTR __imp_??1?$CStringT@DV?$StrTraitMFC_DLL@DV?$ChTraitsCRT@D@ATL@@@@@ATL@@QAE@XZ
  0000c	5d		 pop	 ebp
  0000d	c2 04 00	 ret	 4
?OpenWebView@CTabStep@@QAEXV?$CStringT@DV?$StrTraitMFC_DLL@DV?$ChTraitsCRT@D@ATL@@@@@ATL@@@Z ENDP ; CTabStep::OpenWebView
_TEXT	ENDS
; Function compile flags: /Ogtp
; File D:\git\src\IBK\IBK_DRFN\ProjSrc\SrcDrfn\Chart\HWSTRATEGYANALYSIS\TabStep.cpp
;	COMDAT ?GetMessageMap@CTabStep@@MBEPBUAFX_MSGMAP@@XZ
_TEXT	SEGMENT
?GetMessageMap@CTabStep@@MBEPBUAFX_MSGMAP@@XZ PROC	; CTabStep::GetMessageMap, COMDAT
; _this$ = ecx

; 39   : BEGIN_MESSAGE_MAP(CTabStep, CDialog)

  00000	b8 00 00 00 00	 mov	 eax, OFFSET ?messageMap@?1??GetThisMessageMap@CTabStep@@KGPBUAFX_MSGMAP@@XZ@4U3@B
  00005	c3		 ret	 0
?GetMessageMap@CTabStep@@MBEPBUAFX_MSGMAP@@XZ ENDP	; CTabStep::GetMessageMap
_TEXT	ENDS
; Function compile flags: /Ogtp
; File D:\git\src\IBK\IBK_DRFN\ProjSrc\SrcDrfn\Chart\HWSTRATEGYANALYSIS\TabStep.cpp
;	COMDAT ?GetThisMessageMap@CTabStep@@KGPBUAFX_MSGMAP@@XZ
_TEXT	SEGMENT
?GetThisMessageMap@CTabStep@@KGPBUAFX_MSGMAP@@XZ PROC	; CTabStep::GetThisMessageMap, COMDAT

; 40   : 	//{{AFX_MSG_MAP(CTabStep)
; 41   : 	ON_WM_DESTROY()
; 42   : 	//}}AFX_MSG_MAP
; 43   : END_MESSAGE_MAP()

  00000	b8 00 00 00 00	 mov	 eax, OFFSET ?messageMap@?1??GetThisMessageMap@CTabStep@@KGPBUAFX_MSGMAP@@XZ@4U3@B
  00005	c3		 ret	 0
?GetThisMessageMap@CTabStep@@KGPBUAFX_MSGMAP@@XZ ENDP	; CTabStep::GetThisMessageMap
_TEXT	ENDS
; Function compile flags: /Ogtp
; File D:\git\src\IBK\IBK_DRFN\ProjSrc\SrcDrfn\Chart\HWSTRATEGYANALYSIS\TabStep.cpp
; File C:\Program Files (x86)\Microsoft Visual Studio\2019\Community\VC\Tools\MSVC\14.29.30133\atlmfc\include\afxwin2.inl
; File D:\git\src\IBK\IBK_DRFN\ProjSrc\SrcDrfn\Chart\HWSTRATEGYANALYSIS\TabStep.cpp
;	COMDAT ?OnDestroy@CTabStep@@IAEXXZ
_TEXT	SEGMENT
?OnDestroy@CTabStep@@IAEXXZ PROC			; CTabStep::OnDestroy, COMDAT
; _this$ = ecx

; 279  : {

  00000	56		 push	 esi
  00001	8b f1		 mov	 esi, ecx

; 280  : 	CDialog::OnDestroy();

  00003	e8 00 00 00 00	 call	 ?OnDestroy@CWnd@@IAEXXZ	; CWnd::OnDestroy

; 283  : 	if(m_StepGridCtrl.GetSafeHwnd())

  00008	8d 8e d0 00 00
	00		 lea	 ecx, DWORD PTR [esi+208]
  0000e	5e		 pop	 esi
; File C:\Program Files (x86)\Microsoft Visual Studio\2019\Community\VC\Tools\MSVC\14.29.30133\atlmfc\include\afxwin2.inl

; 25   : 	{ return this == NULL ? NULL : m_hWnd; }

  0000f	85 c9		 test	 ecx, ecx
  00011	74 0b		 je	 SHORT $LN2@OnDestroy
; File D:\git\src\IBK\IBK_DRFN\ProjSrc\SrcDrfn\Chart\HWSTRATEGYANALYSIS\TabStep.cpp

; 283  : 	if(m_StepGridCtrl.GetSafeHwnd())

  00013	83 79 20 00	 cmp	 DWORD PTR [ecx+32], 0
  00017	74 05		 je	 SHORT $LN2@OnDestroy

; 284  : 		m_StepGridCtrl.DestroyWindow();

  00019	8b 01		 mov	 eax, DWORD PTR [ecx]
  0001b	ff 60 68	 jmp	 DWORD PTR [eax+104]
$LN2@OnDestroy:

; 285  : }

  0001e	c3		 ret	 0
?OnDestroy@CTabStep@@IAEXXZ ENDP			; CTabStep::OnDestroy
_TEXT	ENDS
; Function compile flags: /Ogtp
; File D:\git\src\IBK\IBK_DRFN\ProjSrc\SrcDrfn\Chart\HWSTRATEGYANALYSIS\TabStep.cpp
;	COMDAT ?OnInitDialog@CTabStep@@MAEHXZ
_TEXT	SEGMENT
?OnInitDialog@CTabStep@@MAEHXZ PROC			; CTabStep::OnInitDialog, COMDAT
; _this$ = ecx

; 49   : {

  00000	56		 push	 esi
  00001	8b f1		 mov	 esi, ecx

; 50   : 	CDialog::OnInitDialog();

  00003	e8 00 00 00 00	 call	 ?OnInitDialog@CDialog@@UAEHXZ ; CDialog::OnInitDialog

; 51   : 	
; 52   : 	// TODO: Add extra initialization here
; 53   : 	InitGrid();

  00008	8b ce		 mov	 ecx, esi
  0000a	e8 00 00 00 00	 call	 ?InitGrid@CTabStep@@QAEXXZ ; CTabStep::InitGrid

; 54   : 	return TRUE;  // return TRUE unless you set the focus to a control

  0000f	b8 01 00 00 00	 mov	 eax, 1
  00014	5e		 pop	 esi

; 55   : 	              // EXCEPTION: OCX Property Pages should return FALSE
; 56   : }

  00015	c3		 ret	 0
?OnInitDialog@CTabStep@@MAEHXZ ENDP			; CTabStep::OnInitDialog
_TEXT	ENDS
; Function compile flags: /Ogtp
; File D:\git\src\IBK\IBK_DRFN\ProjSrc\SrcDrfn\Chart\HWSTRATEGYANALYSIS\TabStep.cpp
;	COMDAT ?DoDataExchange@CTabStep@@MAEXPAVCDataExchange@@@Z
_TEXT	SEGMENT
_pDX$ = 8						; size = 4
?DoDataExchange@CTabStep@@MAEXPAVCDataExchange@@@Z PROC	; CTabStep::DoDataExchange, COMDAT
; _this$ = ecx

; 32   : 	CDialog::DoDataExchange(pDX);
; 33   : 	//{{AFX_DATA_MAP(CTabStep)
; 34   : 	//}}AFX_DATA_MAP
; 35   : //	DDX_Control(pDX, IDC_EXPLORER1, m_Browser);
; 36   : }

  00000	c2 04 00	 ret	 4
?DoDataExchange@CTabStep@@MAEXPAVCDataExchange@@@Z ENDP	; CTabStep::DoDataExchange
_TEXT	ENDS
; Function compile flags: /Ogtp
; File D:\git\src\IBK\IBK_DRFN\ProjSrc\SrcDrfn\Chart\HWSTRATEGYANALYSIS\TabStep.cpp
;	COMDAT ??0CTabStep@@QAE@PAVCWnd@@@Z
_TEXT	SEGMENT
_this$ = -16						; size = 4
__$EHRec$ = -12						; size = 12
_pParent$ = 8						; size = 4
??0CTabStep@@QAE@PAVCWnd@@@Z PROC			; CTabStep::CTabStep, COMDAT
; _this$ = ecx

; 21   : {

  00000	55		 push	 ebp
  00001	8b ec		 mov	 ebp, esp
  00003	6a ff		 push	 -1
  00005	68 00 00 00 00	 push	 __ehhandler$??0CTabStep@@QAE@PAVCWnd@@@Z
  0000a	64 a1 00 00 00
	00		 mov	 eax, DWORD PTR fs:0
  00010	50		 push	 eax
  00011	51		 push	 ecx
  00012	56		 push	 esi
  00013	a1 00 00 00 00	 mov	 eax, DWORD PTR ___security_cookie
  00018	33 c5		 xor	 eax, ebp
  0001a	50		 push	 eax
  0001b	8d 45 f4	 lea	 eax, DWORD PTR __$EHRec$[ebp]
  0001e	64 a3 00 00 00
	00		 mov	 DWORD PTR fs:0, eax
  00024	8b f1		 mov	 esi, ecx
  00026	89 75 f0	 mov	 DWORD PTR _this$[ebp], esi

; 20   : 	: CDlgInterface(CTabStep::IDD, pParent)

  00029	ff 75 08	 push	 DWORD PTR _pParent$[ebp]
  0002c	68 bd 0b 00 00	 push	 3005			; 00000bbdH
  00031	e8 00 00 00 00	 call	 ??0CDlgInterface@@QAE@IPAVCWnd@@@Z ; CDlgInterface::CDlgInterface

; 21   : {

  00036	8d 8e b8 00 00
	00		 lea	 ecx, DWORD PTR [esi+184]
  0003c	c7 45 fc 00 00
	00 00		 mov	 DWORD PTR __$EHRec$[ebp+8], 0
  00043	c7 06 00 00 00
	00		 mov	 DWORD PTR [esi], OFFSET ??_7CTabStep@@6B@
  00049	ff 15 00 00 00
	00		 call	 DWORD PTR __imp_??0?$CStringT@DV?$StrTraitMFC_DLL@DV?$ChTraitsCRT@D@ATL@@@@@ATL@@QAE@XZ
  0004f	8d 8e c4 00 00
	00		 lea	 ecx, DWORD PTR [esi+196]
  00055	ff 15 00 00 00
	00		 call	 DWORD PTR __imp_??0?$CStringT@DV?$StrTraitMFC_DLL@DV?$ChTraitsCRT@D@ATL@@@@@ATL@@QAE@XZ
  0005b	8d 8e cc 00 00
	00		 lea	 ecx, DWORD PTR [esi+204]
  00061	ff 15 00 00 00
	00		 call	 DWORD PTR __imp_??0?$CStringT@DV?$StrTraitMFC_DLL@DV?$ChTraitsCRT@D@ATL@@@@@ATL@@QAE@XZ
  00067	6a 00		 push	 0
  00069	6a 00		 push	 0
  0006b	6a 00		 push	 0
  0006d	6a 00		 push	 0
  0006f	8d 8e d0 00 00
	00		 lea	 ecx, DWORD PTR [esi+208]
  00075	c6 45 fc 03	 mov	 BYTE PTR __$EHRec$[ebp+8], 3
  00079	e8 00 00 00 00	 call	 ??0CGridCtrl@@QAE@HHHH@Z ; CGridCtrl::CGridCtrl

; 22   : 	//{{AFX_DATA_INIT(CTabStep)
; 23   : 	//}}AFX_DATA_INIT
; 24   : 
; 25   : 	m_nDiv = 0;

  0007e	c7 86 c8 00 00
	00 00 00 00 00	 mov	 DWORD PTR [esi+200], 0

; 26   : 	m_pFont = NULL;
; 27   : }

  00088	8b c6		 mov	 eax, esi
  0008a	c7 86 60 05 00
	00 00 00 00 00	 mov	 DWORD PTR [esi+1376], 0
  00094	8b 4d f4	 mov	 ecx, DWORD PTR __$EHRec$[ebp]
  00097	64 89 0d 00 00
	00 00		 mov	 DWORD PTR fs:0, ecx
  0009e	59		 pop	 ecx
  0009f	5e		 pop	 esi
  000a0	8b e5		 mov	 esp, ebp
  000a2	5d		 pop	 ebp
  000a3	c2 04 00	 ret	 4
_TEXT	ENDS
;	COMDAT text$x
text$x	SEGMENT
__unwindfunclet$??0CTabStep@@QAE@PAVCWnd@@@Z$0:
  00000	8b 4d f0	 mov	 ecx, DWORD PTR _this$[ebp]
  00003	e9 00 00 00 00	 jmp	 ??1CDlgInterface@@UAE@XZ
__unwindfunclet$??0CTabStep@@QAE@PAVCWnd@@@Z$1:
  00008	8b 4d f0	 mov	 ecx, DWORD PTR _this$[ebp]
  0000b	81 c1 b8 00 00
	00		 add	 ecx, 184		; 000000b8H
  00011	ff 25 00 00 00
	00		 jmp	 DWORD PTR __imp_??1?$CStringT@DV?$StrTraitMFC_DLL@DV?$ChTraitsCRT@D@ATL@@@@@ATL@@QAE@XZ
__unwindfunclet$??0CTabStep@@QAE@PAVCWnd@@@Z$2:
  00017	8b 4d f0	 mov	 ecx, DWORD PTR _this$[ebp]
  0001a	81 c1 c4 00 00
	00		 add	 ecx, 196		; 000000c4H
  00020	ff 25 00 00 00
	00		 jmp	 DWORD PTR __imp_??1?$CStringT@DV?$StrTraitMFC_DLL@DV?$ChTraitsCRT@D@ATL@@@@@ATL@@QAE@XZ
__unwindfunclet$??0CTabStep@@QAE@PAVCWnd@@@Z$3:
  00026	8b 4d f0	 mov	 ecx, DWORD PTR _this$[ebp]
  00029	81 c1 cc 00 00
	00		 add	 ecx, 204		; 000000ccH
  0002f	ff 25 00 00 00
	00		 jmp	 DWORD PTR __imp_??1?$CStringT@DV?$StrTraitMFC_DLL@DV?$ChTraitsCRT@D@ATL@@@@@ATL@@QAE@XZ
  00035	cc		 int	 3
  00036	cc		 int	 3
  00037	cc		 int	 3
  00038	cc		 int	 3
  00039	cc		 int	 3
__ehhandler$??0CTabStep@@QAE@PAVCWnd@@@Z:
  0003a	90		 npad	 1
  0003b	90		 npad	 1
  0003c	8b 54 24 08	 mov	 edx, DWORD PTR [esp+8]
  00040	8d 42 0c	 lea	 eax, DWORD PTR [edx+12]
  00043	8b 4a f4	 mov	 ecx, DWORD PTR [edx-12]
  00046	33 c8		 xor	 ecx, eax
  00048	e8 00 00 00 00	 call	 @__security_check_cookie@4
  0004d	b8 00 00 00 00	 mov	 eax, OFFSET __ehfuncinfo$??0CTabStep@@QAE@PAVCWnd@@@Z
  00052	e9 00 00 00 00	 jmp	 ___CxxFrameHandler3
text$x	ENDS
??0CTabStep@@QAE@PAVCWnd@@@Z ENDP			; CTabStep::CTabStep
; Function compile flags: /Ogtp
;	COMDAT ??1CDlgInterface@@UAE@XZ
_TEXT	SEGMENT
??1CDlgInterface@@UAE@XZ PROC				; CDlgInterface::~CDlgInterface, COMDAT
; _this$ = ecx
  00000	e9 00 00 00 00	 jmp	 ??1CDialog@@UAE@XZ	; CDialog::~CDialog
??1CDlgInterface@@UAE@XZ ENDP				; CDlgInterface::~CDlgInterface
_TEXT	ENDS
; Function compile flags: /Ogtp
; File D:\git\src\IBK\IBK_DRFN\ProjSrc\SrcDrfn\Chart\HWSTRATEGYANALYSIS\DlgInterface.h
;	COMDAT ?GuganBtnUpdate@CDlgInterface@@UAEXXZ
_TEXT	SEGMENT
?GuganBtnUpdate@CDlgInterface@@UAEXXZ PROC		; CDlgInterface::GuganBtnUpdate, COMDAT
; _this$ = ecx

; 60   : 		virtual void GuganBtnUpdate(){}

  00000	c2 00 00	 ret	 0
?GuganBtnUpdate@CDlgInterface@@UAEXXZ ENDP		; CDlgInterface::GuganBtnUpdate
_TEXT	ENDS
; Function compile flags: /Ogtp
; File D:\git\src\IBK\IBK_DRFN\ProjSrc\SrcDrfn\Chart\HWSTRATEGYANALYSIS\DlgInterface.h
;	COMDAT ?SetChartFocus@CDlgInterface@@UAEXH@Z
_TEXT	SEGMENT
_nFocusIndex$ = 8					; size = 4
?SetChartFocus@CDlgInterface@@UAEXH@Z PROC		; CDlgInterface::SetChartFocus, COMDAT
; _this$ = ecx

; 59   : 		virtual void SetChartFocus(int nFocusIndex) {}

  00000	c2 04 00	 ret	 4
?SetChartFocus@CDlgInterface@@UAEXH@Z ENDP		; CDlgInterface::SetChartFocus
_TEXT	ENDS
; Function compile flags: /Ogtp
; File D:\git\src\IBK\IBK_DRFN\ProjSrc\SrcDrfn\Chart\HWSTRATEGYANALYSIS\DlgInterface.h
;	COMDAT ?UpdateDlg@CDlgInterface@@UAEXXZ
_TEXT	SEGMENT
?UpdateDlg@CDlgInterface@@UAEXXZ PROC			; CDlgInterface::UpdateDlg, COMDAT
; _this$ = ecx

; 58   : 		virtual void UpdateDlg() {}

  00000	c2 00 00	 ret	 0
?UpdateDlg@CDlgInterface@@UAEXXZ ENDP			; CDlgInterface::UpdateDlg
_TEXT	ENDS
; Function compile flags: /Ogtp
; File D:\git\src\IBK\IBK_DRFN\ProjSrc\SrcDrfn\Chart\Common_ST\EscDialog.h
;	COMDAT ?PreTranslateMessage@CEscDialog@@MAEHPAUtagMSG@@@Z
_TEXT	SEGMENT
_pMsg$ = 8						; size = 4
?PreTranslateMessage@CEscDialog@@MAEHPAUtagMSG@@@Z PROC	; CEscDialog::PreTranslateMessage, COMDAT
; _this$ = ecx

; 40   : {

  00000	55		 push	 ebp
  00001	8b ec		 mov	 ebp, esp
  00003	56		 push	 esi

; 41   : 	//     		JSJ_Modify_040421
; 42   : 	if(pMsg->message == WM_KEYDOWN)   

  00004	8b 75 08	 mov	 esi, DWORD PTR _pMsg$[ebp]
  00007	57		 push	 edi
  00008	8b f9		 mov	 edi, ecx
  0000a	81 7e 04 00 01
	00 00		 cmp	 DWORD PTR [esi+4], 256	; 00000100H
  00011	75 42		 jne	 SHORT $LN4@PreTransla

; 43   : 	{
; 44   : 		if(pMsg->wParam == VK_F4 && (::GetKeyState(VK_CONTROL) & 0x8000))

  00013	83 7e 08 73	 cmp	 DWORD PTR [esi+8], 115	; 00000073H
  00017	75 36		 jne	 SHORT $LN11@PreTransla
  00019	6a 11		 push	 17			; 00000011H
  0001b	ff 15 00 00 00
	00		 call	 DWORD PTR __imp__GetKeyState@4
  00021	66 0f ba e0 0f	 bt	 ax, 15			; 0000000fH
  00026	73 27		 jae	 SHORT $LN11@PreTransla

; 45   : 		{
; 46   : 			pMsg->wParam = VK_ESCAPE;

  00028	c7 46 08 1b 00
	00 00		 mov	 DWORD PTR [esi+8], 27	; 0000001bH
$LN12@PreTransla:

; 56   : }

  0002f	ff 77 20	 push	 DWORD PTR [edi+32]
  00032	ff 15 00 00 00
	00		 call	 DWORD PTR __imp__GetParent@4
  00038	50		 push	 eax
  00039	e8 00 00 00 00	 call	 ?FromHandle@CWnd@@SGPAV1@PAUHWND__@@@Z ; CWnd::FromHandle
  0003e	56		 push	 esi
  0003f	8b c8		 mov	 ecx, eax
  00041	8b 10		 mov	 edx, DWORD PTR [eax]
  00043	ff 92 14 01 00
	00		 call	 DWORD PTR [edx+276]
  00049	5f		 pop	 edi
  0004a	5e		 pop	 esi
  0004b	5d		 pop	 ebp
  0004c	c2 04 00	 ret	 4
$LN11@PreTransla:

; 47   : 			return GetParent()->PreTranslateMessage(pMsg);
; 48   : 		}
; 49   : 		if(pMsg->wParam == VK_ESCAPE)

  0004f	83 7e 08 1b	 cmp	 DWORD PTR [esi+8], 27	; 0000001bH
  00053	74 da		 je	 SHORT $LN12@PreTransla
$LN4@PreTransla:

; 50   : 		{
; 51   : 			return GetParent()->PreTranslateMessage(pMsg);
; 52   : 		}
; 53   : 	}
; 54   : 	
; 55   : 	return CDialog::PreTranslateMessage(pMsg);

  00055	56		 push	 esi
  00056	8b cf		 mov	 ecx, edi
  00058	e8 00 00 00 00	 call	 ?PreTranslateMessage@CDialog@@UAEHPAUtagMSG@@@Z ; CDialog::PreTranslateMessage
  0005d	5f		 pop	 edi

; 56   : }

  0005e	5e		 pop	 esi
  0005f	5d		 pop	 ebp
  00060	c2 04 00	 ret	 4
?PreTranslateMessage@CEscDialog@@MAEHPAUtagMSG@@@Z ENDP	; CEscDialog::PreTranslateMessage
_TEXT	ENDS
; Function compile flags: /Ogtp
; File C:\Program Files (x86)\Microsoft Visual Studio\2019\Community\VC\Tools\MSVC\14.29.30133\atlmfc\include\afxwin2.inl
;	COMDAT ?Create@CDialog@@UAEHIPAVCWnd@@@Z
_TEXT	SEGMENT
_nIDTemplate$ = 8					; size = 4
_pParentWnd$ = 12					; size = 4
?Create@CDialog@@UAEHIPAVCWnd@@@Z PROC			; CDialog::Create, COMDAT
; _this$ = ecx

; 585  : 	{ return CDialog::Create(ATL_MAKEINTRESOURCE(nIDTemplate), pParentWnd); }

  00000	55		 push	 ebp
  00001	8b ec		 mov	 ebp, esp
  00003	0f b7 45 08	 movzx	 eax, WORD PTR _nIDTemplate$[ebp]
  00007	89 45 08	 mov	 DWORD PTR _nIDTemplate$[ebp], eax
  0000a	5d		 pop	 ebp
  0000b	e9 00 00 00 00	 jmp	 ?Create@CDialog@@UAEHPBDPAVCWnd@@@Z ; CDialog::Create
?Create@CDialog@@UAEHIPAVCWnd@@@Z ENDP			; CDialog::Create
_TEXT	ENDS
; Function compile flags: /Ogtp
; File C:\Program Files (x86)\Microsoft Visual Studio\2019\Community\VC\Tools\MSVC\14.29.30133\atlmfc\include\afxwin2.inl
;	COMDAT ?EndModalState@CWnd@@UAEXXZ
_TEXT	SEGMENT
?EndModalState@CWnd@@UAEXXZ PROC			; CWnd::EndModalState, COMDAT
; _this$ = ecx

; 567  : 	{ ::EnableWindow(m_hWnd, TRUE); }

  00000	6a 01		 push	 1
  00002	ff 71 20	 push	 DWORD PTR [ecx+32]
  00005	ff 15 00 00 00
	00		 call	 DWORD PTR __imp__EnableWindow@8
  0000b	c3		 ret	 0
?EndModalState@CWnd@@UAEXXZ ENDP			; CWnd::EndModalState
_TEXT	ENDS
; Function compile flags: /Ogtp
; File C:\Program Files (x86)\Microsoft Visual Studio\2019\Community\VC\Tools\MSVC\14.29.30133\atlmfc\include\afxwin2.inl
;	COMDAT ?BeginModalState@CWnd@@UAEXXZ
_TEXT	SEGMENT
?BeginModalState@CWnd@@UAEXXZ PROC			; CWnd::BeginModalState, COMDAT
; _this$ = ecx

; 565  : 	{ ::EnableWindow(m_hWnd, FALSE); }

  00000	6a 00		 push	 0
  00002	ff 71 20	 push	 DWORD PTR [ecx+32]
  00005	ff 15 00 00 00
	00		 call	 DWORD PTR __imp__EnableWindow@8
  0000b	c3		 ret	 0
?BeginModalState@CWnd@@UAEXXZ ENDP			; CWnd::BeginModalState
_TEXT	ENDS
; Function compile flags: /Ogtp
; File C:\Program Files (x86)\Microsoft Visual Studio\2019\Community\VC\Tools\MSVC\14.29.30133\atlmfc\include\afxwin2.inl
;	COMDAT ?DoDataExchange@CWnd@@MAEXPAVCDataExchange@@@Z
_TEXT	SEGMENT
___formal$ = 8						; size = 4
?DoDataExchange@CWnd@@MAEXPAVCDataExchange@@@Z PROC	; CWnd::DoDataExchange, COMDAT
; _this$ = ecx

; 561  : 	{ } // default does nothing

  00000	c2 04 00	 ret	 4
?DoDataExchange@CWnd@@MAEXPAVCDataExchange@@@Z ENDP	; CWnd::DoDataExchange
_TEXT	ENDS
; Function compile flags: /Ogtp
; File C:\Program Files (x86)\Microsoft Visual Studio\2019\Community\VC\Tools\MSVC\14.29.30133\atlmfc\include\afx.inl
;	COMDAT ?Dump@CObject@@UBEXAAVCDumpContext@@@Z
_TEXT	SEGMENT
___formal$ = 8						; size = 4
?Dump@CObject@@UBEXAAVCDumpContext@@@Z PROC		; CObject::Dump, COMDAT
; _this$ = ecx

; 122  : 	{ /* no dumping in release builds */ }

  00000	c2 04 00	 ret	 4
?Dump@CObject@@UBEXAAVCDumpContext@@@Z ENDP		; CObject::Dump
_TEXT	ENDS
; Function compile flags: /Ogtp
; File C:\Program Files (x86)\Microsoft Visual Studio\2019\Community\VC\Tools\MSVC\14.29.30133\atlmfc\include\afx.inl
;	COMDAT ?AssertValid@CObject@@UBEXXZ
_TEXT	SEGMENT
?AssertValid@CObject@@UBEXXZ PROC			; CObject::AssertValid, COMDAT
; _this$ = ecx

; 120  : 	{ /* no asserts in release builds */ }

  00000	c2 00 00	 ret	 0
?AssertValid@CObject@@UBEXXZ ENDP			; CObject::AssertValid
_TEXT	ENDS
; Function compile flags: /Ogtp
; File C:\Program Files (x86)\Microsoft Visual Studio\2019\Community\VC\Tools\MSVC\14.29.30133\atlmfc\include\afx.inl
;	COMDAT ?Serialize@CObject@@UAEXAAVCArchive@@@Z
_TEXT	SEGMENT
___formal$ = 8						; size = 4
?Serialize@CObject@@UAEXAAVCArchive@@@Z PROC		; CObject::Serialize, COMDAT
; _this$ = ecx

; 106  : 	{ /* CObject does not serialize anything by default */ }

  00000	c2 04 00	 ret	 4
?Serialize@CObject@@UAEXAAVCArchive@@@Z ENDP		; CObject::Serialize
_TEXT	ENDS
; Function compile flags: /Ogtp
; File D:\git\src\IBK\IBK_DRFN\ProjSrc\SrcDrfn\Chart\HWSTRATEGYANALYSIS\TabStep.cpp
;	COMDAT ?__empty_global_delete@@YAXPAXI@Z
_TEXT	SEGMENT
___formal$ = 8						; size = 4
___formal$ = 12						; size = 4
?__empty_global_delete@@YAXPAXI@Z PROC			; __empty_global_delete, COMDAT

  00000	c2 00 00	 ret	 0
?__empty_global_delete@@YAXPAXI@Z ENDP			; __empty_global_delete
_TEXT	ENDS
; Function compile flags: /Ogtp
; File D:\git\src\IBK\IBK_DRFN\ProjSrc\SrcDrfn\Chart\HWSTRATEGYANALYSIS\TabStep.cpp
;	COMDAT ?__empty_global_delete@@YAXPAX@Z
_TEXT	SEGMENT
___formal$ = 8						; size = 4
?__empty_global_delete@@YAXPAX@Z PROC			; __empty_global_delete, COMDAT

  00000	c2 00 00	 ret	 0
?__empty_global_delete@@YAXPAX@Z ENDP			; __empty_global_delete
_TEXT	ENDS
END
