; Listing generated by Microsoft (R) Optimizing Compiler Version 19.29.30145.0 

	TITLE	D:\git\src\IBK\IBK_DRFN\#DRfn-CS\_Obj\PctrWinix\LocalHeader.obj
	.686P
	.XMM
	include listing.inc
	.model	flat

INCLUDELIB MSVCRT
INCLUDELIB OLDNAMES

PUBLIC	??_C@_0BE@FJPKENOB@RMSG_GETSIGNAL_REAL@		; `string'
PUBLIC	??_C@_0P@BKKCOCLK@RMSG_INTERFACE@		; `string'
PUBLIC	??_C@_0BB@GOOPDKI@RMSG_GETPCTRDATA@		; `string'
PUBLIC	??_C@_0BB@JPACFCL@RMSG_SETPCTRDATA@		; `string'
PUBLIC	??_C@_0BB@HPODOCCF@RMSG_SENDMESSAGE@		; `string'
PUBLIC	??_C@_0BB@EPGJDGDK@RMSG_CONCERNHWND@		; `string'
PUBLIC	??_C@_0BA@JHANHJCN@RMSG_INTREQUEST@		; `string'
PUBLIC	??_C@_0BF@MNPNIDPI@RMSG_GWANSIMREGISTER@	; `string'
PUBLIC	??_C@_0BD@LHFGCFCP@RMSG_WINIXPLATFORM@		; `string'
;	COMDAT ??_C@_0BD@LHFGCFCP@RMSG_WINIXPLATFORM@
CONST	SEGMENT
??_C@_0BD@LHFGCFCP@RMSG_WINIXPLATFORM@ DB 'RMSG_WINIXPLATFORM', 00H ; `string'
CONST	ENDS
;	COMDAT ??_C@_0BF@MNPNIDPI@RMSG_GWANSIMREGISTER@
CONST	SEGMENT
??_C@_0BF@MNPNIDPI@RMSG_GWANSIMREGISTER@ DB 'RMSG_GWANSIMREGISTER', 00H ; `string'
CONST	ENDS
;	COMDAT ??_C@_0BA@JHANHJCN@RMSG_INTREQUEST@
CONST	SEGMENT
??_C@_0BA@JHANHJCN@RMSG_INTREQUEST@ DB 'RMSG_INTREQUEST', 00H ; `string'
CONST	ENDS
;	COMDAT ??_C@_0BB@EPGJDGDK@RMSG_CONCERNHWND@
CONST	SEGMENT
??_C@_0BB@EPGJDGDK@RMSG_CONCERNHWND@ DB 'RMSG_CONCERNHWND', 00H ; `string'
CONST	ENDS
;	COMDAT ??_C@_0BB@HPODOCCF@RMSG_SENDMESSAGE@
CONST	SEGMENT
??_C@_0BB@HPODOCCF@RMSG_SENDMESSAGE@ DB 'RMSG_SENDMESSAGE', 00H ; `string'
CONST	ENDS
;	COMDAT ??_C@_0BB@JPACFCL@RMSG_SETPCTRDATA@
CONST	SEGMENT
??_C@_0BB@JPACFCL@RMSG_SETPCTRDATA@ DB 'RMSG_SETPCTRDATA', 00H ; `string'
CONST	ENDS
;	COMDAT ??_C@_0BB@GOOPDKI@RMSG_GETPCTRDATA@
CONST	SEGMENT
??_C@_0BB@GOOPDKI@RMSG_GETPCTRDATA@ DB 'RMSG_GETPCTRDATA', 00H ; `string'
CONST	ENDS
;	COMDAT ??_C@_0P@BKKCOCLK@RMSG_INTERFACE@
CONST	SEGMENT
??_C@_0P@BKKCOCLK@RMSG_INTERFACE@ DB 'RMSG_INTERFACE', 00H ; `string'
CONST	ENDS
;	COMDAT ??_C@_0BE@FJPKENOB@RMSG_GETSIGNAL_REAL@
CONST	SEGMENT
??_C@_0BE@FJPKENOB@RMSG_GETSIGNAL_REAL@ DB 'RMSG_GETSIGNAL_REAL', 00H ; `string'
CONST	ENDS
PUBLIC	?__empty_global_delete@@YAXPAX@Z		; __empty_global_delete
PUBLIC	?__empty_global_delete@@YAXPAXI@Z		; __empty_global_delete
PUBLIC	??1CObject@@UAE@XZ				; CObject::~CObject
PUBLIC	?Serialize@CObject@@UAEXAAVCArchive@@@Z		; CObject::Serialize
PUBLIC	?AssertValid@CObject@@UBEXXZ			; CObject::AssertValid
PUBLIC	?Dump@CObject@@UBEXAAVCDumpContext@@@Z		; CObject::Dump
PUBLIC	??0CWinixGwanItem@@QAE@PAUHWND__@@00@Z		; CWinixGwanItem::CWinixGwanItem
PUBLIC	??1CWinixGwanItem@@QAE@XZ			; CWinixGwanItem::~CWinixGwanItem
PUBLIC	?DoInitialize@CWinixGwanItem@@QAEXH@Z		; CWinixGwanItem::DoInitialize
PUBLIC	?RequestGwansimGroup@CWinixGwanItem@@QAEXXZ	; CWinixGwanItem::RequestGwansimGroup
PUBLIC	?ReceiveData@CTrCommSite@CWinixGwanItem@@UAGJJPBD00PAXJ@Z ; CWinixGwanItem::CTrCommSite::ReceiveData
PUBLIC	?ReceiveRealData@CTrCommSite@CWinixGwanItem@@UAGJGPBDPAX@Z ; CWinixGwanItem::CTrCommSite::ReceiveRealData
PUBLIC	?StatusChange@CTrCommSite@CWinixGwanItem@@UAGJH@Z ; CWinixGwanItem::CTrCommSite::StatusChange
PUBLIC	?ReceiveMessage@CTrCommSite@CWinixGwanItem@@UAGJJPBD00@Z ; CWinixGwanItem::CTrCommSite::ReceiveMessage
PUBLIC	??0CWinixGwanGroupList@@QAE@XZ			; CWinixGwanGroupList::CWinixGwanGroupList
PUBLIC	??1CWinixGwanGroupList@@QAE@XZ			; CWinixGwanGroupList::~CWinixGwanGroupList
PUBLIC	?_DoClearList@CWinixGwanGroupList@@QAEXXZ	; CWinixGwanGroupList::_DoClearList
PUBLIC	??0?$CList@PAVCWinixGwanGroup@@PAV1@@@QAE@H@Z	; CList<CWinixGwanGroup *,CWinixGwanGroup *>::CList<CWinixGwanGroup *,CWinixGwanGroup *>
PUBLIC	?AddTail@?$CList@PAVCWinixGwanGroup@@PAV1@@@QAEPAU__POSITION@@PAVCWinixGwanGroup@@@Z ; CList<CWinixGwanGroup *,CWinixGwanGroup *>::AddTail
PUBLIC	?RemoveAll@?$CList@PAVCWinixGwanGroup@@PAV1@@@QAEXXZ ; CList<CWinixGwanGroup *,CWinixGwanGroup *>::RemoveAll
PUBLIC	?NewNode@?$CList@PAVCWinixGwanGroup@@PAV1@@@IAEPAUCNode@1@PAU21@0@Z ; CList<CWinixGwanGroup *,CWinixGwanGroup *>::NewNode
PUBLIC	??1?$CList@PAVCWinixGwanGroup@@PAV1@@@UAE@XZ	; CList<CWinixGwanGroup *,CWinixGwanGroup *>::~CList<CWinixGwanGroup *,CWinixGwanGroup *>
PUBLIC	?Serialize@?$CList@PAVCWinixGwanGroup@@PAV1@@@UAEXAAVCArchive@@@Z ; CList<CWinixGwanGroup *,CWinixGwanGroup *>::Serialize
PUBLIC	??_G?$CList@PAVCWinixGwanGroup@@PAV1@@@UAEPAXI@Z ; CList<CWinixGwanGroup *,CWinixGwanGroup *>::`scalar deleting destructor'
PUBLIC	??$SerializeElements@PAVCWinixGwanGroup@@@@YGXAAVCArchive@@PAPAVCWinixGwanGroup@@H@Z ; SerializeElements<CWinixGwanGroup *>
PUBLIC	??_C@_00CNPNBAHC@@				; `string'
PUBLIC	??_R0?AVCObject@@@8				; CObject `RTTI Type Descriptor'
PUBLIC	??_R3CObject@@8					; CObject::`RTTI Class Hierarchy Descriptor'
PUBLIC	??_R2CObject@@8					; CObject::`RTTI Base Class Array'
PUBLIC	??_R1A@?0A@EA@CObject@@8			; CObject::`RTTI Base Class Descriptor at (0,-1,0,64)'
PUBLIC	??_7CTrCommSite@CWinixGwanItem@@6B@		; CWinixGwanItem::CTrCommSite::`vftable'
PUBLIC	??_7?$CList@PAVCWinixGwanGroup@@PAV1@@@6B@	; CList<CWinixGwanGroup *,CWinixGwanGroup *>::`vftable'
PUBLIC	??_C@_05PJHLPLPE@00001@				; `string'
PUBLIC	??_C@_08LFHHEOFL@PIDOMYST@			; `string'
PUBLIC	??_C@_0BB@HLCCOELJ@?$CFs?7?$CF08X?7?$CFd?7?$CFd?7?$CFs@ ; `string'
PUBLIC	??_R0?AUITrCommSite@@@8				; ITrCommSite `RTTI Type Descriptor'
PUBLIC	??_R3ITrCommSite@@8				; ITrCommSite::`RTTI Class Hierarchy Descriptor'
PUBLIC	??_R2ITrCommSite@@8				; ITrCommSite::`RTTI Base Class Array'
PUBLIC	??_R1A@?0A@EA@ITrCommSite@@8			; ITrCommSite::`RTTI Base Class Descriptor at (0,-1,0,64)'
PUBLIC	??_R4CTrCommSite@CWinixGwanItem@@6B@		; CWinixGwanItem::CTrCommSite::`RTTI Complete Object Locator'
PUBLIC	??_R0?AVCTrCommSite@CWinixGwanItem@@@8		; CWinixGwanItem::CTrCommSite `RTTI Type Descriptor'
PUBLIC	??_R3CTrCommSite@CWinixGwanItem@@8		; CWinixGwanItem::CTrCommSite::`RTTI Class Hierarchy Descriptor'
PUBLIC	??_R2CTrCommSite@CWinixGwanItem@@8		; CWinixGwanItem::CTrCommSite::`RTTI Base Class Array'
PUBLIC	??_R1A@?0A@EA@CTrCommSite@CWinixGwanItem@@8	; CWinixGwanItem::CTrCommSite::`RTTI Base Class Descriptor at (0,-1,0,64)'
PUBLIC	??_R4?$CList@PAVCWinixGwanGroup@@PAV1@@@6B@	; CList<CWinixGwanGroup *,CWinixGwanGroup *>::`RTTI Complete Object Locator'
PUBLIC	??_R0?AV?$CList@PAVCWinixGwanGroup@@PAV1@@@@8	; CList<CWinixGwanGroup *,CWinixGwanGroup *> `RTTI Type Descriptor'
PUBLIC	??_R3?$CList@PAVCWinixGwanGroup@@PAV1@@@8	; CList<CWinixGwanGroup *,CWinixGwanGroup *>::`RTTI Class Hierarchy Descriptor'
PUBLIC	??_R2?$CList@PAVCWinixGwanGroup@@PAV1@@@8	; CList<CWinixGwanGroup *,CWinixGwanGroup *>::`RTTI Base Class Array'
PUBLIC	??_R1A@?0A@EA@?$CList@PAVCWinixGwanGroup@@PAV1@@@8 ; CList<CWinixGwanGroup *,CWinixGwanGroup *>::`RTTI Base Class Descriptor at (0,-1,0,64)'
EXTRN	??3@YAXPAX@Z:PROC				; operator delete
EXTRN	??3@YAXPAXI@Z:PROC				; operator delete
EXTRN	?__global_delete@@YAXPAXI@Z:PROC		; __global_delete
EXTRN	___std_terminate:PROC
EXTRN	__imp__RegisterWindowMessageA@4:PROC
EXTRN	__imp__SendMessageA@16:PROC
EXTRN	?AfxThrowInvalidArgException@@YGXXZ:PROC	; AfxThrowInvalidArgException
EXTRN	?AfxThrowArchiveException@@YGXHPBD@Z:PROC	; AfxThrowArchiveException
EXTRN	?GetRuntimeClass@CObject@@UBEPAUCRuntimeClass@@XZ:PROC ; CObject::GetRuntimeClass
EXTRN	__imp_??0?$CStringT@DV?$StrTraitMFC_DLL@DV?$ChTraitsCRT@D@ATL@@@@@ATL@@QAE@PBD@Z:PROC
EXTRN	__imp_??1?$CStringT@DV?$StrTraitMFC_DLL@DV?$ChTraitsCRT@D@ATL@@@@@ATL@@QAE@XZ:PROC
EXTRN	__imp_?Format@?$CStringT@DV?$StrTraitMFC_DLL@DV?$ChTraitsCRT@D@ATL@@@@@ATL@@QAAXPBDZZ:PROC
EXTRN	?Read@CArchive@@QAEIPAXI@Z:PROC			; CArchive::Read
EXTRN	?Write@CArchive@@QAEXPBXI@Z:PROC		; CArchive::Write
EXTRN	?ReadCount@CArchive@@QAEKXZ:PROC		; CArchive::ReadCount
EXTRN	?WriteCount@CArchive@@QAEXK@Z:PROC		; CArchive::WriteCount
EXTRN	?Create@CPlex@@SGPAU1@AAPAU1@II@Z:PROC		; CPlex::Create
EXTRN	?FreeDataChain@CPlex@@QAEXXZ:PROC		; CPlex::FreeDataChain
EXTRN	?FromHandle@CWnd@@SGPAV1@PAUHWND__@@@Z:PROC	; CWnd::FromHandle
EXTRN	??_E?$CList@PAVCWinixGwanGroup@@PAV1@@@UAEPAXI@Z:PROC ; CList<CWinixGwanGroup *,CWinixGwanGroup *>::`vector deleting destructor'
EXTRN	@__security_check_cookie@4:PROC
EXTRN	___CxxFrameHandler3:PROC
EXTRN	__chkstk:PROC
EXTRN	_memset:PROC
EXTRN	??_7type_info@@6B@:QWORD			; type_info::`vftable'
EXTRN	___security_cookie:DWORD
_BSS	SEGMENT
?RMSG_INTERFACE@@3IB DD 01H DUP (?)			; RMSG_INTERFACE
?RMSG_GETPCTRDATA@@3IB DD 01H DUP (?)			; RMSG_GETPCTRDATA
?RMSG_SETPCTRDATA@@3IB DD 01H DUP (?)			; RMSG_SETPCTRDATA
?RMSG_CONCERNHWND@@3IB DD 01H DUP (?)			; RMSG_CONCERNHWND
?RMSG_INTREQUEST@@3IB DD 01H DUP (?)			; RMSG_INTREQUEST
?RMSG_GWANSIMREGISTER@@3IB DD 01H DUP (?)		; RMSG_GWANSIMREGISTER
?RMSG_WINIXPLATFORM@@3IB DD 01H DUP (?)			; RMSG_WINIXPLATFORM
?RMSG_GETSIGNAL_REAL@@3IB DD 01H DUP (?)		; RMSG_GETSIGNAL_REAL
?RMSG_SENDMESSAGE@@3IB DD 01H DUP (?)			; RMSG_SENDMESSAGE
_BSS	ENDS
CRT$XCU	SEGMENT
?RMSG_INTERFACE$initializer$@@3P6AXXZA DD FLAT:??__ERMSG_INTERFACE@@YAXXZ ; RMSG_INTERFACE$initializer$
CRT$XCU	ENDS
;	COMDAT ??_R1A@?0A@EA@?$CList@PAVCWinixGwanGroup@@PAV1@@@8
rdata$r	SEGMENT
??_R1A@?0A@EA@?$CList@PAVCWinixGwanGroup@@PAV1@@@8 DD FLAT:??_R0?AV?$CList@PAVCWinixGwanGroup@@PAV1@@@@8 ; CList<CWinixGwanGroup *,CWinixGwanGroup *>::`RTTI Base Class Descriptor at (0,-1,0,64)'
	DD	01H
	DD	00H
	DD	0ffffffffH
	DD	00H
	DD	040H
	DD	FLAT:??_R3?$CList@PAVCWinixGwanGroup@@PAV1@@@8
rdata$r	ENDS
;	COMDAT ??_R2?$CList@PAVCWinixGwanGroup@@PAV1@@@8
rdata$r	SEGMENT
??_R2?$CList@PAVCWinixGwanGroup@@PAV1@@@8 DD FLAT:??_R1A@?0A@EA@?$CList@PAVCWinixGwanGroup@@PAV1@@@8 ; CList<CWinixGwanGroup *,CWinixGwanGroup *>::`RTTI Base Class Array'
	DD	FLAT:??_R1A@?0A@EA@CObject@@8
rdata$r	ENDS
;	COMDAT ??_R3?$CList@PAVCWinixGwanGroup@@PAV1@@@8
rdata$r	SEGMENT
??_R3?$CList@PAVCWinixGwanGroup@@PAV1@@@8 DD 00H	; CList<CWinixGwanGroup *,CWinixGwanGroup *>::`RTTI Class Hierarchy Descriptor'
	DD	00H
	DD	02H
	DD	FLAT:??_R2?$CList@PAVCWinixGwanGroup@@PAV1@@@8
rdata$r	ENDS
;	COMDAT ??_R0?AV?$CList@PAVCWinixGwanGroup@@PAV1@@@@8
data$rs	SEGMENT
??_R0?AV?$CList@PAVCWinixGwanGroup@@PAV1@@@@8 DD FLAT:??_7type_info@@6B@ ; CList<CWinixGwanGroup *,CWinixGwanGroup *> `RTTI Type Descriptor'
	DD	00H
	DB	'.?AV?$CList@PAVCWinixGwanGroup@@PAV1@@@', 00H
data$rs	ENDS
;	COMDAT ??_R4?$CList@PAVCWinixGwanGroup@@PAV1@@@6B@
rdata$r	SEGMENT
??_R4?$CList@PAVCWinixGwanGroup@@PAV1@@@6B@ DD 00H	; CList<CWinixGwanGroup *,CWinixGwanGroup *>::`RTTI Complete Object Locator'
	DD	00H
	DD	00H
	DD	FLAT:??_R0?AV?$CList@PAVCWinixGwanGroup@@PAV1@@@@8
	DD	FLAT:??_R3?$CList@PAVCWinixGwanGroup@@PAV1@@@8
rdata$r	ENDS
;	COMDAT ??_R1A@?0A@EA@CTrCommSite@CWinixGwanItem@@8
rdata$r	SEGMENT
??_R1A@?0A@EA@CTrCommSite@CWinixGwanItem@@8 DD FLAT:??_R0?AVCTrCommSite@CWinixGwanItem@@@8 ; CWinixGwanItem::CTrCommSite::`RTTI Base Class Descriptor at (0,-1,0,64)'
	DD	01H
	DD	00H
	DD	0ffffffffH
	DD	00H
	DD	040H
	DD	FLAT:??_R3CTrCommSite@CWinixGwanItem@@8
rdata$r	ENDS
;	COMDAT ??_R2CTrCommSite@CWinixGwanItem@@8
rdata$r	SEGMENT
??_R2CTrCommSite@CWinixGwanItem@@8 DD FLAT:??_R1A@?0A@EA@CTrCommSite@CWinixGwanItem@@8 ; CWinixGwanItem::CTrCommSite::`RTTI Base Class Array'
	DD	FLAT:??_R1A@?0A@EA@ITrCommSite@@8
rdata$r	ENDS
;	COMDAT ??_R3CTrCommSite@CWinixGwanItem@@8
rdata$r	SEGMENT
??_R3CTrCommSite@CWinixGwanItem@@8 DD 00H		; CWinixGwanItem::CTrCommSite::`RTTI Class Hierarchy Descriptor'
	DD	00H
	DD	02H
	DD	FLAT:??_R2CTrCommSite@CWinixGwanItem@@8
rdata$r	ENDS
;	COMDAT ??_R0?AVCTrCommSite@CWinixGwanItem@@@8
data$rs	SEGMENT
??_R0?AVCTrCommSite@CWinixGwanItem@@@8 DD FLAT:??_7type_info@@6B@ ; CWinixGwanItem::CTrCommSite `RTTI Type Descriptor'
	DD	00H
	DB	'.?AVCTrCommSite@CWinixGwanItem@@', 00H
data$rs	ENDS
;	COMDAT ??_R4CTrCommSite@CWinixGwanItem@@6B@
rdata$r	SEGMENT
??_R4CTrCommSite@CWinixGwanItem@@6B@ DD 00H		; CWinixGwanItem::CTrCommSite::`RTTI Complete Object Locator'
	DD	00H
	DD	00H
	DD	FLAT:??_R0?AVCTrCommSite@CWinixGwanItem@@@8
	DD	FLAT:??_R3CTrCommSite@CWinixGwanItem@@8
rdata$r	ENDS
;	COMDAT ??_R1A@?0A@EA@ITrCommSite@@8
rdata$r	SEGMENT
??_R1A@?0A@EA@ITrCommSite@@8 DD FLAT:??_R0?AUITrCommSite@@@8 ; ITrCommSite::`RTTI Base Class Descriptor at (0,-1,0,64)'
	DD	00H
	DD	00H
	DD	0ffffffffH
	DD	00H
	DD	040H
	DD	FLAT:??_R3ITrCommSite@@8
rdata$r	ENDS
;	COMDAT ??_R2ITrCommSite@@8
rdata$r	SEGMENT
??_R2ITrCommSite@@8 DD FLAT:??_R1A@?0A@EA@ITrCommSite@@8 ; ITrCommSite::`RTTI Base Class Array'
rdata$r	ENDS
;	COMDAT ??_R3ITrCommSite@@8
rdata$r	SEGMENT
??_R3ITrCommSite@@8 DD 00H				; ITrCommSite::`RTTI Class Hierarchy Descriptor'
	DD	00H
	DD	01H
	DD	FLAT:??_R2ITrCommSite@@8
rdata$r	ENDS
;	COMDAT ??_R0?AUITrCommSite@@@8
data$rs	SEGMENT
??_R0?AUITrCommSite@@@8 DD FLAT:??_7type_info@@6B@	; ITrCommSite `RTTI Type Descriptor'
	DD	00H
	DB	'.?AUITrCommSite@@', 00H
data$rs	ENDS
;	COMDAT ??_C@_0BB@HLCCOELJ@?$CFs?7?$CF08X?7?$CFd?7?$CFd?7?$CFs@
CONST	SEGMENT
??_C@_0BB@HLCCOELJ@?$CFs?7?$CF08X?7?$CFd?7?$CFd?7?$CFs@ DB '%s', 09H, '%0'
	DB	'8X', 09H, '%d', 09H, '%d', 09H, '%s', 00H	; `string'
CONST	ENDS
;	COMDAT ??_C@_08LFHHEOFL@PIDOMYST@
CONST	SEGMENT
??_C@_08LFHHEOFL@PIDOMYST@ DB 'PIDOMYST', 00H		; `string'
CONST	ENDS
;	COMDAT ??_C@_05PJHLPLPE@00001@
CONST	SEGMENT
??_C@_05PJHLPLPE@00001@ DB '00001', 00H			; `string'
CONST	ENDS
;	COMDAT ??_7?$CList@PAVCWinixGwanGroup@@PAV1@@@6B@
CONST	SEGMENT
??_7?$CList@PAVCWinixGwanGroup@@PAV1@@@6B@ DD FLAT:??_R4?$CList@PAVCWinixGwanGroup@@PAV1@@@6B@ ; CList<CWinixGwanGroup *,CWinixGwanGroup *>::`vftable'
	DD	FLAT:?GetRuntimeClass@CObject@@UBEPAUCRuntimeClass@@XZ
	DD	FLAT:??_E?$CList@PAVCWinixGwanGroup@@PAV1@@@UAEPAXI@Z
	DD	FLAT:?Serialize@?$CList@PAVCWinixGwanGroup@@PAV1@@@UAEXAAVCArchive@@@Z
	DD	FLAT:?AssertValid@CObject@@UBEXXZ
	DD	FLAT:?Dump@CObject@@UBEXAAVCDumpContext@@@Z
CONST	ENDS
;	COMDAT ??_7CTrCommSite@CWinixGwanItem@@6B@
CONST	SEGMENT
??_7CTrCommSite@CWinixGwanItem@@6B@ DD FLAT:??_R4CTrCommSite@CWinixGwanItem@@6B@ ; CWinixGwanItem::CTrCommSite::`vftable'
	DD	FLAT:?ReceiveData@CTrCommSite@CWinixGwanItem@@UAGJJPBD00PAXJ@Z
	DD	FLAT:?ReceiveRealData@CTrCommSite@CWinixGwanItem@@UAGJGPBDPAX@Z
	DD	FLAT:?StatusChange@CTrCommSite@CWinixGwanItem@@UAGJH@Z
	DD	FLAT:?ReceiveMessage@CTrCommSite@CWinixGwanItem@@UAGJJPBD00@Z
CONST	ENDS
;	COMDAT ??_R1A@?0A@EA@CObject@@8
rdata$r	SEGMENT
??_R1A@?0A@EA@CObject@@8 DD FLAT:??_R0?AVCObject@@@8	; CObject::`RTTI Base Class Descriptor at (0,-1,0,64)'
	DD	00H
	DD	00H
	DD	0ffffffffH
	DD	00H
	DD	040H
	DD	FLAT:??_R3CObject@@8
rdata$r	ENDS
;	COMDAT ??_R2CObject@@8
rdata$r	SEGMENT
??_R2CObject@@8 DD FLAT:??_R1A@?0A@EA@CObject@@8	; CObject::`RTTI Base Class Array'
rdata$r	ENDS
;	COMDAT ??_R3CObject@@8
rdata$r	SEGMENT
??_R3CObject@@8 DD 00H					; CObject::`RTTI Class Hierarchy Descriptor'
	DD	00H
	DD	01H
	DD	FLAT:??_R2CObject@@8
rdata$r	ENDS
;	COMDAT ??_R0?AVCObject@@@8
data$rs	SEGMENT
??_R0?AVCObject@@@8 DD FLAT:??_7type_info@@6B@		; CObject `RTTI Type Descriptor'
	DD	00H
	DB	'.?AVCObject@@', 00H
data$rs	ENDS
;	COMDAT ??_C@_00CNPNBAHC@@
CONST	SEGMENT
??_C@_00CNPNBAHC@@ DB 00H				; `string'
CONST	ENDS
;	COMDAT xdata$x
xdata$x	SEGMENT
__unwindtable$??_G?$CList@PAVCWinixGwanGroup@@PAV1@@@UAEPAXI@Z DD 0ffffffffH
	DD	FLAT:___std_terminate
__ehfuncinfo$??_G?$CList@PAVCWinixGwanGroup@@PAV1@@@UAEPAXI@Z DD 019930522H
	DD	01H
	DD	FLAT:__unwindtable$??_G?$CList@PAVCWinixGwanGroup@@PAV1@@@UAEPAXI@Z
	DD	2 DUP(00H)
	DD	2 DUP(00H)
	DD	00H
	DD	05H
xdata$x	ENDS
;	COMDAT xdata$x
xdata$x	SEGMENT
__ehfuncinfo$??1?$CList@PAVCWinixGwanGroup@@PAV1@@@UAE@XZ DD 019930522H
	DD	00H
	DD	00H
	DD	2 DUP(00H)
	DD	2 DUP(00H)
	DD	00H
	DD	05H
xdata$x	ENDS
;	COMDAT xdata$x
xdata$x	SEGMENT
__unwindtable$??1CWinixGwanGroupList@@QAE@XZ DD 0ffffffffH
	DD	FLAT:___std_terminate
__ehfuncinfo$??1CWinixGwanGroupList@@QAE@XZ DD 019930522H
	DD	01H
	DD	FLAT:__unwindtable$??1CWinixGwanGroupList@@QAE@XZ
	DD	2 DUP(00H)
	DD	2 DUP(00H)
	DD	00H
	DD	05H
xdata$x	ENDS
;	COMDAT xdata$x
xdata$x	SEGMENT
__unwindtable$?RequestGwansimGroup@CWinixGwanItem@@QAEXXZ DD 0ffffffffH
	DD	FLAT:__unwindfunclet$?RequestGwansimGroup@CWinixGwanItem@@QAEXXZ$0
__ehfuncinfo$?RequestGwansimGroup@CWinixGwanItem@@QAEXXZ DD 019930522H
	DD	01H
	DD	FLAT:__unwindtable$?RequestGwansimGroup@CWinixGwanItem@@QAEXXZ
	DD	2 DUP(00H)
	DD	2 DUP(00H)
	DD	00H
	DD	01H
xdata$x	ENDS
CRT$XCU	SEGMENT
?RMSG_GETPCTRDATA$initializer$@@3P6AXXZA DD FLAT:??__ERMSG_GETPCTRDATA@@YAXXZ ; RMSG_GETPCTRDATA$initializer$
CRT$XCU	ENDS
CRT$XCU	SEGMENT
?RMSG_SETPCTRDATA$initializer$@@3P6AXXZA DD FLAT:??__ERMSG_SETPCTRDATA@@YAXXZ ; RMSG_SETPCTRDATA$initializer$
CRT$XCU	ENDS
CRT$XCU	SEGMENT
?RMSG_CONCERNHWND$initializer$@@3P6AXXZA DD FLAT:??__ERMSG_CONCERNHWND@@YAXXZ ; RMSG_CONCERNHWND$initializer$
CRT$XCU	ENDS
CRT$XCU	SEGMENT
?RMSG_INTREQUEST$initializer$@@3P6AXXZA DD FLAT:??__ERMSG_INTREQUEST@@YAXXZ ; RMSG_INTREQUEST$initializer$
CRT$XCU	ENDS
CRT$XCU	SEGMENT
?RMSG_GWANSIMREGISTER$initializer$@@3P6AXXZA DD FLAT:??__ERMSG_GWANSIMREGISTER@@YAXXZ ; RMSG_GWANSIMREGISTER$initializer$
CRT$XCU	ENDS
CRT$XCU	SEGMENT
?RMSG_WINIXPLATFORM$initializer$@@3P6AXXZA DD FLAT:??__ERMSG_WINIXPLATFORM@@YAXXZ ; RMSG_WINIXPLATFORM$initializer$
CRT$XCU	ENDS
CRT$XCU	SEGMENT
?RMSG_GETSIGNAL_REAL$initializer$@@3P6AXXZA DD FLAT:??__ERMSG_GETSIGNAL_REAL@@YAXXZ ; RMSG_GETSIGNAL_REAL$initializer$
CRT$XCU	ENDS
CRT$XCU	SEGMENT
?RMSG_SENDMESSAGE$initializer$@@3P6AXXZA DD FLAT:??__ERMSG_SENDMESSAGE@@YAXXZ ; RMSG_SENDMESSAGE$initializer$
CRT$XCU	ENDS
; Function compile flags: /Ogtp
; File C:\Program Files (x86)\Microsoft Visual Studio\2019\Community\VC\Tools\MSVC\14.29.30133\atlmfc\include\afxtempl.h
; File C:\Program Files (x86)\Microsoft Visual Studio\2019\Community\VC\Tools\MSVC\14.29.30133\atlmfc\include\afx.inl
; File C:\Program Files (x86)\Microsoft Visual Studio\2019\Community\VC\Tools\MSVC\14.29.30133\atlmfc\include\afxtempl.h
; File C:\Program Files (x86)\Microsoft Visual Studio\2019\Community\VC\Tools\MSVC\14.29.30133\atlmfc\include\afx.inl
; File C:\Program Files (x86)\Microsoft Visual Studio\2019\Community\VC\Tools\MSVC\14.29.30133\atlmfc\include\afxtempl.h
; File C:\Program Files (x86)\Microsoft Visual Studio\2019\Community\VC\Tools\MSVC\14.29.30133\atlmfc\include\afx.inl
; File C:\Program Files (x86)\Microsoft Visual Studio\2019\Community\VC\Tools\MSVC\14.29.30133\atlmfc\include\afxtempl.h
;	COMDAT ??$SerializeElements@PAVCWinixGwanGroup@@@@YGXAAVCArchive@@PAPAVCWinixGwanGroup@@H@Z
_TEXT	SEGMENT
_ar$ = 8						; size = 4
_pElements$ = 12					; size = 4
_nCount$ = 16						; size = 4
??$SerializeElements@PAVCWinixGwanGroup@@@@YGXAAVCArchive@@PAPAVCWinixGwanGroup@@H@Z PROC ; SerializeElements<CWinixGwanGroup *>, COMDAT

; 67   : {

  00000	55		 push	 ebp
  00001	8b ec		 mov	 ebp, esp

; 68   : 	ENSURE(nCount == 0 || pElements != NULL);

  00003	8b 4d 0c	 mov	 ecx, DWORD PTR _pElements$[ebp]
  00006	53		 push	 ebx
  00007	56		 push	 esi
  00008	8b 75 10	 mov	 esi, DWORD PTR _nCount$[ebp]
  0000b	57		 push	 edi
  0000c	85 f6		 test	 esi, esi
  0000e	74 08		 je	 SHORT $LN2@SerializeE
  00010	85 c9		 test	 ecx, ecx
  00012	0f 84 89 00 00
	00		 je	 $LN34@SerializeE
$LN2@SerializeE:
; File C:\Program Files (x86)\Microsoft Visual Studio\2019\Community\VC\Tools\MSVC\14.29.30133\atlmfc\include\afx.inl

; 212  : 	{ return (m_nMode & CArchive::load) == 0; }

  00018	8b 55 08	 mov	 edx, DWORD PTR _ar$[ebp]
  0001b	8b 42 18	 mov	 eax, DWORD PTR [edx+24]
  0001e	f7 d0		 not	 eax
  00020	a8 01		 test	 al, 1
; File C:\Program Files (x86)\Microsoft Visual Studio\2019\Community\VC\Tools\MSVC\14.29.30133\atlmfc\include\afxtempl.h

; 73   : 	if (ar.IsStoring())

  00022	74 3c		 je	 SHORT $LN10@SerializeE

; 74   : 	{
; 75   : 		TYPE* pData;
; 76   : 		UINT_PTR nElementsLeft;
; 77   : 
; 78   : 		nElementsLeft = nCount;
; 79   : 		pData = pElements;
; 80   : 		while( nElementsLeft > 0 )

  00024	85 f6		 test	 esi, esi
  00026	74 31		 je	 SHORT $LN8@SerializeE
  00028	0f 1f 84 00 00
	00 00 00	 npad	 8
$LL5@SerializeE:

; 81   : 		{
; 82   : 			UINT nElementsToWrite;
; 83   : 
; 84   : 			nElementsToWrite = UINT(__min(nElementsLeft, INT_MAX/sizeof(TYPE)));

  00030	bb ff ff ff 1f	 mov	 ebx, 536870911		; 1fffffffH
  00035	3b f3		 cmp	 esi, ebx
  00037	0f 42 de	 cmovb	 ebx, esi

; 85   : 			ar.Write(pData, nElementsToWrite*sizeof(TYPE));

  0003a	8d 3c 9d 00 00
	00 00		 lea	 edi, DWORD PTR [ebx*4]
  00041	57		 push	 edi
  00042	51		 push	 ecx
  00043	8b ca		 mov	 ecx, edx
  00045	e8 00 00 00 00	 call	 ?Write@CArchive@@QAEXPBXI@Z ; CArchive::Write

; 86   : 			nElementsLeft -= nElementsToWrite;
; 87   : 			pData += nElementsToWrite;

  0004a	8b 4d 0c	 mov	 ecx, DWORD PTR _pElements$[ebp]
  0004d	8b 55 08	 mov	 edx, DWORD PTR _ar$[ebp]
  00050	03 cf		 add	 ecx, edi
  00052	89 4d 0c	 mov	 DWORD PTR _pElements$[ebp], ecx
  00055	2b f3		 sub	 esi, ebx
  00057	75 d7		 jne	 SHORT $LL5@SerializeE
$LN8@SerializeE:
  00059	5f		 pop	 edi

; 105  : 		}
; 106  : 	}
; 107  : }

  0005a	5e		 pop	 esi
  0005b	5b		 pop	 ebx
  0005c	5d		 pop	 ebp
  0005d	c2 0c 00	 ret	 12			; 0000000cH
$LN10@SerializeE:

; 97   : 		while( nElementsLeft > 0 )

  00060	85 f6		 test	 esi, esi
  00062	74 f5		 je	 SHORT $LN8@SerializeE
$LL7@SerializeE:

; 98   : 		{
; 99   : 			UINT nElementsToRead;
; 100  : 
; 101  : 			nElementsToRead = UINT(__min(nElementsLeft, INT_MAX/sizeof(TYPE)));

  00064	bf ff ff ff 1f	 mov	 edi, 536870911		; 1fffffffH
  00069	3b f7		 cmp	 esi, edi
  0006b	0f 42 fe	 cmovb	 edi, esi

; 102  : 			ar.EnsureRead(pData, nElementsToRead*sizeof(TYPE));

  0006e	8d 1c bd 00 00
	00 00		 lea	 ebx, DWORD PTR [edi*4]
; File C:\Program Files (x86)\Microsoft Visual Studio\2019\Community\VC\Tools\MSVC\14.29.30133\atlmfc\include\afx.inl

; 399  : 	UINT nRead=Read(lpBuf, nCount);

  00075	53		 push	 ebx
  00076	51		 push	 ecx
  00077	8b ca		 mov	 ecx, edx
  00079	e8 00 00 00 00	 call	 ?Read@CArchive@@QAEIPAXI@Z ; CArchive::Read

; 400  : 	if(nRead!=nCount)

  0007e	3b c3		 cmp	 eax, ebx
  00080	75 16		 jne	 SHORT $LN23@SerializeE
; File C:\Program Files (x86)\Microsoft Visual Studio\2019\Community\VC\Tools\MSVC\14.29.30133\atlmfc\include\afxtempl.h

; 97   : 		while( nElementsLeft > 0 )

  00082	8b 4d 0c	 mov	 ecx, DWORD PTR _pElements$[ebp]
  00085	8b 55 08	 mov	 edx, DWORD PTR _ar$[ebp]

; 103  : 			nElementsLeft -= nElementsToRead;
; 104  : 			pData += nElementsToRead;

  00088	03 cb		 add	 ecx, ebx
  0008a	89 4d 0c	 mov	 DWORD PTR _pElements$[ebp], ecx
  0008d	2b f7		 sub	 esi, edi
  0008f	75 d3		 jne	 SHORT $LL7@SerializeE

; 105  : 		}
; 106  : 	}
; 107  : }

  00091	5f		 pop	 edi
  00092	5e		 pop	 esi
  00093	5b		 pop	 ebx
  00094	5d		 pop	 ebp
  00095	c2 0c 00	 ret	 12			; 0000000cH
$LN23@SerializeE:
; File C:\Program Files (x86)\Microsoft Visual Studio\2019\Community\VC\Tools\MSVC\14.29.30133\atlmfc\include\afx.inl

; 402  : 		AfxThrowArchiveException(CArchiveException::endOfFile);

  00098	6a 00		 push	 0
  0009a	6a 03		 push	 3
  0009c	e8 00 00 00 00	 call	 ?AfxThrowArchiveException@@YGXHPBD@Z ; AfxThrowArchiveException
$LN34@SerializeE:
; File C:\Program Files (x86)\Microsoft Visual Studio\2019\Community\VC\Tools\MSVC\14.29.30133\atlmfc\include\afxtempl.h

; 68   : 	ENSURE(nCount == 0 || pElements != NULL);

  000a1	e8 00 00 00 00	 call	 ?AfxThrowInvalidArgException@@YGXXZ ; AfxThrowInvalidArgException
$LN32@SerializeE:
  000a6	cc		 int	 3
??$SerializeElements@PAVCWinixGwanGroup@@@@YGXAAVCArchive@@PAPAVCWinixGwanGroup@@H@Z ENDP ; SerializeElements<CWinixGwanGroup *>
_TEXT	ENDS
; Function compile flags: /Ogtp
; File C:\Program Files (x86)\Microsoft Visual Studio\2019\Community\VC\Tools\MSVC\14.29.30133\atlmfc\include\afxtempl.h
; File C:\Program Files (x86)\Microsoft Visual Studio\2019\Community\VC\Tools\MSVC\14.29.30133\atlmfc\include\afx.inl
;	COMDAT ??_G?$CList@PAVCWinixGwanGroup@@PAV1@@@UAEPAXI@Z
_TEXT	SEGMENT
__$EHRec$ = -12						; size = 12
___flags$ = 8						; size = 4
??_G?$CList@PAVCWinixGwanGroup@@PAV1@@@UAEPAXI@Z PROC	; CList<CWinixGwanGroup *,CWinixGwanGroup *>::`scalar deleting destructor', COMDAT
; _this$ = ecx
  00000	55		 push	 ebp
  00001	8b ec		 mov	 ebp, esp
  00003	6a ff		 push	 -1
  00005	68 00 00 00 00	 push	 __ehhandler$??_G?$CList@PAVCWinixGwanGroup@@PAV1@@@UAEPAXI@Z
  0000a	64 a1 00 00 00
	00		 mov	 eax, DWORD PTR fs:0
  00010	50		 push	 eax
  00011	56		 push	 esi
  00012	a1 00 00 00 00	 mov	 eax, DWORD PTR ___security_cookie
  00017	33 c5		 xor	 eax, ebp
  00019	50		 push	 eax
  0001a	8d 45 f4	 lea	 eax, DWORD PTR __$EHRec$[ebp]
  0001d	64 a3 00 00 00
	00		 mov	 DWORD PTR fs:0, eax
  00023	8b f1		 mov	 esi, ecx
; File C:\Program Files (x86)\Microsoft Visual Studio\2019\Community\VC\Tools\MSVC\14.29.30133\atlmfc\include\afxtempl.h

; 872  : 	m_pBlocks->FreeDataChain();

  00025	8b 4e 14	 mov	 ecx, DWORD PTR [esi+20]

; 878  : {

  00028	c7 45 fc 00 00
	00 00		 mov	 DWORD PTR __$EHRec$[ebp+8], 0
  0002f	c7 06 00 00 00
	00		 mov	 DWORD PTR [esi], OFFSET ??_7?$CList@PAVCWinixGwanGroup@@PAV1@@@6B@

; 870  : 	m_nCount = 0;

  00035	c7 46 0c 00 00
	00 00		 mov	 DWORD PTR [esi+12], 0

; 871  : 	m_pNodeHead = m_pNodeTail = m_pNodeFree = NULL;

  0003c	c7 46 10 00 00
	00 00		 mov	 DWORD PTR [esi+16], 0
  00043	c7 46 08 00 00
	00 00		 mov	 DWORD PTR [esi+8], 0
  0004a	c7 46 04 00 00
	00 00		 mov	 DWORD PTR [esi+4], 0

; 872  : 	m_pBlocks->FreeDataChain();

  00051	e8 00 00 00 00	 call	 ?FreeDataChain@CPlex@@QAEXXZ ; CPlex::FreeDataChain

; 873  : 	m_pBlocks = NULL;

  00056	8b 45 08	 mov	 eax, DWORD PTR ___flags$[ebp]
  00059	c7 46 14 00 00
	00 00		 mov	 DWORD PTR [esi+20], 0
  00060	a8 01		 test	 al, 1
  00062	74 2c		 je	 SHORT $LN22@scalar
  00064	a8 04		 test	 al, 4
  00066	75 1d		 jne	 SHORT $LN3@scalar
; File C:\Program Files (x86)\Microsoft Visual Studio\2019\Community\VC\Tools\MSVC\14.29.30133\atlmfc\include\afx.inl

; 112  : 	{ ::operator delete(p); }

  00068	56		 push	 esi
  00069	e8 00 00 00 00	 call	 ??3@YAXPAX@Z		; operator delete
  0006e	83 c4 04	 add	 esp, 4
  00071	8b c6		 mov	 eax, esi
  00073	8b 4d f4	 mov	 ecx, DWORD PTR __$EHRec$[ebp]
  00076	64 89 0d 00 00
	00 00		 mov	 DWORD PTR fs:0, ecx
  0007d	59		 pop	 ecx
  0007e	5e		 pop	 esi
  0007f	8b e5		 mov	 esp, ebp
  00081	5d		 pop	 ebp
  00082	c2 04 00	 ret	 4
$LN3@scalar:
  00085	6a 1c		 push	 28			; 0000001cH
  00087	56		 push	 esi
  00088	e8 00 00 00 00	 call	 ?__global_delete@@YAXPAXI@Z ; __global_delete
  0008d	83 c4 08	 add	 esp, 8
$LN22@scalar:
  00090	8b c6		 mov	 eax, esi
  00092	8b 4d f4	 mov	 ecx, DWORD PTR __$EHRec$[ebp]
  00095	64 89 0d 00 00
	00 00		 mov	 DWORD PTR fs:0, ecx
  0009c	59		 pop	 ecx
  0009d	5e		 pop	 esi
  0009e	8b e5		 mov	 esp, ebp
  000a0	5d		 pop	 ebp
  000a1	c2 04 00	 ret	 4
  000a4	cc		 int	 3
  000a5	cc		 int	 3
  000a6	cc		 int	 3
  000a7	cc		 int	 3
  000a8	cc		 int	 3
_TEXT	ENDS
;	COMDAT text$x
text$x	SEGMENT
__ehhandler$??_G?$CList@PAVCWinixGwanGroup@@PAV1@@@UAEPAXI@Z:
  00000	90		 npad	 1
  00001	90		 npad	 1
  00002	8b 54 24 08	 mov	 edx, DWORD PTR [esp+8]
  00006	8d 42 0c	 lea	 eax, DWORD PTR [edx+12]
  00009	8b 4a f8	 mov	 ecx, DWORD PTR [edx-8]
  0000c	33 c8		 xor	 ecx, eax
  0000e	e8 00 00 00 00	 call	 @__security_check_cookie@4
  00013	b8 00 00 00 00	 mov	 eax, OFFSET __ehfuncinfo$??_G?$CList@PAVCWinixGwanGroup@@PAV1@@@UAEPAXI@Z
  00018	e9 00 00 00 00	 jmp	 ___CxxFrameHandler3
text$x	ENDS
??_G?$CList@PAVCWinixGwanGroup@@PAV1@@@UAEPAXI@Z ENDP	; CList<CWinixGwanGroup *,CWinixGwanGroup *>::`scalar deleting destructor'
; Function compile flags: /Ogtp
; File C:\Program Files (x86)\Microsoft Visual Studio\2019\Community\VC\Tools\MSVC\14.29.30133\atlmfc\include\afxtempl.h
; File C:\Program Files (x86)\Microsoft Visual Studio\2019\Community\VC\Tools\MSVC\14.29.30133\atlmfc\include\afx.inl
; File C:\Program Files (x86)\Microsoft Visual Studio\2019\Community\VC\Tools\MSVC\14.29.30133\atlmfc\include\afxtempl.h
; File C:\Program Files (x86)\Microsoft Visual Studio\2019\Community\VC\Tools\MSVC\14.29.30133\atlmfc\include\afx.inl
; File C:\Program Files (x86)\Microsoft Visual Studio\2019\Community\VC\Tools\MSVC\14.29.30133\atlmfc\include\afxtempl.h
; File C:\Program Files (x86)\Microsoft Visual Studio\2019\Community\VC\Tools\MSVC\14.29.30133\atlmfc\include\afx.inl
; File C:\Program Files (x86)\Microsoft Visual Studio\2019\Community\VC\Tools\MSVC\14.29.30133\atlmfc\include\afxtempl.h
; File C:\Program Files (x86)\Microsoft Visual Studio\2019\Community\VC\Tools\MSVC\14.29.30133\atlmfc\include\afx.inl
; File C:\Program Files (x86)\Microsoft Visual Studio\2019\Community\VC\Tools\MSVC\14.29.30133\atlmfc\include\afxtempl.h
; File C:\Program Files (x86)\Microsoft Visual Studio\2019\Community\VC\Tools\MSVC\14.29.30133\atlmfc\include\afx.inl
; File C:\Program Files (x86)\Microsoft Visual Studio\2019\Community\VC\Tools\MSVC\14.29.30133\atlmfc\include\afxtempl.h
; File C:\Program Files (x86)\Microsoft Visual Studio\2019\Community\VC\Tools\MSVC\14.29.30133\atlmfc\include\afx.inl
; File C:\Program Files (x86)\Microsoft Visual Studio\2019\Community\VC\Tools\MSVC\14.29.30133\atlmfc\include\afxtempl.h
;	COMDAT ?Serialize@?$CList@PAVCWinixGwanGroup@@PAV1@@@UAEXAAVCArchive@@@Z
_TEXT	SEGMENT
_nNewCount$1$ = -16					; size = 4
_newData$1 = -12					; size = 4
_pData$1$ = -8						; size = 4
_pData$1$ = -8						; size = 4
_pNode$1$ = -8						; size = 4
_nElementsLeft$1$ = -4					; size = 4
_this$1$ = -4						; size = 4
_ar$ = 8						; size = 4
?Serialize@?$CList@PAVCWinixGwanGroup@@PAV1@@@UAEXAAVCArchive@@@Z PROC ; CList<CWinixGwanGroup *,CWinixGwanGroup *>::Serialize, COMDAT
; _this$ = ecx

; 1169 : {

  00000	55		 push	 ebp
  00001	8b ec		 mov	 ebp, esp
  00003	83 ec 10	 sub	 esp, 16			; 00000010H
  00006	53		 push	 ebx
  00007	8b d9		 mov	 ebx, ecx
; File C:\Program Files (x86)\Microsoft Visual Studio\2019\Community\VC\Tools\MSVC\14.29.30133\atlmfc\include\afx.inl

; 212  : 	{ return (m_nMode & CArchive::load) == 0; }

  00009	8b 4d 08	 mov	 ecx, DWORD PTR _ar$[ebp]
; File C:\Program Files (x86)\Microsoft Visual Studio\2019\Community\VC\Tools\MSVC\14.29.30133\atlmfc\include\afxtempl.h

; 1169 : {

  0000c	56		 push	 esi
  0000d	57		 push	 edi
  0000e	89 5d fc	 mov	 DWORD PTR _this$1$[ebp], ebx
; File C:\Program Files (x86)\Microsoft Visual Studio\2019\Community\VC\Tools\MSVC\14.29.30133\atlmfc\include\afx.inl

; 212  : 	{ return (m_nMode & CArchive::load) == 0; }

  00011	8b 41 18	 mov	 eax, DWORD PTR [ecx+24]
  00014	f7 d0		 not	 eax
  00016	a8 01		 test	 al, 1
; File C:\Program Files (x86)\Microsoft Visual Studio\2019\Community\VC\Tools\MSVC\14.29.30133\atlmfc\include\afxtempl.h

; 1174 : 	if (ar.IsStoring())

  00018	0f 84 ae 00 00
	00		 je	 $LN7@Serialize

; 1175 : 	{
; 1176 : 		ar.WriteCount(m_nCount);

  0001e	ff 73 0c	 push	 DWORD PTR [ebx+12]
  00021	e8 00 00 00 00	 call	 ?WriteCount@CArchive@@QAEXK@Z ; CArchive::WriteCount

; 1177 : 		for (CNode* pNode = m_pNodeHead; pNode != NULL; pNode = pNode->pNext)

  00026	8b 43 04	 mov	 eax, DWORD PTR [ebx+4]
  00029	89 45 f8	 mov	 DWORD PTR _pNode$1$[ebp], eax
  0002c	85 c0		 test	 eax, eax
  0002e	0f 84 b9 01 00
	00		 je	 $LN86@Serialize
$LL4@Serialize:

; 1178 : 		{
; 1179 : 			ASSERT(AfxIsValidAddress(pNode, sizeof(CNode)));
; 1180 : 			TYPE* pData;
; 1181 : 			/*
; 1182 : 			 * in some cases the & operator might be overloaded, and we cannot use it to obtain
; 1183 : 			 * the address of a given object.  We then use the following trick to get the address
; 1184 : 			 */
; 1185 : 			pData = reinterpret_cast< TYPE* >( &reinterpret_cast< int& >( static_cast< TYPE& >( pNode->data ) ) );

  00034	8d 70 08	 lea	 esi, DWORD PTR [eax+8]

; 68   : 	ENSURE(nCount == 0 || pElements != NULL);

  00037	85 f6		 test	 esi, esi
  00039	0f 84 c0 01 00
	00		 je	 $LN76@Serialize
; File C:\Program Files (x86)\Microsoft Visual Studio\2019\Community\VC\Tools\MSVC\14.29.30133\atlmfc\include\afx.inl

; 212  : 	{ return (m_nMode & CArchive::load) == 0; }

  0003f	8b 4d 08	 mov	 ecx, DWORD PTR _ar$[ebp]
  00042	8b 41 18	 mov	 eax, DWORD PTR [ecx+24]
  00045	f7 d0		 not	 eax
  00047	a8 01		 test	 al, 1
; File C:\Program Files (x86)\Microsoft Visual Studio\2019\Community\VC\Tools\MSVC\14.29.30133\atlmfc\include\afxtempl.h

; 73   : 	if (ar.IsStoring())

  00049	74 33		 je	 SHORT $LN21@Serialize

; 74   : 	{
; 75   : 		TYPE* pData;
; 76   : 		UINT_PTR nElementsLeft;
; 77   : 
; 78   : 		nElementsLeft = nCount;

  0004b	b8 01 00 00 00	 mov	 eax, 1
  00050	89 45 fc	 mov	 DWORD PTR _nElementsLeft$1$[ebp], eax
$LL16@Serialize:

; 80   : 		while( nElementsLeft > 0 )
; 81   : 		{
; 82   : 			UINT nElementsToWrite;
; 83   : 
; 84   : 			nElementsToWrite = UINT(__min(nElementsLeft, INT_MAX/sizeof(TYPE)));

  00053	bb ff ff ff 1f	 mov	 ebx, 536870911		; 1fffffffH
  00058	3b c3		 cmp	 eax, ebx
  0005a	0f 42 d8	 cmovb	 ebx, eax

; 85   : 			ar.Write(pData, nElementsToWrite*sizeof(TYPE));

  0005d	8d 3c 9d 00 00
	00 00		 lea	 edi, DWORD PTR [ebx*4]
  00064	57		 push	 edi
  00065	56		 push	 esi
  00066	e8 00 00 00 00	 call	 ?Write@CArchive@@QAEXPBXI@Z ; CArchive::Write

; 86   : 			nElementsLeft -= nElementsToWrite;

  0006b	8b 45 fc	 mov	 eax, DWORD PTR _nElementsLeft$1$[ebp]

; 87   : 			pData += nElementsToWrite;

  0006e	03 f7		 add	 esi, edi
  00070	8b 4d 08	 mov	 ecx, DWORD PTR _ar$[ebp]
  00073	2b c3		 sub	 eax, ebx
  00075	89 45 fc	 mov	 DWORD PTR _nElementsLeft$1$[ebp], eax
  00078	85 c0		 test	 eax, eax
  0007a	75 d7		 jne	 SHORT $LL16@Serialize

; 88   : 		}
; 89   : 	}

  0007c	eb 35		 jmp	 SHORT $LN2@Serialize
$LN21@Serialize:

; 90   : 	else
; 91   : 	{
; 92   : 		TYPE* pData;
; 93   : 		UINT_PTR nElementsLeft;
; 94   : 
; 95   : 		nElementsLeft = nCount;

  0007e	bf 01 00 00 00	 mov	 edi, 1
$LL18@Serialize:

; 98   : 		{
; 99   : 			UINT nElementsToRead;
; 100  : 
; 101  : 			nElementsToRead = UINT(__min(nElementsLeft, INT_MAX/sizeof(TYPE)));

  00083	bb ff ff ff 1f	 mov	 ebx, 536870911		; 1fffffffH
  00088	3b fb		 cmp	 edi, ebx
  0008a	0f 42 df	 cmovb	 ebx, edi

; 102  : 			ar.EnsureRead(pData, nElementsToRead*sizeof(TYPE));

  0008d	8d 04 9d 00 00
	00 00		 lea	 eax, DWORD PTR [ebx*4]
; File C:\Program Files (x86)\Microsoft Visual Studio\2019\Community\VC\Tools\MSVC\14.29.30133\atlmfc\include\afx.inl

; 399  : 	UINT nRead=Read(lpBuf, nCount);

  00094	50		 push	 eax
  00095	56		 push	 esi
  00096	e8 00 00 00 00	 call	 ?Read@CArchive@@QAEIPAXI@Z ; CArchive::Read

; 400  : 	if(nRead!=nCount)

  0009b	8d 0c 9d 00 00
	00 00		 lea	 ecx, DWORD PTR [ebx*4]
  000a2	3b c1		 cmp	 eax, ecx
  000a4	0f 85 4c 01 00
	00		 jne	 $LN75@Serialize
; File C:\Program Files (x86)\Microsoft Visual Studio\2019\Community\VC\Tools\MSVC\14.29.30133\atlmfc\include\afxtempl.h

; 97   : 		while( nElementsLeft > 0 )

  000aa	03 f1		 add	 esi, ecx
  000ac	8b 4d 08	 mov	 ecx, DWORD PTR _ar$[ebp]

; 103  : 			nElementsLeft -= nElementsToRead;

  000af	2b fb		 sub	 edi, ebx
  000b1	75 d0		 jne	 SHORT $LL18@Serialize
$LN2@Serialize:

; 1177 : 		for (CNode* pNode = m_pNodeHead; pNode != NULL; pNode = pNode->pNext)

  000b3	8b 45 f8	 mov	 eax, DWORD PTR _pNode$1$[ebp]
  000b6	8b 00		 mov	 eax, DWORD PTR [eax]
  000b8	89 45 f8	 mov	 DWORD PTR _pNode$1$[ebp], eax
  000bb	85 c0		 test	 eax, eax
  000bd	0f 85 71 ff ff
	ff		 jne	 $LL4@Serialize

; 1197 : 		}
; 1198 : 	}
; 1199 : }

  000c3	5f		 pop	 edi
  000c4	5e		 pop	 esi
  000c5	5b		 pop	 ebx
  000c6	8b e5		 mov	 esp, ebp
  000c8	5d		 pop	 ebp
  000c9	c2 04 00	 ret	 4
$LN7@Serialize:

; 1186 : 			SerializeElements<TYPE>(ar, pData, 1);
; 1187 : 		}
; 1188 : 	}
; 1189 : 	else
; 1190 : 	{
; 1191 : 		DWORD_PTR nNewCount = ar.ReadCount();

  000cc	e8 00 00 00 00	 call	 ?ReadCount@CArchive@@QAEKXZ ; CArchive::ReadCount

; 1192 : 		while (nNewCount--)

  000d1	85 c0		 test	 eax, eax
  000d3	0f 84 14 01 00
	00		 je	 $LN86@Serialize
  000d9	0f 1f 80 00 00
	00 00		 npad	 7
$LL5@Serialize:
  000e0	48		 dec	 eax
  000e1	89 45 f0	 mov	 DWORD PTR _nNewCount$1$[ebp], eax
; File C:\Program Files (x86)\Microsoft Visual Studio\2019\Community\VC\Tools\MSVC\14.29.30133\atlmfc\include\afx.inl

; 212  : 	{ return (m_nMode & CArchive::load) == 0; }

  000e4	8b 45 08	 mov	 eax, DWORD PTR _ar$[ebp]
  000e7	8b 48 18	 mov	 ecx, DWORD PTR [eax+24]
  000ea	f7 d1		 not	 ecx
  000ec	f6 c1 01	 test	 cl, 1
; File C:\Program Files (x86)\Microsoft Visual Studio\2019\Community\VC\Tools\MSVC\14.29.30133\atlmfc\include\afxtempl.h

; 73   : 	if (ar.IsStoring())

  000ef	74 3d		 je	 SHORT $LN42@Serialize

; 79   : 		pData = pElements;

  000f1	8d 4d f4	 lea	 ecx, DWORD PTR _newData$1[ebp]
  000f4	bb 01 00 00 00	 mov	 ebx, 1
  000f9	89 4d f8	 mov	 DWORD PTR _pData$1$[ebp], ecx
  000fc	0f 1f 40 00	 npad	 4
$LL37@Serialize:

; 80   : 		while( nElementsLeft > 0 )
; 81   : 		{
; 82   : 			UINT nElementsToWrite;
; 83   : 
; 84   : 			nElementsToWrite = UINT(__min(nElementsLeft, INT_MAX/sizeof(TYPE)));

  00100	bf ff ff ff 1f	 mov	 edi, 536870911		; 1fffffffH
  00105	3b df		 cmp	 ebx, edi
  00107	0f 42 fb	 cmovb	 edi, ebx

; 85   : 			ar.Write(pData, nElementsToWrite*sizeof(TYPE));

  0010a	8d 34 bd 00 00
	00 00		 lea	 esi, DWORD PTR [edi*4]
  00111	56		 push	 esi
  00112	51		 push	 ecx
  00113	8b c8		 mov	 ecx, eax
  00115	e8 00 00 00 00	 call	 ?Write@CArchive@@QAEXPBXI@Z ; CArchive::Write

; 87   : 			pData += nElementsToWrite;

  0011a	8b 4d f8	 mov	 ecx, DWORD PTR _pData$1$[ebp]
  0011d	8b 45 08	 mov	 eax, DWORD PTR _ar$[ebp]
  00120	03 ce		 add	 ecx, esi
  00122	89 4d f8	 mov	 DWORD PTR _pData$1$[ebp], ecx
  00125	2b df		 sub	 ebx, edi
  00127	75 d7		 jne	 SHORT $LL37@Serialize

; 88   : 		}
; 89   : 	}

  00129	8b 5d fc	 mov	 ebx, DWORD PTR _this$1$[ebp]
  0012c	eb 4a		 jmp	 SHORT $LN40@Serialize
$LN42@Serialize:

; 96   : 		pData = pElements;

  0012e	8d 55 f4	 lea	 edx, DWORD PTR _newData$1[ebp]
  00131	be 01 00 00 00	 mov	 esi, 1
  00136	89 55 f8	 mov	 DWORD PTR _pData$1$[ebp], edx
  00139	0f 1f 80 00 00
	00 00		 npad	 7
$LL39@Serialize:

; 98   : 		{
; 99   : 			UINT nElementsToRead;
; 100  : 
; 101  : 			nElementsToRead = UINT(__min(nElementsLeft, INT_MAX/sizeof(TYPE)));

  00140	bf ff ff ff 1f	 mov	 edi, 536870911		; 1fffffffH
  00145	3b f7		 cmp	 esi, edi
  00147	0f 42 fe	 cmovb	 edi, esi

; 102  : 			ar.EnsureRead(pData, nElementsToRead*sizeof(TYPE));

  0014a	8d 0c bd 00 00
	00 00		 lea	 ecx, DWORD PTR [edi*4]
; File C:\Program Files (x86)\Microsoft Visual Studio\2019\Community\VC\Tools\MSVC\14.29.30133\atlmfc\include\afx.inl

; 399  : 	UINT nRead=Read(lpBuf, nCount);

  00151	51		 push	 ecx
  00152	52		 push	 edx
  00153	8b c8		 mov	 ecx, eax
  00155	e8 00 00 00 00	 call	 ?Read@CArchive@@QAEIPAXI@Z ; CArchive::Read

; 400  : 	if(nRead!=nCount)

  0015a	8d 0c bd 00 00
	00 00		 lea	 ecx, DWORD PTR [edi*4]
  00161	3b c1		 cmp	 eax, ecx
  00163	0f 85 8d 00 00
	00		 jne	 $LN75@Serialize
; File C:\Program Files (x86)\Microsoft Visual Studio\2019\Community\VC\Tools\MSVC\14.29.30133\atlmfc\include\afxtempl.h

; 97   : 		while( nElementsLeft > 0 )

  00169	8b 55 f8	 mov	 edx, DWORD PTR _pData$1$[ebp]
  0016c	8b 45 08	 mov	 eax, DWORD PTR _ar$[ebp]

; 104  : 			pData += nElementsToRead;

  0016f	03 d1		 add	 edx, ecx
  00171	89 55 f8	 mov	 DWORD PTR _pData$1$[ebp], edx
  00174	2b f7		 sub	 esi, edi
  00176	75 c8		 jne	 SHORT $LL39@Serialize
$LN40@Serialize:

; 902  : 	if (m_pNodeFree == NULL)

  00178	83 7b 10 00	 cmp	 DWORD PTR [ebx+16], 0

; 1193 : 		{
; 1194 : 			TYPE newData[1];
; 1195 : 			SerializeElements<TYPE>(ar, newData, 1);
; 1196 : 			AddTail(newData[0]);

  0017c	8b 75 f4	 mov	 esi, DWORD PTR _newData$1[ebp]

; 968  : 	CNode* pNewNode = NewNode(m_pNodeTail, NULL);

  0017f	8b 7b 08	 mov	 edi, DWORD PTR [ebx+8]

; 902  : 	if (m_pNodeFree == NULL)

  00182	75 32		 jne	 SHORT $LN63@Serialize

; 903  : 	{
; 904  : 		// add another block
; 905  : 		CPlex* pNewBlock = CPlex::Create(m_pBlocks, m_nBlockSize,

  00184	6a 0c		 push	 12			; 0000000cH
  00186	ff 73 18	 push	 DWORD PTR [ebx+24]
  00189	8d 43 14	 lea	 eax, DWORD PTR [ebx+20]
  0018c	50		 push	 eax
  0018d	e8 00 00 00 00	 call	 ?Create@CPlex@@SGPAU1@AAPAU1@II@Z ; CPlex::Create

; 906  : 				 sizeof(CNode));
; 907  : 
; 908  : 		// chain them into free list
; 909  : 		CNode* pNode = (CNode*) pNewBlock->data();
; 910  : 		// free in reverse order to make it easier to debug
; 911  : 		pNode += m_nBlockSize - 1;

  00192	8b 53 18	 mov	 edx, DWORD PTR [ebx+24]
  00195	83 c0 08	 add	 eax, 8
  00198	8d 4a ff	 lea	 ecx, DWORD PTR [edx-1]

; 912  : 		for (INT_PTR i = m_nBlockSize-1; i >= 0; i--, pNode--)

  0019b	83 c2 ff	 add	 edx, -1
  0019e	8d 0c 49	 lea	 ecx, DWORD PTR [ecx+ecx*2]
  001a1	8d 0c 88	 lea	 ecx, DWORD PTR [eax+ecx*4]
  001a4	78 10		 js	 SHORT $LN63@Serialize
$LL60@Serialize:

; 913  : 		{
; 914  : 			pNode->pNext = m_pNodeFree;

  001a6	8b 43 10	 mov	 eax, DWORD PTR [ebx+16]
  001a9	89 01		 mov	 DWORD PTR [ecx], eax

; 915  : 			m_pNodeFree = pNode;

  001ab	89 4b 10	 mov	 DWORD PTR [ebx+16], ecx
  001ae	83 e9 0c	 sub	 ecx, 12			; 0000000cH
  001b1	83 ea 01	 sub	 edx, 1
  001b4	79 f0		 jns	 SHORT $LL60@Serialize
$LN63@Serialize:

; 916  : 		}
; 917  : 	}
; 918  : 	ENSURE(m_pNodeFree != NULL);  // we must have something

  001b6	8b 4b 10	 mov	 ecx, DWORD PTR [ebx+16]
  001b9	85 c9		 test	 ecx, ecx
  001bb	74 42		 je	 SHORT $LN76@Serialize

; 919  : 
; 920  : 	CList::CNode* pNode = m_pNodeFree;
; 921  : 	m_pNodeFree = m_pNodeFree->pNext;

  001bd	8b 01		 mov	 eax, DWORD PTR [ecx]
  001bf	89 43 10	 mov	 DWORD PTR [ebx+16], eax

; 922  : 	pNode->pPrev = pPrev;

  001c2	89 79 04	 mov	 DWORD PTR [ecx+4], edi

; 923  : 	pNode->pNext = pNext;

  001c5	c7 01 00 00 00
	00		 mov	 DWORD PTR [ecx], 0

; 924  : 	m_nCount++;

  001cb	ff 43 0c	 inc	 DWORD PTR [ebx+12]

; 969  : 	pNewNode->data = newElement;

  001ce	89 71 08	 mov	 DWORD PTR [ecx+8], esi

; 970  : 	if (m_pNodeTail != NULL)

  001d1	8b 43 08	 mov	 eax, DWORD PTR [ebx+8]
  001d4	85 c0		 test	 eax, eax
  001d6	74 04		 je	 SHORT $LN54@Serialize

; 971  : 		m_pNodeTail->pNext = pNewNode;

  001d8	89 08		 mov	 DWORD PTR [eax], ecx
  001da	eb 03		 jmp	 SHORT $LN55@Serialize
$LN54@Serialize:

; 972  : 	else
; 973  : 		m_pNodeHead = pNewNode;

  001dc	89 4b 04	 mov	 DWORD PTR [ebx+4], ecx
$LN55@Serialize:

; 1192 : 		while (nNewCount--)

  001df	8b 45 f0	 mov	 eax, DWORD PTR _nNewCount$1$[ebp]

; 974  : 	m_pNodeTail = pNewNode;

  001e2	89 4b 08	 mov	 DWORD PTR [ebx+8], ecx

; 1192 : 		while (nNewCount--)

  001e5	85 c0		 test	 eax, eax
  001e7	0f 85 f3 fe ff
	ff		 jne	 $LL5@Serialize
$LN86@Serialize:
  001ed	5f		 pop	 edi

; 1197 : 		}
; 1198 : 	}
; 1199 : }

  001ee	5e		 pop	 esi
  001ef	5b		 pop	 ebx
  001f0	8b e5		 mov	 esp, ebp
  001f2	5d		 pop	 ebp
  001f3	c2 04 00	 ret	 4
$LN75@Serialize:
  001f6	6a 00		 push	 0
  001f8	6a 03		 push	 3
  001fa	e8 00 00 00 00	 call	 ?AfxThrowArchiveException@@YGXHPBD@Z ; AfxThrowArchiveException
$LN76@Serialize:
  001ff	e8 00 00 00 00	 call	 ?AfxThrowInvalidArgException@@YGXXZ ; AfxThrowInvalidArgException
$LN105@Serialize:
  00204	cc		 int	 3
?Serialize@?$CList@PAVCWinixGwanGroup@@PAV1@@@UAEXAAVCArchive@@@Z ENDP ; CList<CWinixGwanGroup *,CWinixGwanGroup *>::Serialize
_TEXT	ENDS
; Function compile flags: /Ogtp
; File C:\Program Files (x86)\Microsoft Visual Studio\2019\Community\VC\Tools\MSVC\14.29.30133\atlmfc\include\afxtempl.h
;	COMDAT ??1?$CList@PAVCWinixGwanGroup@@PAV1@@@UAE@XZ
_TEXT	SEGMENT
__$EHRec$ = -12						; size = 12
??1?$CList@PAVCWinixGwanGroup@@PAV1@@@UAE@XZ PROC	; CList<CWinixGwanGroup *,CWinixGwanGroup *>::~CList<CWinixGwanGroup *,CWinixGwanGroup *>, COMDAT
; _this$ = ecx

; 878  : {

  00000	55		 push	 ebp
  00001	8b ec		 mov	 ebp, esp
  00003	6a ff		 push	 -1
  00005	68 00 00 00 00	 push	 __ehhandler$??1?$CList@PAVCWinixGwanGroup@@PAV1@@@UAE@XZ
  0000a	64 a1 00 00 00
	00		 mov	 eax, DWORD PTR fs:0
  00010	50		 push	 eax
  00011	56		 push	 esi
  00012	a1 00 00 00 00	 mov	 eax, DWORD PTR ___security_cookie
  00017	33 c5		 xor	 eax, ebp
  00019	50		 push	 eax
  0001a	8d 45 f4	 lea	 eax, DWORD PTR __$EHRec$[ebp]
  0001d	64 a3 00 00 00
	00		 mov	 DWORD PTR fs:0, eax
  00023	8b f1		 mov	 esi, ecx

; 872  : 	m_pBlocks->FreeDataChain();

  00025	8b 4e 14	 mov	 ecx, DWORD PTR [esi+20]

; 878  : {

  00028	c7 06 00 00 00
	00		 mov	 DWORD PTR [esi], OFFSET ??_7?$CList@PAVCWinixGwanGroup@@PAV1@@@6B@

; 870  : 	m_nCount = 0;

  0002e	c7 46 0c 00 00
	00 00		 mov	 DWORD PTR [esi+12], 0

; 871  : 	m_pNodeHead = m_pNodeTail = m_pNodeFree = NULL;

  00035	c7 46 10 00 00
	00 00		 mov	 DWORD PTR [esi+16], 0
  0003c	c7 46 08 00 00
	00 00		 mov	 DWORD PTR [esi+8], 0
  00043	c7 46 04 00 00
	00 00		 mov	 DWORD PTR [esi+4], 0

; 872  : 	m_pBlocks->FreeDataChain();

  0004a	e8 00 00 00 00	 call	 ?FreeDataChain@CPlex@@QAEXXZ ; CPlex::FreeDataChain

; 873  : 	m_pBlocks = NULL;

  0004f	c7 46 14 00 00
	00 00		 mov	 DWORD PTR [esi+20], 0

; 879  : 	RemoveAll();
; 880  : 	ASSERT(m_nCount == 0);
; 881  : }

  00056	8b 4d f4	 mov	 ecx, DWORD PTR __$EHRec$[ebp]
  00059	64 89 0d 00 00
	00 00		 mov	 DWORD PTR fs:0, ecx
  00060	59		 pop	 ecx
  00061	5e		 pop	 esi
  00062	8b e5		 mov	 esp, ebp
  00064	5d		 pop	 ebp
  00065	c3		 ret	 0
  00066	cc		 int	 3
  00067	cc		 int	 3
  00068	cc		 int	 3
  00069	cc		 int	 3
  0006a	cc		 int	 3
_TEXT	ENDS
;	COMDAT text$x
text$x	SEGMENT
__ehhandler$??1?$CList@PAVCWinixGwanGroup@@PAV1@@@UAE@XZ:
  00000	90		 npad	 1
  00001	90		 npad	 1
  00002	8b 54 24 08	 mov	 edx, DWORD PTR [esp+8]
  00006	8d 42 0c	 lea	 eax, DWORD PTR [edx+12]
  00009	8b 4a f8	 mov	 ecx, DWORD PTR [edx-8]
  0000c	33 c8		 xor	 ecx, eax
  0000e	e8 00 00 00 00	 call	 @__security_check_cookie@4
  00013	b8 00 00 00 00	 mov	 eax, OFFSET __ehfuncinfo$??1?$CList@PAVCWinixGwanGroup@@PAV1@@@UAE@XZ
  00018	e9 00 00 00 00	 jmp	 ___CxxFrameHandler3
text$x	ENDS
??1?$CList@PAVCWinixGwanGroup@@PAV1@@@UAE@XZ ENDP	; CList<CWinixGwanGroup *,CWinixGwanGroup *>::~CList<CWinixGwanGroup *,CWinixGwanGroup *>
; Function compile flags: /Ogtp
; File C:\Program Files (x86)\Microsoft Visual Studio\2019\Community\VC\Tools\MSVC\14.29.30133\atlmfc\include\afxtempl.h
;	COMDAT ?NewNode@?$CList@PAVCWinixGwanGroup@@PAV1@@@IAEPAUCNode@1@PAU21@0@Z
_TEXT	SEGMENT
_pPrev$ = 8						; size = 4
_pNext$ = 12						; size = 4
?NewNode@?$CList@PAVCWinixGwanGroup@@PAV1@@@IAEPAUCNode@1@PAU21@0@Z PROC ; CList<CWinixGwanGroup *,CWinixGwanGroup *>::NewNode, COMDAT
; _this$ = ecx

; 901  : {

  00000	55		 push	 ebp
  00001	8b ec		 mov	 ebp, esp
  00003	56		 push	 esi
  00004	8b f1		 mov	 esi, ecx

; 902  : 	if (m_pNodeFree == NULL)

  00006	83 7e 10 00	 cmp	 DWORD PTR [esi+16], 0
  0000a	75 34		 jne	 SHORT $LN7@NewNode

; 903  : 	{
; 904  : 		// add another block
; 905  : 		CPlex* pNewBlock = CPlex::Create(m_pBlocks, m_nBlockSize,

  0000c	6a 0c		 push	 12			; 0000000cH
  0000e	ff 76 18	 push	 DWORD PTR [esi+24]
  00011	8d 46 14	 lea	 eax, DWORD PTR [esi+20]
  00014	50		 push	 eax
  00015	e8 00 00 00 00	 call	 ?Create@CPlex@@SGPAU1@AAPAU1@II@Z ; CPlex::Create

; 906  : 				 sizeof(CNode));
; 907  : 
; 908  : 		// chain them into free list
; 909  : 		CNode* pNode = (CNode*) pNewBlock->data();
; 910  : 		// free in reverse order to make it easier to debug
; 911  : 		pNode += m_nBlockSize - 1;

  0001a	8b 56 18	 mov	 edx, DWORD PTR [esi+24]
  0001d	83 c0 08	 add	 eax, 8
  00020	8d 0c 52	 lea	 ecx, DWORD PTR [edx+edx*2]
  00023	8d 04 88	 lea	 eax, DWORD PTR [eax+ecx*4]
  00026	83 c0 f4	 add	 eax, -12		; fffffff4H

; 912  : 		for (INT_PTR i = m_nBlockSize-1; i >= 0; i--, pNode--)

  00029	83 c2 ff	 add	 edx, -1
  0002c	78 12		 js	 SHORT $LN7@NewNode
  0002e	66 90		 npad	 2
$LL4@NewNode:

; 913  : 		{
; 914  : 			pNode->pNext = m_pNodeFree;

  00030	8b 4e 10	 mov	 ecx, DWORD PTR [esi+16]
  00033	89 08		 mov	 DWORD PTR [eax], ecx

; 915  : 			m_pNodeFree = pNode;

  00035	89 46 10	 mov	 DWORD PTR [esi+16], eax
  00038	83 e8 0c	 sub	 eax, 12			; 0000000cH
  0003b	83 ea 01	 sub	 edx, 1
  0003e	79 f0		 jns	 SHORT $LL4@NewNode
$LN7@NewNode:

; 916  : 		}
; 917  : 	}
; 918  : 	ENSURE(m_pNodeFree != NULL);  // we must have something

  00040	8b 46 10	 mov	 eax, DWORD PTR [esi+16]
  00043	85 c0		 test	 eax, eax
  00045	74 18		 je	 SHORT $LN17@NewNode

; 919  : 
; 920  : 	CList::CNode* pNode = m_pNodeFree;
; 921  : 	m_pNodeFree = m_pNodeFree->pNext;

  00047	8b 08		 mov	 ecx, DWORD PTR [eax]
  00049	89 4e 10	 mov	 DWORD PTR [esi+16], ecx

; 922  : 	pNode->pPrev = pPrev;

  0004c	8b 4d 08	 mov	 ecx, DWORD PTR _pPrev$[ebp]
  0004f	89 48 04	 mov	 DWORD PTR [eax+4], ecx

; 923  : 	pNode->pNext = pNext;

  00052	8b 4d 0c	 mov	 ecx, DWORD PTR _pNext$[ebp]
  00055	89 08		 mov	 DWORD PTR [eax], ecx

; 924  : 	m_nCount++;

  00057	ff 46 0c	 inc	 DWORD PTR [esi+12]

; 925  : 	ASSERT(m_nCount > 0);  // make sure we don't overflow
; 926  : 
; 927  : #pragma push_macro("new")
; 928  : #undef new
; 929  : 	::new( (void*)( &pNode->data ) ) TYPE;
; 930  : #pragma pop_macro("new")
; 931  : 	return pNode;

  0005a	5e		 pop	 esi

; 932  : }

  0005b	5d		 pop	 ebp
  0005c	c2 08 00	 ret	 8
$LN17@NewNode:

; 916  : 		}
; 917  : 	}
; 918  : 	ENSURE(m_pNodeFree != NULL);  // we must have something

  0005f	e8 00 00 00 00	 call	 ?AfxThrowInvalidArgException@@YGXXZ ; AfxThrowInvalidArgException
$LN15@NewNode:
  00064	cc		 int	 3
?NewNode@?$CList@PAVCWinixGwanGroup@@PAV1@@@IAEPAUCNode@1@PAU21@0@Z ENDP ; CList<CWinixGwanGroup *,CWinixGwanGroup *>::NewNode
_TEXT	ENDS
; Function compile flags: /Ogtp
; File C:\Program Files (x86)\Microsoft Visual Studio\2019\Community\VC\Tools\MSVC\14.29.30133\atlmfc\include\afxtempl.h
;	COMDAT ?RemoveAll@?$CList@PAVCWinixGwanGroup@@PAV1@@@QAEXXZ
_TEXT	SEGMENT
?RemoveAll@?$CList@PAVCWinixGwanGroup@@PAV1@@@QAEXXZ PROC ; CList<CWinixGwanGroup *,CWinixGwanGroup *>::RemoveAll, COMDAT
; _this$ = ecx

; 862  : {

  00000	56		 push	 esi
  00001	8b f1		 mov	 esi, ecx

; 863  : 	ASSERT_VALID(this);
; 864  : 
; 865  : 	// destroy elements
; 866  : 	CNode* pNode;
; 867  : 	for (pNode = m_pNodeHead; pNode != NULL; pNode = pNode->pNext)
; 868  : 		pNode->data.~TYPE();
; 869  : 
; 870  : 	m_nCount = 0;
; 871  : 	m_pNodeHead = m_pNodeTail = m_pNodeFree = NULL;
; 872  : 	m_pBlocks->FreeDataChain();

  00003	8b 4e 14	 mov	 ecx, DWORD PTR [esi+20]
  00006	c7 46 0c 00 00
	00 00		 mov	 DWORD PTR [esi+12], 0
  0000d	c7 46 10 00 00
	00 00		 mov	 DWORD PTR [esi+16], 0
  00014	c7 46 08 00 00
	00 00		 mov	 DWORD PTR [esi+8], 0
  0001b	c7 46 04 00 00
	00 00		 mov	 DWORD PTR [esi+4], 0
  00022	e8 00 00 00 00	 call	 ?FreeDataChain@CPlex@@QAEXXZ ; CPlex::FreeDataChain

; 873  : 	m_pBlocks = NULL;

  00027	c7 46 14 00 00
	00 00		 mov	 DWORD PTR [esi+20], 0
  0002e	5e		 pop	 esi

; 874  : }

  0002f	c3		 ret	 0
?RemoveAll@?$CList@PAVCWinixGwanGroup@@PAV1@@@QAEXXZ ENDP ; CList<CWinixGwanGroup *,CWinixGwanGroup *>::RemoveAll
_TEXT	ENDS
; Function compile flags: /Ogtp
; File C:\Program Files (x86)\Microsoft Visual Studio\2019\Community\VC\Tools\MSVC\14.29.30133\atlmfc\include\afxtempl.h
;	COMDAT ?AddTail@?$CList@PAVCWinixGwanGroup@@PAV1@@@QAEPAU__POSITION@@PAVCWinixGwanGroup@@@Z
_TEXT	SEGMENT
_newElement$ = 8					; size = 4
?AddTail@?$CList@PAVCWinixGwanGroup@@PAV1@@@QAEPAU__POSITION@@PAVCWinixGwanGroup@@@Z PROC ; CList<CWinixGwanGroup *,CWinixGwanGroup *>::AddTail, COMDAT
; _this$ = ecx

; 965  : {

  00000	55		 push	 ebp
  00001	8b ec		 mov	 ebp, esp
  00003	56		 push	 esi
  00004	8b f1		 mov	 esi, ecx
  00006	57		 push	 edi

; 902  : 	if (m_pNodeFree == NULL)

  00007	83 7e 10 00	 cmp	 DWORD PTR [esi+16], 0

; 966  : 	ASSERT_VALID(this);
; 967  : 
; 968  : 	CNode* pNewNode = NewNode(m_pNodeTail, NULL);

  0000b	8b 7e 08	 mov	 edi, DWORD PTR [esi+8]

; 902  : 	if (m_pNodeFree == NULL)

  0000e	75 32		 jne	 SHORT $LN11@AddTail

; 903  : 	{
; 904  : 		// add another block
; 905  : 		CPlex* pNewBlock = CPlex::Create(m_pBlocks, m_nBlockSize,

  00010	6a 0c		 push	 12			; 0000000cH
  00012	ff 76 18	 push	 DWORD PTR [esi+24]
  00015	8d 46 14	 lea	 eax, DWORD PTR [esi+20]
  00018	50		 push	 eax
  00019	e8 00 00 00 00	 call	 ?Create@CPlex@@SGPAU1@AAPAU1@II@Z ; CPlex::Create

; 906  : 				 sizeof(CNode));
; 907  : 
; 908  : 		// chain them into free list
; 909  : 		CNode* pNode = (CNode*) pNewBlock->data();
; 910  : 		// free in reverse order to make it easier to debug
; 911  : 		pNode += m_nBlockSize - 1;

  0001e	8b 56 18	 mov	 edx, DWORD PTR [esi+24]
  00021	83 c0 08	 add	 eax, 8
  00024	8d 4a ff	 lea	 ecx, DWORD PTR [edx-1]

; 912  : 		for (INT_PTR i = m_nBlockSize-1; i >= 0; i--, pNode--)

  00027	83 c2 ff	 add	 edx, -1
  0002a	8d 0c 49	 lea	 ecx, DWORD PTR [ecx+ecx*2]
  0002d	8d 0c 88	 lea	 ecx, DWORD PTR [eax+ecx*4]
  00030	78 10		 js	 SHORT $LN11@AddTail
$LL8@AddTail:

; 913  : 		{
; 914  : 			pNode->pNext = m_pNodeFree;

  00032	8b 46 10	 mov	 eax, DWORD PTR [esi+16]
  00035	89 01		 mov	 DWORD PTR [ecx], eax

; 915  : 			m_pNodeFree = pNode;

  00037	89 4e 10	 mov	 DWORD PTR [esi+16], ecx
  0003a	83 e9 0c	 sub	 ecx, 12			; 0000000cH
  0003d	83 ea 01	 sub	 edx, 1
  00040	79 f0		 jns	 SHORT $LL8@AddTail
$LN11@AddTail:

; 916  : 		}
; 917  : 	}
; 918  : 	ENSURE(m_pNodeFree != NULL);  // we must have something

  00042	8b 4e 10	 mov	 ecx, DWORD PTR [esi+16]
  00045	85 c9		 test	 ecx, ecx
  00047	74 39		 je	 SHORT $LN22@AddTail

; 919  : 
; 920  : 	CList::CNode* pNode = m_pNodeFree;
; 921  : 	m_pNodeFree = m_pNodeFree->pNext;

  00049	8b 01		 mov	 eax, DWORD PTR [ecx]
  0004b	89 46 10	 mov	 DWORD PTR [esi+16], eax

; 969  : 	pNewNode->data = newElement;

  0004e	8b 45 08	 mov	 eax, DWORD PTR _newElement$[ebp]

; 922  : 	pNode->pPrev = pPrev;

  00051	89 79 04	 mov	 DWORD PTR [ecx+4], edi

; 923  : 	pNode->pNext = pNext;

  00054	c7 01 00 00 00
	00		 mov	 DWORD PTR [ecx], 0

; 924  : 	m_nCount++;

  0005a	ff 46 0c	 inc	 DWORD PTR [esi+12]

; 969  : 	pNewNode->data = newElement;

  0005d	89 41 08	 mov	 DWORD PTR [ecx+8], eax

; 970  : 	if (m_pNodeTail != NULL)

  00060	8b 46 08	 mov	 eax, DWORD PTR [esi+8]
  00063	85 c0		 test	 eax, eax
  00065	74 0d		 je	 SHORT $LN2@AddTail

; 971  : 		m_pNodeTail->pNext = pNewNode;

  00067	89 08		 mov	 DWORD PTR [eax], ecx

; 972  : 	else
; 973  : 		m_pNodeHead = pNewNode;
; 974  : 	m_pNodeTail = pNewNode;
; 975  : 	return (POSITION) pNewNode;

  00069	8b c1		 mov	 eax, ecx
  0006b	5f		 pop	 edi
  0006c	89 4e 08	 mov	 DWORD PTR [esi+8], ecx
  0006f	5e		 pop	 esi

; 976  : }

  00070	5d		 pop	 ebp
  00071	c2 04 00	 ret	 4
$LN2@AddTail:

; 972  : 	else
; 973  : 		m_pNodeHead = pNewNode;
; 974  : 	m_pNodeTail = pNewNode;
; 975  : 	return (POSITION) pNewNode;

  00074	5f		 pop	 edi
  00075	89 4e 04	 mov	 DWORD PTR [esi+4], ecx
  00078	8b c1		 mov	 eax, ecx
  0007a	89 4e 08	 mov	 DWORD PTR [esi+8], ecx
  0007d	5e		 pop	 esi

; 976  : }

  0007e	5d		 pop	 ebp
  0007f	c2 04 00	 ret	 4
$LN22@AddTail:

; 918  : 	ENSURE(m_pNodeFree != NULL);  // we must have something

  00082	e8 00 00 00 00	 call	 ?AfxThrowInvalidArgException@@YGXXZ ; AfxThrowInvalidArgException
$LN20@AddTail:
  00087	cc		 int	 3
?AddTail@?$CList@PAVCWinixGwanGroup@@PAV1@@@QAEPAU__POSITION@@PAVCWinixGwanGroup@@@Z ENDP ; CList<CWinixGwanGroup *,CWinixGwanGroup *>::AddTail
_TEXT	ENDS
; Function compile flags: /Ogtp
; File C:\Program Files (x86)\Microsoft Visual Studio\2019\Community\VC\Tools\MSVC\14.29.30133\atlmfc\include\afxtempl.h
;	COMDAT ??0?$CList@PAVCWinixGwanGroup@@PAV1@@@QAE@H@Z
_TEXT	SEGMENT
_nBlockSize$ = 8					; size = 4
??0?$CList@PAVCWinixGwanGroup@@PAV1@@@QAE@H@Z PROC	; CList<CWinixGwanGroup *,CWinixGwanGroup *>::CList<CWinixGwanGroup *,CWinixGwanGroup *>, COMDAT
; _this$ = ecx

; 851  : {

  00000	55		 push	 ebp
  00001	8b ec		 mov	 ebp, esp

; 852  : 	ASSERT(nBlockSize > 0);
; 853  : 
; 854  : 	m_nCount = 0;
; 855  : 	m_pNodeHead = m_pNodeTail = m_pNodeFree = NULL;
; 856  : 	m_pBlocks = NULL;
; 857  : 	m_nBlockSize = nBlockSize;

  00003	8b 45 08	 mov	 eax, DWORD PTR _nBlockSize$[ebp]
  00006	89 41 18	 mov	 DWORD PTR [ecx+24], eax

; 858  : }

  00009	8b c1		 mov	 eax, ecx
  0000b	c7 01 00 00 00
	00		 mov	 DWORD PTR [ecx], OFFSET ??_7?$CList@PAVCWinixGwanGroup@@PAV1@@@6B@
  00011	c7 41 0c 00 00
	00 00		 mov	 DWORD PTR [ecx+12], 0
  00018	c7 41 10 00 00
	00 00		 mov	 DWORD PTR [ecx+16], 0
  0001f	c7 41 08 00 00
	00 00		 mov	 DWORD PTR [ecx+8], 0
  00026	c7 41 04 00 00
	00 00		 mov	 DWORD PTR [ecx+4], 0
  0002d	c7 41 14 00 00
	00 00		 mov	 DWORD PTR [ecx+20], 0
  00034	5d		 pop	 ebp
  00035	c2 04 00	 ret	 4
??0?$CList@PAVCWinixGwanGroup@@PAV1@@@QAE@H@Z ENDP	; CList<CWinixGwanGroup *,CWinixGwanGroup *>::CList<CWinixGwanGroup *,CWinixGwanGroup *>
_TEXT	ENDS
; Function compile flags: /Ogtp
; File D:\git\src\IBK\IBK_DRFN\ProjSrc\SrcDrfn\DrCommon\PctrWinix\LocalHeader.cpp
; File C:\Program Files (x86)\Microsoft Visual Studio\2019\Community\VC\Tools\MSVC\14.29.30133\atlmfc\include\afxtempl.h
; File D:\git\src\IBK\IBK_DRFN\ProjSrc\SrcDrfn\DrCommon\PctrWinix\LocalHeader.cpp
; File C:\Program Files (x86)\Microsoft Visual Studio\2019\Community\VC\Tools\MSVC\14.29.30133\atlmfc\include\afxtempl.h
; File D:\git\src\IBK\IBK_DRFN\ProjSrc\SrcDrfn\DrCommon\PctrWinix\LocalHeader.cpp
;	COMDAT ?_DoClearList@CWinixGwanGroupList@@QAEXXZ
_TEXT	SEGMENT
?_DoClearList@CWinixGwanGroupList@@QAEXXZ PROC		; CWinixGwanGroupList::_DoClearList, COMDAT
; _this$ = ecx

; 19   : {

  00000	53		 push	 ebx
  00001	8b d9		 mov	 ebx, ecx
  00003	56		 push	 esi

; 20   : 	for(POSITION pos=m_List.GetHeadPosition(); pos;)

  00004	8b 73 08	 mov	 esi, DWORD PTR [ebx+8]
  00007	85 f6		 test	 esi, esi
  00009	74 2f		 je	 SHORT $LN18@DoClearLis
  0000b	57		 push	 edi
  0000c	0f 1f 40 00	 npad	 4
$LL2@DoClearLis:

; 21   : 		delete m_List.GetNext(pos);

  00010	8b 7e 08	 mov	 edi, DWORD PTR [esi+8]
; File C:\Program Files (x86)\Microsoft Visual Studio\2019\Community\VC\Tools\MSVC\14.29.30133\atlmfc\include\afxtempl.h

; 813  : 		rPosition = (POSITION) pNode->pNext;

  00013	8b 36		 mov	 esi, DWORD PTR [esi]
; File D:\git\src\IBK\IBK_DRFN\ProjSrc\SrcDrfn\DrCommon\PctrWinix\LocalHeader.cpp

; 21   : 		delete m_List.GetNext(pos);

  00015	85 ff		 test	 edi, edi
  00017	74 1c		 je	 SHORT $LN11@DoClearLis
  00019	8d 4f 04	 lea	 ecx, DWORD PTR [edi+4]
  0001c	ff 15 00 00 00
	00		 call	 DWORD PTR __imp_??1?$CStringT@DV?$StrTraitMFC_DLL@DV?$ChTraitsCRT@D@ATL@@@@@ATL@@QAE@XZ
  00022	8b cf		 mov	 ecx, edi
  00024	ff 15 00 00 00
	00		 call	 DWORD PTR __imp_??1?$CStringT@DV?$StrTraitMFC_DLL@DV?$ChTraitsCRT@D@ATL@@@@@ATL@@QAE@XZ
  0002a	6a 08		 push	 8
  0002c	57		 push	 edi
  0002d	e8 00 00 00 00	 call	 ??3@YAXPAXI@Z		; operator delete
  00032	83 c4 08	 add	 esp, 8
$LN11@DoClearLis:

; 20   : 	for(POSITION pos=m_List.GetHeadPosition(); pos;)

  00035	85 f6		 test	 esi, esi
  00037	75 d7		 jne	 SHORT $LL2@DoClearLis
  00039	5f		 pop	 edi
$LN18@DoClearLis:
; File C:\Program Files (x86)\Microsoft Visual Studio\2019\Community\VC\Tools\MSVC\14.29.30133\atlmfc\include\afxtempl.h

; 872  : 	m_pBlocks->FreeDataChain();

  0003a	8b 4b 18	 mov	 ecx, DWORD PTR [ebx+24]
  0003d	c7 43 10 00 00
	00 00		 mov	 DWORD PTR [ebx+16], 0
  00044	c7 43 14 00 00
	00 00		 mov	 DWORD PTR [ebx+20], 0
  0004b	c7 43 0c 00 00
	00 00		 mov	 DWORD PTR [ebx+12], 0
  00052	c7 43 08 00 00
	00 00		 mov	 DWORD PTR [ebx+8], 0
  00059	e8 00 00 00 00	 call	 ?FreeDataChain@CPlex@@QAEXXZ ; CPlex::FreeDataChain

; 873  : 	m_pBlocks = NULL;

  0005e	5e		 pop	 esi
  0005f	c7 43 18 00 00
	00 00		 mov	 DWORD PTR [ebx+24], 0
  00066	5b		 pop	 ebx
; File D:\git\src\IBK\IBK_DRFN\ProjSrc\SrcDrfn\DrCommon\PctrWinix\LocalHeader.cpp

; 23   : }

  00067	c3		 ret	 0
?_DoClearList@CWinixGwanGroupList@@QAEXXZ ENDP		; CWinixGwanGroupList::_DoClearList
_TEXT	ENDS
; Function compile flags: /Ogtp
; File D:\git\src\IBK\IBK_DRFN\ProjSrc\SrcDrfn\DrCommon\PctrWinix\LocalHeader.cpp
; File C:\Program Files (x86)\Microsoft Visual Studio\2019\Community\VC\Tools\MSVC\14.29.30133\atlmfc\include\afxtempl.h
; File D:\git\src\IBK\IBK_DRFN\ProjSrc\SrcDrfn\DrCommon\PctrWinix\LocalHeader.cpp
; File C:\Program Files (x86)\Microsoft Visual Studio\2019\Community\VC\Tools\MSVC\14.29.30133\atlmfc\include\afxtempl.h
; File D:\git\src\IBK\IBK_DRFN\ProjSrc\SrcDrfn\DrCommon\PctrWinix\LocalHeader.cpp
;	COMDAT ??1CWinixGwanGroupList@@QAE@XZ
_TEXT	SEGMENT
__$EHRec$ = -12						; size = 12
??1CWinixGwanGroupList@@QAE@XZ PROC			; CWinixGwanGroupList::~CWinixGwanGroupList, COMDAT
; _this$ = ecx

; 14   : {

  00000	55		 push	 ebp
  00001	8b ec		 mov	 ebp, esp
  00003	6a ff		 push	 -1
  00005	68 00 00 00 00	 push	 __ehhandler$??1CWinixGwanGroupList@@QAE@XZ
  0000a	64 a1 00 00 00
	00		 mov	 eax, DWORD PTR fs:0
  00010	50		 push	 eax
  00011	53		 push	 ebx
  00012	56		 push	 esi
  00013	57		 push	 edi
  00014	a1 00 00 00 00	 mov	 eax, DWORD PTR ___security_cookie
  00019	33 c5		 xor	 eax, ebp
  0001b	50		 push	 eax
  0001c	8d 45 f4	 lea	 eax, DWORD PTR __$EHRec$[ebp]
  0001f	64 a3 00 00 00
	00		 mov	 DWORD PTR fs:0, eax
  00025	8b d9		 mov	 ebx, ecx

; 20   : 	for(POSITION pos=m_List.GetHeadPosition(); pos;)

  00027	8b 73 08	 mov	 esi, DWORD PTR [ebx+8]
  0002a	85 f6		 test	 esi, esi
  0002c	74 2b		 je	 SHORT $LN20@CWinixGwan
  0002e	66 90		 npad	 2
$LL4@CWinixGwan:

; 21   : 		delete m_List.GetNext(pos);

  00030	8b 7e 08	 mov	 edi, DWORD PTR [esi+8]
; File C:\Program Files (x86)\Microsoft Visual Studio\2019\Community\VC\Tools\MSVC\14.29.30133\atlmfc\include\afxtempl.h

; 813  : 		rPosition = (POSITION) pNode->pNext;

  00033	8b 36		 mov	 esi, DWORD PTR [esi]
; File D:\git\src\IBK\IBK_DRFN\ProjSrc\SrcDrfn\DrCommon\PctrWinix\LocalHeader.cpp

; 21   : 		delete m_List.GetNext(pos);

  00035	85 ff		 test	 edi, edi
  00037	74 1c		 je	 SHORT $LN13@CWinixGwan
  00039	8d 4f 04	 lea	 ecx, DWORD PTR [edi+4]
  0003c	ff 15 00 00 00
	00		 call	 DWORD PTR __imp_??1?$CStringT@DV?$StrTraitMFC_DLL@DV?$ChTraitsCRT@D@ATL@@@@@ATL@@QAE@XZ
  00042	8b cf		 mov	 ecx, edi
  00044	ff 15 00 00 00
	00		 call	 DWORD PTR __imp_??1?$CStringT@DV?$StrTraitMFC_DLL@DV?$ChTraitsCRT@D@ATL@@@@@ATL@@QAE@XZ
  0004a	6a 08		 push	 8
  0004c	57		 push	 edi
  0004d	e8 00 00 00 00	 call	 ??3@YAXPAXI@Z		; operator delete
  00052	83 c4 08	 add	 esp, 8
$LN13@CWinixGwan:

; 17   : 
; 18   : void CWinixGwanGroupList::_DoClearList()
; 19   : {
; 20   : 	for(POSITION pos=m_List.GetHeadPosition(); pos;)

  00055	85 f6		 test	 esi, esi
  00057	75 d7		 jne	 SHORT $LL4@CWinixGwan
$LN20@CWinixGwan:
; File C:\Program Files (x86)\Microsoft Visual Studio\2019\Community\VC\Tools\MSVC\14.29.30133\atlmfc\include\afxtempl.h

; 872  : 	m_pBlocks->FreeDataChain();

  00059	8b 4b 18	 mov	 ecx, DWORD PTR [ebx+24]
  0005c	c7 43 10 00 00
	00 00		 mov	 DWORD PTR [ebx+16], 0
  00063	c7 43 14 00 00
	00 00		 mov	 DWORD PTR [ebx+20], 0
  0006a	c7 43 0c 00 00
	00 00		 mov	 DWORD PTR [ebx+12], 0
  00071	c7 43 08 00 00
	00 00		 mov	 DWORD PTR [ebx+8], 0
  00078	e8 00 00 00 00	 call	 ?FreeDataChain@CPlex@@QAEXXZ ; CPlex::FreeDataChain

; 873  : 	m_pBlocks = NULL;

  0007d	c7 43 18 00 00
	00 00		 mov	 DWORD PTR [ebx+24], 0

; 872  : 	m_pBlocks->FreeDataChain();

  00084	8b 4b 18	 mov	 ecx, DWORD PTR [ebx+24]

; 878  : {

  00087	c7 45 fc 00 00
	00 00		 mov	 DWORD PTR __$EHRec$[ebp+8], 0
  0008e	c7 43 04 00 00
	00 00		 mov	 DWORD PTR [ebx+4], OFFSET ??_7?$CList@PAVCWinixGwanGroup@@PAV1@@@6B@

; 870  : 	m_nCount = 0;

  00095	c7 43 10 00 00
	00 00		 mov	 DWORD PTR [ebx+16], 0

; 871  : 	m_pNodeHead = m_pNodeTail = m_pNodeFree = NULL;

  0009c	c7 43 14 00 00
	00 00		 mov	 DWORD PTR [ebx+20], 0
  000a3	c7 43 0c 00 00
	00 00		 mov	 DWORD PTR [ebx+12], 0
  000aa	c7 43 08 00 00
	00 00		 mov	 DWORD PTR [ebx+8], 0

; 872  : 	m_pBlocks->FreeDataChain();

  000b1	e8 00 00 00 00	 call	 ?FreeDataChain@CPlex@@QAEXXZ ; CPlex::FreeDataChain

; 873  : 	m_pBlocks = NULL;

  000b6	c7 43 18 00 00
	00 00		 mov	 DWORD PTR [ebx+24], 0
; File D:\git\src\IBK\IBK_DRFN\ProjSrc\SrcDrfn\DrCommon\PctrWinix\LocalHeader.cpp

; 16   : }

  000bd	8b 4d f4	 mov	 ecx, DWORD PTR __$EHRec$[ebp]
  000c0	64 89 0d 00 00
	00 00		 mov	 DWORD PTR fs:0, ecx
  000c7	59		 pop	 ecx
  000c8	5f		 pop	 edi
  000c9	5e		 pop	 esi
  000ca	5b		 pop	 ebx
  000cb	8b e5		 mov	 esp, ebp
  000cd	5d		 pop	 ebp
  000ce	c3		 ret	 0
  000cf	cc		 int	 3
  000d0	cc		 int	 3
  000d1	cc		 int	 3
  000d2	cc		 int	 3
  000d3	cc		 int	 3
_TEXT	ENDS
;	COMDAT text$x
text$x	SEGMENT
__ehhandler$??1CWinixGwanGroupList@@QAE@XZ:
  00000	90		 npad	 1
  00001	90		 npad	 1
  00002	8b 54 24 08	 mov	 edx, DWORD PTR [esp+8]
  00006	8d 42 0c	 lea	 eax, DWORD PTR [edx+12]
  00009	8b 4a f0	 mov	 ecx, DWORD PTR [edx-16]
  0000c	33 c8		 xor	 ecx, eax
  0000e	e8 00 00 00 00	 call	 @__security_check_cookie@4
  00013	b8 00 00 00 00	 mov	 eax, OFFSET __ehfuncinfo$??1CWinixGwanGroupList@@QAE@XZ
  00018	e9 00 00 00 00	 jmp	 ___CxxFrameHandler3
text$x	ENDS
??1CWinixGwanGroupList@@QAE@XZ ENDP			; CWinixGwanGroupList::~CWinixGwanGroupList
; Function compile flags: /Ogtp
; File D:\git\src\IBK\IBK_DRFN\ProjSrc\SrcDrfn\DrCommon\PctrWinix\LocalHeader.cpp
; File C:\Program Files (x86)\Microsoft Visual Studio\2019\Community\VC\Tools\MSVC\14.29.30133\atlmfc\include\afxtempl.h
; File D:\git\src\IBK\IBK_DRFN\ProjSrc\SrcDrfn\DrCommon\PctrWinix\LocalHeader.cpp
;	COMDAT ??0CWinixGwanGroupList@@QAE@XZ
_TEXT	SEGMENT
_this$ = -4						; size = 4
??0CWinixGwanGroupList@@QAE@XZ PROC			; CWinixGwanGroupList::CWinixGwanGroupList, COMDAT
; _this$ = ecx

; 9    : {

  00000	55		 push	 ebp
  00001	8b ec		 mov	 ebp, esp
  00003	51		 push	 ecx
  00004	89 4d fc	 mov	 DWORD PTR _this$[ebp], ecx

; 11   : }

  00007	8b c1		 mov	 eax, ecx
; File C:\Program Files (x86)\Microsoft Visual Studio\2019\Community\VC\Tools\MSVC\14.29.30133\atlmfc\include\afxtempl.h

; 851  : {

  00009	c7 41 04 00 00
	00 00		 mov	 DWORD PTR [ecx+4], OFFSET ??_7?$CList@PAVCWinixGwanGroup@@PAV1@@@6B@

; 852  : 	ASSERT(nBlockSize > 0);
; 853  : 
; 854  : 	m_nCount = 0;

  00010	c7 41 10 00 00
	00 00		 mov	 DWORD PTR [ecx+16], 0

; 855  : 	m_pNodeHead = m_pNodeTail = m_pNodeFree = NULL;

  00017	c7 41 14 00 00
	00 00		 mov	 DWORD PTR [ecx+20], 0
  0001e	c7 41 0c 00 00
	00 00		 mov	 DWORD PTR [ecx+12], 0
  00025	c7 41 08 00 00
	00 00		 mov	 DWORD PTR [ecx+8], 0

; 856  : 	m_pBlocks = NULL;

  0002c	c7 41 18 00 00
	00 00		 mov	 DWORD PTR [ecx+24], 0

; 857  : 	m_nBlockSize = nBlockSize;

  00033	c7 41 1c 0a 00
	00 00		 mov	 DWORD PTR [ecx+28], 10	; 0000000aH
; File D:\git\src\IBK\IBK_DRFN\ProjSrc\SrcDrfn\DrCommon\PctrWinix\LocalHeader.cpp

; 11   : }

  0003a	8b e5		 mov	 esp, ebp
  0003c	5d		 pop	 ebp
  0003d	c3		 ret	 0
??0CWinixGwanGroupList@@QAE@XZ ENDP			; CWinixGwanGroupList::CWinixGwanGroupList
_TEXT	ENDS
; Function compile flags: /Ogtp
; File D:\git\src\IBK\IBK_DRFN\ProjSrc\SrcDrfn\DrCommon\PctrWinix\LocalHeader.cpp
;	COMDAT ?ReceiveMessage@CTrCommSite@CWinixGwanItem@@UAGJJPBD00@Z
_TEXT	SEGMENT
_this$ = 8						; size = 4
_dwKey$ = 12						; size = 4
_szTR$ = 16						; size = 4
_szMsgCode$ = 20					; size = 4
_szMessage$ = 24					; size = 4
?ReceiveMessage@CTrCommSite@CWinixGwanItem@@UAGJJPBD00@Z PROC ; CWinixGwanItem::CTrCommSite::ReceiveMessage, COMDAT

; 183  : HRESULT CWinixGwanItem::CTrCommSite::ReceiveMessage(long dwKey, LPCSTR szTR, LPCSTR szMsgCode, LPCSTR szMessage){return  S_OK;}

  00000	33 c0		 xor	 eax, eax
  00002	c2 14 00	 ret	 20			; 00000014H
?ReceiveMessage@CTrCommSite@CWinixGwanItem@@UAGJJPBD00@Z ENDP ; CWinixGwanItem::CTrCommSite::ReceiveMessage
_TEXT	ENDS
; Function compile flags: /Ogtp
; File D:\git\src\IBK\IBK_DRFN\ProjSrc\SrcDrfn\DrCommon\PctrWinix\LocalHeader.cpp
;	COMDAT ?StatusChange@CTrCommSite@CWinixGwanItem@@UAGJH@Z
_TEXT	SEGMENT
_this$ = 8						; size = 4
_nState$ = 12						; size = 4
?StatusChange@CTrCommSite@CWinixGwanItem@@UAGJH@Z PROC	; CWinixGwanItem::CTrCommSite::StatusChange, COMDAT

; 182  : HRESULT CWinixGwanItem::CTrCommSite::StatusChange(int nState){return  S_OK;}

  00000	33 c0		 xor	 eax, eax
  00002	c2 08 00	 ret	 8
?StatusChange@CTrCommSite@CWinixGwanItem@@UAGJH@Z ENDP	; CWinixGwanItem::CTrCommSite::StatusChange
_TEXT	ENDS
; Function compile flags: /Ogtp
; File D:\git\src\IBK\IBK_DRFN\ProjSrc\SrcDrfn\DrCommon\PctrWinix\LocalHeader.cpp
;	COMDAT ?ReceiveRealData@CTrCommSite@CWinixGwanItem@@UAGJGPBDPAX@Z
_TEXT	SEGMENT
_this$ = 8						; size = 4
_wFID$ = 12						; size = 2
_szMainKey$ = 16					; size = 4
_pRealData$ = 20					; size = 4
?ReceiveRealData@CTrCommSite@CWinixGwanItem@@UAGJGPBDPAX@Z PROC ; CWinixGwanItem::CTrCommSite::ReceiveRealData, COMDAT

; 184  : HRESULT CWinixGwanItem::CTrCommSite::ReceiveRealData(WORD wFID, LPCSTR szMainKey, void* pRealData){	return S_OK;}

  00000	33 c0		 xor	 eax, eax
  00002	c2 10 00	 ret	 16			; 00000010H
?ReceiveRealData@CTrCommSite@CWinixGwanItem@@UAGJGPBDPAX@Z ENDP ; CWinixGwanItem::CTrCommSite::ReceiveRealData
_TEXT	ENDS
; Function compile flags: /Ogtp
; File D:\git\src\IBK\IBK_DRFN\ProjSrc\SrcDrfn\DrCommon\PctrWinix\LocalHeader.cpp
;	COMDAT ?ReceiveData@CTrCommSite@CWinixGwanItem@@UAGJJPBD00PAXJ@Z
_TEXT	SEGMENT
_this$ = 8						; size = 4
_dwKey$ = 12						; size = 4
_szTR$ = 16						; size = 4
_szMsgCode$ = 20					; size = 4
_szMessage$ = 24					; size = 4
_aTRData$ = 28						; size = 4
_dwTRDateLen$ = 32					; size = 4
?ReceiveData@CTrCommSite@CWinixGwanItem@@UAGJJPBD00PAXJ@Z PROC ; CWinixGwanItem::CTrCommSite::ReceiveData, COMDAT

; 149  : {

  00000	55		 push	 ebp
  00001	8b ec		 mov	 ebp, esp

; 150  : 	DR_MYMETHOD_PROLOGUE(CWinixGwanItem, TrCommSite)
; 151  : 		
; 152  : 	//int nQueryState = pThis->m_nQueryState;
; 153  : 
; 154  : 	if(dwKey==TRKEY_GWANSIMGROUP)

  00003	8b 45 0c	 mov	 eax, DWORD PTR _dwKey$[ebp]
  00006	83 f8 0b	 cmp	 eax, 11			; 0000000bH
  00009	75 1c		 jne	 SHORT $LN2@ReceiveDat

; 155  : 	{
; 156  : 		// 2012.2.7 :  
; 157  : 		//pThis->m_pIM->ReceiveGroupList((char*)aTRData, dwTRDateLen);
; 158  : 		{
; 159  : 			//  .
; 160  : 			//::SendMessage(pThis->m_hGwanReciever, WM_NOTIFY_GROUP, 999, 999);
; 161  : 		//tour2k	::SendMessage(pThis->m_hGwanReciever, WM_NOTIFY_SAVE, 0, 0);
; 162  :                         ::SendMessage(pThis->m_hGwanReciever, WM_NOTIFY_SAVE, 0, (LPARAM)(char*)aTRData);

  0000b	ff 75 1c	 push	 DWORD PTR _aTRData$[ebp]

; 172  : 	}
; 173  : 	else if(dwKey==TRKEY_GWANSAVE)
; 174  : 	{
; 175  : 		// 2012.2.7 :  
; 176  : 		//pThis->m_pIM->ReceiveSaveCode((char*)aTRData, dwTRDateLen);
; 177  : 	}
; 178  : 	
; 179  : 	return  S_OK;
; 180  : }

  0000e	8b 45 08	 mov	 eax, DWORD PTR _this$[ebp]
  00011	6a 00		 push	 0
  00013	68 65 04 00 00	 push	 1125			; 00000465H
  00018	ff 70 fc	 push	 DWORD PTR [eax-4]
  0001b	ff 15 00 00 00
	00		 call	 DWORD PTR __imp__SendMessageA@16
  00021	33 c0		 xor	 eax, eax
  00023	5d		 pop	 ebp
  00024	c2 1c 00	 ret	 28			; 0000001cH
$LN2@ReceiveDat:

; 163  : 			//GetGwansimGroupName(long dwRet, CStringArray &arrKey, CStringArray &arrName);
; 164  : 		}		
; 165  : 	}
; 166  : 	else if(dwKey==TRKEY_GWANSIMITEM)

  00027	83 f8 0c	 cmp	 eax, 12			; 0000000cH
  0002a	75 16		 jne	 SHORT $LN8@ReceiveDat

; 167  : 	{
; 168  : 		// 2012.2.7 :  
; 169  : 		//pThis->m_pIM->ReceiveGroup((char*)aTRData, dwTRDateLen);
; 170  : 	//	::SendMessage(pThis->m_hGwanReciever, WM_NOTIFY_GROUP, 0, 0);
; 171  :                 ::SendMessage(pThis->m_hGwanReciever, WM_NOTIFY_GROUP, 0, (LPARAM)(char*)aTRData);

  0002c	ff 75 1c	 push	 DWORD PTR _aTRData$[ebp]

; 172  : 	}
; 173  : 	else if(dwKey==TRKEY_GWANSAVE)
; 174  : 	{
; 175  : 		// 2012.2.7 :  
; 176  : 		//pThis->m_pIM->ReceiveSaveCode((char*)aTRData, dwTRDateLen);
; 177  : 	}
; 178  : 	
; 179  : 	return  S_OK;
; 180  : }

  0002f	8b 45 08	 mov	 eax, DWORD PTR _this$[ebp]
  00032	6a 00		 push	 0
  00034	68 66 04 00 00	 push	 1126			; 00000466H
  00039	ff 70 fc	 push	 DWORD PTR [eax-4]
  0003c	ff 15 00 00 00
	00		 call	 DWORD PTR __imp__SendMessageA@16
$LN8@ReceiveDat:
  00042	33 c0		 xor	 eax, eax
  00044	5d		 pop	 ebp
  00045	c2 1c 00	 ret	 28			; 0000001cH
?ReceiveData@CTrCommSite@CWinixGwanItem@@UAGJJPBD00PAXJ@Z ENDP ; CWinixGwanItem::CTrCommSite::ReceiveData
_TEXT	ENDS
; Function compile flags: /Ogtp
; File D:\git\src\IBK\IBK_DRFN\ProjSrc\SrcDrfn\DrCommon\PctrWinix\LocalHeader.cpp
; File C:\Program Files (x86)\Microsoft Visual Studio\2019\Community\VC\Tools\MSVC\14.29.30133\atlmfc\include\afxwin2.inl
; File D:\git\src\IBK\IBK_DRFN\ProjSrc\SrcDrfn\DrCommon\PctrWinix\LocalHeader.cpp
;	COMDAT ?RequestGwansimGroup@CWinixGwanItem@@QAEXXZ
_TEXT	SEGMENT
_strTRData$ = -16404					; size = 4
_sendB$ = -16400					; size = 16384
__$ArrayPad$ = -16					; size = 4
__$EHRec$ = -12						; size = 12
?RequestGwansimGroup@CWinixGwanItem@@QAEXXZ PROC	; CWinixGwanItem::RequestGwansimGroup, COMDAT
; _this$ = ecx

; 86   : {

  00000	55		 push	 ebp
  00001	8b ec		 mov	 ebp, esp
  00003	6a ff		 push	 -1
  00005	68 00 00 00 00	 push	 __ehhandler$?RequestGwansimGroup@CWinixGwanItem@@QAEXXZ
  0000a	64 a1 00 00 00
	00		 mov	 eax, DWORD PTR fs:0
  00010	50		 push	 eax
  00011	b8 08 40 00 00	 mov	 eax, 16392		; 00004008H
  00016	e8 00 00 00 00	 call	 __chkstk
  0001b	a1 00 00 00 00	 mov	 eax, DWORD PTR ___security_cookie
  00020	33 c5		 xor	 eax, ebp
  00022	89 45 f0	 mov	 DWORD PTR __$ArrayPad$[ebp], eax
  00025	56		 push	 esi
  00026	57		 push	 edi
  00027	50		 push	 eax
  00028	8d 45 f4	 lea	 eax, DWORD PTR __$EHRec$[ebp]
  0002b	64 a3 00 00 00
	00		 mov	 DWORD PTR fs:0, eax
  00031	8b f9		 mov	 edi, ecx

; 87   : 	int sendL = 0;
; 88   : 	char sendB[16 * 1024] = { 0, };

  00033	68 7e 3f 00 00	 push	 16254			; 00003f7eH
  00038	8d 85 72 c0 ff
	ff		 lea	 eax, DWORD PTR _sendB$[ebp+130]
  0003e	6a 00		 push	 0
  00040	50		 push	 eax
  00041	e8 00 00 00 00	 call	 _memset

; 89   : 	int isz_updn = sz_uinfo;
; 90   : 	struct _updn* updn = (struct _updn*)&sendB[sendL];
; 91   : 	sendL += isz_updn;
; 92   : 	FillMemory((char*)updn, isz_updn, ' ');

  00046	68 82 00 00 00	 push	 130			; 00000082H
  0004b	8d 85 f0 bf ff
	ff		 lea	 eax, DWORD PTR _sendB$[ebp]
  00051	6a 20		 push	 32			; 00000020H
  00053	50		 push	 eax
  00054	e8 00 00 00 00	 call	 _memset

; 93   : 	CopyMemory(updn->uinfo.gubn, "MY", sizeof(updn->uinfo.gubn));
; 94   : 	updn->uinfo.dirt[0] = 'U';
; 95   : 	updn->uinfo.cont[0] = 'g';
; 96   : 	CopyMemory(updn->uinfo.nblc, "00001", sizeof(updn->uinfo.nblc));

  00059	a1 00 00 00 00	 mov	 eax, DWORD PTR ??_C@_05PJHLPLPE@00001@

; 97   : 	updn->uinfo.retc[0] = 'U';
; 98   : 	sendL = strlen(sendB);

  0005e	8d b5 f0 bf ff
	ff		 lea	 esi, DWORD PTR _sendB$[ebp]
  00064	89 85 44 c0 ff
	ff		 mov	 DWORD PTR _sendB$[ebp+84], eax
  0006a	8d 4e 01	 lea	 ecx, DWORD PTR [esi+1]
  0006d	a0 04 00 00 00	 mov	 al, BYTE PTR ??_C@_05PJHLPLPE@00001@+4
  00072	83 c4 18	 add	 esp, 24			; 00000018H
  00075	c7 85 f0 bf ff
	ff 4d 59 55 67	 mov	 DWORD PTR _sendB$[ebp], 1733646669 ; 6755594dH
  0007f	88 85 48 c0 ff
	ff		 mov	 BYTE PTR _sendB$[ebp+88], al
  00085	c6 85 49 c0 ff
	ff 55		 mov	 BYTE PTR _sendB$[ebp+89], 85 ; 00000055H
  0008c	0f 1f 40 00	 npad	 4
$LL8@RequestGwa:
  00090	8a 06		 mov	 al, BYTE PTR [esi]
  00092	46		 inc	 esi
  00093	84 c0		 test	 al, al
  00095	75 f9		 jne	 SHORT $LL8@RequestGwa
  00097	2b f1		 sub	 esi, ecx

; 99   : 
; 100  : 	CString strTRData = "";

  00099	8d 8d ec bf ff
	ff		 lea	 ecx, DWORD PTR _strTRData$[ebp]
  0009f	68 00 00 00 00	 push	 OFFSET ??_C@_00CNPNBAHC@@
  000a4	ff 15 00 00 00
	00		 call	 DWORD PTR __imp_??0?$CStringT@DV?$StrTraitMFC_DLL@DV?$ChTraitsCRT@D@ATL@@@@@ATL@@QAE@PBD@Z

; 101  : 
; 102  : 	//strWinix.Format("%s%80s%s", "MYUg", " ", "00001U");
; 103  : 	strTRData.Format("%s\t%08X\t%d\t%d\t%s"

  000aa	8d 85 f0 bf ff
	ff		 lea	 eax, DWORD PTR _sendB$[ebp]
  000b0	c7 45 fc 00 00
	00 00		 mov	 DWORD PTR __$EHRec$[ebp+8], 0
  000b7	50		 push	 eax
  000b8	56		 push	 esi
  000b9	6a 0b		 push	 11			; 0000000bH
  000bb	8d 47 0c	 lea	 eax, DWORD PTR [edi+12]
  000be	50		 push	 eax
  000bf	68 00 00 00 00	 push	 OFFSET ??_C@_08LFHHEOFL@PIDOMYST@
  000c4	8d 85 ec bf ff
	ff		 lea	 eax, DWORD PTR _strTRData$[ebp]
  000ca	68 00 00 00 00	 push	 OFFSET ??_C@_0BB@HLCCOELJ@?$CFs?7?$CF08X?7?$CFd?7?$CFd?7?$CFs@
  000cf	50		 push	 eax
  000d0	ff 15 00 00 00
	00		 call	 DWORD PTR __imp_?Format@?$CStringT@DV?$StrTraitMFC_DLL@DV?$ChTraitsCRT@D@ATL@@@@@ATL@@QAAXPBDZZ
  000d6	83 c4 1c	 add	 esp, 28			; 0000001cH

; 104  : 			, TRNO_FAVORITE
; 105  : 			, &m_xTrCommSite
; 106  : 			, TRKEY_GWANSIMGROUP
; 107  : 			, sendL
; 108  : 			, sendB);		//Data
; 109  : 		
; 110  : 		CWnd* pDRfnWrap = CWnd::FromHandle(m_hDrfnWrap);

  000d9	ff 77 04	 push	 DWORD PTR [edi+4]
  000dc	e8 00 00 00 00	 call	 ?FromHandle@CWnd@@SGPAV1@PAUHWND__@@@Z ; CWnd::FromHandle
; File C:\Program Files (x86)\Microsoft Visual Studio\2019\Community\VC\Tools\MSVC\14.29.30133\atlmfc\include\afxwin2.inl

; 32   : 	{ ASSERT(::IsWindow(m_hWnd)); return ::SendMessage(m_hWnd, message, wParam, lParam); }

  000e1	ff b5 ec bf ff
	ff		 push	 DWORD PTR _strTRData$[ebp]
  000e7	6a 01		 push	 1
  000e9	ff 35 00 00 00
	00		 push	 DWORD PTR ?RMSG_SENDMESSAGE@@3IB
  000ef	ff 70 20	 push	 DWORD PTR [eax+32]
  000f2	ff 15 00 00 00
	00		 call	 DWORD PTR __imp__SendMessageA@16
; File D:\git\src\IBK\IBK_DRFN\ProjSrc\SrcDrfn\DrCommon\PctrWinix\LocalHeader.cpp

; 116  : }

  000f8	8d 8d ec bf ff
	ff		 lea	 ecx, DWORD PTR _strTRData$[ebp]
  000fe	ff 15 00 00 00
	00		 call	 DWORD PTR __imp_??1?$CStringT@DV?$StrTraitMFC_DLL@DV?$ChTraitsCRT@D@ATL@@@@@ATL@@QAE@XZ
  00104	8b 4d f4	 mov	 ecx, DWORD PTR __$EHRec$[ebp]
  00107	64 89 0d 00 00
	00 00		 mov	 DWORD PTR fs:0, ecx
  0010e	59		 pop	 ecx
  0010f	5f		 pop	 edi
  00110	5e		 pop	 esi
  00111	8b 4d f0	 mov	 ecx, DWORD PTR __$ArrayPad$[ebp]
  00114	33 cd		 xor	 ecx, ebp
  00116	e8 00 00 00 00	 call	 @__security_check_cookie@4
  0011b	8b e5		 mov	 esp, ebp
  0011d	5d		 pop	 ebp
  0011e	c3		 ret	 0
_TEXT	ENDS
;	COMDAT text$x
text$x	SEGMENT
__unwindfunclet$?RequestGwansimGroup@CWinixGwanItem@@QAEXXZ$0:
  00000	8d 8d ec bf ff
	ff		 lea	 ecx, DWORD PTR _strTRData$[ebp]
  00006	ff 25 00 00 00
	00		 jmp	 DWORD PTR __imp_??1?$CStringT@DV?$StrTraitMFC_DLL@DV?$ChTraitsCRT@D@ATL@@@@@ATL@@QAE@XZ
  0000c	cc		 int	 3
  0000d	cc		 int	 3
  0000e	cc		 int	 3
  0000f	cc		 int	 3
  00010	cc		 int	 3
__ehhandler$?RequestGwansimGroup@CWinixGwanItem@@QAEXXZ:
  00011	90		 npad	 1
  00012	90		 npad	 1
  00013	8b 54 24 08	 mov	 edx, DWORD PTR [esp+8]
  00017	8d 42 0c	 lea	 eax, DWORD PTR [edx+12]
  0001a	8b 8a ec bf ff
	ff		 mov	 ecx, DWORD PTR [edx-16404]
  00020	33 c8		 xor	 ecx, eax
  00022	e8 00 00 00 00	 call	 @__security_check_cookie@4
  00027	8b 4a fc	 mov	 ecx, DWORD PTR [edx-4]
  0002a	33 c8		 xor	 ecx, eax
  0002c	e8 00 00 00 00	 call	 @__security_check_cookie@4
  00031	b8 00 00 00 00	 mov	 eax, OFFSET __ehfuncinfo$?RequestGwansimGroup@CWinixGwanItem@@QAEXXZ
  00036	e9 00 00 00 00	 jmp	 ___CxxFrameHandler3
text$x	ENDS
?RequestGwansimGroup@CWinixGwanItem@@QAEXXZ ENDP	; CWinixGwanItem::RequestGwansimGroup
; Function compile flags: /Ogtp
; File D:\git\src\IBK\IBK_DRFN\ProjSrc\SrcDrfn\DrCommon\PctrWinix\LocalHeader.cpp
;	COMDAT ?DoInitialize@CWinixGwanItem@@QAEXH@Z
_TEXT	SEGMENT
_bCreate$ = 8						; size = 4
?DoInitialize@CWinixGwanItem@@QAEXH@Z PROC		; CWinixGwanItem::DoInitialize, COMDAT
; _this$ = ecx

; 47   : {

  00000	55		 push	 ebp
  00001	8b ec		 mov	 ebp, esp

; 48   : 	if(bCreate)

  00003	83 7d 08 00	 cmp	 DWORD PTR _bCreate$[ebp], 0
  00007	56		 push	 esi
  00008	8b f1		 mov	 esi, ecx
  0000a	74 17		 je	 SHORT $LN2@DoInitiali

; 49   : 	{
; 50   : 		CWnd* pWizard = CWnd::FromHandle(m_hWinix);

  0000c	ff 36		 push	 DWORD PTR [esi]
  0000e	e8 00 00 00 00	 call	 ?FromHandle@CWnd@@SGPAV1@PAUHWND__@@@Z ; CWnd::FromHandle

; 51   : 		CWnd* pDRfnWrap = CWnd::FromHandle(m_hDrfnWrap);

  00013	ff 76 04	 push	 DWORD PTR [esi+4]
  00016	e8 00 00 00 00	 call	 ?FromHandle@CWnd@@SGPAV1@PAUHWND__@@@Z ; CWnd::FromHandle

; 52   : 		CWnd* pGwanReciever = CWnd::FromHandle(m_hGwanReciever);

  0001b	ff 76 08	 push	 DWORD PTR [esi+8]
  0001e	e8 00 00 00 00	 call	 ?FromHandle@CWnd@@SGPAV1@PAUHWND__@@@Z ; CWnd::FromHandle
$LN2@DoInitiali:
  00023	5e		 pop	 esi

; 53   : 
; 54   : 		// 2012.2.7 :   >>
; 55   : 		//m_pIM = new CFxInterestManager();
; 56   : 		// 2012.2.7 :   <<
; 57   : 		//m_pIM->Initialize(pWizard, pDRfnWrap);
; 58   : 		// 2012.2.7 :   >>
; 59   : 		//m_pIM->Initialize(pWizard, pGwanReciever);	//   pGwanReciever
; 60   : 		// 2012.2.7 :   <<
; 61   : 
; 62   : //		RequestGwansimGroup(this);
; 63   : // 		{
; 64   : // 			CString strTRData = "";
; 65   : // 			strTRData.Format("%s\t%08X\t%d\t%d\t%s"	
; 66   : // 				,"GwanSim"
; 67   : // 				, &m_xTrCommSite
; 68   : // 				, TRKEY_GWANSIMGROUP
; 69   : // 				, 0			//Size
; 70   : // 				, " ");		//Data
; 71   : // 			pDRfnWrap->GetParent()->SendMessage(RMSG_SENDMESSAGE, MAKEWPARAM(1, 0), (LPARAM)(LPCSTR)strTRData);
; 72   : // 		}
; 73   : // 		//m_nQueryState = wgi_querygroup;
; 74   : // 		m_pIM->QueryGroupList(TRKEY_GWANSIMGROUP);
; 75   : 	}
; 76   : 	// 2012.2.7 :   >>
; 77   : // 	else
; 78   : // 	{
; 79   : // 		if(m_pIM) delete m_pIM;
; 80   : // 		m_pIM=NULL;
; 81   : // 	}
; 82   : 	// 2012.2.7 :   <<
; 83   : }

  00024	5d		 pop	 ebp
  00025	c2 04 00	 ret	 4
?DoInitialize@CWinixGwanItem@@QAEXH@Z ENDP		; CWinixGwanItem::DoInitialize
_TEXT	ENDS
; Function compile flags: /Ogtp
; File D:\git\src\IBK\IBK_DRFN\ProjSrc\SrcDrfn\DrCommon\PctrWinix\LocalHeader.cpp
;	COMDAT ??1CWinixGwanItem@@QAE@XZ
_TEXT	SEGMENT
??1CWinixGwanItem@@QAE@XZ PROC				; CWinixGwanItem::~CWinixGwanItem, COMDAT
; _this$ = ecx

; 41   : 	// 2012.2.7 :  
; 42   : 	//if(m_pIM) delete m_pIM; m_pIM=NULL;
; 43   : }

  00000	c2 00 00	 ret	 0
??1CWinixGwanItem@@QAE@XZ ENDP				; CWinixGwanItem::~CWinixGwanItem
_TEXT	ENDS
; Function compile flags: /Ogtp
; File D:\git\src\IBK\IBK_DRFN\ProjSrc\SrcDrfn\DrCommon\PctrWinix\LocalHeader.cpp
;	COMDAT ??0CWinixGwanItem@@QAE@PAUHWND__@@00@Z
_TEXT	SEGMENT
_hWinix$ = 8						; size = 4
_hDrfnWrap$ = 12					; size = 4
_hGwanReciever$ = 16					; size = 4
??0CWinixGwanItem@@QAE@PAUHWND__@@00@Z PROC		; CWinixGwanItem::CWinixGwanItem, COMDAT
; _this$ = ecx

; 29   : {

  00000	55		 push	 ebp
  00001	8b ec		 mov	 ebp, esp

; 30   : 	m_hWinix	= hWinix;

  00003	8b 45 08	 mov	 eax, DWORD PTR _hWinix$[ebp]
  00006	89 01		 mov	 DWORD PTR [ecx], eax

; 31   : 	m_hDrfnWrap = hDrfnWrap;

  00008	8b 45 0c	 mov	 eax, DWORD PTR _hDrfnWrap$[ebp]
  0000b	89 41 04	 mov	 DWORD PTR [ecx+4], eax

; 32   : 	m_hGwanReciever = hGwanReciever;

  0000e	8b 45 10	 mov	 eax, DWORD PTR _hGwanReciever$[ebp]
  00011	89 41 08	 mov	 DWORD PTR [ecx+8], eax

; 33   : 	//m_nQueryState = wgi_ready;
; 34   : 
; 35   : 	// 2012.2.7 :  
; 36   : 	//m_pIM= new CFxInterestManager();
; 37   : }

  00014	8b c1		 mov	 eax, ecx
  00016	c7 41 0c 00 00
	00 00		 mov	 DWORD PTR [ecx+12], OFFSET ??_7CTrCommSite@CWinixGwanItem@@6B@
  0001d	5d		 pop	 ebp
  0001e	c2 0c 00	 ret	 12			; 0000000cH
??0CWinixGwanItem@@QAE@PAUHWND__@@00@Z ENDP		; CWinixGwanItem::CWinixGwanItem
_TEXT	ENDS
; Function compile flags: /Ogtp
; File D:\git\src\IBK\IBK_DRFN\ProjSrc\SrcDrfn\DrCommon\PctrWinix\LocalHeader.h
;	COMDAT ??__ERMSG_SENDMESSAGE@@YAXXZ
text$di	SEGMENT
??__ERMSG_SENDMESSAGE@@YAXXZ PROC			; `dynamic initializer for 'RMSG_SENDMESSAGE'', COMDAT

; 52   : const UINT RMSG_SENDMESSAGE = ::RegisterWindowMessage(_T("RMSG_SENDMESSAGE"));

  00000	68 00 00 00 00	 push	 OFFSET ??_C@_0BB@HPODOCCF@RMSG_SENDMESSAGE@
  00005	ff 15 00 00 00
	00		 call	 DWORD PTR __imp__RegisterWindowMessageA@4
  0000b	a3 00 00 00 00	 mov	 DWORD PTR ?RMSG_SENDMESSAGE@@3IB, eax
  00010	c3		 ret	 0
??__ERMSG_SENDMESSAGE@@YAXXZ ENDP			; `dynamic initializer for 'RMSG_SENDMESSAGE''
text$di	ENDS
; Function compile flags: /Ogtp
; File D:\git\src\IBK\IBK_DRFN\ProjSrc\SrcDrfn\Chart\COMMONTR\TRDefine.h
;	COMDAT ??__ERMSG_GETSIGNAL_REAL@@YAXXZ
text$di	SEGMENT
??__ERMSG_GETSIGNAL_REAL@@YAXXZ PROC			; `dynamic initializer for 'RMSG_GETSIGNAL_REAL'', COMDAT

; 213  : const UINT RMSG_GETSIGNAL_REAL = ::RegisterWindowMessage(_T("RMSG_GETSIGNAL_REAL"));

  00000	68 00 00 00 00	 push	 OFFSET ??_C@_0BE@FJPKENOB@RMSG_GETSIGNAL_REAL@
  00005	ff 15 00 00 00
	00		 call	 DWORD PTR __imp__RegisterWindowMessageA@4
  0000b	a3 00 00 00 00	 mov	 DWORD PTR ?RMSG_GETSIGNAL_REAL@@3IB, eax
  00010	c3		 ret	 0
??__ERMSG_GETSIGNAL_REAL@@YAXXZ ENDP			; `dynamic initializer for 'RMSG_GETSIGNAL_REAL''
text$di	ENDS
; Function compile flags: /Ogtp
; File D:\git\src\IBK\IBK_DRFN\ProjSrc\SrcDrfn\inc\IWinixPlatform.h
;	COMDAT ??__ERMSG_WINIXPLATFORM@@YAXXZ
text$di	SEGMENT
??__ERMSG_WINIXPLATFORM@@YAXXZ PROC			; `dynamic initializer for 'RMSG_WINIXPLATFORM'', COMDAT

; 7    : const UINT RMSG_WINIXPLATFORM = ::RegisterWindowMessage(_T("RMSG_WINIXPLATFORM"));

  00000	68 00 00 00 00	 push	 OFFSET ??_C@_0BD@LHFGCFCP@RMSG_WINIXPLATFORM@
  00005	ff 15 00 00 00
	00		 call	 DWORD PTR __imp__RegisterWindowMessageA@4
  0000b	a3 00 00 00 00	 mov	 DWORD PTR ?RMSG_WINIXPLATFORM@@3IB, eax
  00010	c3		 ret	 0
??__ERMSG_WINIXPLATFORM@@YAXXZ ENDP			; `dynamic initializer for 'RMSG_WINIXPLATFORM''
text$di	ENDS
; Function compile flags: /Ogtp
; File D:\git\src\IBK\IBK_DRFN\ProjSrc\SrcDrfn\inc\IAUGwanMng.h
;	COMDAT ??__ERMSG_GWANSIMREGISTER@@YAXXZ
text$di	SEGMENT
??__ERMSG_GWANSIMREGISTER@@YAXXZ PROC			; `dynamic initializer for 'RMSG_GWANSIMREGISTER'', COMDAT

; 173  : const UINT RMSG_GWANSIMREGISTER		=   ::RegisterWindowMessage("RMSG_GWANSIMREGISTER");

  00000	68 00 00 00 00	 push	 OFFSET ??_C@_0BF@MNPNIDPI@RMSG_GWANSIMREGISTER@
  00005	ff 15 00 00 00
	00		 call	 DWORD PTR __imp__RegisterWindowMessageA@4
  0000b	a3 00 00 00 00	 mov	 DWORD PTR ?RMSG_GWANSIMREGISTER@@3IB, eax
  00010	c3		 ret	 0
??__ERMSG_GWANSIMREGISTER@@YAXXZ ENDP			; `dynamic initializer for 'RMSG_GWANSIMREGISTER''
text$di	ENDS
; Function compile flags: /Ogtp
; File D:\git\src\IBK\IBK_DRFN\ProjSrc\SrcDrfn\inc\Define_Gwansim.h
;	COMDAT ??__ERMSG_INTREQUEST@@YAXXZ
text$di	SEGMENT
??__ERMSG_INTREQUEST@@YAXXZ PROC			; `dynamic initializer for 'RMSG_INTREQUEST'', COMDAT

; 10   : const UINT RMSG_INTREQUEST = ::RegisterWindowMessage(_T("RMSG_INTREQUEST") );

  00000	68 00 00 00 00	 push	 OFFSET ??_C@_0BA@JHANHJCN@RMSG_INTREQUEST@
  00005	ff 15 00 00 00
	00		 call	 DWORD PTR __imp__RegisterWindowMessageA@4
  0000b	a3 00 00 00 00	 mov	 DWORD PTR ?RMSG_INTREQUEST@@3IB, eax
  00010	c3		 ret	 0
??__ERMSG_INTREQUEST@@YAXXZ ENDP			; `dynamic initializer for 'RMSG_INTREQUEST''
text$di	ENDS
; Function compile flags: /Ogtp
; File D:\git\src\IBK\IBK_DRFN\ProjSrc\SrcDrfn\inc\Define_Gwansim.h
;	COMDAT ??__ERMSG_CONCERNHWND@@YAXXZ
text$di	SEGMENT
??__ERMSG_CONCERNHWND@@YAXXZ PROC			; `dynamic initializer for 'RMSG_CONCERNHWND'', COMDAT

; 9    : const UINT RMSG_CONCERNHWND = ::RegisterWindowMessage(_T("RMSG_CONCERNHWND") );

  00000	68 00 00 00 00	 push	 OFFSET ??_C@_0BB@EPGJDGDK@RMSG_CONCERNHWND@
  00005	ff 15 00 00 00
	00		 call	 DWORD PTR __imp__RegisterWindowMessageA@4
  0000b	a3 00 00 00 00	 mov	 DWORD PTR ?RMSG_CONCERNHWND@@3IB, eax
  00010	c3		 ret	 0
??__ERMSG_CONCERNHWND@@YAXXZ ENDP			; `dynamic initializer for 'RMSG_CONCERNHWND''
text$di	ENDS
; Function compile flags: /Ogtp
; File D:\git\src\IBK\IBK_DRFN\ProjSrc\SrcDrfn\inc\IBaseDefine.h
;	COMDAT ??__ERMSG_SETPCTRDATA@@YAXXZ
text$di	SEGMENT
??__ERMSG_SETPCTRDATA@@YAXXZ PROC			; `dynamic initializer for 'RMSG_SETPCTRDATA'', COMDAT

; 172  : const UINT RMSG_SETPCTRDATA = ::RegisterWindowMessage("RMSG_SETPCTRDATA");

  00000	68 00 00 00 00	 push	 OFFSET ??_C@_0BB@JPACFCL@RMSG_SETPCTRDATA@
  00005	ff 15 00 00 00
	00		 call	 DWORD PTR __imp__RegisterWindowMessageA@4
  0000b	a3 00 00 00 00	 mov	 DWORD PTR ?RMSG_SETPCTRDATA@@3IB, eax
  00010	c3		 ret	 0
??__ERMSG_SETPCTRDATA@@YAXXZ ENDP			; `dynamic initializer for 'RMSG_SETPCTRDATA''
text$di	ENDS
; Function compile flags: /Ogtp
; File D:\git\src\IBK\IBK_DRFN\ProjSrc\SrcDrfn\inc\IBaseDefine.h
;	COMDAT ??__ERMSG_GETPCTRDATA@@YAXXZ
text$di	SEGMENT
??__ERMSG_GETPCTRDATA@@YAXXZ PROC			; `dynamic initializer for 'RMSG_GETPCTRDATA'', COMDAT

; 171  : const UINT RMSG_GETPCTRDATA = ::RegisterWindowMessage("RMSG_GETPCTRDATA");

  00000	68 00 00 00 00	 push	 OFFSET ??_C@_0BB@GOOPDKI@RMSG_GETPCTRDATA@
  00005	ff 15 00 00 00
	00		 call	 DWORD PTR __imp__RegisterWindowMessageA@4
  0000b	a3 00 00 00 00	 mov	 DWORD PTR ?RMSG_GETPCTRDATA@@3IB, eax
  00010	c3		 ret	 0
??__ERMSG_GETPCTRDATA@@YAXXZ ENDP			; `dynamic initializer for 'RMSG_GETPCTRDATA''
text$di	ENDS
; Function compile flags: /Ogtp
; File D:\git\src\IBK\IBK_DRFN\ProjSrc\SrcDrfn\inc\IBaseDefine.h
;	COMDAT ??__ERMSG_INTERFACE@@YAXXZ
text$di	SEGMENT
??__ERMSG_INTERFACE@@YAXXZ PROC				; `dynamic initializer for 'RMSG_INTERFACE'', COMDAT

; 170  : const UINT RMSG_INTERFACE = ::RegisterWindowMessage("RMSG_INTERFACE");

  00000	68 00 00 00 00	 push	 OFFSET ??_C@_0P@BKKCOCLK@RMSG_INTERFACE@
  00005	ff 15 00 00 00
	00		 call	 DWORD PTR __imp__RegisterWindowMessageA@4
  0000b	a3 00 00 00 00	 mov	 DWORD PTR ?RMSG_INTERFACE@@3IB, eax
  00010	c3		 ret	 0
??__ERMSG_INTERFACE@@YAXXZ ENDP				; `dynamic initializer for 'RMSG_INTERFACE''
text$di	ENDS
; Function compile flags: /Ogtp
; File C:\Program Files (x86)\Microsoft Visual Studio\2019\Community\VC\Tools\MSVC\14.29.30133\atlmfc\include\afx.inl
;	COMDAT ?Dump@CObject@@UBEXAAVCDumpContext@@@Z
_TEXT	SEGMENT
___formal$ = 8						; size = 4
?Dump@CObject@@UBEXAAVCDumpContext@@@Z PROC		; CObject::Dump, COMDAT
; _this$ = ecx

; 122  : 	{ /* no dumping in release builds */ }

  00000	c2 04 00	 ret	 4
?Dump@CObject@@UBEXAAVCDumpContext@@@Z ENDP		; CObject::Dump
_TEXT	ENDS
; Function compile flags: /Ogtp
; File C:\Program Files (x86)\Microsoft Visual Studio\2019\Community\VC\Tools\MSVC\14.29.30133\atlmfc\include\afx.inl
;	COMDAT ?AssertValid@CObject@@UBEXXZ
_TEXT	SEGMENT
?AssertValid@CObject@@UBEXXZ PROC			; CObject::AssertValid, COMDAT
; _this$ = ecx

; 120  : 	{ /* no asserts in release builds */ }

  00000	c2 00 00	 ret	 0
?AssertValid@CObject@@UBEXXZ ENDP			; CObject::AssertValid
_TEXT	ENDS
; Function compile flags: /Ogtp
; File C:\Program Files (x86)\Microsoft Visual Studio\2019\Community\VC\Tools\MSVC\14.29.30133\atlmfc\include\afx.inl
;	COMDAT ?Serialize@CObject@@UAEXAAVCArchive@@@Z
_TEXT	SEGMENT
___formal$ = 8						; size = 4
?Serialize@CObject@@UAEXAAVCArchive@@@Z PROC		; CObject::Serialize, COMDAT
; _this$ = ecx

; 106  : 	{ /* CObject does not serialize anything by default */ }

  00000	c2 04 00	 ret	 4
?Serialize@CObject@@UAEXAAVCArchive@@@Z ENDP		; CObject::Serialize
_TEXT	ENDS
; Function compile flags: /Ogtp
; File C:\Program Files (x86)\Microsoft Visual Studio\2019\Community\VC\Tools\MSVC\14.29.30133\atlmfc\include\afx.inl
;	COMDAT ??1CObject@@UAE@XZ
_TEXT	SEGMENT
??1CObject@@UAE@XZ PROC					; CObject::~CObject, COMDAT
; _this$ = ecx

; 104  : 	{ }

  00000	c2 00 00	 ret	 0
??1CObject@@UAE@XZ ENDP					; CObject::~CObject
_TEXT	ENDS
; Function compile flags: /Ogtp
; File D:\git\src\IBK\IBK_DRFN\ProjSrc\SrcDrfn\DrCommon\PctrWinix\LocalHeader.cpp
;	COMDAT ?__empty_global_delete@@YAXPAXI@Z
_TEXT	SEGMENT
___formal$ = 8						; size = 4
___formal$ = 12						; size = 4
?__empty_global_delete@@YAXPAXI@Z PROC			; __empty_global_delete, COMDAT

  00000	c2 00 00	 ret	 0
?__empty_global_delete@@YAXPAXI@Z ENDP			; __empty_global_delete
_TEXT	ENDS
; Function compile flags: /Ogtp
; File D:\git\src\IBK\IBK_DRFN\ProjSrc\SrcDrfn\DrCommon\PctrWinix\LocalHeader.cpp
;	COMDAT ?__empty_global_delete@@YAXPAX@Z
_TEXT	SEGMENT
___formal$ = 8						; size = 4
?__empty_global_delete@@YAXPAX@Z PROC			; __empty_global_delete, COMDAT

  00000	c2 00 00	 ret	 0
?__empty_global_delete@@YAXPAX@Z ENDP			; __empty_global_delete
_TEXT	ENDS
END
