; Listing generated by Microsoft (R) Optimizing Compiler Version 19.29.30145.0 

	TITLE	D:\git\src\IBK\IBK_DRFN\#DRfn-CS\_Obj\ChartUtil\DlgCompSetup.obj
	.686P
	.XMM
	include listing.inc
	.model	flat

INCLUDELIB MSVCRT
INCLUDELIB OLDNAMES

PUBLIC	??_C@_0P@BKKCOCLK@RMSG_INTERFACE@		; `string'
PUBLIC	??_C@_0BB@GOOPDKI@RMSG_GETPCTRDATA@		; `string'
PUBLIC	??_C@_0BB@JPACFCL@RMSG_SETPCTRDATA@		; `string'
;	COMDAT ??_C@_0BB@JPACFCL@RMSG_SETPCTRDATA@
CONST	SEGMENT
??_C@_0BB@JPACFCL@RMSG_SETPCTRDATA@ DB 'RMSG_SETPCTRDATA', 00H ; `string'
CONST	ENDS
;	COMDAT ??_C@_0BB@GOOPDKI@RMSG_GETPCTRDATA@
CONST	SEGMENT
??_C@_0BB@GOOPDKI@RMSG_GETPCTRDATA@ DB 'RMSG_GETPCTRDATA', 00H ; `string'
CONST	ENDS
;	COMDAT ??_C@_0P@BKKCOCLK@RMSG_INTERFACE@
CONST	SEGMENT
??_C@_0P@BKKCOCLK@RMSG_INTERFACE@ DB 'RMSG_INTERFACE', 00H ; `string'
CONST	ENDS
CONST	SEGMENT
?_Fake_alloc@std@@3U_Fake_allocator@1@B	ORG $+1		; std::_Fake_alloc
CONST	ENDS
PUBLIC	?__empty_global_delete@@YAXPAX@Z		; __empty_global_delete
PUBLIC	?__empty_global_delete@@YAXPAXI@Z		; __empty_global_delete
PUBLIC	___local_stdio_scanf_options
PUBLIC	_sscanf
PUBLIC	?AfxCrtErrorCheck@@YAHH@Z			; AfxCrtErrorCheck
PUBLIC	??1CObject@@UAE@XZ				; CObject::~CObject
PUBLIC	??3CObject@@SGXPAX@Z				; CObject::operator delete
PUBLIC	?Serialize@CObject@@UAEXAAVCArchive@@@Z		; CObject::Serialize
PUBLIC	?AssertValid@CObject@@UBEXXZ			; CObject::AssertValid
PUBLIC	?Dump@CObject@@UBEXAAVCDumpContext@@@Z		; CObject::Dump
PUBLIC	?_AfxInitManaged@@YAHXZ				; _AfxInitManaged
PUBLIC	?DoDataExchange@CWnd@@MAEXPAVCDataExchange@@@Z	; CWnd::DoDataExchange
PUBLIC	?BeginModalState@CWnd@@UAEXXZ			; CWnd::BeginModalState
PUBLIC	?EndModalState@CWnd@@UAEXXZ			; CWnd::EndModalState
PUBLIC	?Create@CDialog@@UAEHIPAVCWnd@@@Z		; CDialog::Create
PUBLIC	??_GCListBox@@UAEPAXI@Z				; CListBox::`scalar deleting destructor'
PUBLIC	??_GCComboBox@@UAEPAXI@Z			; CComboBox::`scalar deleting destructor'
PUBLIC	?GetItemCount@CListCtrl@@QBEHXZ			; CListCtrl::GetItemCount
PUBLIC	??_GCListCtrl@@UAEPAXI@Z			; CListCtrl::`scalar deleting destructor'
PUBLIC	??_GCTreeCtrl@@UAEPAXI@Z			; CTreeCtrl::`scalar deleting destructor'
PUBLIC	??0CDlgCompSubItem@@QAE@XZ			; CDlgCompSubItem::CDlgCompSubItem
PUBLIC	??0?$CList@PAVCDlgCompSubItem@@PAV1@@@QAE@H@Z	; CList<CDlgCompSubItem *,CDlgCompSubItem *>::CList<CDlgCompSubItem *,CDlgCompSubItem *>
PUBLIC	?AddTail@?$CList@PAVCDlgCompSubItem@@PAV1@@@QAEPAU__POSITION@@PAVCDlgCompSubItem@@@Z ; CList<CDlgCompSubItem *,CDlgCompSubItem *>::AddTail
PUBLIC	?RemoveAll@?$CList@PAVCDlgCompSubItem@@PAV1@@@QAEXXZ ; CList<CDlgCompSubItem *,CDlgCompSubItem *>::RemoveAll
PUBLIC	?RemoveAt@?$CList@PAVCDlgCompSubItem@@PAV1@@@QAEXPAU__POSITION@@@Z ; CList<CDlgCompSubItem *,CDlgCompSubItem *>::RemoveAt
PUBLIC	?FindIndex@?$CList@PAVCDlgCompSubItem@@PAV1@@@QBEPAU__POSITION@@H@Z ; CList<CDlgCompSubItem *,CDlgCompSubItem *>::FindIndex
PUBLIC	?NewNode@?$CList@PAVCDlgCompSubItem@@PAV1@@@IAEPAUCNode@1@PAU21@0@Z ; CList<CDlgCompSubItem *,CDlgCompSubItem *>::NewNode
PUBLIC	?FreeNode@?$CList@PAVCDlgCompSubItem@@PAV1@@@IAEXPAUCNode@1@@Z ; CList<CDlgCompSubItem *,CDlgCompSubItem *>::FreeNode
PUBLIC	??1?$CList@PAVCDlgCompSubItem@@PAV1@@@UAE@XZ	; CList<CDlgCompSubItem *,CDlgCompSubItem *>::~CList<CDlgCompSubItem *,CDlgCompSubItem *>
PUBLIC	?Serialize@?$CList@PAVCDlgCompSubItem@@PAV1@@@UAEXAAVCArchive@@@Z ; CList<CDlgCompSubItem *,CDlgCompSubItem *>::Serialize
PUBLIC	??_G?$CList@PAVCDlgCompSubItem@@PAV1@@@UAEPAXI@Z ; CList<CDlgCompSubItem *,CDlgCompSubItem *>::`scalar deleting destructor'
PUBLIC	??0CDlgCompGroupData@@QAE@XZ			; CDlgCompGroupData::CDlgCompGroupData
PUBLIC	??0?$CList@PAVCDlgCompGroupData@@PAV1@@@QAE@H@Z	; CList<CDlgCompGroupData *,CDlgCompGroupData *>::CList<CDlgCompGroupData *,CDlgCompGroupData *>
PUBLIC	?AddTail@?$CList@PAVCDlgCompGroupData@@PAV1@@@QAEPAU__POSITION@@PAVCDlgCompGroupData@@@Z ; CList<CDlgCompGroupData *,CDlgCompGroupData *>::AddTail
PUBLIC	?RemoveAll@?$CList@PAVCDlgCompGroupData@@PAV1@@@QAEXXZ ; CList<CDlgCompGroupData *,CDlgCompGroupData *>::RemoveAll
PUBLIC	?RemoveAt@?$CList@PAVCDlgCompGroupData@@PAV1@@@QAEXPAU__POSITION@@@Z ; CList<CDlgCompGroupData *,CDlgCompGroupData *>::RemoveAt
PUBLIC	?FindIndex@?$CList@PAVCDlgCompGroupData@@PAV1@@@QBEPAU__POSITION@@H@Z ; CList<CDlgCompGroupData *,CDlgCompGroupData *>::FindIndex
PUBLIC	?NewNode@?$CList@PAVCDlgCompGroupData@@PAV1@@@IAEPAUCNode@1@PAU21@0@Z ; CList<CDlgCompGroupData *,CDlgCompGroupData *>::NewNode
PUBLIC	?FreeNode@?$CList@PAVCDlgCompGroupData@@PAV1@@@IAEXPAUCNode@1@@Z ; CList<CDlgCompGroupData *,CDlgCompGroupData *>::FreeNode
PUBLIC	??1?$CList@PAVCDlgCompGroupData@@PAV1@@@UAE@XZ	; CList<CDlgCompGroupData *,CDlgCompGroupData *>::~CList<CDlgCompGroupData *,CDlgCompGroupData *>
PUBLIC	?Serialize@?$CList@PAVCDlgCompGroupData@@PAV1@@@UAEXAAVCArchive@@@Z ; CList<CDlgCompGroupData *,CDlgCompGroupData *>::Serialize
PUBLIC	??_G?$CList@PAVCDlgCompGroupData@@PAV1@@@UAEPAXI@Z ; CList<CDlgCompGroupData *,CDlgCompGroupData *>::`scalar deleting destructor'
PUBLIC	??1CInputCodeListEx@@QAE@XZ			; CInputCodeListEx::~CInputCodeListEx
PUBLIC	?Convert@CCodeTypeBase@@UAEXPAD@Z		; CCodeTypeBase::Convert
PUBLIC	?Convert2@CCodeTypeBase@@UAEXPAD@Z		; CCodeTypeBase::Convert2
PUBLIC	?ConvertOneClickData@CCodeTypeBase@@UAEXPAD@Z	; CCodeTypeBase::ConvertOneClickData
PUBLIC	??0CCodeTypeA@@QAE@XZ				; CCodeTypeA::CCodeTypeA
PUBLIC	?Convert@CCodeTypeA@@UAEXPAD@Z			; CCodeTypeA::Convert
PUBLIC	?Convert2@CCodeTypeA@@UAEXPAD@Z			; CCodeTypeA::Convert2
PUBLIC	?ConvertOneClickData@CCodeTypeA@@UAEXPAD@Z	; CCodeTypeA::ConvertOneClickData
PUBLIC	??1CCodeTypeA@@QAE@XZ				; CCodeTypeA::~CCodeTypeA
PUBLIC	?SetSize@?$CArray@PAU__MASTERCODE@@PAU1@@@QAEXHH@Z ; CArray<__MASTERCODE *,__MASTERCODE *>::SetSize
PUBLIC	?SetAtGrow@?$CArray@PAU__MASTERCODE@@PAU1@@@QAEXHPAU__MASTERCODE@@@Z ; CArray<__MASTERCODE *,__MASTERCODE *>::SetAtGrow
PUBLIC	??1_GV_ITEM@@QAE@XZ				; _GV_ITEM::~_GV_ITEM
PUBLIC	??0?$CList@PAVCCallPutItemData@@PAV1@@@QAE@H@Z	; CList<CCallPutItemData *,CCallPutItemData *>::CList<CCallPutItemData *,CCallPutItemData *>
PUBLIC	?AddTail@?$CList@PAVCCallPutItemData@@PAV1@@@QAEPAU__POSITION@@PAVCCallPutItemData@@@Z ; CList<CCallPutItemData *,CCallPutItemData *>::AddTail
PUBLIC	?RemoveAll@?$CList@PAVCCallPutItemData@@PAV1@@@QAEXXZ ; CList<CCallPutItemData *,CCallPutItemData *>::RemoveAll
PUBLIC	?NewNode@?$CList@PAVCCallPutItemData@@PAV1@@@IAEPAUCNode@1@PAU21@0@Z ; CList<CCallPutItemData *,CCallPutItemData *>::NewNode
PUBLIC	??1?$CList@PAVCCallPutItemData@@PAV1@@@UAE@XZ	; CList<CCallPutItemData *,CCallPutItemData *>::~CList<CCallPutItemData *,CCallPutItemData *>
PUBLIC	?Serialize@?$CList@PAVCCallPutItemData@@PAV1@@@UAEXAAVCArchive@@@Z ; CList<CCallPutItemData *,CCallPutItemData *>::Serialize
PUBLIC	??_G?$CList@PAVCCallPutItemData@@PAV1@@@UAEPAXI@Z ; CList<CCallPutItemData *,CCallPutItemData *>::`scalar deleting destructor'
PUBLIC	?fnDataToList@CCallPutIMonthData@@QAEHPAUST_OPTION_ITEM_DATA@@@Z ; CCallPutIMonthData::fnDataToList
PUBLIC	??0?$CList@PAVCCallPutIMonthData@@PAV1@@@QAE@H@Z ; CList<CCallPutIMonthData *,CCallPutIMonthData *>::CList<CCallPutIMonthData *,CCallPutIMonthData *>
PUBLIC	?AddTail@?$CList@PAVCCallPutIMonthData@@PAV1@@@QAEPAU__POSITION@@PAVCCallPutIMonthData@@@Z ; CList<CCallPutIMonthData *,CCallPutIMonthData *>::AddTail
PUBLIC	?RemoveAll@?$CList@PAVCCallPutIMonthData@@PAV1@@@QAEXXZ ; CList<CCallPutIMonthData *,CCallPutIMonthData *>::RemoveAll
PUBLIC	?NewNode@?$CList@PAVCCallPutIMonthData@@PAV1@@@IAEPAUCNode@1@PAU21@0@Z ; CList<CCallPutIMonthData *,CCallPutIMonthData *>::NewNode
PUBLIC	??1?$CList@PAVCCallPutIMonthData@@PAV1@@@UAE@XZ	; CList<CCallPutIMonthData *,CCallPutIMonthData *>::~CList<CCallPutIMonthData *,CCallPutIMonthData *>
PUBLIC	?Serialize@?$CList@PAVCCallPutIMonthData@@PAV1@@@UAEXAAVCArchive@@@Z ; CList<CCallPutIMonthData *,CCallPutIMonthData *>::Serialize
PUBLIC	??_G?$CList@PAVCCallPutIMonthData@@PAV1@@@UAEPAXI@Z ; CList<CCallPutIMonthData *,CCallPutIMonthData *>::`scalar deleting destructor'
PUBLIC	?Parsing@CCallPutIHelper@@QAEXPAV?$CList@VCCodeTypeA@@V1@@@H@Z ; CCallPutIHelper::Parsing
PUBLIC	?ClearList@CCallPutIHelper@@QAEXXZ		; CCallPutIHelper::ClearList
PUBLIC	??0CDlgCompSetup@@QAE@PAVCWnd@@@Z		; CDlgCompSetup::CDlgCompSetup
PUBLIC	?GetCurSubItemList@CDlgCompSetup@@QAEPAV?$CList@PAVCDlgCompSubItem@@PAV1@@@XZ ; CDlgCompSetup::GetCurSubItemList
PUBLIC	?SetInOutData@CDlgCompSetup@@QAEXJJ@Z		; CDlgCompSetup::SetInOutData
PUBLIC	?DoDataExchange@CDlgCompSetup@@MAEXPAVCDataExchange@@@Z ; CDlgCompSetup::DoDataExchange
PUBLIC	?WindowProc@CDlgCompSetup@@MAEJIIJ@Z		; CDlgCompSetup::WindowProc
PUBLIC	?PreTranslateMessage@CDlgCompSetup@@MAEHPAUtagMSG@@@Z ; CDlgCompSetup::PreTranslateMessage
PUBLIC	?Initial_ThicknessComboBox@CDlgCompSetup@@IAEXHHAAVCBitmapItemComboBox@@@Z ; CDlgCompSetup::Initial_ThicknessComboBox
PUBLIC	?AddLineType@CDlgCompSetup@@IAEXPAVCComboBox@@H@Z ; CDlgCompSetup::AddLineType
PUBLIC	?Initial_DrawStyleComboBox@CDlgCompSetup@@IAEXHAAVCBitmapItemComboBox@@@Z ; CDlgCompSetup::Initial_DrawStyleComboBox
PUBLIC	?LoadBitmapToDrawStyleCombo@CDlgCompSetup@@IAEXHAAVCBitmapItemComboBox@@@Z ; CDlgCompSetup::LoadBitmapToDrawStyleCombo
PUBLIC	?RealLoadBitmap@CDlgCompSetup@@IAEXHHAAVCBitmapItemComboBox@@@Z ; CDlgCompSetup::RealLoadBitmap
PUBLIC	?fnCheckCode@CDlgCompSetup@@IAEHPBD0@Z		; CDlgCompSetup::fnCheckCode
PUBLIC	?OnInitDialog@CDlgCompSetup@@MAEHXZ		; CDlgCompSetup::OnInitDialog
PUBLIC	?OnBtngrpnew@CDlgCompSetup@@IAEXXZ		; CDlgCompSetup::OnBtngrpnew
PUBLIC	?OnBtngrpdel@CDlgCompSetup@@IAEXXZ		; CDlgCompSetup::OnBtngrpdel
PUBLIC	?OnBtngrpchange@CDlgCompSetup@@IAEXXZ		; CDlgCompSetup::OnBtngrpchange
PUBLIC	?OnArrow1@CDlgCompSetup@@IAEXXZ			; CDlgCompSetup::OnArrow1
PUBLIC	?OnArrow2@CDlgCompSetup@@IAEXXZ			; CDlgCompSetup::OnArrow2
PUBLIC	?OnArrow3@CDlgCompSetup@@IAEXXZ			; CDlgCompSetup::OnArrow3
PUBLIC	?OnArrow4@CDlgCompSetup@@IAEXXZ			; CDlgCompSetup::OnArrow4
PUBLIC	?OnBtnleft@CDlgCompSetup@@IAEXXZ		; CDlgCompSetup::OnBtnleft
PUBLIC	?OnBtnright@CDlgCompSetup@@IAEXXZ		; CDlgCompSetup::OnBtnright
PUBLIC	?OnBtnleft3@CDlgCompSetup@@IAEXXZ		; CDlgCompSetup::OnBtnleft3
PUBLIC	?OnOk@CDlgCompSetup@@IAEXXZ			; CDlgCompSetup::OnOk
PUBLIC	?OnDestroy@CDlgCompSetup@@IAEXXZ		; CDlgCompSetup::OnDestroy
PUBLIC	?OnSelchangeListgrp@CDlgCompSetup@@IAEXXZ	; CDlgCompSetup::OnSelchangeListgrp
PUBLIC	?OnItemchangedListitem@CDlgCompSetup@@IAEXPAUtagNMHDR@@PAJ@Z ; CDlgCompSetup::OnItemchangedListitem
PUBLIC	?OnSelchangedTreesearch@CDlgCompSetup@@IAEXPAUtagNMHDR@@PAJ@Z ; CDlgCompSetup::OnSelchangedTreesearch
PUBLIC	?OnClkListItem@CDlgCompSetup@@IAEXPAUtagNMHDR@@PAJ@Z ; CDlgCompSetup::OnClkListItem
PUBLIC	?OnDblclkListItem@CDlgCompSetup@@IAEXPAUtagNMHDR@@PAJ@Z ; CDlgCompSetup::OnDblclkListItem
PUBLIC	?OnClkListcodes@CDlgCompSetup@@IAEXPAUtagNMHDR@@PAJ@Z ; CDlgCompSetup::OnClkListcodes
PUBLIC	?OnDblclkListcodes@CDlgCompSetup@@IAEXPAUtagNMHDR@@PAJ@Z ; CDlgCompSetup::OnDblclkListcodes
PUBLIC	?OnSelchangeDrawstyle@CDlgCompSetup@@IAEXXZ	; CDlgCompSetup::OnSelchangeDrawstyle
PUBLIC	?OnSelchangeThickness@CDlgCompSetup@@IAEXXZ	; CDlgCompSetup::OnSelchangeThickness
PUBLIC	?OnSelchangeCmbsel@CDlgCompSetup@@IAEXXZ	; CDlgCompSetup::OnSelchangeCmbsel
PUBLIC	?OnColorSelChange@CDlgCompSetup@@IAEJIJ@Z	; CDlgCompSetup::OnColorSelChange
PUBLIC	?GetThisMessageMap@CDlgCompSetup@@KGPBUAFX_MSGMAP@@XZ ; CDlgCompSetup::GetThisMessageMap
PUBLIC	?GetMessageMap@CDlgCompSetup@@MBEPBUAFX_MSGMAP@@XZ ; CDlgCompSetup::GetMessageMap
PUBLIC	?fnCheckNoGroup@CDlgCompSetup@@IAEXXZ		; CDlgCompSetup::fnCheckNoGroup
PUBLIC	?InitFromLoadData@CDlgCompSetup@@IAEXXZ		; CDlgCompSetup::InitFromLoadData
PUBLIC	?FindGroupInfo@CDlgCompSetup@@IAEPAVCDlgCompGroupData@@HAAPAU__POSITION@@@Z ; CDlgCompSetup::FindGroupInfo
PUBLIC	?ReceiveData@CTLMCallback@CDlgCompSetup@@EAGXHDJHPAX@Z ; CDlgCompSetup::CTLMCallback::ReceiveData
PUBLIC	?fnInitList@CDlgCompSetup@@IAEXXZ		; CDlgCompSetup::fnInitList
PUBLIC	?fnTreeLoad@CDlgCompSetup@@IAEXXZ		; CDlgCompSetup::fnTreeLoad
PUBLIC	?fnSelectGroup@CDlgCompSetup@@IAEXH@Z		; CDlgCompSetup::fnSelectGroup
PUBLIC	?fnSelectItem@CDlgCompSetup@@IAEXPAVCDlgCompGroupData@@H@Z ; CDlgCompSetup::fnSelectItem
PUBLIC	?fnSelectItem@CDlgCompSetup@@IAEXPAVCDlgCompSubItem@@@Z ; CDlgCompSetup::fnSelectItem
PUBLIC	?fnUpdateToControl@CDlgCompSetup@@IAEXPAVCDlgCompSubItem@@@Z ; CDlgCompSetup::fnUpdateToControl
PUBLIC	?fnUpdateToMemory@CDlgCompSetup@@IAEXPAVCDlgCompSubItem@@@Z ; CDlgCompSetup::fnUpdateToMemory
PUBLIC	?DoAddToItem@CDlgCompSetup@@IAEXH@Z		; CDlgCompSetup::DoAddToItem
PUBLIC	?DoGridAddToItem@CDlgCompSetup@@IAEXPBD0@Z	; CDlgCompSetup::DoGridAddToItem
PUBLIC	?DoDeleteItem@CDlgCompSetup@@IAEXH@Z		; CDlgCompSetup::DoDeleteItem
PUBLIC	?DoCurItemChange@CDlgCompSetup@@IAEXXZ		; CDlgCompSetup::DoCurItemChange
PUBLIC	?fnInitSelctGroup@CDlgCompSetup@@IAEXPBD@Z	; CDlgCompSetup::fnInitSelctGroup
PUBLIC	?ChangeListOrGridCtrl@CDlgCompSetup@@IAEXV?$CStringT@DV?$StrTraitMFC_DLL@DV?$ChTraitsCRT@D@ATL@@@@@ATL@@@Z ; CDlgCompSetup::ChangeListOrGridCtrl
PUBLIC	?SetMasterData@CDlgCompSetup@@IAEXPAV?$CList@VCCodeTypeA@@V1@@@@Z ; CDlgCompSetup::SetMasterData
PUBLIC	?InitGrid@CDlgCompSetup@@IAEXXZ			; CDlgCompSetup::InitGrid
PUBLIC	?InitGridRowCol@CDlgCompSetup@@IAEXH@Z		; CDlgCompSetup::InitGridRowCol
PUBLIC	?ChangeGridRowCol@CDlgCompSetup@@IAEXXZ		; CDlgCompSetup::ChangeGridRowCol
PUBLIC	?InsertGridData@CDlgCompSetup@@IAEXXZ		; CDlgCompSetup::InsertGridData
PUBLIC	?GetInsertGridDataText@CDlgCompSetup@@IAE?AV?$CStringT@DV?$StrTraitMFC_DLL@DV?$ChTraitsCRT@D@ATL@@@@@ATL@@HH@Z ; CDlgCompSetup::GetInsertGridDataText
PUBLIC	?GetCodeInfo@CDlgCompSetup@@IAEHHAAH0AAV?$CStringT@DV?$StrTraitMFC_DLL@DV?$ChTraitsCRT@D@ATL@@@@@ATL@@@Z ; CDlgCompSetup::GetCodeInfo
PUBLIC	?DoFindEdtCode@CDlgCompSetup@@IAEXXZ		; CDlgCompSetup::DoFindEdtCode
PUBLIC	?DoFindEdtName@CDlgCompSetup@@IAEXPBD@Z		; CDlgCompSetup::DoFindEdtName
PUBLIC	?DoSelectionClear@CDlgCompSetup@@IAEXXZ		; CDlgCompSetup::DoSelectionClear
PUBLIC	??_GCDlgCompSetup@@UAEPAXI@Z			; CDlgCompSetup::`scalar deleting destructor'
PUBLIC	??0exception@std@@QAE@ABV01@@Z			; std::exception::exception
PUBLIC	??1exception@std@@UAE@XZ			; std::exception::~exception
PUBLIC	?what@exception@std@@UBEPBDXZ			; std::exception::what
PUBLIC	??_Gexception@std@@UAEPAXI@Z			; std::exception::`scalar deleting destructor'
PUBLIC	??0bad_alloc@std@@QAE@ABV01@@Z			; std::bad_alloc::bad_alloc
PUBLIC	??_Gbad_alloc@std@@UAEPAXI@Z			; std::bad_alloc::`scalar deleting destructor'
PUBLIC	??0bad_array_new_length@std@@QAE@XZ		; std::bad_array_new_length::bad_array_new_length
PUBLIC	??1bad_array_new_length@std@@UAE@XZ		; std::bad_array_new_length::~bad_array_new_length
PUBLIC	??0bad_array_new_length@std@@QAE@ABV01@@Z	; std::bad_array_new_length::bad_array_new_length
PUBLIC	??_Gbad_array_new_length@std@@UAEPAXI@Z		; std::bad_array_new_length::`scalar deleting destructor'
PUBLIC	?_Throw_bad_array_new_length@std@@YAXXZ		; std::_Throw_bad_array_new_length
PUBLIC	??1CDlgGroupName@@UAE@XZ			; CDlgGroupName::~CDlgGroupName
PUBLIC	??1?$vector@HV?$allocator@H@std@@@std@@QAE@XZ	; std::vector<int,std::allocator<int> >::~vector<int,std::allocator<int> >
PUBLIC	?_Xlength@?$vector@HV?$allocator@H@std@@@std@@CAXXZ ; std::vector<int,std::allocator<int> >::_Xlength
PUBLIC	?_Xrange@?$vector@HV?$allocator@H@std@@@std@@CAXXZ ; std::vector<int,std::allocator<int> >::_Xrange
PUBLIC	??$_Emplace_reallocate@ABH@?$vector@HV?$allocator@H@std@@@std@@QAEPAHQAHABH@Z ; std::vector<int,std::allocator<int> >::_Emplace_reallocate<int const &>
PUBLIC	??$SerializeElements@PAVCDlgCompSubItem@@@@YGXAAVCArchive@@PAPAVCDlgCompSubItem@@H@Z ; SerializeElements<CDlgCompSubItem *>
PUBLIC	??$SerializeElements@PAVCDlgCompGroupData@@@@YGXAAVCArchive@@PAPAVCDlgCompGroupData@@H@Z ; SerializeElements<CDlgCompGroupData *>
PUBLIC	??$SerializeElements@PAVCCallPutItemData@@@@YGXAAVCArchive@@PAPAVCCallPutItemData@@H@Z ; SerializeElements<CCallPutItemData *>
PUBLIC	??$SerializeElements@PAVCCallPutIMonthData@@@@YGXAAVCArchive@@PAPAVCCallPutIMonthData@@H@Z ; SerializeElements<CCallPutIMonthData *>
PUBLIC	??$_Copy_memmove@PAHPAH@std@@YAPAHPAH00@Z	; std::_Copy_memmove<int *,int *>
PUBLIC	??$_Allocate_manually_vector_aligned@U_Default_allocate_traits@std@@@std@@YAPAXI@Z ; std::_Allocate_manually_vector_aligned<std::_Default_allocate_traits>
PUBLIC	?_OptionsStorage@?1??__local_stdio_scanf_options@@9@4_KA ; `__local_stdio_scanf_options'::`2'::_OptionsStorage
PUBLIC	??_C@_00CNPNBAHC@@				; `string'
PUBLIC	??_7CListBox@@6B@				; CListBox::`vftable'
PUBLIC	??_7CComboBox@@6B@				; CComboBox::`vftable'
PUBLIC	??_7CListCtrl@@6B@				; CListCtrl::`vftable'
PUBLIC	??_7CTreeCtrl@@6B@				; CTreeCtrl::`vftable'
PUBLIC	??_R0?AVCObject@@@8				; CObject `RTTI Type Descriptor'
PUBLIC	??_R3CObject@@8					; CObject::`RTTI Class Hierarchy Descriptor'
PUBLIC	??_R2CObject@@8					; CObject::`RTTI Base Class Array'
PUBLIC	??_R1A@?0A@EA@CObject@@8			; CObject::`RTTI Base Class Descriptor at (0,-1,0,64)'
PUBLIC	??_R1A@?0A@EA@CWnd@@8				; CWnd::`RTTI Base Class Descriptor at (0,-1,0,64)'
PUBLIC	??_R0?AVCWnd@@@8				; CWnd `RTTI Type Descriptor'
PUBLIC	??_R3CWnd@@8					; CWnd::`RTTI Class Hierarchy Descriptor'
PUBLIC	??_R2CWnd@@8					; CWnd::`RTTI Base Class Array'
PUBLIC	??_R1A@?0A@EA@CCmdTarget@@8			; CCmdTarget::`RTTI Base Class Descriptor at (0,-1,0,64)'
PUBLIC	??_R0?AVCCmdTarget@@@8				; CCmdTarget `RTTI Type Descriptor'
PUBLIC	??_R3CCmdTarget@@8				; CCmdTarget::`RTTI Class Hierarchy Descriptor'
PUBLIC	??_R2CCmdTarget@@8				; CCmdTarget::`RTTI Base Class Array'
PUBLIC	??_R4CListBox@@6B@				; CListBox::`RTTI Complete Object Locator'
PUBLIC	??_R0?AVCListBox@@@8				; CListBox `RTTI Type Descriptor'
PUBLIC	??_R3CListBox@@8				; CListBox::`RTTI Class Hierarchy Descriptor'
PUBLIC	??_R2CListBox@@8				; CListBox::`RTTI Base Class Array'
PUBLIC	??_R1A@?0A@EA@CListBox@@8			; CListBox::`RTTI Base Class Descriptor at (0,-1,0,64)'
PUBLIC	??_R4CComboBox@@6B@				; CComboBox::`RTTI Complete Object Locator'
PUBLIC	??_R0?AVCComboBox@@@8				; CComboBox `RTTI Type Descriptor'
PUBLIC	??_R3CComboBox@@8				; CComboBox::`RTTI Class Hierarchy Descriptor'
PUBLIC	??_R2CComboBox@@8				; CComboBox::`RTTI Base Class Array'
PUBLIC	??_R1A@?0A@EA@CComboBox@@8			; CComboBox::`RTTI Base Class Descriptor at (0,-1,0,64)'
PUBLIC	??_R1A@?0A@EA@CDialog@@8			; CDialog::`RTTI Base Class Descriptor at (0,-1,0,64)'
PUBLIC	??_R0?AVCDialog@@@8				; CDialog `RTTI Type Descriptor'
PUBLIC	??_R3CDialog@@8					; CDialog::`RTTI Class Hierarchy Descriptor'
PUBLIC	??_R2CDialog@@8					; CDialog::`RTTI Base Class Array'
PUBLIC	??_R4CListCtrl@@6B@				; CListCtrl::`RTTI Complete Object Locator'
PUBLIC	??_R0?AVCListCtrl@@@8				; CListCtrl `RTTI Type Descriptor'
PUBLIC	??_R3CListCtrl@@8				; CListCtrl::`RTTI Class Hierarchy Descriptor'
PUBLIC	??_R2CListCtrl@@8				; CListCtrl::`RTTI Base Class Array'
PUBLIC	??_R1A@?0A@EA@CListCtrl@@8			; CListCtrl::`RTTI Base Class Descriptor at (0,-1,0,64)'
PUBLIC	??_R4CTreeCtrl@@6B@				; CTreeCtrl::`RTTI Complete Object Locator'
PUBLIC	??_R0?AVCTreeCtrl@@@8				; CTreeCtrl `RTTI Type Descriptor'
PUBLIC	??_R3CTreeCtrl@@8				; CTreeCtrl::`RTTI Class Hierarchy Descriptor'
PUBLIC	??_R2CTreeCtrl@@8				; CTreeCtrl::`RTTI Base Class Array'
PUBLIC	??_R1A@?0A@EA@CTreeCtrl@@8			; CTreeCtrl::`RTTI Base Class Descriptor at (0,-1,0,64)'
PUBLIC	??_7?$CList@PAVCDlgCompSubItem@@PAV1@@@6B@	; CList<CDlgCompSubItem *,CDlgCompSubItem *>::`vftable'
PUBLIC	??_7?$CList@PAVCDlgCompGroupData@@PAV1@@@6B@	; CList<CDlgCompGroupData *,CDlgCompGroupData *>::`vftable'
PUBLIC	??_C@_0M@CBBNGGHM@PcTrMng?4dll@			; `string'
PUBLIC	??_C@_0P@IDMAJEGN@HANAROPCTRMAIN@		; `string'
PUBLIC	??_C@_06NDLAHCHE@?$CFs?$CF08X@			; `string'
PUBLIC	??_C@_02EMFKHFLK@?$CFX@				; `string'
PUBLIC	??_C@_08KDNPGENH@TREELIST@			; `string'
PUBLIC	??_7CCodeTypeBase@@6B@				; CCodeTypeBase::`vftable'
PUBLIC	??_C@_05KBKNOCPJ@?$CF2?42s@			; `string'
PUBLIC	??_C@_02BJKMHJON@?$KI?W@			; `string'
PUBLIC	??_C@_02IJKLNJNJ@?$KI?$OA@			; `string'
PUBLIC	??_7CCodeTypeA@@6B@				; CCodeTypeA::`vftable'
PUBLIC	??_C@_01COCBENDE@7@				; `string'
PUBLIC	??_C@_01DHDKHMHF@6@				; `string'
PUBLIC	??_C@_01BMBHCPLG@5@				; `string'
PUBLIC	??_C@_01EKENIIDA@3@				; `string'
PUBLIC	??_C@_01FAMBOPH@4@				; `string'
PUBLIC	??_7?$CList@PAVCCallPutItemData@@PAV1@@@6B@	; CList<CCallPutItemData *,CCallPutItemData *>::`vftable'
PUBLIC	??_7?$CList@PAVCCallPutIMonthData@@PAV1@@@6B@	; CList<CCallPutIMonthData *,CCallPutIMonthData *>::`vftable'
PUBLIC	??_C@_04HOGOKFCN@?$LP?y?$LJ?$LA@		; `string'
PUBLIC	??_C@_04CNJBKMPC@Call@				; `string'
PUBLIC	??_7CTLMCallback@CDlgCompSetup@@6B@		; CDlgCompSetup::CTLMCallback::`vftable'
PUBLIC	??_7CDlgCompSetup@@6B@				; CDlgCompSetup::`vftable'
PUBLIC	??_7exception@std@@6B@				; std::exception::`vftable'
PUBLIC	??_C@_0BC@EOODALEL@Unknown?5exception@		; `string'
PUBLIC	??_7bad_alloc@std@@6B@				; std::bad_alloc::`vftable'
PUBLIC	??_7bad_array_new_length@std@@6B@		; std::bad_array_new_length::`vftable'
PUBLIC	??_C@_0BF@KINCDENJ@bad?5array?5new?5length@	; `string'
PUBLIC	__TI3?AVbad_array_new_length@std@@
PUBLIC	__CTA3?AVbad_array_new_length@std@@
PUBLIC	??_R0?AVbad_array_new_length@std@@@8		; std::bad_array_new_length `RTTI Type Descriptor'
PUBLIC	__CT??_R0?AVbad_array_new_length@std@@@8??0bad_array_new_length@std@@QAE@ABV01@@Z12
PUBLIC	??_R0?AVbad_alloc@std@@@8			; std::bad_alloc `RTTI Type Descriptor'
PUBLIC	__CT??_R0?AVbad_alloc@std@@@8??0bad_alloc@std@@QAE@ABV01@@Z12
PUBLIC	??_R0?AVexception@std@@@8			; std::exception `RTTI Type Descriptor'
PUBLIC	__CT??_R0?AVexception@std@@@8??0exception@std@@QAE@ABV01@@Z12
PUBLIC	??_C@_08KMEBHNMN@?$DM?A?$LO?$LI?q?$LI?m?$DO@	; `string'
PUBLIC	??_C@_0L@OLLFJJOD@?$DM?A?$LO?$LI?q?D?Z?$LF?e?$DO@ ; `string'
PUBLIC	??_C@_0BP@BLNMJNIH@?$MA?L?$LJ?L?5?$LA?$LA?$MA?$LK?5?$LB?W?$LH?l?$LI?m?$MA?L?5?A?$LI?$MA?g?G?U?$LE?O?$LE?Y?4@ ; `string'
PUBLIC	??_C@_0CA@KGDMODEH@?$CFs?5?$LB?W?$LH?l?$MA?$LL?$CI?$LI?$KG?$CJ?5?$LL?h?A?$KG?G?O?$LN?C?$LA?Z?$LN?$MA?$LE?O?$LB?n?$DP@ ; `string'
PUBLIC	??_C@_01GBGANLPD@0@				; `string'
PUBLIC	??_C@_01HIHLOKLC@1@				; `string'
PUBLIC	??_C@_01FDFGLJHB@2@				; `string'
PUBLIC	??_C@_01KJLJFBPL@8@				; `string'
PUBLIC	??_C@_01LAKCGALK@9@				; `string'
PUBLIC	??_C@_02PKFBJPLJ@10@				; `string'
PUBLIC	??_C@_02ODEKKOPI@11@				; `string'
PUBLIC	??_C@_02MIGHPNDL@12@				; `string'
PUBLIC	??_C@_02NBHMMMHK@13@				; `string'
PUBLIC	??_C@_02JODNFKLN@14@				; `string'
PUBLIC	??_C@_02IHCGGLPM@15@				; `string'
PUBLIC	??_C@_02KMALDIDP@16@				; `string'
PUBLIC	??_C@_02LFBAAJHO@17@				; `string'
PUBLIC	??_C@_02DCIIBFLB@18@				; `string'
PUBLIC	??_C@_02CLJDCEPA@19@				; `string'
PUBLIC	??_C@_02PIBHCBOA@20@				; `string'
PUBLIC	??_C@_02OBAMBAKB@21@				; `string'
PUBLIC	??_C@_02MKCBEDGC@22@				; `string'
PUBLIC	??_C@_02NDDKHCCD@23@				; `string'
PUBLIC	??_C@_02JMHLOEOE@24@				; `string'
PUBLIC	??_C@_06BGMJNGKF@?A?$LO?$LI?q?$LI?m@		; `string'
PUBLIC	??_C@_04IMDNCEFG@?D?Z?$LF?e@			; `string'
PUBLIC	??_C@_0L@HJJAEEML@?$LF?n?$LG?t?$LH?$PM?B?w?F?$KO@ ; `string'
PUBLIC	??_C@_04HBCHAADI@4602@				; `string'
PUBLIC	??_C@_0L@DIKICJIA@SCREENCODE@			; `string'
PUBLIC	??_C@_03JMDFPPIA@CFG@				; `string'
PUBLIC	??_C@_0BE@GEHHHPPG@?$LM?$LB?E?C?$LF?H?5?$LB?W?$LH?l?$MA?L?5?$LO?x?$MA?$LN?4@ ; `string'
PUBLIC	??_C@_0BF@GGAGLMPO@?$LB?W?$LH?l?$MA?L?5?$LM?$LB?E?C?$LF?G?A?v?5?$LO?J?$MA?$LN@ ; `string'
PUBLIC	??_C@_0BP@NJDMJDP@?$MA?L?$LJ?L?5?C?$NP?$LA?$KB?$LF?G?$LO?n?5?$MA?V?$LE?B?5?A?$LO?$LI?q?$MA?T?$LE?O?$LE?Y?4@ ; `string'
PUBLIC	??_C@_0BP@BKPHIEFF@?C?V?$LE?k?5?$CFd?$LA?$LD?5?A?$LO?$LI?q?$LB?n?A?v?5?$LA?$KB?$LE?I?G?U?$LE?O?$LE?Y?4@ ; `string'
PUBLIC	??_C@_0CB@GHOJNJLD@?G?v?$MA?g?5?$LO?F?$MA?L?E?$NL?5?C?$LD?$LI?$KO?$LA?$KB?5?$LF?G?$LO?n?$MA?V?A?v?5?$LO?J?$MA@ ; `string'
PUBLIC	??_C@_08NHOKBKDK@?$LB?b?$LK?$LL?$LB?W?$LH?l@	; `string'
PUBLIC	??_R0PAVCMemoryException@@@8			; CMemoryException * `RTTI Type Descriptor'
PUBLIC	??_C@_07OLCDEDDD@PMASTER@			; `string'
PUBLIC	??_C@_08CDLEABGN@JPMASTER@			; `string'
PUBLIC	??_C@_06CDJAKJDK@?G?$OA?$LL?g?$LA?$KB@		; `string'
PUBLIC	??_C@_02KCIOKDCD@?D?$NN@			; `string'
PUBLIC	??_C@_02ECKNGKBC@?G?$LC@			; `string'
PUBLIC	??_C@_0P@JIBKHGJJ@master?2atm?4dat@		; `string'
PUBLIC	??_C@_03KBDGFMG@mst@				; `string'
PUBLIC	??_C@_08EFGGCJLD@?$CFs?2?$CFs?2?$CFs@		; `string'
PUBLIC	??_C@_05BJKOFFGO@PRICE@				; `string'
PUBLIC	??_C@_03NDHBKIJP@ATM@				; `string'
PUBLIC	??_C@_05DNIIFBMG@?$CFs?5?$CFs@			; `string'
PUBLIC	??_C@_01MJMHLOMK@O@				; `string'
PUBLIC	??_C@_01MMEEDKFM@X@				; `string'
PUBLIC	??_C@_0BJ@DHFDPMIM@invalid?5vector?5subscript@	; `string'
PUBLIC	??_C@_0BA@FOIKENOD@vector?5too?5long@		; `string'
PUBLIC	??_R4?$CList@PAVCDlgCompSubItem@@PAV1@@@6B@	; CList<CDlgCompSubItem *,CDlgCompSubItem *>::`RTTI Complete Object Locator'
PUBLIC	??_R0?AV?$CList@PAVCDlgCompSubItem@@PAV1@@@@8	; CList<CDlgCompSubItem *,CDlgCompSubItem *> `RTTI Type Descriptor'
PUBLIC	??_R3?$CList@PAVCDlgCompSubItem@@PAV1@@@8	; CList<CDlgCompSubItem *,CDlgCompSubItem *>::`RTTI Class Hierarchy Descriptor'
PUBLIC	??_R2?$CList@PAVCDlgCompSubItem@@PAV1@@@8	; CList<CDlgCompSubItem *,CDlgCompSubItem *>::`RTTI Base Class Array'
PUBLIC	??_R1A@?0A@EA@?$CList@PAVCDlgCompSubItem@@PAV1@@@8 ; CList<CDlgCompSubItem *,CDlgCompSubItem *>::`RTTI Base Class Descriptor at (0,-1,0,64)'
PUBLIC	??_R4?$CList@PAVCDlgCompGroupData@@PAV1@@@6B@	; CList<CDlgCompGroupData *,CDlgCompGroupData *>::`RTTI Complete Object Locator'
PUBLIC	??_R0?AV?$CList@PAVCDlgCompGroupData@@PAV1@@@@8	; CList<CDlgCompGroupData *,CDlgCompGroupData *> `RTTI Type Descriptor'
PUBLIC	??_R3?$CList@PAVCDlgCompGroupData@@PAV1@@@8	; CList<CDlgCompGroupData *,CDlgCompGroupData *>::`RTTI Class Hierarchy Descriptor'
PUBLIC	??_R2?$CList@PAVCDlgCompGroupData@@PAV1@@@8	; CList<CDlgCompGroupData *,CDlgCompGroupData *>::`RTTI Base Class Array'
PUBLIC	??_R1A@?0A@EA@?$CList@PAVCDlgCompGroupData@@PAV1@@@8 ; CList<CDlgCompGroupData *,CDlgCompGroupData *>::`RTTI Base Class Descriptor at (0,-1,0,64)'
PUBLIC	??_R0?AUITLMCallback@@@8			; ITLMCallback `RTTI Type Descriptor'
PUBLIC	??_R3ITLMCallback@@8				; ITLMCallback::`RTTI Class Hierarchy Descriptor'
PUBLIC	??_R2ITLMCallback@@8				; ITLMCallback::`RTTI Base Class Array'
PUBLIC	??_R1A@?0A@EA@ITLMCallback@@8			; ITLMCallback::`RTTI Base Class Descriptor at (0,-1,0,64)'
PUBLIC	??_R4CCodeTypeBase@@6B@				; CCodeTypeBase::`RTTI Complete Object Locator'
PUBLIC	??_R0?AVCCodeTypeBase@@@8			; CCodeTypeBase `RTTI Type Descriptor'
PUBLIC	??_R3CCodeTypeBase@@8				; CCodeTypeBase::`RTTI Class Hierarchy Descriptor'
PUBLIC	??_R2CCodeTypeBase@@8				; CCodeTypeBase::`RTTI Base Class Array'
PUBLIC	??_R1A@?0A@EA@CCodeTypeBase@@8			; CCodeTypeBase::`RTTI Base Class Descriptor at (0,-1,0,64)'
PUBLIC	??_R4CCodeTypeA@@6B@				; CCodeTypeA::`RTTI Complete Object Locator'
PUBLIC	??_R0?AVCCodeTypeA@@@8				; CCodeTypeA `RTTI Type Descriptor'
PUBLIC	??_R3CCodeTypeA@@8				; CCodeTypeA::`RTTI Class Hierarchy Descriptor'
PUBLIC	??_R2CCodeTypeA@@8				; CCodeTypeA::`RTTI Base Class Array'
PUBLIC	??_R1A@?0A@EA@CCodeTypeA@@8			; CCodeTypeA::`RTTI Base Class Descriptor at (0,-1,0,64)'
PUBLIC	??_R4?$CList@PAVCCallPutItemData@@PAV1@@@6B@	; CList<CCallPutItemData *,CCallPutItemData *>::`RTTI Complete Object Locator'
PUBLIC	??_R0?AV?$CList@PAVCCallPutItemData@@PAV1@@@@8	; CList<CCallPutItemData *,CCallPutItemData *> `RTTI Type Descriptor'
PUBLIC	??_R3?$CList@PAVCCallPutItemData@@PAV1@@@8	; CList<CCallPutItemData *,CCallPutItemData *>::`RTTI Class Hierarchy Descriptor'
PUBLIC	??_R2?$CList@PAVCCallPutItemData@@PAV1@@@8	; CList<CCallPutItemData *,CCallPutItemData *>::`RTTI Base Class Array'
PUBLIC	??_R1A@?0A@EA@?$CList@PAVCCallPutItemData@@PAV1@@@8 ; CList<CCallPutItemData *,CCallPutItemData *>::`RTTI Base Class Descriptor at (0,-1,0,64)'
PUBLIC	??_R4?$CList@PAVCCallPutIMonthData@@PAV1@@@6B@	; CList<CCallPutIMonthData *,CCallPutIMonthData *>::`RTTI Complete Object Locator'
PUBLIC	??_R0?AV?$CList@PAVCCallPutIMonthData@@PAV1@@@@8 ; CList<CCallPutIMonthData *,CCallPutIMonthData *> `RTTI Type Descriptor'
PUBLIC	??_R3?$CList@PAVCCallPutIMonthData@@PAV1@@@8	; CList<CCallPutIMonthData *,CCallPutIMonthData *>::`RTTI Class Hierarchy Descriptor'
PUBLIC	??_R2?$CList@PAVCCallPutIMonthData@@PAV1@@@8	; CList<CCallPutIMonthData *,CCallPutIMonthData *>::`RTTI Base Class Array'
PUBLIC	??_R1A@?0A@EA@?$CList@PAVCCallPutIMonthData@@PAV1@@@8 ; CList<CCallPutIMonthData *,CCallPutIMonthData *>::`RTTI Base Class Descriptor at (0,-1,0,64)'
PUBLIC	??_R4CDlgCompSetup@@6B@				; CDlgCompSetup::`RTTI Complete Object Locator'
PUBLIC	??_R0?AVCDlgCompSetup@@@8			; CDlgCompSetup `RTTI Type Descriptor'
PUBLIC	??_R3CDlgCompSetup@@8				; CDlgCompSetup::`RTTI Class Hierarchy Descriptor'
PUBLIC	??_R2CDlgCompSetup@@8				; CDlgCompSetup::`RTTI Base Class Array'
PUBLIC	??_R1A@?0A@EA@CDlgCompSetup@@8			; CDlgCompSetup::`RTTI Base Class Descriptor at (0,-1,0,64)'
PUBLIC	??_R4CTLMCallback@CDlgCompSetup@@6B@		; CDlgCompSetup::CTLMCallback::`RTTI Complete Object Locator'
PUBLIC	??_R0?AVCTLMCallback@CDlgCompSetup@@@8		; CDlgCompSetup::CTLMCallback `RTTI Type Descriptor'
PUBLIC	??_R3CTLMCallback@CDlgCompSetup@@8		; CDlgCompSetup::CTLMCallback::`RTTI Class Hierarchy Descriptor'
PUBLIC	??_R2CTLMCallback@CDlgCompSetup@@8		; CDlgCompSetup::CTLMCallback::`RTTI Base Class Array'
PUBLIC	??_R1A@?0A@EA@CTLMCallback@CDlgCompSetup@@8	; CDlgCompSetup::CTLMCallback::`RTTI Base Class Descriptor at (0,-1,0,64)'
PUBLIC	??_R4exception@std@@6B@				; std::exception::`RTTI Complete Object Locator'
PUBLIC	??_R3exception@std@@8				; std::exception::`RTTI Class Hierarchy Descriptor'
PUBLIC	??_R2exception@std@@8				; std::exception::`RTTI Base Class Array'
PUBLIC	??_R1A@?0A@EA@exception@std@@8			; std::exception::`RTTI Base Class Descriptor at (0,-1,0,64)'
PUBLIC	??_R4bad_alloc@std@@6B@				; std::bad_alloc::`RTTI Complete Object Locator'
PUBLIC	??_R3bad_alloc@std@@8				; std::bad_alloc::`RTTI Class Hierarchy Descriptor'
PUBLIC	??_R2bad_alloc@std@@8				; std::bad_alloc::`RTTI Base Class Array'
PUBLIC	??_R1A@?0A@EA@bad_alloc@std@@8			; std::bad_alloc::`RTTI Base Class Descriptor at (0,-1,0,64)'
PUBLIC	??_R4bad_array_new_length@std@@6B@		; std::bad_array_new_length::`RTTI Complete Object Locator'
PUBLIC	??_R3bad_array_new_length@std@@8		; std::bad_array_new_length::`RTTI Class Hierarchy Descriptor'
PUBLIC	??_R2bad_array_new_length@std@@8		; std::bad_array_new_length::`RTTI Base Class Array'
PUBLIC	??_R1A@?0A@EA@bad_array_new_length@std@@8	; std::bad_array_new_length::`RTTI Base Class Descriptor at (0,-1,0,64)'
EXTRN	??2@YAPAXI@Z:PROC				; operator new
EXTRN	??3@YAXPAX@Z:PROC				; operator delete
EXTRN	??3@YAXPAXI@Z:PROC				; operator delete
EXTRN	?__global_delete@@YAXPAXI@Z:PROC		; __global_delete
EXTRN	??_U@YAPAXI@Z:PROC				; operator new[]
EXTRN	??_V@YAXPAX@Z:PROC				; operator delete[]
EXTRN	___std_terminate:PROC
EXTRN	__imp___invalid_parameter_noinfo:PROC
EXTRN	__imp___invalid_parameter_noinfo_noreturn:PROC
EXTRN	__imp___errno:PROC
EXTRN	__imp__GetEnvironmentVariableA@12:PROC
EXTRN	__imp__GetModuleHandleA@4:PROC
EXTRN	__imp__GetPrivateProfileStringA@24:PROC
EXTRN	__imp__RegisterWindowMessageA@4:PROC
EXTRN	__imp__SendMessageA@16:PROC
EXTRN	__imp__IsWindow@4:PROC
EXTRN	__imp__EnableWindow@8:PROC
EXTRN	__imp__GetWindowRect@8:PROC
EXTRN	__imp__GetSysColor@4:PROC
EXTRN	__imp__LoadBitmapW@8:PROC
EXTRN	__imp____stdio_common_vsscanf:PROC
EXTRN	?AfxThrowMemoryException@@YGXXZ:PROC		; AfxThrowMemoryException
EXTRN	?AfxThrowInvalidArgException@@YGXXZ:PROC	; AfxThrowInvalidArgException
EXTRN	?AfxThrowArchiveException@@YGXHPBD@Z:PROC	; AfxThrowArchiveException
EXTRN	?GetRuntimeClass@CObject@@UBEPAUCRuntimeClass@@XZ:PROC ; CObject::GetRuntimeClass
EXTRN	?Delete@CException@@QAEXXZ:PROC			; CException::Delete
EXTRN	__imp_??0?$CStringT@DV?$StrTraitMFC_DLL@DV?$ChTraitsCRT@D@ATL@@@@@ATL@@QAE@XZ:PROC
EXTRN	__imp_??0?$CStringT@DV?$StrTraitMFC_DLL@DV?$ChTraitsCRT@D@ATL@@@@@ATL@@QAE@ABV01@@Z:PROC
EXTRN	__imp_??0?$CStringT@DV?$StrTraitMFC_DLL@DV?$ChTraitsCRT@D@ATL@@@@@ATL@@QAE@PBD@Z:PROC
EXTRN	__imp_??1?$CStringT@DV?$StrTraitMFC_DLL@DV?$ChTraitsCRT@D@ATL@@@@@ATL@@QAE@XZ:PROC
EXTRN	__imp_??4?$CStringT@DV?$StrTraitMFC_DLL@DV?$ChTraitsCRT@D@ATL@@@@@ATL@@QAEAAV01@ABV01@@Z:PROC
EXTRN	__imp_??4?$CStringT@DV?$StrTraitMFC_DLL@DV?$ChTraitsCRT@D@ATL@@@@@ATL@@QAEAAV01@PBD@Z:PROC
EXTRN	__imp_?Compare@?$CStringT@DV?$StrTraitMFC_DLL@DV?$ChTraitsCRT@D@ATL@@@@@ATL@@QBEHPBD@Z:PROC
EXTRN	__imp_?CompareNoCase@?$CStringT@DV?$StrTraitMFC_DLL@DV?$ChTraitsCRT@D@ATL@@@@@ATL@@QBEHPBD@Z:PROC
EXTRN	__imp_?Remove@?$CStringT@DV?$StrTraitMFC_DLL@DV?$ChTraitsCRT@D@ATL@@@@@ATL@@QAEHD@Z:PROC
EXTRN	__imp_?Find@?$CStringT@DV?$StrTraitMFC_DLL@DV?$ChTraitsCRT@D@ATL@@@@@ATL@@QBEHPBDH@Z:PROC
EXTRN	__imp_?MakeUpper@?$CStringT@DV?$StrTraitMFC_DLL@DV?$ChTraitsCRT@D@ATL@@@@@ATL@@QAEAAV12@XZ:PROC
EXTRN	__imp_?TrimRight@?$CStringT@DV?$StrTraitMFC_DLL@DV?$ChTraitsCRT@D@ATL@@@@@ATL@@QAEAAV12@XZ:PROC
EXTRN	__imp_?TrimLeft@?$CStringT@DV?$StrTraitMFC_DLL@DV?$ChTraitsCRT@D@ATL@@@@@ATL@@QAEAAV12@XZ:PROC
EXTRN	__imp_?Mid@?$CStringT@DV?$StrTraitMFC_DLL@DV?$ChTraitsCRT@D@ATL@@@@@ATL@@QBE?AV12@HH@Z:PROC
EXTRN	__imp_?Format@?$CStringT@DV?$StrTraitMFC_DLL@DV?$ChTraitsCRT@D@ATL@@@@@ATL@@QAAXPBDZZ:PROC
EXTRN	?Read@CArchive@@QAEIPAXI@Z:PROC			; CArchive::Read
EXTRN	?Write@CArchive@@QAEXPBXI@Z:PROC		; CArchive::Write
EXTRN	?ReadCount@CArchive@@QAEKXZ:PROC		; CArchive::ReadCount
EXTRN	?WriteCount@CArchive@@QAEXK@Z:PROC		; CArchive::WriteCount
EXTRN	?AfxGetStaticModuleState@@YGPAVAFX_MODULE_STATE@@XZ:PROC ; AfxGetStaticModuleState
EXTRN	??0AFX_MAINTAIN_STATE2@@QAE@PAVAFX_MODULE_STATE@@@Z:PROC ; AFX_MAINTAIN_STATE2::AFX_MAINTAIN_STATE2
EXTRN	??1AFX_MAINTAIN_STATE2@@QAE@XZ:PROC		; AFX_MAINTAIN_STATE2::~AFX_MAINTAIN_STATE2
EXTRN	?Create@CPlex@@SGPAU1@AAPAU1@II@Z:PROC		; CPlex::Create
EXTRN	?FreeDataChain@CPlex@@QAEXXZ:PROC		; CPlex::FreeDataChain
EXTRN	?Attach@CGdiObject@@QAEHPAX@Z:PROC		; CGdiObject::Attach
EXTRN	?DeleteObject@CGdiObject@@QAEHXZ:PROC		; CGdiObject::DeleteObject
EXTRN	?DDX_Text@@YGXPAVCDataExchange@@HAAH@Z:PROC	; DDX_Text
EXTRN	?DDX_Check@@YGXPAVCDataExchange@@HAAH@Z:PROC	; DDX_Check
EXTRN	?DDX_Radio@@YGXPAVCDataExchange@@HAAH@Z:PROC	; DDX_Radio
EXTRN	?DDX_Control@@YGXPAVCDataExchange@@HAAVCWnd@@@Z:PROC ; DDX_Control
EXTRN	?DDV_MinMaxInt@@YGXPAVCDataExchange@@HHH@Z:PROC	; DDV_MinMaxInt
EXTRN	?OnCmdMsg@CCmdTarget@@UAEHIHPAXPAUAFX_CMDHANDLERINFO@@@Z:PROC ; CCmdTarget::OnCmdMsg
EXTRN	?IsInvokeAllowed@CCmdTarget@@UAEHJ@Z:PROC	; CCmdTarget::IsInvokeAllowed
EXTRN	?GetDispatchIID@CCmdTarget@@UAEHPAU_GUID@@@Z:PROC ; CCmdTarget::GetDispatchIID
EXTRN	?GetTypeInfoCount@CCmdTarget@@UAEIXZ:PROC	; CCmdTarget::GetTypeInfoCount
EXTRN	?GetTypeLibCache@CCmdTarget@@UAEPAVCTypeLibCache@@XZ:PROC ; CCmdTarget::GetTypeLibCache
EXTRN	?GetTypeLib@CCmdTarget@@UAEJKPAPAUITypeLib@@@Z:PROC ; CCmdTarget::GetTypeLib
EXTRN	?GetCommandMap@CCmdTarget@@MBEPBUAFX_OLECMDMAP@@XZ:PROC ; CCmdTarget::GetCommandMap
EXTRN	?GetDispatchMap@CCmdTarget@@MBEPBUAFX_DISPMAP@@XZ:PROC ; CCmdTarget::GetDispatchMap
EXTRN	?GetConnectionMap@CCmdTarget@@MBEPBUAFX_CONNECTIONMAP@@XZ:PROC ; CCmdTarget::GetConnectionMap
EXTRN	?GetEventSinkMap@CCmdTarget@@MBEPBUAFX_EVENTSINKMAP@@XZ:PROC ; CCmdTarget::GetEventSinkMap
EXTRN	?OnCreateAggregates@CCmdTarget@@UAEHXZ:PROC	; CCmdTarget::OnCreateAggregates
EXTRN	?GetInterfaceHook@CCmdTarget@@UAEPAUIUnknown@@PBX@Z:PROC ; CCmdTarget::GetInterfaceHook
EXTRN	?GetExtraConnectionPoints@CCmdTarget@@MAEHPAVCPtrArray@@@Z:PROC ; CCmdTarget::GetExtraConnectionPoints
EXTRN	?GetConnectionHook@CCmdTarget@@MAEPAUIConnectionPoint@@ABU_GUID@@@Z:PROC ; CCmdTarget::GetConnectionHook
EXTRN	??0CWnd@@QAE@XZ:PROC				; CWnd::CWnd
EXTRN	?FromHandle@CWnd@@SGPAV1@PAUHWND__@@@Z:PROC	; CWnd::FromHandle
EXTRN	?PreSubclassWindow@CWnd@@UAEXXZ:PROC		; CWnd::PreSubclassWindow
EXTRN	?Create@CWnd@@UAEHPBD0KABUtagRECT@@PAV1@IPAUCCreateContext@@@Z:PROC ; CWnd::Create
EXTRN	?CreateEx@CWnd@@UAEHKPBD0KHHHHPAUHWND__@@PAUHMENU__@@PAX@Z:PROC ; CWnd::CreateEx
EXTRN	?CreateEx@CWnd@@UAEHKPBD0KABUtagRECT@@PAV1@IPAX@Z:PROC ; CWnd::CreateEx
EXTRN	?DestroyWindow@CWnd@@UAEHXZ:PROC		; CWnd::DestroyWindow
EXTRN	?PreCreateWindow@CWnd@@UAEHAAUtagCREATESTRUCTA@@@Z:PROC ; CWnd::PreCreateWindow
EXTRN	?CalcWindowRect@CWnd@@UAEXPAUtagRECT@@I@Z:PROC	; CWnd::CalcWindowRect
EXTRN	?GetMenu@CWnd@@UBEPAVCMenu@@XZ:PROC		; CWnd::GetMenu
EXTRN	?SetMenu@CWnd@@UAEHPAVCMenu@@@Z:PROC		; CWnd::SetMenu
EXTRN	?MoveWindow@CWnd@@QAEXHHHHH@Z:PROC		; CWnd::MoveWindow
EXTRN	?ScreenToClient@CWnd@@QBEXPAUtagRECT@@@Z:PROC	; CWnd::ScreenToClient
EXTRN	?ShowWindow@CWnd@@QAEHH@Z:PROC			; CWnd::ShowWindow
EXTRN	?OnToolHitTest@CWnd@@UBEHVCPoint@@PAUtagTOOLINFOA@@@Z:PROC ; CWnd::OnToolHitTest
EXTRN	?SetDlgItemTextA@CWnd@@QAEXHPBD@Z:PROC		; CWnd::SetDlgItemTextA
EXTRN	?GetScrollBarCtrl@CWnd@@UBEPAVCScrollBar@@H@Z:PROC ; CWnd::GetScrollBarCtrl
EXTRN	?UpdateData@CWnd@@QAEHH@Z:PROC			; CWnd::UpdateData
EXTRN	?WinHelpA@CWnd@@UAEXKI@Z:PROC			; CWnd::WinHelpA
EXTRN	?HtmlHelpA@CWnd@@UAEXKI@Z:PROC			; CWnd::HtmlHelpA
EXTRN	?WinHelpInternal@CWnd@@UAEXKI@Z:PROC		; CWnd::WinHelpInternal
EXTRN	?ContinueModal@CWnd@@UAEHXZ:PROC		; CWnd::ContinueModal
EXTRN	?EndModalLoop@CWnd@@UAEXH@Z:PROC		; CWnd::EndModalLoop
EXTRN	?OnDrawIconicThumbnailOrLivePreview@CWnd@@UAEXAAVCDC@@VCRect@@VCSize@@HAAH@Z:PROC ; CWnd::OnDrawIconicThumbnailOrLivePreview
EXTRN	?GetInterfaceMap@CWnd@@MBEPBUAFX_INTERFACEMAP@@XZ:PROC ; CWnd::GetInterfaceMap
EXTRN	?EnsureStdObj@CWnd@@UAEJXZ:PROC			; CWnd::EnsureStdObj
EXTRN	?get_accParent@CWnd@@UAEJPAPAUIDispatch@@@Z:PROC ; CWnd::get_accParent
EXTRN	?get_accChildCount@CWnd@@UAEJPAJ@Z:PROC		; CWnd::get_accChildCount
EXTRN	?get_accChild@CWnd@@UAEJUtagVARIANT@@PAPAUIDispatch@@@Z:PROC ; CWnd::get_accChild
EXTRN	?get_accName@CWnd@@UAEJUtagVARIANT@@PAPA_W@Z:PROC ; CWnd::get_accName
EXTRN	?get_accValue@CWnd@@UAEJUtagVARIANT@@PAPA_W@Z:PROC ; CWnd::get_accValue
EXTRN	?get_accDescription@CWnd@@UAEJUtagVARIANT@@PAPA_W@Z:PROC ; CWnd::get_accDescription
EXTRN	?get_accRole@CWnd@@UAEJUtagVARIANT@@PAU2@@Z:PROC ; CWnd::get_accRole
EXTRN	?get_accState@CWnd@@UAEJUtagVARIANT@@PAU2@@Z:PROC ; CWnd::get_accState
EXTRN	?get_accHelp@CWnd@@UAEJUtagVARIANT@@PAPA_W@Z:PROC ; CWnd::get_accHelp
EXTRN	?get_accHelpTopic@CWnd@@UAEJPAPA_WUtagVARIANT@@PAJ@Z:PROC ; CWnd::get_accHelpTopic
EXTRN	?get_accKeyboardShortcut@CWnd@@UAEJUtagVARIANT@@PAPA_W@Z:PROC ; CWnd::get_accKeyboardShortcut
EXTRN	?get_accFocus@CWnd@@UAEJPAUtagVARIANT@@@Z:PROC	; CWnd::get_accFocus
EXTRN	?get_accSelection@CWnd@@UAEJPAUtagVARIANT@@@Z:PROC ; CWnd::get_accSelection
EXTRN	?get_accDefaultAction@CWnd@@UAEJUtagVARIANT@@PAPA_W@Z:PROC ; CWnd::get_accDefaultAction
EXTRN	?accSelect@CWnd@@UAEJJUtagVARIANT@@@Z:PROC	; CWnd::accSelect
EXTRN	?accLocation@CWnd@@UAEJPAJ000UtagVARIANT@@@Z:PROC ; CWnd::accLocation
EXTRN	?accNavigate@CWnd@@UAEJJUtagVARIANT@@PAU2@@Z:PROC ; CWnd::accNavigate
EXTRN	?accHitTest@CWnd@@UAEJJJPAUtagVARIANT@@@Z:PROC	; CWnd::accHitTest
EXTRN	?accDoDefaultAction@CWnd@@UAEJUtagVARIANT@@@Z:PROC ; CWnd::accDoDefaultAction
EXTRN	?put_accName@CWnd@@UAEJUtagVARIANT@@PA_W@Z:PROC	; CWnd::put_accName
EXTRN	?put_accValue@CWnd@@UAEJUtagVARIANT@@PA_W@Z:PROC ; CWnd::put_accValue
EXTRN	?SetProxy@CWnd@@UAEJPAUIAccessibleProxy@@@Z:PROC ; CWnd::SetProxy
EXTRN	?CreateAccessibleProxy@CWnd@@UAEJIJPAJ@Z:PROC	; CWnd::CreateAccessibleProxy
EXTRN	?OnCommand@CWnd@@MAEHIJ@Z:PROC			; CWnd::OnCommand
EXTRN	?OnNotify@CWnd@@MAEHIJPAJ@Z:PROC		; CWnd::OnNotify
EXTRN	?OnDestroy@CWnd@@IAEXXZ:PROC			; CWnd::OnDestroy
EXTRN	?GetSuperWndProcAddr@CWnd@@MAEPAP6GJPAUHWND__@@IIJ@ZXZ:PROC ; CWnd::GetSuperWndProcAddr
EXTRN	?PreTranslateMessage@CWnd@@UAEHPAUtagMSG@@@Z:PROC ; CWnd::PreTranslateMessage
EXTRN	?OnAmbientProperty@CWnd@@UAEHPAVCOleControlSite@@JPAUtagVARIANT@@@Z:PROC ; CWnd::OnAmbientProperty
EXTRN	?WindowProc@CWnd@@MAEJIIJ@Z:PROC		; CWnd::WindowProc
EXTRN	?OnWndMsg@CWnd@@MAEHIIJPAJ@Z:PROC		; CWnd::OnWndMsg
EXTRN	?DefWindowProcA@CWnd@@MAEJIIJ@Z:PROC		; CWnd::DefWindowProcA
EXTRN	?PostNcDestroy@CWnd@@MAEXXZ:PROC		; CWnd::PostNcDestroy
EXTRN	?OnChildNotify@CWnd@@MAEHIIJPAJ@Z:PROC		; CWnd::OnChildNotify
EXTRN	?OnTouchInputs@CWnd@@MAEHIPAUtagTOUCHINPUT@@@Z:PROC ; CWnd::OnTouchInputs
EXTRN	?OnTouchInput@CWnd@@MAEHVCPoint@@HHPAUtagTOUCHINPUT@@@Z:PROC ; CWnd::OnTouchInput
EXTRN	?GetGestureStatus@CWnd@@MAEKVCPoint@@@Z:PROC	; CWnd::GetGestureStatus
EXTRN	?OnGestureZoom@CWnd@@MAEHVCPoint@@J@Z:PROC	; CWnd::OnGestureZoom
EXTRN	?OnGesturePan@CWnd@@MAEHVCPoint@@0@Z:PROC	; CWnd::OnGesturePan
EXTRN	?OnGestureRotate@CWnd@@MAEHVCPoint@@N@Z:PROC	; CWnd::OnGestureRotate
EXTRN	?OnGestureTwoFingerTap@CWnd@@MAEHVCPoint@@@Z:PROC ; CWnd::OnGestureTwoFingerTap
EXTRN	?OnGesturePressAndTap@CWnd@@MAEHVCPoint@@J@Z:PROC ; CWnd::OnGesturePressAndTap
EXTRN	?ResizeDynamicLayout@CWnd@@MAEXXZ:PROC		; CWnd::ResizeDynamicLayout
EXTRN	?CheckAutoCenter@CWnd@@UAEHXZ:PROC		; CWnd::CheckAutoCenter
EXTRN	?IsFrameWnd@CWnd@@UBEHXZ:PROC			; CWnd::IsFrameWnd
EXTRN	?OnFinalRelease@CWnd@@UAEXXZ:PROC		; CWnd::OnFinalRelease
EXTRN	?CreateControlContainer@CWnd@@MAEHPAPAVCOleControlContainer@@@Z:PROC ; CWnd::CreateControlContainer
EXTRN	?CreateControlSite@CWnd@@MAEHPAVCOleControlContainer@@PAPAVCOleControlSite@@IABU_GUID@@@Z:PROC ; CWnd::CreateControlSite
EXTRN	?SetOccDialogInfo@CWnd@@MAEHPAU_AFX_OCC_DIALOG_INFO@@@Z:PROC ; CWnd::SetOccDialogInfo
EXTRN	?GetOccDialogInfo@CWnd@@MAEPAU_AFX_OCC_DIALOG_INFO@@XZ:PROC ; CWnd::GetOccDialogInfo
EXTRN	?GetMessageMap@CWnd@@MBEPBUAFX_MSGMAP@@XZ:PROC	; CWnd::GetMessageMap
EXTRN	?GetRuntimeClass@CDialog@@UBEPAUCRuntimeClass@@XZ:PROC ; CDialog::GetRuntimeClass
EXTRN	?Create@CDialog@@UAEHPBDPAVCWnd@@@Z:PROC	; CDialog::Create
EXTRN	?CreateIndirect@CDialog@@UAEHPBUDLGTEMPLATE@@PAVCWnd@@PAX@Z:PROC ; CDialog::CreateIndirect
EXTRN	?CreateIndirect@CDialog@@UAEHPAXPAVCWnd@@@Z:PROC ; CDialog::CreateIndirect
EXTRN	??0CDialog@@QAE@IPAVCWnd@@@Z:PROC		; CDialog::CDialog
EXTRN	?DoModal@CDialog@@UAEHXZ:PROC			; CDialog::DoModal
EXTRN	?OnInitDialog@CDialog@@UAEHXZ:PROC		; CDialog::OnInitDialog
EXTRN	?OnSetFont@CDialog@@UAEXPAVCFont@@@Z:PROC	; CDialog::OnSetFont
EXTRN	?OnOK@CDialog@@MAEXXZ:PROC			; CDialog::OnOK
EXTRN	?OnCancel@CDialog@@MAEXXZ:PROC			; CDialog::OnCancel
EXTRN	??1CDialog@@UAE@XZ:PROC				; CDialog::~CDialog
EXTRN	?PreTranslateMessage@CDialog@@UAEHPAUtagMSG@@@Z:PROC ; CDialog::PreTranslateMessage
EXTRN	?OnCmdMsg@CDialog@@UAEHIHPAXPAUAFX_CMDHANDLERINFO@@@Z:PROC ; CDialog::OnCmdMsg
EXTRN	?CheckAutoCenter@CDialog@@UAEHXZ:PROC		; CDialog::CheckAutoCenter
EXTRN	?SetOccDialogInfo@CDialog@@MAEHPAU_AFX_OCC_DIALOG_INFO@@@Z:PROC ; CDialog::SetOccDialogInfo
EXTRN	?GetOccDialogInfo@CDialog@@MAEPAU_AFX_OCC_DIALOG_INFO@@XZ:PROC ; CDialog::GetOccDialogInfo
EXTRN	?PreInitDialog@CDialog@@MAEXXZ:PROC		; CDialog::PreInitDialog
EXTRN	?GetThisMessageMap@CDialog@@KGPBUAFX_MSGMAP@@XZ:PROC ; CDialog::GetThisMessageMap
EXTRN	?GetRuntimeClass@CListBox@@UBEPAUCRuntimeClass@@XZ:PROC ; CListBox::GetRuntimeClass
EXTRN	?Create@CListBox@@UAEHKABUtagRECT@@PAVCWnd@@I@Z:PROC ; CListBox::Create
EXTRN	?GetText@CListBox@@QBEXHAAV?$CStringT@DV?$StrTraitMFC_DLL@DV?$ChTraitsCRT@D@ATL@@@@@ATL@@@Z:PROC ; CListBox::GetText
EXTRN	?DrawItem@CListBox@@UAEXPAUtagDRAWITEMSTRUCT@@@Z:PROC ; CListBox::DrawItem
EXTRN	?MeasureItem@CListBox@@UAEXPAUtagMEASUREITEMSTRUCT@@@Z:PROC ; CListBox::MeasureItem
EXTRN	?CompareItem@CListBox@@UAEHPAUtagCOMPAREITEMSTRUCT@@@Z:PROC ; CListBox::CompareItem
EXTRN	?DeleteItem@CListBox@@UAEXPAUtagDELETEITEMSTRUCT@@@Z:PROC ; CListBox::DeleteItem
EXTRN	?VKeyToItem@CListBox@@UAEHII@Z:PROC		; CListBox::VKeyToItem
EXTRN	?CharToItem@CListBox@@UAEHII@Z:PROC		; CListBox::CharToItem
EXTRN	??1CListBox@@UAE@XZ:PROC			; CListBox::~CListBox
EXTRN	?OnChildNotify@CListBox@@MAEHIIJPAJ@Z:PROC	; CListBox::OnChildNotify
EXTRN	??_ECListBox@@UAEPAXI@Z:PROC			; CListBox::`vector deleting destructor'
EXTRN	?GetRuntimeClass@CComboBox@@UBEPAUCRuntimeClass@@XZ:PROC ; CComboBox::GetRuntimeClass
EXTRN	?Create@CComboBox@@UAEHKABUtagRECT@@PAVCWnd@@I@Z:PROC ; CComboBox::Create
EXTRN	?GetLBText@CComboBox@@QBEXHAAV?$CStringT@DV?$StrTraitMFC_DLL@DV?$ChTraitsCRT@D@ATL@@@@@ATL@@@Z:PROC ; CComboBox::GetLBText
EXTRN	?DrawItem@CComboBox@@UAEXPAUtagDRAWITEMSTRUCT@@@Z:PROC ; CComboBox::DrawItem
EXTRN	?MeasureItem@CComboBox@@UAEXPAUtagMEASUREITEMSTRUCT@@@Z:PROC ; CComboBox::MeasureItem
EXTRN	?CompareItem@CComboBox@@UAEHPAUtagCOMPAREITEMSTRUCT@@@Z:PROC ; CComboBox::CompareItem
EXTRN	?DeleteItem@CComboBox@@UAEXPAUtagDELETEITEMSTRUCT@@@Z:PROC ; CComboBox::DeleteItem
EXTRN	??1CComboBox@@UAE@XZ:PROC			; CComboBox::~CComboBox
EXTRN	?OnChildNotify@CComboBox@@MAEHIIJPAJ@Z:PROC	; CComboBox::OnChildNotify
EXTRN	??_ECComboBox@@UAEPAXI@Z:PROC			; CComboBox::`vector deleting destructor'
EXTRN	?AfxFindResourceHandle@@YGPAUHINSTANCE__@@PBD0@Z:PROC ; AfxFindResourceHandle
EXTRN	?AfxMessageBox@@YGHPBDII@Z:PROC			; AfxMessageBox
EXTRN	?GetRuntimeClass@CListCtrl@@UBEPAUCRuntimeClass@@XZ:PROC ; CListCtrl::GetRuntimeClass
EXTRN	?SetItemState@CListCtrl@@QAEHHII@Z:PROC		; CListCtrl::SetItemState
EXTRN	?GetItemText@CListCtrl@@QBE?AV?$CStringT@DV?$StrTraitMFC_DLL@DV?$ChTraitsCRT@D@ATL@@@@@ATL@@HH@Z:PROC ; CListCtrl::GetItemText
EXTRN	?SetItemText@CListCtrl@@QAEHHHPBD@Z:PROC	; CListCtrl::SetItemText
EXTRN	?InsertColumn@CListCtrl@@QAEHHPBDHHH@Z:PROC	; CListCtrl::InsertColumn
EXTRN	?DrawItem@CListCtrl@@UAEXPAUtagDRAWITEMSTRUCT@@@Z:PROC ; CListCtrl::DrawItem
EXTRN	?InsertItem@CListCtrl@@QAEHIHPBDIIHJ@Z:PROC	; CListCtrl::InsertItem
EXTRN	??1CListCtrl@@UAE@XZ:PROC			; CListCtrl::~CListCtrl
EXTRN	?OnChildNotify@CListCtrl@@MAEHIIJPAJ@Z:PROC	; CListCtrl::OnChildNotify
EXTRN	?GetMessageMap@CListCtrl@@MBEPBUAFX_MSGMAP@@XZ:PROC ; CListCtrl::GetMessageMap
EXTRN	??_ECListCtrl@@UAEPAXI@Z:PROC			; CListCtrl::`vector deleting destructor'
EXTRN	?GetRuntimeClass@CTreeCtrl@@UBEPAUCRuntimeClass@@XZ:PROC ; CTreeCtrl::GetRuntimeClass
EXTRN	?GetItemData@CTreeCtrl@@QBEKPAU_TREEITEM@@@Z:PROC ; CTreeCtrl::GetItemData
EXTRN	??1CTreeCtrl@@UAE@XZ:PROC			; CTreeCtrl::~CTreeCtrl
EXTRN	?GetMessageMap@CTreeCtrl@@MBEPBUAFX_MSGMAP@@XZ:PROC ; CTreeCtrl::GetMessageMap
EXTRN	??_ECTreeCtrl@@UAEPAXI@Z:PROC			; CTreeCtrl::`vector deleting destructor'
EXTRN	?DDX_ColorPicker@@YGXPAVCDataExchange@@HAAK@Z:PROC ; DDX_ColorPicker
EXTRN	??0CXColourPicker@@QAE@XZ:PROC			; CXColourPicker::CXColourPicker
EXTRN	??1CXColourPicker@@UAE@XZ:PROC			; CXColourPicker::~CXColourPicker
EXTRN	?SetColor@CXColourPicker@@QAEXK@Z:PROC		; CXColourPicker::SetColor
EXTRN	?GetColor@CXColourPicker@@QAEKXZ:PROC		; CXColourPicker::GetColor
EXTRN	??0CXEditPrompt@@QAE@XZ:PROC			; CXEditPrompt::CXEditPrompt
EXTRN	??1CXEditPrompt@@UAE@XZ:PROC			; CXEditPrompt::~CXEditPrompt
EXTRN	?GetWindowTextA@CXEditPrompt@@QBEXAAV?$CStringT@DV?$StrTraitMFC_DLL@DV?$ChTraitsCRT@D@ATL@@@@@ATL@@@Z:PROC ; CXEditPrompt::GetWindowTextA
EXTRN	?SetPromptText@CXEditPrompt@@QAEXPBD@Z:PROC	; CXEditPrompt::SetPromptText
EXTRN	??0CBitmapItemComboBox@@QAE@XZ:PROC		; CBitmapItemComboBox::CBitmapItemComboBox
EXTRN	??1CBitmapItemComboBox@@UAE@XZ:PROC		; CBitmapItemComboBox::~CBitmapItemComboBox
EXTRN	??_E?$CList@PAVCDlgCompSubItem@@PAV1@@@UAEPAXI@Z:PROC ; CList<CDlgCompSubItem *,CDlgCompSubItem *>::`vector deleting destructor'
EXTRN	??_E?$CList@PAVCDlgCompGroupData@@PAV1@@@UAEPAXI@Z:PROC ; CList<CDlgCompGroupData *,CDlgCompGroupData *>::`vector deleting destructor'
EXTRN	??0CVirtualListCtrl@@QAE@XZ:PROC		; CVirtualListCtrl::CVirtualListCtrl
EXTRN	?fnUsingMemoryClear@CVirtualListCtrl@@QAEXXZ:PROC ; CVirtualListCtrl::fnUsingMemoryClear
EXTRN	??1CVirtualListCtrl@@UAE@XZ:PROC		; CVirtualListCtrl::~CVirtualListCtrl
EXTRN	?SetRowHeight@CVirtualListCtrl@@QAEXF@Z:PROC	; CVirtualListCtrl::SetRowHeight
EXTRN	??0CExGridCtrl@@QAE@HHHH@Z:PROC			; CExGridCtrl::CExGridCtrl
EXTRN	?Create@CExGridCtrl@@QAEHAAUtagRECT@@PAVCWnd@@IK@Z:PROC ; CExGridCtrl::Create
EXTRN	?GetRowCount@CExGridCtrl@@QAEHXZ:PROC		; CExGridCtrl::GetRowCount
EXTRN	?GetColumnCount@CExGridCtrl@@QAEHXZ:PROC	; CExGridCtrl::GetColumnCount
EXTRN	?SetRowCount@CExGridCtrl@@QAEHH@Z:PROC		; CExGridCtrl::SetRowCount
EXTRN	?SetColumnCount@CExGridCtrl@@QAEHH@Z:PROC	; CExGridCtrl::SetColumnCount
EXTRN	?SetFixedColumnCount@CExGridCtrl@@QAEHH@Z:PROC	; CExGridCtrl::SetFixedColumnCount
EXTRN	?SetRowHeight@CExGridCtrl@@QAEHHH@Z:PROC	; CExGridCtrl::SetRowHeight
EXTRN	?SetColumnWidth@CExGridCtrl@@QAEHHH@Z:PROC	; CExGridCtrl::SetColumnWidth
EXTRN	?SetGridLineColor@CExGridCtrl@@QAEXK@Z:PROC	; CExGridCtrl::SetGridLineColor
EXTRN	?SetHighlightColor@CExGridCtrl@@QAEXK@Z:PROC	; CExGridCtrl::SetHighlightColor
EXTRN	?SetGridColor@CExGridCtrl@@QAEXK@Z:PROC		; CExGridCtrl::SetGridColor
EXTRN	?SetBkColor@CExGridCtrl@@QAEXK@Z:PROC		; CExGridCtrl::SetBkColor
EXTRN	?SetEditable@CExGridCtrl@@QAEXH@Z:PROC		; CExGridCtrl::SetEditable
EXTRN	?EnableTitleTips@CExGridCtrl@@QAEXH@Z:PROC	; CExGridCtrl::EnableTitleTips
EXTRN	?EnableColumnHide@CExGridCtrl@@QAEXH@Z:PROC	; CExGridCtrl::EnableColumnHide
EXTRN	?EnableRowHide@CExGridCtrl@@QAEXH@Z:PROC	; CExGridCtrl::EnableRowHide
EXTRN	?SetItem@CExGridCtrl@@QAEHPAU_GV_ITEM@@@Z:PROC	; CExGridCtrl::SetItem
EXTRN	?SetItemText@CExGridCtrl@@QAEHHHPBD@Z:PROC	; CExGridCtrl::SetItemText
EXTRN	?GetItemText@CExGridCtrl@@QAE?AV?$CStringT@DV?$StrTraitMFC_DLL@DV?$ChTraitsCRT@D@ATL@@@@@ATL@@HH@Z:PROC ; CExGridCtrl::GetItemText
EXTRN	?SetItemData@CExGridCtrl@@QAEHHHJ@Z:PROC	; CExGridCtrl::SetItemData
EXTRN	?GetItemData@CExGridCtrl@@QAEJHH@Z:PROC		; CExGridCtrl::GetItemData
EXTRN	?SetItemFormat@CExGridCtrl@@QAEHHHI@Z:PROC	; CExGridCtrl::SetItemFormat
EXTRN	?SetItemBkColour@CExGridCtrl@@QAEHHHK@Z:PROC	; CExGridCtrl::SetItemBkColour
EXTRN	?SetItemFgColour@CExGridCtrl@@QAEHHHK@Z:PROC	; CExGridCtrl::SetItemFgColour
EXTRN	?Refresh@CExGridCtrl@@QAEXXZ:PROC		; CExGridCtrl::Refresh
EXTRN	??_E?$CList@PAVCCallPutItemData@@PAV1@@@UAEPAXI@Z:PROC ; CList<CCallPutItemData *,CCallPutItemData *>::`vector deleting destructor'
EXTRN	??_E?$CList@PAVCCallPutIMonthData@@PAV1@@@UAEPAXI@Z:PROC ; CList<CCallPutIMonthData *,CCallPutIMonthData *>::`vector deleting destructor'
EXTRN	??_ECDlgCompSetup@@UAEPAXI@Z:PROC		; CDlgCompSetup::`vector deleting destructor'
EXTRN	___std_exception_copy:PROC
EXTRN	___std_exception_destroy:PROC
EXTRN	??_Eexception@std@@UAEPAXI@Z:PROC		; std::exception::`vector deleting destructor'
EXTRN	??_Ebad_alloc@std@@UAEPAXI@Z:PROC		; std::bad_alloc::`vector deleting destructor'
EXTRN	??_Ebad_array_new_length@std@@UAEPAXI@Z:PROC	; std::bad_array_new_length::`vector deleting destructor'
EXTRN	?_Xlength_error@std@@YAXPBD@Z:PROC		; std::_Xlength_error
EXTRN	?_Xout_of_range@std@@YAXPBD@Z:PROC		; std::_Xout_of_range
EXTRN	??0CDlgGroupName@@QAE@PAVCWnd@@@Z:PROC		; CDlgGroupName::CDlgGroupName
EXTRN	@__security_check_cookie@4:PROC
EXTRN	__CxxThrowException@8:PROC
EXTRN	___CxxFrameHandler3:PROC
EXTRN	_memcpy:PROC
EXTRN	_memmove:PROC
EXTRN	_memset:PROC
EXTRN	??_7type_info@@6B@:QWORD			; type_info::`vftable'
EXTRN	___security_cookie:DWORD
EXTRN	__fltused:DWORD
;	COMDAT ?_OptionsStorage@?1??__local_stdio_scanf_options@@9@4_KA
_BSS	SEGMENT
?_OptionsStorage@?1??__local_stdio_scanf_options@@9@4_KA DQ 01H DUP (?) ; `__local_stdio_scanf_options'::`2'::_OptionsStorage
_BSS	ENDS
_BSS	SEGMENT
?RMSG_INTERFACE@@3IB DD 01H DUP (?)			; RMSG_INTERFACE
?RMSG_GETPCTRDATA@@3IB DD 01H DUP (?)			; RMSG_GETPCTRDATA
?RMSG_SETPCTRDATA@@3IB DD 01H DUP (?)			; RMSG_SETPCTRDATA
_BSS	ENDS
CRT$XCU	SEGMENT
?RMSG_INTERFACE$initializer$@@3P6AXXZA DD FLAT:??__ERMSG_INTERFACE@@YAXXZ ; RMSG_INTERFACE$initializer$
CRT$XCU	ENDS
;	COMDAT ??_R1A@?0A@EA@bad_array_new_length@std@@8
rdata$r	SEGMENT
??_R1A@?0A@EA@bad_array_new_length@std@@8 DD FLAT:??_R0?AVbad_array_new_length@std@@@8 ; std::bad_array_new_length::`RTTI Base Class Descriptor at (0,-1,0,64)'
	DD	02H
	DD	00H
	DD	0ffffffffH
	DD	00H
	DD	040H
	DD	FLAT:??_R3bad_array_new_length@std@@8
rdata$r	ENDS
;	COMDAT ??_R2bad_array_new_length@std@@8
rdata$r	SEGMENT
??_R2bad_array_new_length@std@@8 DD FLAT:??_R1A@?0A@EA@bad_array_new_length@std@@8 ; std::bad_array_new_length::`RTTI Base Class Array'
	DD	FLAT:??_R1A@?0A@EA@bad_alloc@std@@8
	DD	FLAT:??_R1A@?0A@EA@exception@std@@8
rdata$r	ENDS
;	COMDAT ??_R3bad_array_new_length@std@@8
rdata$r	SEGMENT
??_R3bad_array_new_length@std@@8 DD 00H			; std::bad_array_new_length::`RTTI Class Hierarchy Descriptor'
	DD	00H
	DD	03H
	DD	FLAT:??_R2bad_array_new_length@std@@8
rdata$r	ENDS
;	COMDAT ??_R4bad_array_new_length@std@@6B@
rdata$r	SEGMENT
??_R4bad_array_new_length@std@@6B@ DD 00H		; std::bad_array_new_length::`RTTI Complete Object Locator'
	DD	00H
	DD	00H
	DD	FLAT:??_R0?AVbad_array_new_length@std@@@8
	DD	FLAT:??_R3bad_array_new_length@std@@8
rdata$r	ENDS
;	COMDAT ??_R1A@?0A@EA@bad_alloc@std@@8
rdata$r	SEGMENT
??_R1A@?0A@EA@bad_alloc@std@@8 DD FLAT:??_R0?AVbad_alloc@std@@@8 ; std::bad_alloc::`RTTI Base Class Descriptor at (0,-1,0,64)'
	DD	01H
	DD	00H
	DD	0ffffffffH
	DD	00H
	DD	040H
	DD	FLAT:??_R3bad_alloc@std@@8
rdata$r	ENDS
;	COMDAT ??_R2bad_alloc@std@@8
rdata$r	SEGMENT
??_R2bad_alloc@std@@8 DD FLAT:??_R1A@?0A@EA@bad_alloc@std@@8 ; std::bad_alloc::`RTTI Base Class Array'
	DD	FLAT:??_R1A@?0A@EA@exception@std@@8
rdata$r	ENDS
;	COMDAT ??_R3bad_alloc@std@@8
rdata$r	SEGMENT
??_R3bad_alloc@std@@8 DD 00H				; std::bad_alloc::`RTTI Class Hierarchy Descriptor'
	DD	00H
	DD	02H
	DD	FLAT:??_R2bad_alloc@std@@8
rdata$r	ENDS
;	COMDAT ??_R4bad_alloc@std@@6B@
rdata$r	SEGMENT
??_R4bad_alloc@std@@6B@ DD 00H				; std::bad_alloc::`RTTI Complete Object Locator'
	DD	00H
	DD	00H
	DD	FLAT:??_R0?AVbad_alloc@std@@@8
	DD	FLAT:??_R3bad_alloc@std@@8
rdata$r	ENDS
;	COMDAT ??_R1A@?0A@EA@exception@std@@8
rdata$r	SEGMENT
??_R1A@?0A@EA@exception@std@@8 DD FLAT:??_R0?AVexception@std@@@8 ; std::exception::`RTTI Base Class Descriptor at (0,-1,0,64)'
	DD	00H
	DD	00H
	DD	0ffffffffH
	DD	00H
	DD	040H
	DD	FLAT:??_R3exception@std@@8
rdata$r	ENDS
;	COMDAT ??_R2exception@std@@8
rdata$r	SEGMENT
??_R2exception@std@@8 DD FLAT:??_R1A@?0A@EA@exception@std@@8 ; std::exception::`RTTI Base Class Array'
rdata$r	ENDS
;	COMDAT ??_R3exception@std@@8
rdata$r	SEGMENT
??_R3exception@std@@8 DD 00H				; std::exception::`RTTI Class Hierarchy Descriptor'
	DD	00H
	DD	01H
	DD	FLAT:??_R2exception@std@@8
rdata$r	ENDS
;	COMDAT ??_R4exception@std@@6B@
rdata$r	SEGMENT
??_R4exception@std@@6B@ DD 00H				; std::exception::`RTTI Complete Object Locator'
	DD	00H
	DD	00H
	DD	FLAT:??_R0?AVexception@std@@@8
	DD	FLAT:??_R3exception@std@@8
rdata$r	ENDS
;	COMDAT ??_R1A@?0A@EA@CTLMCallback@CDlgCompSetup@@8
rdata$r	SEGMENT
??_R1A@?0A@EA@CTLMCallback@CDlgCompSetup@@8 DD FLAT:??_R0?AVCTLMCallback@CDlgCompSetup@@@8 ; CDlgCompSetup::CTLMCallback::`RTTI Base Class Descriptor at (0,-1,0,64)'
	DD	01H
	DD	00H
	DD	0ffffffffH
	DD	00H
	DD	040H
	DD	FLAT:??_R3CTLMCallback@CDlgCompSetup@@8
rdata$r	ENDS
;	COMDAT ??_R2CTLMCallback@CDlgCompSetup@@8
rdata$r	SEGMENT
??_R2CTLMCallback@CDlgCompSetup@@8 DD FLAT:??_R1A@?0A@EA@CTLMCallback@CDlgCompSetup@@8 ; CDlgCompSetup::CTLMCallback::`RTTI Base Class Array'
	DD	FLAT:??_R1A@?0A@EA@ITLMCallback@@8
rdata$r	ENDS
;	COMDAT ??_R3CTLMCallback@CDlgCompSetup@@8
rdata$r	SEGMENT
??_R3CTLMCallback@CDlgCompSetup@@8 DD 00H		; CDlgCompSetup::CTLMCallback::`RTTI Class Hierarchy Descriptor'
	DD	00H
	DD	02H
	DD	FLAT:??_R2CTLMCallback@CDlgCompSetup@@8
rdata$r	ENDS
;	COMDAT ??_R0?AVCTLMCallback@CDlgCompSetup@@@8
data$rs	SEGMENT
??_R0?AVCTLMCallback@CDlgCompSetup@@@8 DD FLAT:??_7type_info@@6B@ ; CDlgCompSetup::CTLMCallback `RTTI Type Descriptor'
	DD	00H
	DB	'.?AVCTLMCallback@CDlgCompSetup@@', 00H
data$rs	ENDS
;	COMDAT ??_R4CTLMCallback@CDlgCompSetup@@6B@
rdata$r	SEGMENT
??_R4CTLMCallback@CDlgCompSetup@@6B@ DD 00H		; CDlgCompSetup::CTLMCallback::`RTTI Complete Object Locator'
	DD	00H
	DD	00H
	DD	FLAT:??_R0?AVCTLMCallback@CDlgCompSetup@@@8
	DD	FLAT:??_R3CTLMCallback@CDlgCompSetup@@8
rdata$r	ENDS
;	COMDAT ??_R1A@?0A@EA@CDlgCompSetup@@8
rdata$r	SEGMENT
??_R1A@?0A@EA@CDlgCompSetup@@8 DD FLAT:??_R0?AVCDlgCompSetup@@@8 ; CDlgCompSetup::`RTTI Base Class Descriptor at (0,-1,0,64)'
	DD	04H
	DD	00H
	DD	0ffffffffH
	DD	00H
	DD	040H
	DD	FLAT:??_R3CDlgCompSetup@@8
rdata$r	ENDS
;	COMDAT ??_R2CDlgCompSetup@@8
rdata$r	SEGMENT
??_R2CDlgCompSetup@@8 DD FLAT:??_R1A@?0A@EA@CDlgCompSetup@@8 ; CDlgCompSetup::`RTTI Base Class Array'
	DD	FLAT:??_R1A@?0A@EA@CDialog@@8
	DD	FLAT:??_R1A@?0A@EA@CWnd@@8
	DD	FLAT:??_R1A@?0A@EA@CCmdTarget@@8
	DD	FLAT:??_R1A@?0A@EA@CObject@@8
rdata$r	ENDS
;	COMDAT ??_R3CDlgCompSetup@@8
rdata$r	SEGMENT
??_R3CDlgCompSetup@@8 DD 00H				; CDlgCompSetup::`RTTI Class Hierarchy Descriptor'
	DD	00H
	DD	05H
	DD	FLAT:??_R2CDlgCompSetup@@8
rdata$r	ENDS
;	COMDAT ??_R0?AVCDlgCompSetup@@@8
data$rs	SEGMENT
??_R0?AVCDlgCompSetup@@@8 DD FLAT:??_7type_info@@6B@	; CDlgCompSetup `RTTI Type Descriptor'
	DD	00H
	DB	'.?AVCDlgCompSetup@@', 00H
data$rs	ENDS
;	COMDAT ??_R4CDlgCompSetup@@6B@
rdata$r	SEGMENT
??_R4CDlgCompSetup@@6B@ DD 00H				; CDlgCompSetup::`RTTI Complete Object Locator'
	DD	00H
	DD	00H
	DD	FLAT:??_R0?AVCDlgCompSetup@@@8
	DD	FLAT:??_R3CDlgCompSetup@@8
rdata$r	ENDS
;	COMDAT ??_R1A@?0A@EA@?$CList@PAVCCallPutIMonthData@@PAV1@@@8
rdata$r	SEGMENT
??_R1A@?0A@EA@?$CList@PAVCCallPutIMonthData@@PAV1@@@8 DD FLAT:??_R0?AV?$CList@PAVCCallPutIMonthData@@PAV1@@@@8 ; CList<CCallPutIMonthData *,CCallPutIMonthData *>::`RTTI Base Class Descriptor at (0,-1,0,64)'
	DD	01H
	DD	00H
	DD	0ffffffffH
	DD	00H
	DD	040H
	DD	FLAT:??_R3?$CList@PAVCCallPutIMonthData@@PAV1@@@8
rdata$r	ENDS
;	COMDAT ??_R2?$CList@PAVCCallPutIMonthData@@PAV1@@@8
rdata$r	SEGMENT
??_R2?$CList@PAVCCallPutIMonthData@@PAV1@@@8 DD FLAT:??_R1A@?0A@EA@?$CList@PAVCCallPutIMonthData@@PAV1@@@8 ; CList<CCallPutIMonthData *,CCallPutIMonthData *>::`RTTI Base Class Array'
	DD	FLAT:??_R1A@?0A@EA@CObject@@8
rdata$r	ENDS
;	COMDAT ??_R3?$CList@PAVCCallPutIMonthData@@PAV1@@@8
rdata$r	SEGMENT
??_R3?$CList@PAVCCallPutIMonthData@@PAV1@@@8 DD 00H	; CList<CCallPutIMonthData *,CCallPutIMonthData *>::`RTTI Class Hierarchy Descriptor'
	DD	00H
	DD	02H
	DD	FLAT:??_R2?$CList@PAVCCallPutIMonthData@@PAV1@@@8
rdata$r	ENDS
;	COMDAT ??_R0?AV?$CList@PAVCCallPutIMonthData@@PAV1@@@@8
data$rs	SEGMENT
??_R0?AV?$CList@PAVCCallPutIMonthData@@PAV1@@@@8 DD FLAT:??_7type_info@@6B@ ; CList<CCallPutIMonthData *,CCallPutIMonthData *> `RTTI Type Descriptor'
	DD	00H
	DB	'.?AV?$CList@PAVCCallPutIMonthData@@PAV1@@@', 00H
data$rs	ENDS
;	COMDAT ??_R4?$CList@PAVCCallPutIMonthData@@PAV1@@@6B@
rdata$r	SEGMENT
??_R4?$CList@PAVCCallPutIMonthData@@PAV1@@@6B@ DD 00H	; CList<CCallPutIMonthData *,CCallPutIMonthData *>::`RTTI Complete Object Locator'
	DD	00H
	DD	00H
	DD	FLAT:??_R0?AV?$CList@PAVCCallPutIMonthData@@PAV1@@@@8
	DD	FLAT:??_R3?$CList@PAVCCallPutIMonthData@@PAV1@@@8
rdata$r	ENDS
;	COMDAT ??_R1A@?0A@EA@?$CList@PAVCCallPutItemData@@PAV1@@@8
rdata$r	SEGMENT
??_R1A@?0A@EA@?$CList@PAVCCallPutItemData@@PAV1@@@8 DD FLAT:??_R0?AV?$CList@PAVCCallPutItemData@@PAV1@@@@8 ; CList<CCallPutItemData *,CCallPutItemData *>::`RTTI Base Class Descriptor at (0,-1,0,64)'
	DD	01H
	DD	00H
	DD	0ffffffffH
	DD	00H
	DD	040H
	DD	FLAT:??_R3?$CList@PAVCCallPutItemData@@PAV1@@@8
rdata$r	ENDS
;	COMDAT ??_R2?$CList@PAVCCallPutItemData@@PAV1@@@8
rdata$r	SEGMENT
??_R2?$CList@PAVCCallPutItemData@@PAV1@@@8 DD FLAT:??_R1A@?0A@EA@?$CList@PAVCCallPutItemData@@PAV1@@@8 ; CList<CCallPutItemData *,CCallPutItemData *>::`RTTI Base Class Array'
	DD	FLAT:??_R1A@?0A@EA@CObject@@8
rdata$r	ENDS
;	COMDAT ??_R3?$CList@PAVCCallPutItemData@@PAV1@@@8
rdata$r	SEGMENT
??_R3?$CList@PAVCCallPutItemData@@PAV1@@@8 DD 00H	; CList<CCallPutItemData *,CCallPutItemData *>::`RTTI Class Hierarchy Descriptor'
	DD	00H
	DD	02H
	DD	FLAT:??_R2?$CList@PAVCCallPutItemData@@PAV1@@@8
rdata$r	ENDS
;	COMDAT ??_R0?AV?$CList@PAVCCallPutItemData@@PAV1@@@@8
data$rs	SEGMENT
??_R0?AV?$CList@PAVCCallPutItemData@@PAV1@@@@8 DD FLAT:??_7type_info@@6B@ ; CList<CCallPutItemData *,CCallPutItemData *> `RTTI Type Descriptor'
	DD	00H
	DB	'.?AV?$CList@PAVCCallPutItemData@@PAV1@@@', 00H
data$rs	ENDS
;	COMDAT ??_R4?$CList@PAVCCallPutItemData@@PAV1@@@6B@
rdata$r	SEGMENT
??_R4?$CList@PAVCCallPutItemData@@PAV1@@@6B@ DD 00H	; CList<CCallPutItemData *,CCallPutItemData *>::`RTTI Complete Object Locator'
	DD	00H
	DD	00H
	DD	FLAT:??_R0?AV?$CList@PAVCCallPutItemData@@PAV1@@@@8
	DD	FLAT:??_R3?$CList@PAVCCallPutItemData@@PAV1@@@8
rdata$r	ENDS
;	COMDAT ??_R1A@?0A@EA@CCodeTypeA@@8
rdata$r	SEGMENT
??_R1A@?0A@EA@CCodeTypeA@@8 DD FLAT:??_R0?AVCCodeTypeA@@@8 ; CCodeTypeA::`RTTI Base Class Descriptor at (0,-1,0,64)'
	DD	01H
	DD	00H
	DD	0ffffffffH
	DD	00H
	DD	040H
	DD	FLAT:??_R3CCodeTypeA@@8
rdata$r	ENDS
;	COMDAT ??_R2CCodeTypeA@@8
rdata$r	SEGMENT
??_R2CCodeTypeA@@8 DD FLAT:??_R1A@?0A@EA@CCodeTypeA@@8	; CCodeTypeA::`RTTI Base Class Array'
	DD	FLAT:??_R1A@?0A@EA@CCodeTypeBase@@8
rdata$r	ENDS
;	COMDAT ??_R3CCodeTypeA@@8
rdata$r	SEGMENT
??_R3CCodeTypeA@@8 DD 00H				; CCodeTypeA::`RTTI Class Hierarchy Descriptor'
	DD	00H
	DD	02H
	DD	FLAT:??_R2CCodeTypeA@@8
rdata$r	ENDS
;	COMDAT ??_R0?AVCCodeTypeA@@@8
data$rs	SEGMENT
??_R0?AVCCodeTypeA@@@8 DD FLAT:??_7type_info@@6B@	; CCodeTypeA `RTTI Type Descriptor'
	DD	00H
	DB	'.?AVCCodeTypeA@@', 00H
data$rs	ENDS
;	COMDAT ??_R4CCodeTypeA@@6B@
rdata$r	SEGMENT
??_R4CCodeTypeA@@6B@ DD 00H				; CCodeTypeA::`RTTI Complete Object Locator'
	DD	00H
	DD	00H
	DD	FLAT:??_R0?AVCCodeTypeA@@@8
	DD	FLAT:??_R3CCodeTypeA@@8
rdata$r	ENDS
;	COMDAT ??_R1A@?0A@EA@CCodeTypeBase@@8
rdata$r	SEGMENT
??_R1A@?0A@EA@CCodeTypeBase@@8 DD FLAT:??_R0?AVCCodeTypeBase@@@8 ; CCodeTypeBase::`RTTI Base Class Descriptor at (0,-1,0,64)'
	DD	00H
	DD	00H
	DD	0ffffffffH
	DD	00H
	DD	040H
	DD	FLAT:??_R3CCodeTypeBase@@8
rdata$r	ENDS
;	COMDAT ??_R2CCodeTypeBase@@8
rdata$r	SEGMENT
??_R2CCodeTypeBase@@8 DD FLAT:??_R1A@?0A@EA@CCodeTypeBase@@8 ; CCodeTypeBase::`RTTI Base Class Array'
rdata$r	ENDS
;	COMDAT ??_R3CCodeTypeBase@@8
rdata$r	SEGMENT
??_R3CCodeTypeBase@@8 DD 00H				; CCodeTypeBase::`RTTI Class Hierarchy Descriptor'
	DD	00H
	DD	01H
	DD	FLAT:??_R2CCodeTypeBase@@8
rdata$r	ENDS
;	COMDAT ??_R0?AVCCodeTypeBase@@@8
data$rs	SEGMENT
??_R0?AVCCodeTypeBase@@@8 DD FLAT:??_7type_info@@6B@	; CCodeTypeBase `RTTI Type Descriptor'
	DD	00H
	DB	'.?AVCCodeTypeBase@@', 00H
data$rs	ENDS
;	COMDAT ??_R4CCodeTypeBase@@6B@
rdata$r	SEGMENT
??_R4CCodeTypeBase@@6B@ DD 00H				; CCodeTypeBase::`RTTI Complete Object Locator'
	DD	00H
	DD	00H
	DD	FLAT:??_R0?AVCCodeTypeBase@@@8
	DD	FLAT:??_R3CCodeTypeBase@@8
rdata$r	ENDS
;	COMDAT ??_R1A@?0A@EA@ITLMCallback@@8
rdata$r	SEGMENT
??_R1A@?0A@EA@ITLMCallback@@8 DD FLAT:??_R0?AUITLMCallback@@@8 ; ITLMCallback::`RTTI Base Class Descriptor at (0,-1,0,64)'
	DD	00H
	DD	00H
	DD	0ffffffffH
	DD	00H
	DD	040H
	DD	FLAT:??_R3ITLMCallback@@8
rdata$r	ENDS
;	COMDAT ??_R2ITLMCallback@@8
rdata$r	SEGMENT
??_R2ITLMCallback@@8 DD FLAT:??_R1A@?0A@EA@ITLMCallback@@8 ; ITLMCallback::`RTTI Base Class Array'
rdata$r	ENDS
;	COMDAT ??_R3ITLMCallback@@8
rdata$r	SEGMENT
??_R3ITLMCallback@@8 DD 00H				; ITLMCallback::`RTTI Class Hierarchy Descriptor'
	DD	00H
	DD	01H
	DD	FLAT:??_R2ITLMCallback@@8
rdata$r	ENDS
;	COMDAT ??_R0?AUITLMCallback@@@8
data$rs	SEGMENT
??_R0?AUITLMCallback@@@8 DD FLAT:??_7type_info@@6B@	; ITLMCallback `RTTI Type Descriptor'
	DD	00H
	DB	'.?AUITLMCallback@@', 00H
data$rs	ENDS
;	COMDAT ??_R1A@?0A@EA@?$CList@PAVCDlgCompGroupData@@PAV1@@@8
rdata$r	SEGMENT
??_R1A@?0A@EA@?$CList@PAVCDlgCompGroupData@@PAV1@@@8 DD FLAT:??_R0?AV?$CList@PAVCDlgCompGroupData@@PAV1@@@@8 ; CList<CDlgCompGroupData *,CDlgCompGroupData *>::`RTTI Base Class Descriptor at (0,-1,0,64)'
	DD	01H
	DD	00H
	DD	0ffffffffH
	DD	00H
	DD	040H
	DD	FLAT:??_R3?$CList@PAVCDlgCompGroupData@@PAV1@@@8
rdata$r	ENDS
;	COMDAT ??_R2?$CList@PAVCDlgCompGroupData@@PAV1@@@8
rdata$r	SEGMENT
??_R2?$CList@PAVCDlgCompGroupData@@PAV1@@@8 DD FLAT:??_R1A@?0A@EA@?$CList@PAVCDlgCompGroupData@@PAV1@@@8 ; CList<CDlgCompGroupData *,CDlgCompGroupData *>::`RTTI Base Class Array'
	DD	FLAT:??_R1A@?0A@EA@CObject@@8
rdata$r	ENDS
;	COMDAT ??_R3?$CList@PAVCDlgCompGroupData@@PAV1@@@8
rdata$r	SEGMENT
??_R3?$CList@PAVCDlgCompGroupData@@PAV1@@@8 DD 00H	; CList<CDlgCompGroupData *,CDlgCompGroupData *>::`RTTI Class Hierarchy Descriptor'
	DD	00H
	DD	02H
	DD	FLAT:??_R2?$CList@PAVCDlgCompGroupData@@PAV1@@@8
rdata$r	ENDS
;	COMDAT ??_R0?AV?$CList@PAVCDlgCompGroupData@@PAV1@@@@8
data$rs	SEGMENT
??_R0?AV?$CList@PAVCDlgCompGroupData@@PAV1@@@@8 DD FLAT:??_7type_info@@6B@ ; CList<CDlgCompGroupData *,CDlgCompGroupData *> `RTTI Type Descriptor'
	DD	00H
	DB	'.?AV?$CList@PAVCDlgCompGroupData@@PAV1@@@', 00H
data$rs	ENDS
;	COMDAT ??_R4?$CList@PAVCDlgCompGroupData@@PAV1@@@6B@
rdata$r	SEGMENT
??_R4?$CList@PAVCDlgCompGroupData@@PAV1@@@6B@ DD 00H	; CList<CDlgCompGroupData *,CDlgCompGroupData *>::`RTTI Complete Object Locator'
	DD	00H
	DD	00H
	DD	FLAT:??_R0?AV?$CList@PAVCDlgCompGroupData@@PAV1@@@@8
	DD	FLAT:??_R3?$CList@PAVCDlgCompGroupData@@PAV1@@@8
rdata$r	ENDS
;	COMDAT ??_R1A@?0A@EA@?$CList@PAVCDlgCompSubItem@@PAV1@@@8
rdata$r	SEGMENT
??_R1A@?0A@EA@?$CList@PAVCDlgCompSubItem@@PAV1@@@8 DD FLAT:??_R0?AV?$CList@PAVCDlgCompSubItem@@PAV1@@@@8 ; CList<CDlgCompSubItem *,CDlgCompSubItem *>::`RTTI Base Class Descriptor at (0,-1,0,64)'
	DD	01H
	DD	00H
	DD	0ffffffffH
	DD	00H
	DD	040H
	DD	FLAT:??_R3?$CList@PAVCDlgCompSubItem@@PAV1@@@8
rdata$r	ENDS
;	COMDAT ??_R2?$CList@PAVCDlgCompSubItem@@PAV1@@@8
rdata$r	SEGMENT
??_R2?$CList@PAVCDlgCompSubItem@@PAV1@@@8 DD FLAT:??_R1A@?0A@EA@?$CList@PAVCDlgCompSubItem@@PAV1@@@8 ; CList<CDlgCompSubItem *,CDlgCompSubItem *>::`RTTI Base Class Array'
	DD	FLAT:??_R1A@?0A@EA@CObject@@8
rdata$r	ENDS
;	COMDAT ??_R3?$CList@PAVCDlgCompSubItem@@PAV1@@@8
rdata$r	SEGMENT
??_R3?$CList@PAVCDlgCompSubItem@@PAV1@@@8 DD 00H	; CList<CDlgCompSubItem *,CDlgCompSubItem *>::`RTTI Class Hierarchy Descriptor'
	DD	00H
	DD	02H
	DD	FLAT:??_R2?$CList@PAVCDlgCompSubItem@@PAV1@@@8
rdata$r	ENDS
;	COMDAT ??_R0?AV?$CList@PAVCDlgCompSubItem@@PAV1@@@@8
data$rs	SEGMENT
??_R0?AV?$CList@PAVCDlgCompSubItem@@PAV1@@@@8 DD FLAT:??_7type_info@@6B@ ; CList<CDlgCompSubItem *,CDlgCompSubItem *> `RTTI Type Descriptor'
	DD	00H
	DB	'.?AV?$CList@PAVCDlgCompSubItem@@PAV1@@@', 00H
data$rs	ENDS
;	COMDAT ??_R4?$CList@PAVCDlgCompSubItem@@PAV1@@@6B@
rdata$r	SEGMENT
??_R4?$CList@PAVCDlgCompSubItem@@PAV1@@@6B@ DD 00H	; CList<CDlgCompSubItem *,CDlgCompSubItem *>::`RTTI Complete Object Locator'
	DD	00H
	DD	00H
	DD	FLAT:??_R0?AV?$CList@PAVCDlgCompSubItem@@PAV1@@@@8
	DD	FLAT:??_R3?$CList@PAVCDlgCompSubItem@@PAV1@@@8
rdata$r	ENDS
;	COMDAT ??_C@_0BA@FOIKENOD@vector?5too?5long@
CONST	SEGMENT
??_C@_0BA@FOIKENOD@vector?5too?5long@ DB 'vector too long', 00H ; `string'
CONST	ENDS
;	COMDAT ??_C@_0BJ@DHFDPMIM@invalid?5vector?5subscript@
CONST	SEGMENT
??_C@_0BJ@DHFDPMIM@invalid?5vector?5subscript@ DB 'invalid vector subscri'
	DB	'pt', 00H					; `string'
CONST	ENDS
;	COMDAT ??_C@_01MMEEDKFM@X@
CONST	SEGMENT
??_C@_01MMEEDKFM@X@ DB 'X', 00H				; `string'
CONST	ENDS
;	COMDAT ??_C@_01MJMHLOMK@O@
CONST	SEGMENT
??_C@_01MJMHLOMK@O@ DB 'O', 00H				; `string'
CONST	ENDS
;	COMDAT ??_C@_05DNIIFBMG@?$CFs?5?$CFs@
CONST	SEGMENT
??_C@_05DNIIFBMG@?$CFs?5?$CFs@ DB '%s %s', 00H		; `string'
CONST	ENDS
;	COMDAT ??_C@_03NDHBKIJP@ATM@
CONST	SEGMENT
??_C@_03NDHBKIJP@ATM@ DB 'ATM', 00H			; `string'
CONST	ENDS
;	COMDAT ??_C@_05BJKOFFGO@PRICE@
CONST	SEGMENT
??_C@_05BJKOFFGO@PRICE@ DB 'PRICE', 00H			; `string'
CONST	ENDS
;	COMDAT ??_C@_08EFGGCJLD@?$CFs?2?$CFs?2?$CFs@
CONST	SEGMENT
??_C@_08EFGGCJLD@?$CFs?2?$CFs?2?$CFs@ DB '%s\%s\%s', 00H ; `string'
CONST	ENDS
;	COMDAT ??_C@_03KBDGFMG@mst@
CONST	SEGMENT
??_C@_03KBDGFMG@mst@ DB 'mst', 00H			; `string'
CONST	ENDS
;	COMDAT ??_C@_0P@JIBKHGJJ@master?2atm?4dat@
CONST	SEGMENT
??_C@_0P@JIBKHGJJ@master?2atm?4dat@ DB 'master\atm.dat', 00H ; `string'
CONST	ENDS
;	COMDAT ??_C@_02ECKNGKBC@?G?$LC@
CONST	SEGMENT
??_C@_02ECKNGKBC@?G?$LC@ DB 0c7H, 0b2H, 00H		; `string'
CONST	ENDS
;	COMDAT ??_C@_02KCIOKDCD@?D?$NN@
CONST	SEGMENT
??_C@_02KCIOKDCD@?D?$NN@ DB 0c4H, 0ddH, 00H		; `string'
CONST	ENDS
;	COMDAT ??_C@_06CDJAKJDK@?G?$OA?$LL?g?$LA?$KB@
CONST	SEGMENT
??_C@_06CDJAKJDK@?G?$OA?$LL?g?$LA?$KB@ DB 0c7H, 0e0H, 0bbH, 0e7H, 0b0H, 0a1H
	DB	00H						; `string'
CONST	ENDS
;	COMDAT ??_C@_08CDLEABGN@JPMASTER@
CONST	SEGMENT
??_C@_08CDLEABGN@JPMASTER@ DB 'JPMASTER', 00H		; `string'
CONST	ENDS
;	COMDAT ??_C@_07OLCDEDDD@PMASTER@
CONST	SEGMENT
??_C@_07OLCDEDDD@PMASTER@ DB 'PMASTER', 00H		; `string'
CONST	ENDS
;	COMDAT ??_R0PAVCMemoryException@@@8
data$r	SEGMENT
??_R0PAVCMemoryException@@@8 DD FLAT:??_7type_info@@6B@	; CMemoryException * `RTTI Type Descriptor'
	DD	00H
	DB	'.PAVCMemoryException@@', 00H
data$r	ENDS
;	COMDAT ??_C@_08NHOKBKDK@?$LB?b?$LK?$LL?$LB?W?$LH?l@
CONST	SEGMENT
??_C@_08NHOKBKDK@?$LB?b?$LK?$LL?$LB?W?$LH?l@ DB 0b1H, 0e2H, 0baH, 0bbH, 0b1H
	DB	0d7H, 0b7H, 0ecH, 00H			; `string'
CONST	ENDS
;	COMDAT ??_C@_0CB@GHOJNJLD@?G?v?$MA?g?5?$LO?F?$MA?L?E?$NL?5?C?$LD?$LI?$KO?$LA?$KB?5?$LF?G?$LO?n?$MA?V?A?v?5?$LO?J?$MA@
CONST	SEGMENT
??_C@_0CB@GHOJNJLD@?G?v?$MA?g?5?$LO?F?$MA?L?E?$NL?5?C?$LD?$LI?$KO?$LA?$KB?5?$LF?G?$LO?n?$MA?V?A?v?5?$LO?J?$MA@ DB 0c7H
	DB	0f6H, 0c0H, 0e7H, ' ', 0beH, 0c6H, 0c0H, 0ccH, 0c5H, 0dbH, ' ', 0c3H
	DB	0b3H, 0b8H, 0aeH, 0b0H, 0a1H, ' ', 0b5H, 0c7H, 0beH, 0eeH, 0c0H
	DB	0d6H, 0c1H, 0f6H, ' ', 0beH, 0caH, 0c0H, 0bdH, 00H ; `string'
CONST	ENDS
;	COMDAT ??_C@_0BP@BKPHIEFF@?C?V?$LE?k?5?$CFd?$LA?$LD?5?A?$LO?$LI?q?$LB?n?A?v?5?$LA?$KB?$LE?I?G?U?$LE?O?$LE?Y?4@
CONST	SEGMENT
??_C@_0BP@BKPHIEFF@?C?V?$LE?k?5?$CFd?$LA?$LD?5?A?$LO?$LI?q?$LB?n?A?v?5?$LA?$KB?$LE?I?G?U?$LE?O?$LE?Y?4@ DB 0c3H
	DB	0d6H, 0b4H, 0ebH, ' %d', 0b0H, 0b3H, ' ', 0c1H, 0beH, 0b8H, 0f1H
	DB	0b1H, 0eeH, 0c1H, 0f6H, ' ', 0b0H, 0a1H, 0b4H, 0c9H, 0c7H, 0d5H
	DB	0b4H, 0cfH, 0b4H, 0d9H, '.', 00H		; `string'
CONST	ENDS
;	COMDAT ??_C@_0BP@NJDMJDP@?$MA?L?$LJ?L?5?C?$NP?$LA?$KB?$LF?G?$LO?n?5?$MA?V?$LE?B?5?A?$LO?$LI?q?$MA?T?$LE?O?$LE?Y?4@
CONST	SEGMENT
??_C@_0BP@NJDMJDP@?$MA?L?$LJ?L?5?C?$NP?$LA?$KB?$LF?G?$LO?n?5?$MA?V?$LE?B?5?A?$LO?$LI?q?$MA?T?$LE?O?$LE?Y?4@ DB 0c0H
	DB	0ccH, 0b9H, 0ccH, ' ', 0c3H, 0dfH, 0b0H, 0a1H, 0b5H, 0c7H, 0beH
	DB	0eeH, ' ', 0c0H, 0d6H, 0b4H, 0c2H, ' ', 0c1H, 0beH, 0b8H, 0f1H
	DB	0c0H, 0d4H, 0b4H, 0cfH, 0b4H, 0d9H, '.', 00H	; `string'
CONST	ENDS
;	COMDAT ??_C@_0BF@GGAGLMPO@?$LB?W?$LH?l?$MA?L?5?$LM?$LB?E?C?$LF?G?A?v?5?$LO?J?$MA?$LN@
CONST	SEGMENT
??_C@_0BF@GGAGLMPO@?$LB?W?$LH?l?$MA?L?5?$LM?$LB?E?C?$LF?G?A?v?5?$LO?J?$MA?$LN@ DB 0b1H
	DB	0d7H, 0b7H, 0ecH, 0c0H, 0ccH, ' ', 0bcH, 0b1H, 0c5H, 0c3H, 0b5H
	DB	0c7H, 0c1H, 0f6H, ' ', 0beH, 0caH, 0c0H, 0bdH, 00H ; `string'
CONST	ENDS
;	COMDAT ??_C@_0BE@GEHHHPPG@?$LM?$LB?E?C?$LF?H?5?$LB?W?$LH?l?$MA?L?5?$LO?x?$MA?$LN?4@
CONST	SEGMENT
??_C@_0BE@GEHHHPPG@?$LM?$LB?E?C?$LF?H?5?$LB?W?$LH?l?$MA?L?5?$LO?x?$MA?$LN?4@ DB 0bcH
	DB	0b1H, 0c5H, 0c3H, 0b5H, 0c8H, ' ', 0b1H, 0d7H, 0b7H, 0ecH, 0c0H
	DB	0ccH, ' ', 0beH, 0f8H, 0c0H, 0bdH, '.', 00H	; `string'
CONST	ENDS
;	COMDAT ??_C@_03JMDFPPIA@CFG@
CONST	SEGMENT
??_C@_03JMDFPPIA@CFG@ DB 'CFG', 00H			; `string'
CONST	ENDS
;	COMDAT ??_C@_0L@DIKICJIA@SCREENCODE@
CONST	SEGMENT
??_C@_0L@DIKICJIA@SCREENCODE@ DB 'SCREENCODE', 00H	; `string'
CONST	ENDS
;	COMDAT ??_C@_04HBCHAADI@4602@
CONST	SEGMENT
??_C@_04HBCHAADI@4602@ DB '4602', 00H			; `string'
CONST	ENDS
;	COMDAT ??_C@_0L@HJJAEEML@?$LF?n?$LG?t?$LH?$PM?B?w?F?$KO@
CONST	SEGMENT
??_C@_0L@HJJAEEML@?$LF?n?$LG?t?$LH?$PM?B?w?F?$KO@ DB 0b5H, 0eeH, 0b6H, 0f4H
	DB	0b7H, 0fcH, 0c2H, 0f7H, 0c6H, 0aeH, 00H	; `string'
CONST	ENDS
;	COMDAT ??_C@_04IMDNCEFG@?D?Z?$LF?e@
CONST	SEGMENT
??_C@_04IMDNCEFG@?D?Z?$LF?e@ DB 0c4H, 0daH, 0b5H, 0e5H, 00H ; `string'
CONST	ENDS
;	COMDAT ??_C@_06BGMJNGKF@?A?$LO?$LI?q?$LI?m@
CONST	SEGMENT
??_C@_06BGMJNGKF@?A?$LO?$LI?q?$LI?m@ DB 0c1H, 0beH, 0b8H, 0f1H, 0b8H, 0edH
	DB	00H						; `string'
CONST	ENDS
;	COMDAT ??_C@_02JMHLOEOE@24@
CONST	SEGMENT
??_C@_02JMHLOEOE@24@ DB '24', 00H			; `string'
CONST	ENDS
;	COMDAT ??_C@_02NDDKHCCD@23@
CONST	SEGMENT
??_C@_02NDDKHCCD@23@ DB '23', 00H			; `string'
CONST	ENDS
;	COMDAT ??_C@_02MKCBEDGC@22@
CONST	SEGMENT
??_C@_02MKCBEDGC@22@ DB '22', 00H			; `string'
CONST	ENDS
;	COMDAT ??_C@_02OBAMBAKB@21@
CONST	SEGMENT
??_C@_02OBAMBAKB@21@ DB '21', 00H			; `string'
CONST	ENDS
;	COMDAT ??_C@_02PIBHCBOA@20@
CONST	SEGMENT
??_C@_02PIBHCBOA@20@ DB '20', 00H			; `string'
CONST	ENDS
;	COMDAT ??_C@_02CLJDCEPA@19@
CONST	SEGMENT
??_C@_02CLJDCEPA@19@ DB '19', 00H			; `string'
CONST	ENDS
;	COMDAT ??_C@_02DCIIBFLB@18@
CONST	SEGMENT
??_C@_02DCIIBFLB@18@ DB '18', 00H			; `string'
CONST	ENDS
;	COMDAT ??_C@_02LFBAAJHO@17@
CONST	SEGMENT
??_C@_02LFBAAJHO@17@ DB '17', 00H			; `string'
CONST	ENDS
;	COMDAT ??_C@_02KMALDIDP@16@
CONST	SEGMENT
??_C@_02KMALDIDP@16@ DB '16', 00H			; `string'
CONST	ENDS
;	COMDAT ??_C@_02IHCGGLPM@15@
CONST	SEGMENT
??_C@_02IHCGGLPM@15@ DB '15', 00H			; `string'
CONST	ENDS
;	COMDAT ??_C@_02JODNFKLN@14@
CONST	SEGMENT
??_C@_02JODNFKLN@14@ DB '14', 00H			; `string'
CONST	ENDS
;	COMDAT ??_C@_02NBHMMMHK@13@
CONST	SEGMENT
??_C@_02NBHMMMHK@13@ DB '13', 00H			; `string'
CONST	ENDS
;	COMDAT ??_C@_02MIGHPNDL@12@
CONST	SEGMENT
??_C@_02MIGHPNDL@12@ DB '12', 00H			; `string'
CONST	ENDS
;	COMDAT ??_C@_02ODEKKOPI@11@
CONST	SEGMENT
??_C@_02ODEKKOPI@11@ DB '11', 00H			; `string'
CONST	ENDS
;	COMDAT ??_C@_02PKFBJPLJ@10@
CONST	SEGMENT
??_C@_02PKFBJPLJ@10@ DB '10', 00H			; `string'
CONST	ENDS
;	COMDAT ??_C@_01LAKCGALK@9@
CONST	SEGMENT
??_C@_01LAKCGALK@9@ DB '9', 00H				; `string'
CONST	ENDS
;	COMDAT ??_C@_01KJLJFBPL@8@
CONST	SEGMENT
??_C@_01KJLJFBPL@8@ DB '8', 00H				; `string'
CONST	ENDS
;	COMDAT ??_C@_01FDFGLJHB@2@
CONST	SEGMENT
??_C@_01FDFGLJHB@2@ DB '2', 00H				; `string'
CONST	ENDS
;	COMDAT ??_C@_01HIHLOKLC@1@
CONST	SEGMENT
??_C@_01HIHLOKLC@1@ DB '1', 00H				; `string'
CONST	ENDS
;	COMDAT ??_C@_01GBGANLPD@0@
CONST	SEGMENT
??_C@_01GBGANLPD@0@ DB '0', 00H				; `string'
CONST	ENDS
;	COMDAT ??_C@_0CA@KGDMODEH@?$CFs?5?$LB?W?$LH?l?$MA?$LL?$CI?$LI?$KG?$CJ?5?$LL?h?A?$KG?G?O?$LN?C?$LA?Z?$LN?$MA?$LE?O?$LB?n?$DP@
CONST	SEGMENT
??_C@_0CA@KGDMODEH@?$CFs?5?$LB?W?$LH?l?$MA?$LL?$CI?$LI?$KG?$CJ?5?$LL?h?A?$KG?G?O?$LN?C?$LA?Z?$LN?$MA?$LE?O?$LB?n?$DP@ DB '%'
	DB	's ', 0b1H, 0d7H, 0b7H, 0ecH, 0c0H, 0bbH, '(', 0b8H, 0a6H, ') '
	DB	0bbH, 0e8H, 0c1H, 0a6H, 0c7H, 0cfH, 0bdH, 0c3H, 0b0H, 0daH, 0bdH
	DB	0c0H, 0b4H, 0cfH, 0b1H, 0eeH, '?', 00H	; `string'
CONST	ENDS
;	COMDAT ??_C@_0BP@BLNMJNIH@?$MA?L?$LJ?L?5?$LA?$LA?$MA?$LK?5?$LB?W?$LH?l?$LI?m?$MA?L?5?A?$LI?$MA?g?G?U?$LE?O?$LE?Y?4@
CONST	SEGMENT
??_C@_0BP@BLNMJNIH@?$MA?L?$LJ?L?5?$LA?$LA?$MA?$LK?5?$LB?W?$LH?l?$LI?m?$MA?L?5?A?$LI?$MA?g?G?U?$LE?O?$LE?Y?4@ DB 0c0H
	DB	0ccH, 0b9H, 0ccH, ' ', 0b0H, 0b0H, 0c0H, 0baH, ' ', 0b1H, 0d7H
	DB	0b7H, 0ecH, 0b8H, 0edH, 0c0H, 0ccH, ' ', 0c1H, 0b8H, 0c0H, 0e7H
	DB	0c7H, 0d5H, 0b4H, 0cfH, 0b4H, 0d9H, '.', 00H	; `string'
CONST	ENDS
;	COMDAT ??_C@_0L@OLLFJJOD@?$DM?A?$LO?$LI?q?D?Z?$LF?e?$DO@
CONST	SEGMENT
??_C@_0L@OLLFJJOD@?$DM?A?$LO?$LI?q?D?Z?$LF?e?$DO@ DB '<', 0c1H, 0beH, 0b8H
	DB	0f1H, 0c4H, 0daH, 0b5H, 0e5H, '>', 00H	; `string'
CONST	ENDS
;	COMDAT ??_C@_08KMEBHNMN@?$DM?A?$LO?$LI?q?$LI?m?$DO@
CONST	SEGMENT
??_C@_08KMEBHNMN@?$DM?A?$LO?$LI?q?$LI?m?$DO@ DB '<', 0c1H, 0beH, 0b8H, 0f1H
	DB	0b8H, 0edH, '>', 00H				; `string'
CONST	ENDS
;	COMDAT ?messageMap@?1??GetThisMessageMap@CDlgCompSetup@@KGPBUAFX_MSGMAP@@XZ@4U3@B
CONST	SEGMENT
?messageMap@?1??GetThisMessageMap@CDlgCompSetup@@KGPBUAFX_MSGMAP@@XZ@4U3@B DD FLAT:?GetThisMessageMap@CDialog@@KGPBUAFX_MSGMAP@@XZ ; `CDlgCompSetup::GetThisMessageMap'::`2'::messageMap
	DD	FLAT:?_messageEntries@?1??GetThisMessageMap@CDlgCompSetup@@KGPBUAFX_MSGMAP@@XZ@4QBUAFX_MSGMAP_ENTRY@@B
CONST	ENDS
;	COMDAT ?_messageEntries@?1??GetThisMessageMap@CDlgCompSetup@@KGPBUAFX_MSGMAP@@XZ@4QBUAFX_MSGMAP_ENTRY@@B
CONST	SEGMENT
?_messageEntries@?1??GetThisMessageMap@CDlgCompSetup@@KGPBUAFX_MSGMAP@@XZ@4QBUAFX_MSGMAP_ENTRY@@B DD 0111H ; `CDlgCompSetup::GetThisMessageMap'::`2'::_messageEntries
	DD	00H
	DD	01771H
	DD	01771H
	DD	03aH
	DD	FLAT:?OnBtngrpnew@CDlgCompSetup@@IAEXXZ
	DD	0111H
	DD	00H
	DD	01772H
	DD	01772H
	DD	03aH
	DD	FLAT:?OnBtngrpdel@CDlgCompSetup@@IAEXXZ
	DD	0111H
	DD	00H
	DD	01773H
	DD	01773H
	DD	03aH
	DD	FLAT:?OnBtngrpchange@CDlgCompSetup@@IAEXXZ
	DD	0111H
	DD	00H
	DD	01775H
	DD	01775H
	DD	03aH
	DD	FLAT:?OnArrow1@CDlgCompSetup@@IAEXXZ
	DD	0111H
	DD	00H
	DD	01776H
	DD	01776H
	DD	03aH
	DD	FLAT:?OnArrow2@CDlgCompSetup@@IAEXXZ
	DD	0111H
	DD	00H
	DD	01777H
	DD	01777H
	DD	03aH
	DD	FLAT:?OnArrow3@CDlgCompSetup@@IAEXXZ
	DD	0111H
	DD	00H
	DD	01778H
	DD	01778H
	DD	03aH
	DD	FLAT:?OnArrow4@CDlgCompSetup@@IAEXXZ
	DD	0111H
	DD	00H
	DD	01783H
	DD	01783H
	DD	03aH
	DD	FLAT:?OnBtnleft@CDlgCompSetup@@IAEXXZ
	DD	0111H
	DD	00H
	DD	01784H
	DD	01784H
	DD	03aH
	DD	FLAT:?OnBtnright@CDlgCompSetup@@IAEXXZ
	DD	0111H
	DD	00H
	DD	01785H
	DD	01785H
	DD	03aH
	DD	FLAT:?OnBtnleft3@CDlgCompSetup@@IAEXXZ
	DD	0111H
	DD	00H
	DD	01H
	DD	01H
	DD	03aH
	DD	FLAT:?OnOk@CDlgCompSetup@@IAEXXZ
	DD	02H
	DD	00H
	DD	00H
	DD	00H
	DD	013H
	DD	FLAT:?OnDestroy@CDlgCompSetup@@IAEXXZ
	DD	0111H
	DD	01H
	DD	01770H
	DD	01770H
	DD	03aH
	DD	FLAT:?OnSelchangeListgrp@CDlgCompSetup@@IAEXXZ
	DD	04eH
	DD	0fed3H
	DD	01774H
	DD	01774H
	DD	03eH
	DD	FLAT:?OnItemchangedListitem@CDlgCompSetup@@IAEXPAUtagNMHDR@@PAJ@Z
	DD	04eH
	DD	0fe6eH
	DD	01786H
	DD	01786H
	DD	03eH
	DD	FLAT:?OnSelchangedTreesearch@CDlgCompSetup@@IAEXPAUtagNMHDR@@PAJ@Z
	DD	04eH
	DD	0fffeH
	DD	01774H
	DD	01774H
	DD	03eH
	DD	FLAT:?OnClkListItem@CDlgCompSetup@@IAEXPAUtagNMHDR@@PAJ@Z
	DD	04eH
	DD	0fffdH
	DD	01774H
	DD	01774H
	DD	03eH
	DD	FLAT:?OnDblclkListItem@CDlgCompSetup@@IAEXPAUtagNMHDR@@PAJ@Z
	DD	04eH
	DD	0fffeH
	DD	0178aH
	DD	0178aH
	DD	03eH
	DD	FLAT:?OnClkListcodes@CDlgCompSetup@@IAEXPAUtagNMHDR@@PAJ@Z
	DD	04eH
	DD	0fffdH
	DD	0178aH
	DD	0178aH
	DD	03eH
	DD	FLAT:?OnDblclkListcodes@CDlgCompSetup@@IAEXPAUtagNMHDR@@PAJ@Z
	DD	0111H
	DD	01H
	DD	0177bH
	DD	0177bH
	DD	03aH
	DD	FLAT:?OnSelchangeDrawstyle@CDlgCompSetup@@IAEXXZ
	DD	0111H
	DD	01H
	DD	0177cH
	DD	0177cH
	DD	03aH
	DD	FLAT:?OnSelchangeThickness@CDlgCompSetup@@IAEXXZ
	DD	0111H
	DD	01H
	DD	01788H
	DD	01788H
	DD	03aH
	DD	FLAT:?OnSelchangeCmbsel@CDlgCompSetup@@IAEXXZ
	DD	07e9H
	DD	00H
	DD	00H
	DD	00H
	DD	0eH
	DD	FLAT:?OnColorSelChange@CDlgCompSetup@@IAEJIJ@Z
	DD	00H
	DD	00H
	DD	00H
	DD	00H
	DD	00H
	DD	00H
CONST	ENDS
;	COMDAT __CT??_R0?AVexception@std@@@8??0exception@std@@QAE@ABV01@@Z12
xdata$x	SEGMENT
__CT??_R0?AVexception@std@@@8??0exception@std@@QAE@ABV01@@Z12 DD 00H
	DD	FLAT:??_R0?AVexception@std@@@8
	DD	00H
	DD	0ffffffffH
	ORG $+4
	DD	0cH
	DD	FLAT:??0exception@std@@QAE@ABV01@@Z
xdata$x	ENDS
;	COMDAT ??_R0?AVexception@std@@@8
data$r	SEGMENT
??_R0?AVexception@std@@@8 DD FLAT:??_7type_info@@6B@	; std::exception `RTTI Type Descriptor'
	DD	00H
	DB	'.?AVexception@std@@', 00H
data$r	ENDS
;	COMDAT __CT??_R0?AVbad_alloc@std@@@8??0bad_alloc@std@@QAE@ABV01@@Z12
xdata$x	SEGMENT
__CT??_R0?AVbad_alloc@std@@@8??0bad_alloc@std@@QAE@ABV01@@Z12 DD 010H
	DD	FLAT:??_R0?AVbad_alloc@std@@@8
	DD	00H
	DD	0ffffffffH
	ORG $+4
	DD	0cH
	DD	FLAT:??0bad_alloc@std@@QAE@ABV01@@Z
xdata$x	ENDS
;	COMDAT ??_R0?AVbad_alloc@std@@@8
data$r	SEGMENT
??_R0?AVbad_alloc@std@@@8 DD FLAT:??_7type_info@@6B@	; std::bad_alloc `RTTI Type Descriptor'
	DD	00H
	DB	'.?AVbad_alloc@std@@', 00H
data$r	ENDS
;	COMDAT __CT??_R0?AVbad_array_new_length@std@@@8??0bad_array_new_length@std@@QAE@ABV01@@Z12
xdata$x	SEGMENT
__CT??_R0?AVbad_array_new_length@std@@@8??0bad_array_new_length@std@@QAE@ABV01@@Z12 DD 00H
	DD	FLAT:??_R0?AVbad_array_new_length@std@@@8
	DD	00H
	DD	0ffffffffH
	ORG $+4
	DD	0cH
	DD	FLAT:??0bad_array_new_length@std@@QAE@ABV01@@Z
xdata$x	ENDS
;	COMDAT ??_R0?AVbad_array_new_length@std@@@8
data$r	SEGMENT
??_R0?AVbad_array_new_length@std@@@8 DD FLAT:??_7type_info@@6B@ ; std::bad_array_new_length `RTTI Type Descriptor'
	DD	00H
	DB	'.?AVbad_array_new_length@std@@', 00H
data$r	ENDS
;	COMDAT __CTA3?AVbad_array_new_length@std@@
xdata$x	SEGMENT
__CTA3?AVbad_array_new_length@std@@ DD 03H
	DD	FLAT:__CT??_R0?AVbad_array_new_length@std@@@8??0bad_array_new_length@std@@QAE@ABV01@@Z12
	DD	FLAT:__CT??_R0?AVbad_alloc@std@@@8??0bad_alloc@std@@QAE@ABV01@@Z12
	DD	FLAT:__CT??_R0?AVexception@std@@@8??0exception@std@@QAE@ABV01@@Z12
xdata$x	ENDS
;	COMDAT __TI3?AVbad_array_new_length@std@@
xdata$x	SEGMENT
__TI3?AVbad_array_new_length@std@@ DD 00H
	DD	FLAT:??1bad_array_new_length@std@@UAE@XZ
	DD	00H
	DD	FLAT:__CTA3?AVbad_array_new_length@std@@
xdata$x	ENDS
;	COMDAT ??_C@_0BF@KINCDENJ@bad?5array?5new?5length@
CONST	SEGMENT
??_C@_0BF@KINCDENJ@bad?5array?5new?5length@ DB 'bad array new length', 00H ; `string'
CONST	ENDS
;	COMDAT ??_7bad_array_new_length@std@@6B@
CONST	SEGMENT
??_7bad_array_new_length@std@@6B@ DD FLAT:??_R4bad_array_new_length@std@@6B@ ; std::bad_array_new_length::`vftable'
	DD	FLAT:??_Ebad_array_new_length@std@@UAEPAXI@Z
	DD	FLAT:?what@exception@std@@UBEPBDXZ
CONST	ENDS
;	COMDAT ??_7bad_alloc@std@@6B@
CONST	SEGMENT
??_7bad_alloc@std@@6B@ DD FLAT:??_R4bad_alloc@std@@6B@	; std::bad_alloc::`vftable'
	DD	FLAT:??_Ebad_alloc@std@@UAEPAXI@Z
	DD	FLAT:?what@exception@std@@UBEPBDXZ
CONST	ENDS
;	COMDAT ??_C@_0BC@EOODALEL@Unknown?5exception@
CONST	SEGMENT
??_C@_0BC@EOODALEL@Unknown?5exception@ DB 'Unknown exception', 00H ; `string'
CONST	ENDS
;	COMDAT ??_7exception@std@@6B@
CONST	SEGMENT
??_7exception@std@@6B@ DD FLAT:??_R4exception@std@@6B@	; std::exception::`vftable'
	DD	FLAT:??_Eexception@std@@UAEPAXI@Z
	DD	FLAT:?what@exception@std@@UBEPBDXZ
CONST	ENDS
;	COMDAT ??_7CDlgCompSetup@@6B@
CONST	SEGMENT
??_7CDlgCompSetup@@6B@ DD FLAT:??_R4CDlgCompSetup@@6B@	; CDlgCompSetup::`vftable'
	DD	FLAT:?GetRuntimeClass@CDialog@@UBEPAUCRuntimeClass@@XZ
	DD	FLAT:??_ECDlgCompSetup@@UAEPAXI@Z
	DD	FLAT:?Serialize@CObject@@UAEXAAVCArchive@@@Z
	DD	FLAT:?AssertValid@CObject@@UBEXXZ
	DD	FLAT:?Dump@CObject@@UBEXAAVCDumpContext@@@Z
	DD	FLAT:?OnCmdMsg@CDialog@@UAEHIHPAXPAUAFX_CMDHANDLERINFO@@@Z
	DD	FLAT:?OnFinalRelease@CWnd@@UAEXXZ
	DD	FLAT:?IsInvokeAllowed@CCmdTarget@@UAEHJ@Z
	DD	FLAT:?GetDispatchIID@CCmdTarget@@UAEHPAU_GUID@@@Z
	DD	FLAT:?GetTypeInfoCount@CCmdTarget@@UAEIXZ
	DD	FLAT:?GetTypeLibCache@CCmdTarget@@UAEPAVCTypeLibCache@@XZ
	DD	FLAT:?GetTypeLib@CCmdTarget@@UAEJKPAPAUITypeLib@@@Z
	DD	FLAT:?GetMessageMap@CDlgCompSetup@@MBEPBUAFX_MSGMAP@@XZ
	DD	FLAT:?GetCommandMap@CCmdTarget@@MBEPBUAFX_OLECMDMAP@@XZ
	DD	FLAT:?GetDispatchMap@CCmdTarget@@MBEPBUAFX_DISPMAP@@XZ
	DD	FLAT:?GetConnectionMap@CCmdTarget@@MBEPBUAFX_CONNECTIONMAP@@XZ
	DD	FLAT:?GetInterfaceMap@CWnd@@MBEPBUAFX_INTERFACEMAP@@XZ
	DD	FLAT:?GetEventSinkMap@CCmdTarget@@MBEPBUAFX_EVENTSINKMAP@@XZ
	DD	FLAT:?OnCreateAggregates@CCmdTarget@@UAEHXZ
	DD	FLAT:?GetInterfaceHook@CCmdTarget@@UAEPAUIUnknown@@PBX@Z
	DD	FLAT:?GetExtraConnectionPoints@CCmdTarget@@MAEHPAVCPtrArray@@@Z
	DD	FLAT:?GetConnectionHook@CCmdTarget@@MAEPAUIConnectionPoint@@ABU_GUID@@@Z
	DD	FLAT:?PreSubclassWindow@CWnd@@UAEXXZ
	DD	FLAT:?Create@CWnd@@UAEHPBD0KABUtagRECT@@PAV1@IPAUCCreateContext@@@Z
	DD	FLAT:?CreateEx@CWnd@@UAEHKPBD0KABUtagRECT@@PAV1@IPAX@Z
	DD	FLAT:?CreateEx@CWnd@@UAEHKPBD0KHHHHPAUHWND__@@PAUHMENU__@@PAX@Z
	DD	FLAT:?DestroyWindow@CWnd@@UAEHXZ
	DD	FLAT:?PreCreateWindow@CWnd@@UAEHAAUtagCREATESTRUCTA@@@Z
	DD	FLAT:?CalcWindowRect@CWnd@@UAEXPAUtagRECT@@I@Z
	DD	FLAT:?GetMenu@CWnd@@UBEPAVCMenu@@XZ
	DD	FLAT:?SetMenu@CWnd@@UAEHPAVCMenu@@@Z
	DD	FLAT:?OnToolHitTest@CWnd@@UBEHVCPoint@@PAUtagTOOLINFOA@@@Z
	DD	FLAT:?GetScrollBarCtrl@CWnd@@UBEPAVCScrollBar@@H@Z
	DD	FLAT:?WinHelpA@CWnd@@UAEXKI@Z
	DD	FLAT:?HtmlHelpA@CWnd@@UAEXKI@Z
	DD	FLAT:?WinHelpInternal@CWnd@@UAEXKI@Z
	DD	FLAT:?ContinueModal@CWnd@@UAEHXZ
	DD	FLAT:?EndModalLoop@CWnd@@UAEXH@Z
	DD	FLAT:?OnDrawIconicThumbnailOrLivePreview@CWnd@@UAEXAAVCDC@@VCRect@@VCSize@@HAAH@Z
	DD	FLAT:?EnsureStdObj@CWnd@@UAEJXZ
	DD	FLAT:?get_accParent@CWnd@@UAEJPAPAUIDispatch@@@Z
	DD	FLAT:?get_accChildCount@CWnd@@UAEJPAJ@Z
	DD	FLAT:?get_accChild@CWnd@@UAEJUtagVARIANT@@PAPAUIDispatch@@@Z
	DD	FLAT:?get_accName@CWnd@@UAEJUtagVARIANT@@PAPA_W@Z
	DD	FLAT:?get_accValue@CWnd@@UAEJUtagVARIANT@@PAPA_W@Z
	DD	FLAT:?get_accDescription@CWnd@@UAEJUtagVARIANT@@PAPA_W@Z
	DD	FLAT:?get_accRole@CWnd@@UAEJUtagVARIANT@@PAU2@@Z
	DD	FLAT:?get_accState@CWnd@@UAEJUtagVARIANT@@PAU2@@Z
	DD	FLAT:?get_accHelp@CWnd@@UAEJUtagVARIANT@@PAPA_W@Z
	DD	FLAT:?get_accHelpTopic@CWnd@@UAEJPAPA_WUtagVARIANT@@PAJ@Z
	DD	FLAT:?get_accKeyboardShortcut@CWnd@@UAEJUtagVARIANT@@PAPA_W@Z
	DD	FLAT:?get_accFocus@CWnd@@UAEJPAUtagVARIANT@@@Z
	DD	FLAT:?get_accSelection@CWnd@@UAEJPAUtagVARIANT@@@Z
	DD	FLAT:?get_accDefaultAction@CWnd@@UAEJUtagVARIANT@@PAPA_W@Z
	DD	FLAT:?accSelect@CWnd@@UAEJJUtagVARIANT@@@Z
	DD	FLAT:?accLocation@CWnd@@UAEJPAJ000UtagVARIANT@@@Z
	DD	FLAT:?accNavigate@CWnd@@UAEJJUtagVARIANT@@PAU2@@Z
	DD	FLAT:?accHitTest@CWnd@@UAEJJJPAUtagVARIANT@@@Z
	DD	FLAT:?accDoDefaultAction@CWnd@@UAEJUtagVARIANT@@@Z
	DD	FLAT:?put_accName@CWnd@@UAEJUtagVARIANT@@PA_W@Z
	DD	FLAT:?put_accValue@CWnd@@UAEJUtagVARIANT@@PA_W@Z
	DD	FLAT:?SetProxy@CWnd@@UAEJPAUIAccessibleProxy@@@Z
	DD	FLAT:?CreateAccessibleProxy@CWnd@@UAEJIJPAJ@Z
	DD	FLAT:?OnCommand@CWnd@@MAEHIJ@Z
	DD	FLAT:?OnNotify@CWnd@@MAEHIJPAJ@Z
	DD	FLAT:?GetSuperWndProcAddr@CWnd@@MAEPAP6GJPAUHWND__@@IIJ@ZXZ
	DD	FLAT:?DoDataExchange@CDlgCompSetup@@MAEXPAVCDataExchange@@@Z
	DD	FLAT:?BeginModalState@CWnd@@UAEXXZ
	DD	FLAT:?EndModalState@CWnd@@UAEXXZ
	DD	FLAT:?PreTranslateMessage@CDlgCompSetup@@MAEHPAUtagMSG@@@Z
	DD	FLAT:?OnAmbientProperty@CWnd@@UAEHPAVCOleControlSite@@JPAUtagVARIANT@@@Z
	DD	FLAT:?WindowProc@CDlgCompSetup@@MAEJIIJ@Z
	DD	FLAT:?OnWndMsg@CWnd@@MAEHIIJPAJ@Z
	DD	FLAT:?DefWindowProcA@CWnd@@MAEJIIJ@Z
	DD	FLAT:?PostNcDestroy@CWnd@@MAEXXZ
	DD	FLAT:?OnChildNotify@CWnd@@MAEHIIJPAJ@Z
	DD	FLAT:?OnTouchInputs@CWnd@@MAEHIPAUtagTOUCHINPUT@@@Z
	DD	FLAT:?OnTouchInput@CWnd@@MAEHVCPoint@@HHPAUtagTOUCHINPUT@@@Z
	DD	FLAT:?GetGestureStatus@CWnd@@MAEKVCPoint@@@Z
	DD	FLAT:?OnGestureZoom@CWnd@@MAEHVCPoint@@J@Z
	DD	FLAT:?OnGesturePan@CWnd@@MAEHVCPoint@@0@Z
	DD	FLAT:?OnGestureRotate@CWnd@@MAEHVCPoint@@N@Z
	DD	FLAT:?OnGestureTwoFingerTap@CWnd@@MAEHVCPoint@@@Z
	DD	FLAT:?OnGesturePressAndTap@CWnd@@MAEHVCPoint@@J@Z
	DD	FLAT:?ResizeDynamicLayout@CWnd@@MAEXXZ
	DD	FLAT:?CheckAutoCenter@CDialog@@UAEHXZ
	DD	FLAT:?IsFrameWnd@CWnd@@UBEHXZ
	DD	FLAT:?CreateControlContainer@CWnd@@MAEHPAPAVCOleControlContainer@@@Z
	DD	FLAT:?CreateControlSite@CWnd@@MAEHPAVCOleControlContainer@@PAPAVCOleControlSite@@IABU_GUID@@@Z
	DD	FLAT:?SetOccDialogInfo@CDialog@@MAEHPAU_AFX_OCC_DIALOG_INFO@@@Z
	DD	FLAT:?GetOccDialogInfo@CDialog@@MAEPAU_AFX_OCC_DIALOG_INFO@@XZ
	DD	FLAT:?Create@CDialog@@UAEHIPAVCWnd@@@Z
	DD	FLAT:?Create@CDialog@@UAEHPBDPAVCWnd@@@Z
	DD	FLAT:?CreateIndirect@CDialog@@UAEHPAXPAVCWnd@@@Z
	DD	FLAT:?CreateIndirect@CDialog@@UAEHPBUDLGTEMPLATE@@PAVCWnd@@PAX@Z
	DD	FLAT:?DoModal@CDialog@@UAEHXZ
	DD	FLAT:?OnInitDialog@CDlgCompSetup@@MAEHXZ
	DD	FLAT:?OnSetFont@CDialog@@UAEXPAVCFont@@@Z
	DD	FLAT:?OnOK@CDialog@@MAEXXZ
	DD	FLAT:?OnCancel@CDialog@@MAEXXZ
	DD	FLAT:?PreInitDialog@CDialog@@MAEXXZ
CONST	ENDS
;	COMDAT ??_7CTLMCallback@CDlgCompSetup@@6B@
CONST	SEGMENT
??_7CTLMCallback@CDlgCompSetup@@6B@ DD FLAT:??_R4CTLMCallback@CDlgCompSetup@@6B@ ; CDlgCompSetup::CTLMCallback::`vftable'
	DD	FLAT:?ReceiveData@CTLMCallback@CDlgCompSetup@@EAGXHDJHPAX@Z
CONST	ENDS
;	COMDAT ??_C@_04CNJBKMPC@Call@
CONST	SEGMENT
??_C@_04CNJBKMPC@Call@ DB 'Call', 00H			; `string'
CONST	ENDS
;	COMDAT ??_C@_04HOGOKFCN@?$LP?y?$LJ?$LA@
CONST	SEGMENT
??_C@_04HOGOKFCN@?$LP?y?$LJ?$LA@ DB 0bfH, 0f9H, 0b9H, 0b0H, 00H ; `string'
CONST	ENDS
;	COMDAT ??_7?$CList@PAVCCallPutIMonthData@@PAV1@@@6B@
CONST	SEGMENT
??_7?$CList@PAVCCallPutIMonthData@@PAV1@@@6B@ DD FLAT:??_R4?$CList@PAVCCallPutIMonthData@@PAV1@@@6B@ ; CList<CCallPutIMonthData *,CCallPutIMonthData *>::`vftable'
	DD	FLAT:?GetRuntimeClass@CObject@@UBEPAUCRuntimeClass@@XZ
	DD	FLAT:??_E?$CList@PAVCCallPutIMonthData@@PAV1@@@UAEPAXI@Z
	DD	FLAT:?Serialize@?$CList@PAVCCallPutIMonthData@@PAV1@@@UAEXAAVCArchive@@@Z
	DD	FLAT:?AssertValid@CObject@@UBEXXZ
	DD	FLAT:?Dump@CObject@@UBEXAAVCDumpContext@@@Z
CONST	ENDS
;	COMDAT ??_7?$CList@PAVCCallPutItemData@@PAV1@@@6B@
CONST	SEGMENT
??_7?$CList@PAVCCallPutItemData@@PAV1@@@6B@ DD FLAT:??_R4?$CList@PAVCCallPutItemData@@PAV1@@@6B@ ; CList<CCallPutItemData *,CCallPutItemData *>::`vftable'
	DD	FLAT:?GetRuntimeClass@CObject@@UBEPAUCRuntimeClass@@XZ
	DD	FLAT:??_E?$CList@PAVCCallPutItemData@@PAV1@@@UAEPAXI@Z
	DD	FLAT:?Serialize@?$CList@PAVCCallPutItemData@@PAV1@@@UAEXAAVCArchive@@@Z
	DD	FLAT:?AssertValid@CObject@@UBEXXZ
	DD	FLAT:?Dump@CObject@@UBEXAAVCDumpContext@@@Z
CONST	ENDS
;	COMDAT ??_C@_01FAMBOPH@4@
CONST	SEGMENT
??_C@_01FAMBOPH@4@ DB '4', 00H				; `string'
CONST	ENDS
;	COMDAT ??_C@_01EKENIIDA@3@
CONST	SEGMENT
??_C@_01EKENIIDA@3@ DB '3', 00H				; `string'
CONST	ENDS
;	COMDAT ??_C@_01BMBHCPLG@5@
CONST	SEGMENT
??_C@_01BMBHCPLG@5@ DB '5', 00H				; `string'
CONST	ENDS
;	COMDAT ??_C@_01DHDKHMHF@6@
CONST	SEGMENT
??_C@_01DHDKHMHF@6@ DB '6', 00H				; `string'
CONST	ENDS
;	COMDAT ??_C@_01COCBENDE@7@
CONST	SEGMENT
??_C@_01COCBENDE@7@ DB '7', 00H				; `string'
CONST	ENDS
;	COMDAT ??_7CCodeTypeA@@6B@
CONST	SEGMENT
??_7CCodeTypeA@@6B@ DD FLAT:??_R4CCodeTypeA@@6B@	; CCodeTypeA::`vftable'
	DD	FLAT:?Convert@CCodeTypeA@@UAEXPAD@Z
	DD	FLAT:?Convert2@CCodeTypeA@@UAEXPAD@Z
	DD	FLAT:?ConvertOneClickData@CCodeTypeA@@UAEXPAD@Z
CONST	ENDS
;	COMDAT ??_C@_02IJKLNJNJ@?$KI?$OA@
CONST	SEGMENT
??_C@_02IJKLNJNJ@?$KI?$OA@ DB 0a8H, 0e0H, 00H		; `string'
CONST	ENDS
;	COMDAT ??_C@_02BJKMHJON@?$KI?W@
CONST	SEGMENT
??_C@_02BJKMHJON@?$KI?W@ DB 0a8H, 0d7H, 00H		; `string'
CONST	ENDS
;	COMDAT ??_C@_05KBKNOCPJ@?$CF2?42s@
CONST	SEGMENT
??_C@_05KBKNOCPJ@?$CF2?42s@ DB '%2.2s', 00H		; `string'
CONST	ENDS
;	COMDAT ??_7CCodeTypeBase@@6B@
CONST	SEGMENT
??_7CCodeTypeBase@@6B@ DD FLAT:??_R4CCodeTypeBase@@6B@	; CCodeTypeBase::`vftable'
	DD	FLAT:?Convert@CCodeTypeBase@@UAEXPAD@Z
	DD	FLAT:?Convert2@CCodeTypeBase@@UAEXPAD@Z
	DD	FLAT:?ConvertOneClickData@CCodeTypeBase@@UAEXPAD@Z
CONST	ENDS
;	COMDAT ??_C@_08KDNPGENH@TREELIST@
CONST	SEGMENT
??_C@_08KDNPGENH@TREELIST@ DB 'TREELIST', 00H		; `string'
CONST	ENDS
;	COMDAT ??_C@_02EMFKHFLK@?$CFX@
CONST	SEGMENT
??_C@_02EMFKHFLK@?$CFX@ DB '%X', 00H			; `string'
CONST	ENDS
;	COMDAT ??_C@_06NDLAHCHE@?$CFs?$CF08X@
CONST	SEGMENT
??_C@_06NDLAHCHE@?$CFs?$CF08X@ DB '%s%08X', 00H		; `string'
CONST	ENDS
;	COMDAT ??_C@_0P@IDMAJEGN@HANAROPCTRMAIN@
CONST	SEGMENT
??_C@_0P@IDMAJEGN@HANAROPCTRMAIN@ DB 'HANAROPCTRMAIN', 00H ; `string'
CONST	ENDS
;	COMDAT ??_C@_0M@CBBNGGHM@PcTrMng?4dll@
CONST	SEGMENT
??_C@_0M@CBBNGGHM@PcTrMng?4dll@ DB 'PcTrMng.dll', 00H	; `string'
CONST	ENDS
;	COMDAT ??_7?$CList@PAVCDlgCompGroupData@@PAV1@@@6B@
CONST	SEGMENT
??_7?$CList@PAVCDlgCompGroupData@@PAV1@@@6B@ DD FLAT:??_R4?$CList@PAVCDlgCompGroupData@@PAV1@@@6B@ ; CList<CDlgCompGroupData *,CDlgCompGroupData *>::`vftable'
	DD	FLAT:?GetRuntimeClass@CObject@@UBEPAUCRuntimeClass@@XZ
	DD	FLAT:??_E?$CList@PAVCDlgCompGroupData@@PAV1@@@UAEPAXI@Z
	DD	FLAT:?Serialize@?$CList@PAVCDlgCompGroupData@@PAV1@@@UAEXAAVCArchive@@@Z
	DD	FLAT:?AssertValid@CObject@@UBEXXZ
	DD	FLAT:?Dump@CObject@@UBEXAAVCDumpContext@@@Z
CONST	ENDS
;	COMDAT ??_7?$CList@PAVCDlgCompSubItem@@PAV1@@@6B@
CONST	SEGMENT
??_7?$CList@PAVCDlgCompSubItem@@PAV1@@@6B@ DD FLAT:??_R4?$CList@PAVCDlgCompSubItem@@PAV1@@@6B@ ; CList<CDlgCompSubItem *,CDlgCompSubItem *>::`vftable'
	DD	FLAT:?GetRuntimeClass@CObject@@UBEPAUCRuntimeClass@@XZ
	DD	FLAT:??_E?$CList@PAVCDlgCompSubItem@@PAV1@@@UAEPAXI@Z
	DD	FLAT:?Serialize@?$CList@PAVCDlgCompSubItem@@PAV1@@@UAEXAAVCArchive@@@Z
	DD	FLAT:?AssertValid@CObject@@UBEXXZ
	DD	FLAT:?Dump@CObject@@UBEXAAVCDumpContext@@@Z
CONST	ENDS
;	COMDAT ??_R1A@?0A@EA@CTreeCtrl@@8
rdata$r	SEGMENT
??_R1A@?0A@EA@CTreeCtrl@@8 DD FLAT:??_R0?AVCTreeCtrl@@@8 ; CTreeCtrl::`RTTI Base Class Descriptor at (0,-1,0,64)'
	DD	03H
	DD	00H
	DD	0ffffffffH
	DD	00H
	DD	040H
	DD	FLAT:??_R3CTreeCtrl@@8
rdata$r	ENDS
;	COMDAT ??_R2CTreeCtrl@@8
rdata$r	SEGMENT
??_R2CTreeCtrl@@8 DD FLAT:??_R1A@?0A@EA@CTreeCtrl@@8	; CTreeCtrl::`RTTI Base Class Array'
	DD	FLAT:??_R1A@?0A@EA@CWnd@@8
	DD	FLAT:??_R1A@?0A@EA@CCmdTarget@@8
	DD	FLAT:??_R1A@?0A@EA@CObject@@8
rdata$r	ENDS
;	COMDAT ??_R3CTreeCtrl@@8
rdata$r	SEGMENT
??_R3CTreeCtrl@@8 DD 00H				; CTreeCtrl::`RTTI Class Hierarchy Descriptor'
	DD	00H
	DD	04H
	DD	FLAT:??_R2CTreeCtrl@@8
rdata$r	ENDS
;	COMDAT ??_R0?AVCTreeCtrl@@@8
data$rs	SEGMENT
??_R0?AVCTreeCtrl@@@8 DD FLAT:??_7type_info@@6B@	; CTreeCtrl `RTTI Type Descriptor'
	DD	00H
	DB	'.?AVCTreeCtrl@@', 00H
data$rs	ENDS
;	COMDAT ??_R4CTreeCtrl@@6B@
rdata$r	SEGMENT
??_R4CTreeCtrl@@6B@ DD 00H				; CTreeCtrl::`RTTI Complete Object Locator'
	DD	00H
	DD	00H
	DD	FLAT:??_R0?AVCTreeCtrl@@@8
	DD	FLAT:??_R3CTreeCtrl@@8
rdata$r	ENDS
;	COMDAT ??_R1A@?0A@EA@CListCtrl@@8
rdata$r	SEGMENT
??_R1A@?0A@EA@CListCtrl@@8 DD FLAT:??_R0?AVCListCtrl@@@8 ; CListCtrl::`RTTI Base Class Descriptor at (0,-1,0,64)'
	DD	03H
	DD	00H
	DD	0ffffffffH
	DD	00H
	DD	040H
	DD	FLAT:??_R3CListCtrl@@8
rdata$r	ENDS
;	COMDAT ??_R2CListCtrl@@8
rdata$r	SEGMENT
??_R2CListCtrl@@8 DD FLAT:??_R1A@?0A@EA@CListCtrl@@8	; CListCtrl::`RTTI Base Class Array'
	DD	FLAT:??_R1A@?0A@EA@CWnd@@8
	DD	FLAT:??_R1A@?0A@EA@CCmdTarget@@8
	DD	FLAT:??_R1A@?0A@EA@CObject@@8
rdata$r	ENDS
;	COMDAT ??_R3CListCtrl@@8
rdata$r	SEGMENT
??_R3CListCtrl@@8 DD 00H				; CListCtrl::`RTTI Class Hierarchy Descriptor'
	DD	00H
	DD	04H
	DD	FLAT:??_R2CListCtrl@@8
rdata$r	ENDS
;	COMDAT ??_R0?AVCListCtrl@@@8
data$rs	SEGMENT
??_R0?AVCListCtrl@@@8 DD FLAT:??_7type_info@@6B@	; CListCtrl `RTTI Type Descriptor'
	DD	00H
	DB	'.?AVCListCtrl@@', 00H
data$rs	ENDS
;	COMDAT ??_R4CListCtrl@@6B@
rdata$r	SEGMENT
??_R4CListCtrl@@6B@ DD 00H				; CListCtrl::`RTTI Complete Object Locator'
	DD	00H
	DD	00H
	DD	FLAT:??_R0?AVCListCtrl@@@8
	DD	FLAT:??_R3CListCtrl@@8
rdata$r	ENDS
;	COMDAT ??_R2CDialog@@8
rdata$r	SEGMENT
??_R2CDialog@@8 DD FLAT:??_R1A@?0A@EA@CDialog@@8	; CDialog::`RTTI Base Class Array'
	DD	FLAT:??_R1A@?0A@EA@CWnd@@8
	DD	FLAT:??_R1A@?0A@EA@CCmdTarget@@8
	DD	FLAT:??_R1A@?0A@EA@CObject@@8
rdata$r	ENDS
;	COMDAT ??_R3CDialog@@8
rdata$r	SEGMENT
??_R3CDialog@@8 DD 00H					; CDialog::`RTTI Class Hierarchy Descriptor'
	DD	00H
	DD	04H
	DD	FLAT:??_R2CDialog@@8
rdata$r	ENDS
;	COMDAT ??_R0?AVCDialog@@@8
data$rs	SEGMENT
??_R0?AVCDialog@@@8 DD FLAT:??_7type_info@@6B@		; CDialog `RTTI Type Descriptor'
	DD	00H
	DB	'.?AVCDialog@@', 00H
data$rs	ENDS
;	COMDAT ??_R1A@?0A@EA@CDialog@@8
rdata$r	SEGMENT
??_R1A@?0A@EA@CDialog@@8 DD FLAT:??_R0?AVCDialog@@@8	; CDialog::`RTTI Base Class Descriptor at (0,-1,0,64)'
	DD	03H
	DD	00H
	DD	0ffffffffH
	DD	00H
	DD	040H
	DD	FLAT:??_R3CDialog@@8
rdata$r	ENDS
;	COMDAT ??_R1A@?0A@EA@CComboBox@@8
rdata$r	SEGMENT
??_R1A@?0A@EA@CComboBox@@8 DD FLAT:??_R0?AVCComboBox@@@8 ; CComboBox::`RTTI Base Class Descriptor at (0,-1,0,64)'
	DD	03H
	DD	00H
	DD	0ffffffffH
	DD	00H
	DD	040H
	DD	FLAT:??_R3CComboBox@@8
rdata$r	ENDS
;	COMDAT ??_R2CComboBox@@8
rdata$r	SEGMENT
??_R2CComboBox@@8 DD FLAT:??_R1A@?0A@EA@CComboBox@@8	; CComboBox::`RTTI Base Class Array'
	DD	FLAT:??_R1A@?0A@EA@CWnd@@8
	DD	FLAT:??_R1A@?0A@EA@CCmdTarget@@8
	DD	FLAT:??_R1A@?0A@EA@CObject@@8
rdata$r	ENDS
;	COMDAT ??_R3CComboBox@@8
rdata$r	SEGMENT
??_R3CComboBox@@8 DD 00H				; CComboBox::`RTTI Class Hierarchy Descriptor'
	DD	00H
	DD	04H
	DD	FLAT:??_R2CComboBox@@8
rdata$r	ENDS
;	COMDAT ??_R0?AVCComboBox@@@8
data$rs	SEGMENT
??_R0?AVCComboBox@@@8 DD FLAT:??_7type_info@@6B@	; CComboBox `RTTI Type Descriptor'
	DD	00H
	DB	'.?AVCComboBox@@', 00H
data$rs	ENDS
;	COMDAT ??_R4CComboBox@@6B@
rdata$r	SEGMENT
??_R4CComboBox@@6B@ DD 00H				; CComboBox::`RTTI Complete Object Locator'
	DD	00H
	DD	00H
	DD	FLAT:??_R0?AVCComboBox@@@8
	DD	FLAT:??_R3CComboBox@@8
rdata$r	ENDS
;	COMDAT ??_R1A@?0A@EA@CListBox@@8
rdata$r	SEGMENT
??_R1A@?0A@EA@CListBox@@8 DD FLAT:??_R0?AVCListBox@@@8	; CListBox::`RTTI Base Class Descriptor at (0,-1,0,64)'
	DD	03H
	DD	00H
	DD	0ffffffffH
	DD	00H
	DD	040H
	DD	FLAT:??_R3CListBox@@8
rdata$r	ENDS
;	COMDAT ??_R2CListBox@@8
rdata$r	SEGMENT
??_R2CListBox@@8 DD FLAT:??_R1A@?0A@EA@CListBox@@8	; CListBox::`RTTI Base Class Array'
	DD	FLAT:??_R1A@?0A@EA@CWnd@@8
	DD	FLAT:??_R1A@?0A@EA@CCmdTarget@@8
	DD	FLAT:??_R1A@?0A@EA@CObject@@8
rdata$r	ENDS
;	COMDAT ??_R3CListBox@@8
rdata$r	SEGMENT
??_R3CListBox@@8 DD 00H					; CListBox::`RTTI Class Hierarchy Descriptor'
	DD	00H
	DD	04H
	DD	FLAT:??_R2CListBox@@8
rdata$r	ENDS
;	COMDAT ??_R0?AVCListBox@@@8
data$rs	SEGMENT
??_R0?AVCListBox@@@8 DD FLAT:??_7type_info@@6B@		; CListBox `RTTI Type Descriptor'
	DD	00H
	DB	'.?AVCListBox@@', 00H
data$rs	ENDS
;	COMDAT ??_R4CListBox@@6B@
rdata$r	SEGMENT
??_R4CListBox@@6B@ DD 00H				; CListBox::`RTTI Complete Object Locator'
	DD	00H
	DD	00H
	DD	FLAT:??_R0?AVCListBox@@@8
	DD	FLAT:??_R3CListBox@@8
rdata$r	ENDS
;	COMDAT ??_R2CCmdTarget@@8
rdata$r	SEGMENT
??_R2CCmdTarget@@8 DD FLAT:??_R1A@?0A@EA@CCmdTarget@@8	; CCmdTarget::`RTTI Base Class Array'
	DD	FLAT:??_R1A@?0A@EA@CObject@@8
rdata$r	ENDS
;	COMDAT ??_R3CCmdTarget@@8
rdata$r	SEGMENT
??_R3CCmdTarget@@8 DD 00H				; CCmdTarget::`RTTI Class Hierarchy Descriptor'
	DD	00H
	DD	02H
	DD	FLAT:??_R2CCmdTarget@@8
rdata$r	ENDS
;	COMDAT ??_R0?AVCCmdTarget@@@8
data$rs	SEGMENT
??_R0?AVCCmdTarget@@@8 DD FLAT:??_7type_info@@6B@	; CCmdTarget `RTTI Type Descriptor'
	DD	00H
	DB	'.?AVCCmdTarget@@', 00H
data$rs	ENDS
;	COMDAT ??_R1A@?0A@EA@CCmdTarget@@8
rdata$r	SEGMENT
??_R1A@?0A@EA@CCmdTarget@@8 DD FLAT:??_R0?AVCCmdTarget@@@8 ; CCmdTarget::`RTTI Base Class Descriptor at (0,-1,0,64)'
	DD	01H
	DD	00H
	DD	0ffffffffH
	DD	00H
	DD	040H
	DD	FLAT:??_R3CCmdTarget@@8
rdata$r	ENDS
;	COMDAT ??_R2CWnd@@8
rdata$r	SEGMENT
??_R2CWnd@@8 DD	FLAT:??_R1A@?0A@EA@CWnd@@8		; CWnd::`RTTI Base Class Array'
	DD	FLAT:??_R1A@?0A@EA@CCmdTarget@@8
	DD	FLAT:??_R1A@?0A@EA@CObject@@8
rdata$r	ENDS
;	COMDAT ??_R3CWnd@@8
rdata$r	SEGMENT
??_R3CWnd@@8 DD	00H					; CWnd::`RTTI Class Hierarchy Descriptor'
	DD	00H
	DD	03H
	DD	FLAT:??_R2CWnd@@8
rdata$r	ENDS
;	COMDAT ??_R0?AVCWnd@@@8
data$rs	SEGMENT
??_R0?AVCWnd@@@8 DD FLAT:??_7type_info@@6B@		; CWnd `RTTI Type Descriptor'
	DD	00H
	DB	'.?AVCWnd@@', 00H
data$rs	ENDS
;	COMDAT ??_R1A@?0A@EA@CWnd@@8
rdata$r	SEGMENT
??_R1A@?0A@EA@CWnd@@8 DD FLAT:??_R0?AVCWnd@@@8		; CWnd::`RTTI Base Class Descriptor at (0,-1,0,64)'
	DD	02H
	DD	00H
	DD	0ffffffffH
	DD	00H
	DD	040H
	DD	FLAT:??_R3CWnd@@8
rdata$r	ENDS
;	COMDAT ??_R1A@?0A@EA@CObject@@8
rdata$r	SEGMENT
??_R1A@?0A@EA@CObject@@8 DD FLAT:??_R0?AVCObject@@@8	; CObject::`RTTI Base Class Descriptor at (0,-1,0,64)'
	DD	00H
	DD	00H
	DD	0ffffffffH
	DD	00H
	DD	040H
	DD	FLAT:??_R3CObject@@8
rdata$r	ENDS
;	COMDAT ??_R2CObject@@8
rdata$r	SEGMENT
??_R2CObject@@8 DD FLAT:??_R1A@?0A@EA@CObject@@8	; CObject::`RTTI Base Class Array'
rdata$r	ENDS
;	COMDAT ??_R3CObject@@8
rdata$r	SEGMENT
??_R3CObject@@8 DD 00H					; CObject::`RTTI Class Hierarchy Descriptor'
	DD	00H
	DD	01H
	DD	FLAT:??_R2CObject@@8
rdata$r	ENDS
;	COMDAT ??_R0?AVCObject@@@8
data$rs	SEGMENT
??_R0?AVCObject@@@8 DD FLAT:??_7type_info@@6B@		; CObject `RTTI Type Descriptor'
	DD	00H
	DB	'.?AVCObject@@', 00H
data$rs	ENDS
;	COMDAT ??_7CTreeCtrl@@6B@
CONST	SEGMENT
??_7CTreeCtrl@@6B@ DD FLAT:??_R4CTreeCtrl@@6B@		; CTreeCtrl::`vftable'
	DD	FLAT:?GetRuntimeClass@CTreeCtrl@@UBEPAUCRuntimeClass@@XZ
	DD	FLAT:??_ECTreeCtrl@@UAEPAXI@Z
	DD	FLAT:?Serialize@CObject@@UAEXAAVCArchive@@@Z
	DD	FLAT:?AssertValid@CObject@@UBEXXZ
	DD	FLAT:?Dump@CObject@@UBEXAAVCDumpContext@@@Z
	DD	FLAT:?OnCmdMsg@CCmdTarget@@UAEHIHPAXPAUAFX_CMDHANDLERINFO@@@Z
	DD	FLAT:?OnFinalRelease@CWnd@@UAEXXZ
	DD	FLAT:?IsInvokeAllowed@CCmdTarget@@UAEHJ@Z
	DD	FLAT:?GetDispatchIID@CCmdTarget@@UAEHPAU_GUID@@@Z
	DD	FLAT:?GetTypeInfoCount@CCmdTarget@@UAEIXZ
	DD	FLAT:?GetTypeLibCache@CCmdTarget@@UAEPAVCTypeLibCache@@XZ
	DD	FLAT:?GetTypeLib@CCmdTarget@@UAEJKPAPAUITypeLib@@@Z
	DD	FLAT:?GetMessageMap@CTreeCtrl@@MBEPBUAFX_MSGMAP@@XZ
	DD	FLAT:?GetCommandMap@CCmdTarget@@MBEPBUAFX_OLECMDMAP@@XZ
	DD	FLAT:?GetDispatchMap@CCmdTarget@@MBEPBUAFX_DISPMAP@@XZ
	DD	FLAT:?GetConnectionMap@CCmdTarget@@MBEPBUAFX_CONNECTIONMAP@@XZ
	DD	FLAT:?GetInterfaceMap@CWnd@@MBEPBUAFX_INTERFACEMAP@@XZ
	DD	FLAT:?GetEventSinkMap@CCmdTarget@@MBEPBUAFX_EVENTSINKMAP@@XZ
	DD	FLAT:?OnCreateAggregates@CCmdTarget@@UAEHXZ
	DD	FLAT:?GetInterfaceHook@CCmdTarget@@UAEPAUIUnknown@@PBX@Z
	DD	FLAT:?GetExtraConnectionPoints@CCmdTarget@@MAEHPAVCPtrArray@@@Z
	DD	FLAT:?GetConnectionHook@CCmdTarget@@MAEPAUIConnectionPoint@@ABU_GUID@@@Z
	DD	FLAT:?PreSubclassWindow@CWnd@@UAEXXZ
	DD	FLAT:?Create@CWnd@@UAEHPBD0KABUtagRECT@@PAV1@IPAUCCreateContext@@@Z
	DD	FLAT:?CreateEx@CWnd@@UAEHKPBD0KABUtagRECT@@PAV1@IPAX@Z
	DD	FLAT:?CreateEx@CWnd@@UAEHKPBD0KHHHHPAUHWND__@@PAUHMENU__@@PAX@Z
	DD	FLAT:?DestroyWindow@CWnd@@UAEHXZ
	DD	FLAT:?PreCreateWindow@CWnd@@UAEHAAUtagCREATESTRUCTA@@@Z
	DD	FLAT:?CalcWindowRect@CWnd@@UAEXPAUtagRECT@@I@Z
	DD	FLAT:?GetMenu@CWnd@@UBEPAVCMenu@@XZ
	DD	FLAT:?SetMenu@CWnd@@UAEHPAVCMenu@@@Z
	DD	FLAT:?OnToolHitTest@CWnd@@UBEHVCPoint@@PAUtagTOOLINFOA@@@Z
	DD	FLAT:?GetScrollBarCtrl@CWnd@@UBEPAVCScrollBar@@H@Z
	DD	FLAT:?WinHelpA@CWnd@@UAEXKI@Z
	DD	FLAT:?HtmlHelpA@CWnd@@UAEXKI@Z
	DD	FLAT:?WinHelpInternal@CWnd@@UAEXKI@Z
	DD	FLAT:?ContinueModal@CWnd@@UAEHXZ
	DD	FLAT:?EndModalLoop@CWnd@@UAEXH@Z
	DD	FLAT:?OnDrawIconicThumbnailOrLivePreview@CWnd@@UAEXAAVCDC@@VCRect@@VCSize@@HAAH@Z
	DD	FLAT:?EnsureStdObj@CWnd@@UAEJXZ
	DD	FLAT:?get_accParent@CWnd@@UAEJPAPAUIDispatch@@@Z
	DD	FLAT:?get_accChildCount@CWnd@@UAEJPAJ@Z
	DD	FLAT:?get_accChild@CWnd@@UAEJUtagVARIANT@@PAPAUIDispatch@@@Z
	DD	FLAT:?get_accName@CWnd@@UAEJUtagVARIANT@@PAPA_W@Z
	DD	FLAT:?get_accValue@CWnd@@UAEJUtagVARIANT@@PAPA_W@Z
	DD	FLAT:?get_accDescription@CWnd@@UAEJUtagVARIANT@@PAPA_W@Z
	DD	FLAT:?get_accRole@CWnd@@UAEJUtagVARIANT@@PAU2@@Z
	DD	FLAT:?get_accState@CWnd@@UAEJUtagVARIANT@@PAU2@@Z
	DD	FLAT:?get_accHelp@CWnd@@UAEJUtagVARIANT@@PAPA_W@Z
	DD	FLAT:?get_accHelpTopic@CWnd@@UAEJPAPA_WUtagVARIANT@@PAJ@Z
	DD	FLAT:?get_accKeyboardShortcut@CWnd@@UAEJUtagVARIANT@@PAPA_W@Z
	DD	FLAT:?get_accFocus@CWnd@@UAEJPAUtagVARIANT@@@Z
	DD	FLAT:?get_accSelection@CWnd@@UAEJPAUtagVARIANT@@@Z
	DD	FLAT:?get_accDefaultAction@CWnd@@UAEJUtagVARIANT@@PAPA_W@Z
	DD	FLAT:?accSelect@CWnd@@UAEJJUtagVARIANT@@@Z
	DD	FLAT:?accLocation@CWnd@@UAEJPAJ000UtagVARIANT@@@Z
	DD	FLAT:?accNavigate@CWnd@@UAEJJUtagVARIANT@@PAU2@@Z
	DD	FLAT:?accHitTest@CWnd@@UAEJJJPAUtagVARIANT@@@Z
	DD	FLAT:?accDoDefaultAction@CWnd@@UAEJUtagVARIANT@@@Z
	DD	FLAT:?put_accName@CWnd@@UAEJUtagVARIANT@@PA_W@Z
	DD	FLAT:?put_accValue@CWnd@@UAEJUtagVARIANT@@PA_W@Z
	DD	FLAT:?SetProxy@CWnd@@UAEJPAUIAccessibleProxy@@@Z
	DD	FLAT:?CreateAccessibleProxy@CWnd@@UAEJIJPAJ@Z
	DD	FLAT:?OnCommand@CWnd@@MAEHIJ@Z
	DD	FLAT:?OnNotify@CWnd@@MAEHIJPAJ@Z
	DD	FLAT:?GetSuperWndProcAddr@CWnd@@MAEPAP6GJPAUHWND__@@IIJ@ZXZ
	DD	FLAT:?DoDataExchange@CWnd@@MAEXPAVCDataExchange@@@Z
	DD	FLAT:?BeginModalState@CWnd@@UAEXXZ
	DD	FLAT:?EndModalState@CWnd@@UAEXXZ
	DD	FLAT:?PreTranslateMessage@CWnd@@UAEHPAUtagMSG@@@Z
	DD	FLAT:?OnAmbientProperty@CWnd@@UAEHPAVCOleControlSite@@JPAUtagVARIANT@@@Z
	DD	FLAT:?WindowProc@CWnd@@MAEJIIJ@Z
	DD	FLAT:?OnWndMsg@CWnd@@MAEHIIJPAJ@Z
	DD	FLAT:?DefWindowProcA@CWnd@@MAEJIIJ@Z
	DD	FLAT:?PostNcDestroy@CWnd@@MAEXXZ
	DD	FLAT:?OnChildNotify@CWnd@@MAEHIIJPAJ@Z
	DD	FLAT:?OnTouchInputs@CWnd@@MAEHIPAUtagTOUCHINPUT@@@Z
	DD	FLAT:?OnTouchInput@CWnd@@MAEHVCPoint@@HHPAUtagTOUCHINPUT@@@Z
	DD	FLAT:?GetGestureStatus@CWnd@@MAEKVCPoint@@@Z
	DD	FLAT:?OnGestureZoom@CWnd@@MAEHVCPoint@@J@Z
	DD	FLAT:?OnGesturePan@CWnd@@MAEHVCPoint@@0@Z
	DD	FLAT:?OnGestureRotate@CWnd@@MAEHVCPoint@@N@Z
	DD	FLAT:?OnGestureTwoFingerTap@CWnd@@MAEHVCPoint@@@Z
	DD	FLAT:?OnGesturePressAndTap@CWnd@@MAEHVCPoint@@J@Z
	DD	FLAT:?ResizeDynamicLayout@CWnd@@MAEXXZ
	DD	FLAT:?CheckAutoCenter@CWnd@@UAEHXZ
	DD	FLAT:?IsFrameWnd@CWnd@@UBEHXZ
	DD	FLAT:?CreateControlContainer@CWnd@@MAEHPAPAVCOleControlContainer@@@Z
	DD	FLAT:?CreateControlSite@CWnd@@MAEHPAVCOleControlContainer@@PAPAVCOleControlSite@@IABU_GUID@@@Z
	DD	FLAT:?SetOccDialogInfo@CWnd@@MAEHPAU_AFX_OCC_DIALOG_INFO@@@Z
	DD	FLAT:?GetOccDialogInfo@CWnd@@MAEPAU_AFX_OCC_DIALOG_INFO@@XZ
CONST	ENDS
;	COMDAT ??_7CListCtrl@@6B@
CONST	SEGMENT
??_7CListCtrl@@6B@ DD FLAT:??_R4CListCtrl@@6B@		; CListCtrl::`vftable'
	DD	FLAT:?GetRuntimeClass@CListCtrl@@UBEPAUCRuntimeClass@@XZ
	DD	FLAT:??_ECListCtrl@@UAEPAXI@Z
	DD	FLAT:?Serialize@CObject@@UAEXAAVCArchive@@@Z
	DD	FLAT:?AssertValid@CObject@@UBEXXZ
	DD	FLAT:?Dump@CObject@@UBEXAAVCDumpContext@@@Z
	DD	FLAT:?OnCmdMsg@CCmdTarget@@UAEHIHPAXPAUAFX_CMDHANDLERINFO@@@Z
	DD	FLAT:?OnFinalRelease@CWnd@@UAEXXZ
	DD	FLAT:?IsInvokeAllowed@CCmdTarget@@UAEHJ@Z
	DD	FLAT:?GetDispatchIID@CCmdTarget@@UAEHPAU_GUID@@@Z
	DD	FLAT:?GetTypeInfoCount@CCmdTarget@@UAEIXZ
	DD	FLAT:?GetTypeLibCache@CCmdTarget@@UAEPAVCTypeLibCache@@XZ
	DD	FLAT:?GetTypeLib@CCmdTarget@@UAEJKPAPAUITypeLib@@@Z
	DD	FLAT:?GetMessageMap@CListCtrl@@MBEPBUAFX_MSGMAP@@XZ
	DD	FLAT:?GetCommandMap@CCmdTarget@@MBEPBUAFX_OLECMDMAP@@XZ
	DD	FLAT:?GetDispatchMap@CCmdTarget@@MBEPBUAFX_DISPMAP@@XZ
	DD	FLAT:?GetConnectionMap@CCmdTarget@@MBEPBUAFX_CONNECTIONMAP@@XZ
	DD	FLAT:?GetInterfaceMap@CWnd@@MBEPBUAFX_INTERFACEMAP@@XZ
	DD	FLAT:?GetEventSinkMap@CCmdTarget@@MBEPBUAFX_EVENTSINKMAP@@XZ
	DD	FLAT:?OnCreateAggregates@CCmdTarget@@UAEHXZ
	DD	FLAT:?GetInterfaceHook@CCmdTarget@@UAEPAUIUnknown@@PBX@Z
	DD	FLAT:?GetExtraConnectionPoints@CCmdTarget@@MAEHPAVCPtrArray@@@Z
	DD	FLAT:?GetConnectionHook@CCmdTarget@@MAEPAUIConnectionPoint@@ABU_GUID@@@Z
	DD	FLAT:?PreSubclassWindow@CWnd@@UAEXXZ
	DD	FLAT:?Create@CWnd@@UAEHPBD0KABUtagRECT@@PAV1@IPAUCCreateContext@@@Z
	DD	FLAT:?CreateEx@CWnd@@UAEHKPBD0KABUtagRECT@@PAV1@IPAX@Z
	DD	FLAT:?CreateEx@CWnd@@UAEHKPBD0KHHHHPAUHWND__@@PAUHMENU__@@PAX@Z
	DD	FLAT:?DestroyWindow@CWnd@@UAEHXZ
	DD	FLAT:?PreCreateWindow@CWnd@@UAEHAAUtagCREATESTRUCTA@@@Z
	DD	FLAT:?CalcWindowRect@CWnd@@UAEXPAUtagRECT@@I@Z
	DD	FLAT:?GetMenu@CWnd@@UBEPAVCMenu@@XZ
	DD	FLAT:?SetMenu@CWnd@@UAEHPAVCMenu@@@Z
	DD	FLAT:?OnToolHitTest@CWnd@@UBEHVCPoint@@PAUtagTOOLINFOA@@@Z
	DD	FLAT:?GetScrollBarCtrl@CWnd@@UBEPAVCScrollBar@@H@Z
	DD	FLAT:?WinHelpA@CWnd@@UAEXKI@Z
	DD	FLAT:?HtmlHelpA@CWnd@@UAEXKI@Z
	DD	FLAT:?WinHelpInternal@CWnd@@UAEXKI@Z
	DD	FLAT:?ContinueModal@CWnd@@UAEHXZ
	DD	FLAT:?EndModalLoop@CWnd@@UAEXH@Z
	DD	FLAT:?OnDrawIconicThumbnailOrLivePreview@CWnd@@UAEXAAVCDC@@VCRect@@VCSize@@HAAH@Z
	DD	FLAT:?EnsureStdObj@CWnd@@UAEJXZ
	DD	FLAT:?get_accParent@CWnd@@UAEJPAPAUIDispatch@@@Z
	DD	FLAT:?get_accChildCount@CWnd@@UAEJPAJ@Z
	DD	FLAT:?get_accChild@CWnd@@UAEJUtagVARIANT@@PAPAUIDispatch@@@Z
	DD	FLAT:?get_accName@CWnd@@UAEJUtagVARIANT@@PAPA_W@Z
	DD	FLAT:?get_accValue@CWnd@@UAEJUtagVARIANT@@PAPA_W@Z
	DD	FLAT:?get_accDescription@CWnd@@UAEJUtagVARIANT@@PAPA_W@Z
	DD	FLAT:?get_accRole@CWnd@@UAEJUtagVARIANT@@PAU2@@Z
	DD	FLAT:?get_accState@CWnd@@UAEJUtagVARIANT@@PAU2@@Z
	DD	FLAT:?get_accHelp@CWnd@@UAEJUtagVARIANT@@PAPA_W@Z
	DD	FLAT:?get_accHelpTopic@CWnd@@UAEJPAPA_WUtagVARIANT@@PAJ@Z
	DD	FLAT:?get_accKeyboardShortcut@CWnd@@UAEJUtagVARIANT@@PAPA_W@Z
	DD	FLAT:?get_accFocus@CWnd@@UAEJPAUtagVARIANT@@@Z
	DD	FLAT:?get_accSelection@CWnd@@UAEJPAUtagVARIANT@@@Z
	DD	FLAT:?get_accDefaultAction@CWnd@@UAEJUtagVARIANT@@PAPA_W@Z
	DD	FLAT:?accSelect@CWnd@@UAEJJUtagVARIANT@@@Z
	DD	FLAT:?accLocation@CWnd@@UAEJPAJ000UtagVARIANT@@@Z
	DD	FLAT:?accNavigate@CWnd@@UAEJJUtagVARIANT@@PAU2@@Z
	DD	FLAT:?accHitTest@CWnd@@UAEJJJPAUtagVARIANT@@@Z
	DD	FLAT:?accDoDefaultAction@CWnd@@UAEJUtagVARIANT@@@Z
	DD	FLAT:?put_accName@CWnd@@UAEJUtagVARIANT@@PA_W@Z
	DD	FLAT:?put_accValue@CWnd@@UAEJUtagVARIANT@@PA_W@Z
	DD	FLAT:?SetProxy@CWnd@@UAEJPAUIAccessibleProxy@@@Z
	DD	FLAT:?CreateAccessibleProxy@CWnd@@UAEJIJPAJ@Z
	DD	FLAT:?OnCommand@CWnd@@MAEHIJ@Z
	DD	FLAT:?OnNotify@CWnd@@MAEHIJPAJ@Z
	DD	FLAT:?GetSuperWndProcAddr@CWnd@@MAEPAP6GJPAUHWND__@@IIJ@ZXZ
	DD	FLAT:?DoDataExchange@CWnd@@MAEXPAVCDataExchange@@@Z
	DD	FLAT:?BeginModalState@CWnd@@UAEXXZ
	DD	FLAT:?EndModalState@CWnd@@UAEXXZ
	DD	FLAT:?PreTranslateMessage@CWnd@@UAEHPAUtagMSG@@@Z
	DD	FLAT:?OnAmbientProperty@CWnd@@UAEHPAVCOleControlSite@@JPAUtagVARIANT@@@Z
	DD	FLAT:?WindowProc@CWnd@@MAEJIIJ@Z
	DD	FLAT:?OnWndMsg@CWnd@@MAEHIIJPAJ@Z
	DD	FLAT:?DefWindowProcA@CWnd@@MAEJIIJ@Z
	DD	FLAT:?PostNcDestroy@CWnd@@MAEXXZ
	DD	FLAT:?OnChildNotify@CListCtrl@@MAEHIIJPAJ@Z
	DD	FLAT:?OnTouchInputs@CWnd@@MAEHIPAUtagTOUCHINPUT@@@Z
	DD	FLAT:?OnTouchInput@CWnd@@MAEHVCPoint@@HHPAUtagTOUCHINPUT@@@Z
	DD	FLAT:?GetGestureStatus@CWnd@@MAEKVCPoint@@@Z
	DD	FLAT:?OnGestureZoom@CWnd@@MAEHVCPoint@@J@Z
	DD	FLAT:?OnGesturePan@CWnd@@MAEHVCPoint@@0@Z
	DD	FLAT:?OnGestureRotate@CWnd@@MAEHVCPoint@@N@Z
	DD	FLAT:?OnGestureTwoFingerTap@CWnd@@MAEHVCPoint@@@Z
	DD	FLAT:?OnGesturePressAndTap@CWnd@@MAEHVCPoint@@J@Z
	DD	FLAT:?ResizeDynamicLayout@CWnd@@MAEXXZ
	DD	FLAT:?CheckAutoCenter@CWnd@@UAEHXZ
	DD	FLAT:?IsFrameWnd@CWnd@@UBEHXZ
	DD	FLAT:?CreateControlContainer@CWnd@@MAEHPAPAVCOleControlContainer@@@Z
	DD	FLAT:?CreateControlSite@CWnd@@MAEHPAVCOleControlContainer@@PAPAVCOleControlSite@@IABU_GUID@@@Z
	DD	FLAT:?SetOccDialogInfo@CWnd@@MAEHPAU_AFX_OCC_DIALOG_INFO@@@Z
	DD	FLAT:?GetOccDialogInfo@CWnd@@MAEPAU_AFX_OCC_DIALOG_INFO@@XZ
	DD	FLAT:?DrawItem@CListCtrl@@UAEXPAUtagDRAWITEMSTRUCT@@@Z
CONST	ENDS
;	COMDAT ??_7CComboBox@@6B@
CONST	SEGMENT
??_7CComboBox@@6B@ DD FLAT:??_R4CComboBox@@6B@		; CComboBox::`vftable'
	DD	FLAT:?GetRuntimeClass@CComboBox@@UBEPAUCRuntimeClass@@XZ
	DD	FLAT:??_ECComboBox@@UAEPAXI@Z
	DD	FLAT:?Serialize@CObject@@UAEXAAVCArchive@@@Z
	DD	FLAT:?AssertValid@CObject@@UBEXXZ
	DD	FLAT:?Dump@CObject@@UBEXAAVCDumpContext@@@Z
	DD	FLAT:?OnCmdMsg@CCmdTarget@@UAEHIHPAXPAUAFX_CMDHANDLERINFO@@@Z
	DD	FLAT:?OnFinalRelease@CWnd@@UAEXXZ
	DD	FLAT:?IsInvokeAllowed@CCmdTarget@@UAEHJ@Z
	DD	FLAT:?GetDispatchIID@CCmdTarget@@UAEHPAU_GUID@@@Z
	DD	FLAT:?GetTypeInfoCount@CCmdTarget@@UAEIXZ
	DD	FLAT:?GetTypeLibCache@CCmdTarget@@UAEPAVCTypeLibCache@@XZ
	DD	FLAT:?GetTypeLib@CCmdTarget@@UAEJKPAPAUITypeLib@@@Z
	DD	FLAT:?GetMessageMap@CWnd@@MBEPBUAFX_MSGMAP@@XZ
	DD	FLAT:?GetCommandMap@CCmdTarget@@MBEPBUAFX_OLECMDMAP@@XZ
	DD	FLAT:?GetDispatchMap@CCmdTarget@@MBEPBUAFX_DISPMAP@@XZ
	DD	FLAT:?GetConnectionMap@CCmdTarget@@MBEPBUAFX_CONNECTIONMAP@@XZ
	DD	FLAT:?GetInterfaceMap@CWnd@@MBEPBUAFX_INTERFACEMAP@@XZ
	DD	FLAT:?GetEventSinkMap@CCmdTarget@@MBEPBUAFX_EVENTSINKMAP@@XZ
	DD	FLAT:?OnCreateAggregates@CCmdTarget@@UAEHXZ
	DD	FLAT:?GetInterfaceHook@CCmdTarget@@UAEPAUIUnknown@@PBX@Z
	DD	FLAT:?GetExtraConnectionPoints@CCmdTarget@@MAEHPAVCPtrArray@@@Z
	DD	FLAT:?GetConnectionHook@CCmdTarget@@MAEPAUIConnectionPoint@@ABU_GUID@@@Z
	DD	FLAT:?PreSubclassWindow@CWnd@@UAEXXZ
	DD	FLAT:?Create@CWnd@@UAEHPBD0KABUtagRECT@@PAV1@IPAUCCreateContext@@@Z
	DD	FLAT:?CreateEx@CWnd@@UAEHKPBD0KABUtagRECT@@PAV1@IPAX@Z
	DD	FLAT:?CreateEx@CWnd@@UAEHKPBD0KHHHHPAUHWND__@@PAUHMENU__@@PAX@Z
	DD	FLAT:?DestroyWindow@CWnd@@UAEHXZ
	DD	FLAT:?PreCreateWindow@CWnd@@UAEHAAUtagCREATESTRUCTA@@@Z
	DD	FLAT:?CalcWindowRect@CWnd@@UAEXPAUtagRECT@@I@Z
	DD	FLAT:?GetMenu@CWnd@@UBEPAVCMenu@@XZ
	DD	FLAT:?SetMenu@CWnd@@UAEHPAVCMenu@@@Z
	DD	FLAT:?OnToolHitTest@CWnd@@UBEHVCPoint@@PAUtagTOOLINFOA@@@Z
	DD	FLAT:?GetScrollBarCtrl@CWnd@@UBEPAVCScrollBar@@H@Z
	DD	FLAT:?WinHelpA@CWnd@@UAEXKI@Z
	DD	FLAT:?HtmlHelpA@CWnd@@UAEXKI@Z
	DD	FLAT:?WinHelpInternal@CWnd@@UAEXKI@Z
	DD	FLAT:?ContinueModal@CWnd@@UAEHXZ
	DD	FLAT:?EndModalLoop@CWnd@@UAEXH@Z
	DD	FLAT:?OnDrawIconicThumbnailOrLivePreview@CWnd@@UAEXAAVCDC@@VCRect@@VCSize@@HAAH@Z
	DD	FLAT:?EnsureStdObj@CWnd@@UAEJXZ
	DD	FLAT:?get_accParent@CWnd@@UAEJPAPAUIDispatch@@@Z
	DD	FLAT:?get_accChildCount@CWnd@@UAEJPAJ@Z
	DD	FLAT:?get_accChild@CWnd@@UAEJUtagVARIANT@@PAPAUIDispatch@@@Z
	DD	FLAT:?get_accName@CWnd@@UAEJUtagVARIANT@@PAPA_W@Z
	DD	FLAT:?get_accValue@CWnd@@UAEJUtagVARIANT@@PAPA_W@Z
	DD	FLAT:?get_accDescription@CWnd@@UAEJUtagVARIANT@@PAPA_W@Z
	DD	FLAT:?get_accRole@CWnd@@UAEJUtagVARIANT@@PAU2@@Z
	DD	FLAT:?get_accState@CWnd@@UAEJUtagVARIANT@@PAU2@@Z
	DD	FLAT:?get_accHelp@CWnd@@UAEJUtagVARIANT@@PAPA_W@Z
	DD	FLAT:?get_accHelpTopic@CWnd@@UAEJPAPA_WUtagVARIANT@@PAJ@Z
	DD	FLAT:?get_accKeyboardShortcut@CWnd@@UAEJUtagVARIANT@@PAPA_W@Z
	DD	FLAT:?get_accFocus@CWnd@@UAEJPAUtagVARIANT@@@Z
	DD	FLAT:?get_accSelection@CWnd@@UAEJPAUtagVARIANT@@@Z
	DD	FLAT:?get_accDefaultAction@CWnd@@UAEJUtagVARIANT@@PAPA_W@Z
	DD	FLAT:?accSelect@CWnd@@UAEJJUtagVARIANT@@@Z
	DD	FLAT:?accLocation@CWnd@@UAEJPAJ000UtagVARIANT@@@Z
	DD	FLAT:?accNavigate@CWnd@@UAEJJUtagVARIANT@@PAU2@@Z
	DD	FLAT:?accHitTest@CWnd@@UAEJJJPAUtagVARIANT@@@Z
	DD	FLAT:?accDoDefaultAction@CWnd@@UAEJUtagVARIANT@@@Z
	DD	FLAT:?put_accName@CWnd@@UAEJUtagVARIANT@@PA_W@Z
	DD	FLAT:?put_accValue@CWnd@@UAEJUtagVARIANT@@PA_W@Z
	DD	FLAT:?SetProxy@CWnd@@UAEJPAUIAccessibleProxy@@@Z
	DD	FLAT:?CreateAccessibleProxy@CWnd@@UAEJIJPAJ@Z
	DD	FLAT:?OnCommand@CWnd@@MAEHIJ@Z
	DD	FLAT:?OnNotify@CWnd@@MAEHIJPAJ@Z
	DD	FLAT:?GetSuperWndProcAddr@CWnd@@MAEPAP6GJPAUHWND__@@IIJ@ZXZ
	DD	FLAT:?DoDataExchange@CWnd@@MAEXPAVCDataExchange@@@Z
	DD	FLAT:?BeginModalState@CWnd@@UAEXXZ
	DD	FLAT:?EndModalState@CWnd@@UAEXXZ
	DD	FLAT:?PreTranslateMessage@CWnd@@UAEHPAUtagMSG@@@Z
	DD	FLAT:?OnAmbientProperty@CWnd@@UAEHPAVCOleControlSite@@JPAUtagVARIANT@@@Z
	DD	FLAT:?WindowProc@CWnd@@MAEJIIJ@Z
	DD	FLAT:?OnWndMsg@CWnd@@MAEHIIJPAJ@Z
	DD	FLAT:?DefWindowProcA@CWnd@@MAEJIIJ@Z
	DD	FLAT:?PostNcDestroy@CWnd@@MAEXXZ
	DD	FLAT:?OnChildNotify@CComboBox@@MAEHIIJPAJ@Z
	DD	FLAT:?OnTouchInputs@CWnd@@MAEHIPAUtagTOUCHINPUT@@@Z
	DD	FLAT:?OnTouchInput@CWnd@@MAEHVCPoint@@HHPAUtagTOUCHINPUT@@@Z
	DD	FLAT:?GetGestureStatus@CWnd@@MAEKVCPoint@@@Z
	DD	FLAT:?OnGestureZoom@CWnd@@MAEHVCPoint@@J@Z
	DD	FLAT:?OnGesturePan@CWnd@@MAEHVCPoint@@0@Z
	DD	FLAT:?OnGestureRotate@CWnd@@MAEHVCPoint@@N@Z
	DD	FLAT:?OnGestureTwoFingerTap@CWnd@@MAEHVCPoint@@@Z
	DD	FLAT:?OnGesturePressAndTap@CWnd@@MAEHVCPoint@@J@Z
	DD	FLAT:?ResizeDynamicLayout@CWnd@@MAEXXZ
	DD	FLAT:?CheckAutoCenter@CWnd@@UAEHXZ
	DD	FLAT:?IsFrameWnd@CWnd@@UBEHXZ
	DD	FLAT:?CreateControlContainer@CWnd@@MAEHPAPAVCOleControlContainer@@@Z
	DD	FLAT:?CreateControlSite@CWnd@@MAEHPAVCOleControlContainer@@PAPAVCOleControlSite@@IABU_GUID@@@Z
	DD	FLAT:?SetOccDialogInfo@CWnd@@MAEHPAU_AFX_OCC_DIALOG_INFO@@@Z
	DD	FLAT:?GetOccDialogInfo@CWnd@@MAEPAU_AFX_OCC_DIALOG_INFO@@XZ
	DD	FLAT:?Create@CComboBox@@UAEHKABUtagRECT@@PAVCWnd@@I@Z
	DD	FLAT:?DrawItem@CComboBox@@UAEXPAUtagDRAWITEMSTRUCT@@@Z
	DD	FLAT:?MeasureItem@CComboBox@@UAEXPAUtagMEASUREITEMSTRUCT@@@Z
	DD	FLAT:?CompareItem@CComboBox@@UAEHPAUtagCOMPAREITEMSTRUCT@@@Z
	DD	FLAT:?DeleteItem@CComboBox@@UAEXPAUtagDELETEITEMSTRUCT@@@Z
CONST	ENDS
;	COMDAT ??_7CListBox@@6B@
CONST	SEGMENT
??_7CListBox@@6B@ DD FLAT:??_R4CListBox@@6B@		; CListBox::`vftable'
	DD	FLAT:?GetRuntimeClass@CListBox@@UBEPAUCRuntimeClass@@XZ
	DD	FLAT:??_ECListBox@@UAEPAXI@Z
	DD	FLAT:?Serialize@CObject@@UAEXAAVCArchive@@@Z
	DD	FLAT:?AssertValid@CObject@@UBEXXZ
	DD	FLAT:?Dump@CObject@@UBEXAAVCDumpContext@@@Z
	DD	FLAT:?OnCmdMsg@CCmdTarget@@UAEHIHPAXPAUAFX_CMDHANDLERINFO@@@Z
	DD	FLAT:?OnFinalRelease@CWnd@@UAEXXZ
	DD	FLAT:?IsInvokeAllowed@CCmdTarget@@UAEHJ@Z
	DD	FLAT:?GetDispatchIID@CCmdTarget@@UAEHPAU_GUID@@@Z
	DD	FLAT:?GetTypeInfoCount@CCmdTarget@@UAEIXZ
	DD	FLAT:?GetTypeLibCache@CCmdTarget@@UAEPAVCTypeLibCache@@XZ
	DD	FLAT:?GetTypeLib@CCmdTarget@@UAEJKPAPAUITypeLib@@@Z
	DD	FLAT:?GetMessageMap@CWnd@@MBEPBUAFX_MSGMAP@@XZ
	DD	FLAT:?GetCommandMap@CCmdTarget@@MBEPBUAFX_OLECMDMAP@@XZ
	DD	FLAT:?GetDispatchMap@CCmdTarget@@MBEPBUAFX_DISPMAP@@XZ
	DD	FLAT:?GetConnectionMap@CCmdTarget@@MBEPBUAFX_CONNECTIONMAP@@XZ
	DD	FLAT:?GetInterfaceMap@CWnd@@MBEPBUAFX_INTERFACEMAP@@XZ
	DD	FLAT:?GetEventSinkMap@CCmdTarget@@MBEPBUAFX_EVENTSINKMAP@@XZ
	DD	FLAT:?OnCreateAggregates@CCmdTarget@@UAEHXZ
	DD	FLAT:?GetInterfaceHook@CCmdTarget@@UAEPAUIUnknown@@PBX@Z
	DD	FLAT:?GetExtraConnectionPoints@CCmdTarget@@MAEHPAVCPtrArray@@@Z
	DD	FLAT:?GetConnectionHook@CCmdTarget@@MAEPAUIConnectionPoint@@ABU_GUID@@@Z
	DD	FLAT:?PreSubclassWindow@CWnd@@UAEXXZ
	DD	FLAT:?Create@CWnd@@UAEHPBD0KABUtagRECT@@PAV1@IPAUCCreateContext@@@Z
	DD	FLAT:?CreateEx@CWnd@@UAEHKPBD0KABUtagRECT@@PAV1@IPAX@Z
	DD	FLAT:?CreateEx@CWnd@@UAEHKPBD0KHHHHPAUHWND__@@PAUHMENU__@@PAX@Z
	DD	FLAT:?DestroyWindow@CWnd@@UAEHXZ
	DD	FLAT:?PreCreateWindow@CWnd@@UAEHAAUtagCREATESTRUCTA@@@Z
	DD	FLAT:?CalcWindowRect@CWnd@@UAEXPAUtagRECT@@I@Z
	DD	FLAT:?GetMenu@CWnd@@UBEPAVCMenu@@XZ
	DD	FLAT:?SetMenu@CWnd@@UAEHPAVCMenu@@@Z
	DD	FLAT:?OnToolHitTest@CWnd@@UBEHVCPoint@@PAUtagTOOLINFOA@@@Z
	DD	FLAT:?GetScrollBarCtrl@CWnd@@UBEPAVCScrollBar@@H@Z
	DD	FLAT:?WinHelpA@CWnd@@UAEXKI@Z
	DD	FLAT:?HtmlHelpA@CWnd@@UAEXKI@Z
	DD	FLAT:?WinHelpInternal@CWnd@@UAEXKI@Z
	DD	FLAT:?ContinueModal@CWnd@@UAEHXZ
	DD	FLAT:?EndModalLoop@CWnd@@UAEXH@Z
	DD	FLAT:?OnDrawIconicThumbnailOrLivePreview@CWnd@@UAEXAAVCDC@@VCRect@@VCSize@@HAAH@Z
	DD	FLAT:?EnsureStdObj@CWnd@@UAEJXZ
	DD	FLAT:?get_accParent@CWnd@@UAEJPAPAUIDispatch@@@Z
	DD	FLAT:?get_accChildCount@CWnd@@UAEJPAJ@Z
	DD	FLAT:?get_accChild@CWnd@@UAEJUtagVARIANT@@PAPAUIDispatch@@@Z
	DD	FLAT:?get_accName@CWnd@@UAEJUtagVARIANT@@PAPA_W@Z
	DD	FLAT:?get_accValue@CWnd@@UAEJUtagVARIANT@@PAPA_W@Z
	DD	FLAT:?get_accDescription@CWnd@@UAEJUtagVARIANT@@PAPA_W@Z
	DD	FLAT:?get_accRole@CWnd@@UAEJUtagVARIANT@@PAU2@@Z
	DD	FLAT:?get_accState@CWnd@@UAEJUtagVARIANT@@PAU2@@Z
	DD	FLAT:?get_accHelp@CWnd@@UAEJUtagVARIANT@@PAPA_W@Z
	DD	FLAT:?get_accHelpTopic@CWnd@@UAEJPAPA_WUtagVARIANT@@PAJ@Z
	DD	FLAT:?get_accKeyboardShortcut@CWnd@@UAEJUtagVARIANT@@PAPA_W@Z
	DD	FLAT:?get_accFocus@CWnd@@UAEJPAUtagVARIANT@@@Z
	DD	FLAT:?get_accSelection@CWnd@@UAEJPAUtagVARIANT@@@Z
	DD	FLAT:?get_accDefaultAction@CWnd@@UAEJUtagVARIANT@@PAPA_W@Z
	DD	FLAT:?accSelect@CWnd@@UAEJJUtagVARIANT@@@Z
	DD	FLAT:?accLocation@CWnd@@UAEJPAJ000UtagVARIANT@@@Z
	DD	FLAT:?accNavigate@CWnd@@UAEJJUtagVARIANT@@PAU2@@Z
	DD	FLAT:?accHitTest@CWnd@@UAEJJJPAUtagVARIANT@@@Z
	DD	FLAT:?accDoDefaultAction@CWnd@@UAEJUtagVARIANT@@@Z
	DD	FLAT:?put_accName@CWnd@@UAEJUtagVARIANT@@PA_W@Z
	DD	FLAT:?put_accValue@CWnd@@UAEJUtagVARIANT@@PA_W@Z
	DD	FLAT:?SetProxy@CWnd@@UAEJPAUIAccessibleProxy@@@Z
	DD	FLAT:?CreateAccessibleProxy@CWnd@@UAEJIJPAJ@Z
	DD	FLAT:?OnCommand@CWnd@@MAEHIJ@Z
	DD	FLAT:?OnNotify@CWnd@@MAEHIJPAJ@Z
	DD	FLAT:?GetSuperWndProcAddr@CWnd@@MAEPAP6GJPAUHWND__@@IIJ@ZXZ
	DD	FLAT:?DoDataExchange@CWnd@@MAEXPAVCDataExchange@@@Z
	DD	FLAT:?BeginModalState@CWnd@@UAEXXZ
	DD	FLAT:?EndModalState@CWnd@@UAEXXZ
	DD	FLAT:?PreTranslateMessage@CWnd@@UAEHPAUtagMSG@@@Z
	DD	FLAT:?OnAmbientProperty@CWnd@@UAEHPAVCOleControlSite@@JPAUtagVARIANT@@@Z
	DD	FLAT:?WindowProc@CWnd@@MAEJIIJ@Z
	DD	FLAT:?OnWndMsg@CWnd@@MAEHIIJPAJ@Z
	DD	FLAT:?DefWindowProcA@CWnd@@MAEJIIJ@Z
	DD	FLAT:?PostNcDestroy@CWnd@@MAEXXZ
	DD	FLAT:?OnChildNotify@CListBox@@MAEHIIJPAJ@Z
	DD	FLAT:?OnTouchInputs@CWnd@@MAEHIPAUtagTOUCHINPUT@@@Z
	DD	FLAT:?OnTouchInput@CWnd@@MAEHVCPoint@@HHPAUtagTOUCHINPUT@@@Z
	DD	FLAT:?GetGestureStatus@CWnd@@MAEKVCPoint@@@Z
	DD	FLAT:?OnGestureZoom@CWnd@@MAEHVCPoint@@J@Z
	DD	FLAT:?OnGesturePan@CWnd@@MAEHVCPoint@@0@Z
	DD	FLAT:?OnGestureRotate@CWnd@@MAEHVCPoint@@N@Z
	DD	FLAT:?OnGestureTwoFingerTap@CWnd@@MAEHVCPoint@@@Z
	DD	FLAT:?OnGesturePressAndTap@CWnd@@MAEHVCPoint@@J@Z
	DD	FLAT:?ResizeDynamicLayout@CWnd@@MAEXXZ
	DD	FLAT:?CheckAutoCenter@CWnd@@UAEHXZ
	DD	FLAT:?IsFrameWnd@CWnd@@UBEHXZ
	DD	FLAT:?CreateControlContainer@CWnd@@MAEHPAPAVCOleControlContainer@@@Z
	DD	FLAT:?CreateControlSite@CWnd@@MAEHPAVCOleControlContainer@@PAPAVCOleControlSite@@IABU_GUID@@@Z
	DD	FLAT:?SetOccDialogInfo@CWnd@@MAEHPAU_AFX_OCC_DIALOG_INFO@@@Z
	DD	FLAT:?GetOccDialogInfo@CWnd@@MAEPAU_AFX_OCC_DIALOG_INFO@@XZ
	DD	FLAT:?Create@CListBox@@UAEHKABUtagRECT@@PAVCWnd@@I@Z
	DD	FLAT:?DrawItem@CListBox@@UAEXPAUtagDRAWITEMSTRUCT@@@Z
	DD	FLAT:?MeasureItem@CListBox@@UAEXPAUtagMEASUREITEMSTRUCT@@@Z
	DD	FLAT:?CompareItem@CListBox@@UAEHPAUtagCOMPAREITEMSTRUCT@@@Z
	DD	FLAT:?DeleteItem@CListBox@@UAEXPAUtagDELETEITEMSTRUCT@@@Z
	DD	FLAT:?VKeyToItem@CListBox@@UAEHII@Z
	DD	FLAT:?CharToItem@CListBox@@UAEHII@Z
CONST	ENDS
;	COMDAT ??_C@_00CNPNBAHC@@
CONST	SEGMENT
??_C@_00CNPNBAHC@@ DB 00H				; `string'
CONST	ENDS
;	COMDAT xdata$x
xdata$x	SEGMENT
__unwindtable$??_GCDlgCompSetup@@UAEPAXI@Z DD 0ffffffffH
	DD	FLAT:___std_terminate
	DD	00H
	DD	FLAT:___std_terminate
	DD	0ffffffffH
	DD	FLAT:___std_terminate
__ehfuncinfo$??_GCDlgCompSetup@@UAEPAXI@Z DD 019930522H
	DD	03H
	DD	FLAT:__unwindtable$??_GCDlgCompSetup@@UAEPAXI@Z
	DD	2 DUP(00H)
	DD	2 DUP(00H)
	DD	00H
	DD	05H
xdata$x	ENDS
;	COMDAT xdata$x
xdata$x	SEGMENT
__unwindtable$??1CDlgCompSetup@@UAE@XZ DD 0ffffffffH
	DD	FLAT:___std_terminate
	DD	00H
	DD	FLAT:___std_terminate
	DD	0ffffffffH
	DD	FLAT:___std_terminate
__ehfuncinfo$??1CDlgCompSetup@@UAE@XZ DD 019930522H
	DD	03H
	DD	FLAT:__unwindtable$??1CDlgCompSetup@@UAE@XZ
	DD	2 DUP(00H)
	DD	2 DUP(00H)
	DD	00H
	DD	05H
xdata$x	ENDS
;	COMDAT xdata$x
xdata$x	SEGMENT
__unwindtable$?DoFindEdtName@CDlgCompSetup@@IAEXPBD@Z DD 0ffffffffH
	DD	FLAT:__unwindfunclet$?DoFindEdtName@CDlgCompSetup@@IAEXPBD@Z$0
	DD	00H
	DD	FLAT:__unwindfunclet$?DoFindEdtName@CDlgCompSetup@@IAEXPBD@Z$1
	DD	01H
	DD	FLAT:__unwindfunclet$?DoFindEdtName@CDlgCompSetup@@IAEXPBD@Z$2
__ehfuncinfo$?DoFindEdtName@CDlgCompSetup@@IAEXPBD@Z DD 019930522H
	DD	03H
	DD	FLAT:__unwindtable$?DoFindEdtName@CDlgCompSetup@@IAEXPBD@Z
	DD	2 DUP(00H)
	DD	2 DUP(00H)
	DD	00H
	DD	01H
xdata$x	ENDS
;	COMDAT xdata$x
xdata$x	SEGMENT
__unwindtable$?DoFindEdtCode@CDlgCompSetup@@IAEXXZ DD 0ffffffffH
	DD	FLAT:__unwindfunclet$?DoFindEdtCode@CDlgCompSetup@@IAEXXZ$0
	DD	00H
	DD	FLAT:__unwindfunclet$?DoFindEdtCode@CDlgCompSetup@@IAEXXZ$1
	DD	01H
	DD	FLAT:__unwindfunclet$?DoFindEdtCode@CDlgCompSetup@@IAEXXZ$2
__ehfuncinfo$?DoFindEdtCode@CDlgCompSetup@@IAEXXZ DD 019930522H
	DD	03H
	DD	FLAT:__unwindtable$?DoFindEdtCode@CDlgCompSetup@@IAEXXZ
	DD	2 DUP(00H)
	DD	2 DUP(00H)
	DD	00H
	DD	01H
xdata$x	ENDS
;	COMDAT xdata$x
xdata$x	SEGMENT
__unwindtable$?InsertGridData@CDlgCompSetup@@IAEXXZ DD 0ffffffffH
	DD	FLAT:__unwindfunclet$?InsertGridData@CDlgCompSetup@@IAEXXZ$0
	DD	00H
	DD	FLAT:__unwindfunclet$?InsertGridData@CDlgCompSetup@@IAEXXZ$1
__ehfuncinfo$?InsertGridData@CDlgCompSetup@@IAEXXZ DD 019930522H
	DD	02H
	DD	FLAT:__unwindtable$?InsertGridData@CDlgCompSetup@@IAEXXZ
	DD	2 DUP(00H)
	DD	2 DUP(00H)
	DD	00H
	DD	01H
xdata$x	ENDS
;	COMDAT xdata$x
xdata$x	SEGMENT
__catchsym$?InitGridRowCol@CDlgCompSetup@@IAEXH@Z$2 DD 00H
	DD	FLAT:??_R0PAVCMemoryException@@@8
	DD	0ffffffecH
	DD	FLAT:__catch$?InitGridRowCol@CDlgCompSetup@@IAEXH@Z$0
__unwindtable$?InitGridRowCol@CDlgCompSetup@@IAEXH@Z DD 0ffffffffH
	DD	00H
	DD	0ffffffffH
	DD	00H
__tryblocktable$?InitGridRowCol@CDlgCompSetup@@IAEXH@Z DD 00H
	DD	00H
	DD	01H
	DD	01H
	DD	FLAT:__catchsym$?InitGridRowCol@CDlgCompSetup@@IAEXH@Z$2
__ehfuncinfo$?InitGridRowCol@CDlgCompSetup@@IAEXH@Z DD 019930522H
	DD	02H
	DD	FLAT:__unwindtable$?InitGridRowCol@CDlgCompSetup@@IAEXH@Z
	DD	01H
	DD	FLAT:__tryblocktable$?InitGridRowCol@CDlgCompSetup@@IAEXH@Z
	DD	2 DUP(00H)
	DD	00H
	DD	01H
xdata$x	ENDS
;	COMDAT xdata$x
xdata$x	SEGMENT
__unwindtable$?InitGrid@CDlgCompSetup@@IAEXXZ DD 0ffffffffH
	DD	FLAT:__unwindfunclet$?InitGrid@CDlgCompSetup@@IAEXXZ$0
	DD	00H
	DD	FLAT:__unwindfunclet$?InitGrid@CDlgCompSetup@@IAEXXZ$1
	DD	00H
	DD	FLAT:__unwindfunclet$?InitGrid@CDlgCompSetup@@IAEXXZ$3
	DD	02H
	DD	FLAT:__unwindfunclet$?InitGrid@CDlgCompSetup@@IAEXXZ$4
__ehfuncinfo$?InitGrid@CDlgCompSetup@@IAEXXZ DD 019930522H
	DD	04H
	DD	FLAT:__unwindtable$?InitGrid@CDlgCompSetup@@IAEXXZ
	DD	2 DUP(00H)
	DD	2 DUP(00H)
	DD	00H
	DD	01H
xdata$x	ENDS
;	COMDAT xdata$x
xdata$x	SEGMENT
__unwindtable$?SetMasterData@CDlgCompSetup@@IAEXPAV?$CList@VCCodeTypeA@@V1@@@@Z DD 0ffffffffH
	DD	FLAT:__unwindfunclet$?SetMasterData@CDlgCompSetup@@IAEXPAV?$CList@VCCodeTypeA@@V1@@@@Z$0
	DD	00H
	DD	FLAT:__unwindfunclet$?SetMasterData@CDlgCompSetup@@IAEXPAV?$CList@VCCodeTypeA@@V1@@@@Z$1
	DD	01H
	DD	FLAT:__unwindfunclet$?SetMasterData@CDlgCompSetup@@IAEXPAV?$CList@VCCodeTypeA@@V1@@@@Z$2
	DD	02H
	DD	FLAT:__unwindfunclet$?SetMasterData@CDlgCompSetup@@IAEXPAV?$CList@VCCodeTypeA@@V1@@@@Z$3
__ehfuncinfo$?SetMasterData@CDlgCompSetup@@IAEXPAV?$CList@VCCodeTypeA@@V1@@@@Z DD 019930522H
	DD	04H
	DD	FLAT:__unwindtable$?SetMasterData@CDlgCompSetup@@IAEXPAV?$CList@VCCodeTypeA@@V1@@@@Z
	DD	2 DUP(00H)
	DD	2 DUP(00H)
	DD	00H
	DD	01H
xdata$x	ENDS
;	COMDAT xdata$x
xdata$x	SEGMENT
__unwindtable$?ChangeListOrGridCtrl@CDlgCompSetup@@IAEXV?$CStringT@DV?$StrTraitMFC_DLL@DV?$ChTraitsCRT@D@ATL@@@@@ATL@@@Z DD 0ffffffffH
	DD	FLAT:__unwindfunclet$?ChangeListOrGridCtrl@CDlgCompSetup@@IAEXV?$CStringT@DV?$StrTraitMFC_DLL@DV?$ChTraitsCRT@D@ATL@@@@@ATL@@@Z$0
__ehfuncinfo$?ChangeListOrGridCtrl@CDlgCompSetup@@IAEXV?$CStringT@DV?$StrTraitMFC_DLL@DV?$ChTraitsCRT@D@ATL@@@@@ATL@@@Z DD 019930522H
	DD	01H
	DD	FLAT:__unwindtable$?ChangeListOrGridCtrl@CDlgCompSetup@@IAEXV?$CStringT@DV?$StrTraitMFC_DLL@DV?$ChTraitsCRT@D@ATL@@@@@ATL@@@Z
	DD	2 DUP(00H)
	DD	2 DUP(00H)
	DD	00H
	DD	01H
xdata$x	ENDS
;	COMDAT xdata$x
xdata$x	SEGMENT
__unwindtable$?fnInitSelctGroup@CDlgCompSetup@@IAEXPBD@Z DD 0ffffffffH
	DD	FLAT:__unwindfunclet$?fnInitSelctGroup@CDlgCompSetup@@IAEXPBD@Z$0
__ehfuncinfo$?fnInitSelctGroup@CDlgCompSetup@@IAEXPBD@Z DD 019930522H
	DD	01H
	DD	FLAT:__unwindtable$?fnInitSelctGroup@CDlgCompSetup@@IAEXPBD@Z
	DD	2 DUP(00H)
	DD	2 DUP(00H)
	DD	00H
	DD	01H
xdata$x	ENDS
;	COMDAT xdata$x
xdata$x	SEGMENT
__unwindtable$?DoGridAddToItem@CDlgCompSetup@@IAEXPBD0@Z DD 0ffffffffH
	DD	FLAT:__unwindfunclet$?DoGridAddToItem@CDlgCompSetup@@IAEXPBD0@Z$0
	DD	0ffffffffH
	DD	FLAT:__unwindfunclet$?DoGridAddToItem@CDlgCompSetup@@IAEXPBD0@Z$1
	DD	01H
	DD	FLAT:__unwindfunclet$?DoGridAddToItem@CDlgCompSetup@@IAEXPBD0@Z$2
__ehfuncinfo$?DoGridAddToItem@CDlgCompSetup@@IAEXPBD0@Z DD 019930522H
	DD	03H
	DD	FLAT:__unwindtable$?DoGridAddToItem@CDlgCompSetup@@IAEXPBD0@Z
	DD	2 DUP(00H)
	DD	2 DUP(00H)
	DD	00H
	DD	01H
xdata$x	ENDS
;	COMDAT xdata$x
xdata$x	SEGMENT
__ehfuncinfo$?DoAddToItem@CDlgCompSetup@@IAEXH@Z DD 019930522H
	DD	05H
	DD	FLAT:__unwindtable$?DoAddToItem@CDlgCompSetup@@IAEXH@Z
	DD	2 DUP(00H)
	DD	2 DUP(00H)
	DD	00H
	DD	01H
__unwindtable$?DoAddToItem@CDlgCompSetup@@IAEXH@Z DD 0ffffffffH
	DD	FLAT:__unwindfunclet$?DoAddToItem@CDlgCompSetup@@IAEXH@Z$0
	DD	00H
	DD	FLAT:__unwindfunclet$?DoAddToItem@CDlgCompSetup@@IAEXH@Z$1
	DD	01H
	DD	FLAT:__unwindfunclet$?DoAddToItem@CDlgCompSetup@@IAEXH@Z$2
	DD	01H
	DD	FLAT:__unwindfunclet$?DoAddToItem@CDlgCompSetup@@IAEXH@Z$3
	DD	01H
	DD	FLAT:__unwindfunclet$?DoAddToItem@CDlgCompSetup@@IAEXH@Z$4
xdata$x	ENDS
;	COMDAT xdata$x
xdata$x	SEGMENT
__unwindtable$?fnTreeLoad@CDlgCompSetup@@IAEXXZ DD 0ffffffffH
	DD	FLAT:__unwindfunclet$?fnTreeLoad@CDlgCompSetup@@IAEXXZ$2
	DD	00H
	DD	FLAT:__unwindfunclet$?fnTreeLoad@CDlgCompSetup@@IAEXXZ$3
	DD	0ffffffffH
	DD	FLAT:__unwindfunclet$?fnTreeLoad@CDlgCompSetup@@IAEXXZ$0
__ehfuncinfo$?fnTreeLoad@CDlgCompSetup@@IAEXXZ DD 019930522H
	DD	03H
	DD	FLAT:__unwindtable$?fnTreeLoad@CDlgCompSetup@@IAEXXZ
	DD	2 DUP(00H)
	DD	2 DUP(00H)
	DD	00H
	DD	01H
xdata$x	ENDS
;	COMDAT xdata$x
xdata$x	SEGMENT
__unwindtable$?fnCheckNoGroup@CDlgCompSetup@@IAEXXZ DD 0ffffffffH
	DD	FLAT:__unwindfunclet$?fnCheckNoGroup@CDlgCompSetup@@IAEXXZ$0
__ehfuncinfo$?fnCheckNoGroup@CDlgCompSetup@@IAEXXZ DD 019930522H
	DD	01H
	DD	FLAT:__unwindtable$?fnCheckNoGroup@CDlgCompSetup@@IAEXXZ
	DD	2 DUP(00H)
	DD	2 DUP(00H)
	DD	00H
	DD	01H
xdata$x	ENDS
;	COMDAT xdata$x
xdata$x	SEGMENT
__unwindtable$?OnSelchangeCmbsel@CDlgCompSetup@@IAEXXZ DD 0ffffffffH
	DD	FLAT:__unwindfunclet$?OnSelchangeCmbsel@CDlgCompSetup@@IAEXXZ$0
__ehfuncinfo$?OnSelchangeCmbsel@CDlgCompSetup@@IAEXXZ DD 019930522H
	DD	01H
	DD	FLAT:__unwindtable$?OnSelchangeCmbsel@CDlgCompSetup@@IAEXXZ
	DD	2 DUP(00H)
	DD	2 DUP(00H)
	DD	00H
	DD	01H
xdata$x	ENDS
;	COMDAT xdata$x
xdata$x	SEGMENT
__unwindtable$?OnBtnright@CDlgCompSetup@@IAEXXZ DD 0ffffffffH
	DD	FLAT:__unwindfunclet$?OnBtnright@CDlgCompSetup@@IAEXXZ$0
__ehfuncinfo$?OnBtnright@CDlgCompSetup@@IAEXXZ DD 019930522H
	DD	01H
	DD	FLAT:__unwindtable$?OnBtnright@CDlgCompSetup@@IAEXXZ
	DD	2 DUP(00H)
	DD	2 DUP(00H)
	DD	00H
	DD	01H
xdata$x	ENDS
;	COMDAT xdata$x
xdata$x	SEGMENT
__unwindtable$?OnBtnleft@CDlgCompSetup@@IAEXXZ DD 0ffffffffH
	DD	FLAT:__unwindfunclet$?OnBtnleft@CDlgCompSetup@@IAEXXZ$0
__ehfuncinfo$?OnBtnleft@CDlgCompSetup@@IAEXXZ DD 019930522H
	DD	01H
	DD	FLAT:__unwindtable$?OnBtnleft@CDlgCompSetup@@IAEXXZ
	DD	2 DUP(00H)
	DD	2 DUP(00H)
	DD	00H
	DD	01H
xdata$x	ENDS
;	COMDAT xdata$x
xdata$x	SEGMENT
__unwindtable$?OnBtngrpchange@CDlgCompSetup@@IAEXXZ DD 0ffffffffH
	DD	FLAT:__unwindfunclet$?OnBtngrpchange@CDlgCompSetup@@IAEXXZ$0
	DD	00H
	DD	FLAT:__unwindfunclet$?OnBtngrpchange@CDlgCompSetup@@IAEXXZ$1
__ehfuncinfo$?OnBtngrpchange@CDlgCompSetup@@IAEXXZ DD 019930522H
	DD	02H
	DD	FLAT:__unwindtable$?OnBtngrpchange@CDlgCompSetup@@IAEXXZ
	DD	2 DUP(00H)
	DD	2 DUP(00H)
	DD	00H
	DD	01H
xdata$x	ENDS
;	COMDAT xdata$x
xdata$x	SEGMENT
__unwindtable$?OnBtngrpdel@CDlgCompSetup@@IAEXXZ DD 0ffffffffH
	DD	FLAT:__unwindfunclet$?OnBtngrpdel@CDlgCompSetup@@IAEXXZ$0
	DD	00H
	DD	FLAT:__unwindfunclet$?OnBtngrpdel@CDlgCompSetup@@IAEXXZ$1
__ehfuncinfo$?OnBtngrpdel@CDlgCompSetup@@IAEXXZ DD 019930522H
	DD	02H
	DD	FLAT:__unwindtable$?OnBtngrpdel@CDlgCompSetup@@IAEXXZ
	DD	2 DUP(00H)
	DD	2 DUP(00H)
	DD	00H
	DD	01H
xdata$x	ENDS
;	COMDAT xdata$x
xdata$x	SEGMENT
__unwindtable$?OnBtngrpnew@CDlgCompSetup@@IAEXXZ DD 0ffffffffH
	DD	FLAT:__unwindfunclet$?OnBtngrpnew@CDlgCompSetup@@IAEXXZ$0
	DD	00H
	DD	FLAT:__unwindfunclet$?OnBtngrpnew@CDlgCompSetup@@IAEXXZ$1
__ehfuncinfo$?OnBtngrpnew@CDlgCompSetup@@IAEXXZ DD 019930522H
	DD	02H
	DD	FLAT:__unwindtable$?OnBtngrpnew@CDlgCompSetup@@IAEXXZ
	DD	2 DUP(00H)
	DD	2 DUP(00H)
	DD	00H
	DD	01H
xdata$x	ENDS
;	COMDAT xdata$x
xdata$x	SEGMENT
__ehfuncinfo$?OnInitDialog@CDlgCompSetup@@MAEHXZ DD 019930522H
	DD	05H
	DD	FLAT:__unwindtable$?OnInitDialog@CDlgCompSetup@@MAEHXZ
	DD	2 DUP(00H)
	DD	2 DUP(00H)
	DD	00H
	DD	01H
__unwindtable$?OnInitDialog@CDlgCompSetup@@MAEHXZ DD 0ffffffffH
	DD	FLAT:__unwindfunclet$?OnInitDialog@CDlgCompSetup@@MAEHXZ$2
	DD	00H
	DD	FLAT:__unwindfunclet$?OnInitDialog@CDlgCompSetup@@MAEHXZ$3
	DD	0ffffffffH
	DD	FLAT:__unwindfunclet$?OnInitDialog@CDlgCompSetup@@MAEHXZ$0
	DD	0ffffffffH
	DD	FLAT:__unwindfunclet$?OnInitDialog@CDlgCompSetup@@MAEHXZ$6
	DD	0ffffffffH
	DD	FLAT:__unwindfunclet$?OnInitDialog@CDlgCompSetup@@MAEHXZ$8
xdata$x	ENDS
;	COMDAT xdata$x
xdata$x	SEGMENT
__unwindtable$?fnCheckCode@CDlgCompSetup@@IAEHPBD0@Z DD 0ffffffffH
	DD	FLAT:__unwindfunclet$?fnCheckCode@CDlgCompSetup@@IAEHPBD0@Z$0
	DD	00H
	DD	FLAT:__unwindfunclet$?fnCheckCode@CDlgCompSetup@@IAEHPBD0@Z$1
__ehfuncinfo$?fnCheckCode@CDlgCompSetup@@IAEHPBD0@Z DD 019930522H
	DD	02H
	DD	FLAT:__unwindtable$?fnCheckCode@CDlgCompSetup@@IAEHPBD0@Z
	DD	2 DUP(00H)
	DD	2 DUP(00H)
	DD	00H
	DD	01H
xdata$x	ENDS
;	COMDAT xdata$x
xdata$x	SEGMENT
__unwindtable$?PreTranslateMessage@CDlgCompSetup@@MAEHPAUtagMSG@@@Z DD 0ffffffffH
	DD	FLAT:__unwindfunclet$?PreTranslateMessage@CDlgCompSetup@@MAEHPAUtagMSG@@@Z$0
	DD	00H
	DD	FLAT:__unwindfunclet$?PreTranslateMessage@CDlgCompSetup@@MAEHPAUtagMSG@@@Z$1
	DD	01H
	DD	FLAT:__unwindfunclet$?PreTranslateMessage@CDlgCompSetup@@MAEHPAUtagMSG@@@Z$2
__ehfuncinfo$?PreTranslateMessage@CDlgCompSetup@@MAEHPAUtagMSG@@@Z DD 019930522H
	DD	03H
	DD	FLAT:__unwindtable$?PreTranslateMessage@CDlgCompSetup@@MAEHPAUtagMSG@@@Z
	DD	2 DUP(00H)
	DD	2 DUP(00H)
	DD	00H
	DD	01H
xdata$x	ENDS
;	COMDAT xdata$x
xdata$x	SEGMENT
__ehfuncinfo$?WindowProc@CDlgCompSetup@@MAEJIIJ@Z DD 019930522H
	DD	06H
	DD	FLAT:__unwindtable$?WindowProc@CDlgCompSetup@@MAEJIIJ@Z
	DD	2 DUP(00H)
	DD	2 DUP(00H)
	DD	00H
	DD	01H
__unwindtable$?WindowProc@CDlgCompSetup@@MAEJIIJ@Z DD 0ffffffffH
	DD	FLAT:__unwindfunclet$?WindowProc@CDlgCompSetup@@MAEJIIJ@Z$0
	DD	00H
	DD	FLAT:__unwindfunclet$?WindowProc@CDlgCompSetup@@MAEJIIJ@Z$1
	DD	00H
	DD	FLAT:__unwindfunclet$?WindowProc@CDlgCompSetup@@MAEJIIJ@Z$2
	DD	0ffffffffH
	DD	FLAT:__unwindfunclet$?WindowProc@CDlgCompSetup@@MAEJIIJ@Z$3
	DD	03H
	DD	FLAT:__unwindfunclet$?WindowProc@CDlgCompSetup@@MAEJIIJ@Z$4
	DD	03H
	DD	FLAT:__unwindfunclet$?WindowProc@CDlgCompSetup@@MAEJIIJ@Z$5
xdata$x	ENDS
;	COMDAT xdata$x
xdata$x	SEGMENT
__ehfuncinfo$??0CDlgCompSetup@@QAE@PAVCWnd@@@Z DD 019930522H
	DD	0cH
	DD	FLAT:__unwindtable$??0CDlgCompSetup@@QAE@PAVCWnd@@@Z
	DD	2 DUP(00H)
	DD	2 DUP(00H)
	DD	00H
	DD	01H
__unwindtable$??0CDlgCompSetup@@QAE@PAVCWnd@@@Z DD 0ffffffffH
	DD	FLAT:__unwindfunclet$??0CDlgCompSetup@@QAE@PAVCWnd@@@Z$0
	DD	00H
	DD	FLAT:__unwindfunclet$??0CDlgCompSetup@@QAE@PAVCWnd@@@Z$1
	DD	01H
	DD	FLAT:__unwindfunclet$??0CDlgCompSetup@@QAE@PAVCWnd@@@Z$2
	DD	02H
	DD	FLAT:__unwindfunclet$??0CDlgCompSetup@@QAE@PAVCWnd@@@Z$3
	DD	03H
	DD	FLAT:__unwindfunclet$??0CDlgCompSetup@@QAE@PAVCWnd@@@Z$4
	DD	04H
	DD	FLAT:__unwindfunclet$??0CDlgCompSetup@@QAE@PAVCWnd@@@Z$5
	DD	05H
	DD	FLAT:__unwindfunclet$??0CDlgCompSetup@@QAE@PAVCWnd@@@Z$6
	DD	06H
	DD	FLAT:__unwindfunclet$??0CDlgCompSetup@@QAE@PAVCWnd@@@Z$7
	DD	07H
	DD	FLAT:__unwindfunclet$??0CDlgCompSetup@@QAE@PAVCWnd@@@Z$8
	DD	08H
	DD	FLAT:__unwindfunclet$??0CDlgCompSetup@@QAE@PAVCWnd@@@Z$9
	DD	09H
	DD	FLAT:__unwindfunclet$??0CDlgCompSetup@@QAE@PAVCWnd@@@Z$10
	DD	0aH
	DD	FLAT:__unwindfunclet$??0CDlgCompSetup@@QAE@PAVCWnd@@@Z$11
xdata$x	ENDS
;	COMDAT xdata$x
xdata$x	SEGMENT
__unwindtable$??1CCallPutIHelper@@QAE@XZ DD 0ffffffffH
	DD	FLAT:___std_terminate
__ehfuncinfo$??1CCallPutIHelper@@QAE@XZ DD 019930522H
	DD	01H
	DD	FLAT:__unwindtable$??1CCallPutIHelper@@QAE@XZ
	DD	2 DUP(00H)
	DD	2 DUP(00H)
	DD	00H
	DD	05H
xdata$x	ENDS
;	COMDAT xdata$x
xdata$x	SEGMENT
__unwindtable$?ClearList@CCallPutIHelper@@QAEXXZ DD 0ffffffffH
	DD	FLAT:___std_terminate
	DD	00H
	DD	FLAT:___std_terminate
__ehfuncinfo$?ClearList@CCallPutIHelper@@QAEXXZ DD 019930522H
	DD	02H
	DD	FLAT:__unwindtable$?ClearList@CCallPutIHelper@@QAEXXZ
	DD	2 DUP(00H)
	DD	2 DUP(00H)
	DD	00H
	DD	01H
xdata$x	ENDS
;	COMDAT xdata$x
xdata$x	SEGMENT
__unwindtable$?Parsing@CCallPutIHelper@@QAEXPAV?$CList@VCCodeTypeA@@V1@@@H@Z DD 0ffffffffH
	DD	FLAT:__unwindfunclet$?Parsing@CCallPutIHelper@@QAEXPAV?$CList@VCCodeTypeA@@V1@@@H@Z$0
	DD	00H
	DD	FLAT:__unwindfunclet$?Parsing@CCallPutIHelper@@QAEXPAV?$CList@VCCodeTypeA@@V1@@@H@Z$1
	DD	01H
	DD	FLAT:__unwindfunclet$?Parsing@CCallPutIHelper@@QAEXPAV?$CList@VCCodeTypeA@@V1@@@H@Z$2
	DD	02H
	DD	FLAT:__unwindfunclet$?Parsing@CCallPutIHelper@@QAEXPAV?$CList@VCCodeTypeA@@V1@@@H@Z$3
__ehfuncinfo$?Parsing@CCallPutIHelper@@QAEXPAV?$CList@VCCodeTypeA@@V1@@@H@Z DD 019930522H
	DD	04H
	DD	FLAT:__unwindtable$?Parsing@CCallPutIHelper@@QAEXPAV?$CList@VCCodeTypeA@@V1@@@H@Z
	DD	2 DUP(00H)
	DD	2 DUP(00H)
	DD	00H
	DD	01H
xdata$x	ENDS
;	COMDAT xdata$x
xdata$x	SEGMENT
__unwindtable$??_G?$CList@PAVCCallPutIMonthData@@PAV1@@@UAEPAXI@Z DD 0ffffffffH
	DD	FLAT:___std_terminate
__ehfuncinfo$??_G?$CList@PAVCCallPutIMonthData@@PAV1@@@UAEPAXI@Z DD 019930522H
	DD	01H
	DD	FLAT:__unwindtable$??_G?$CList@PAVCCallPutIMonthData@@PAV1@@@UAEPAXI@Z
	DD	2 DUP(00H)
	DD	2 DUP(00H)
	DD	00H
	DD	05H
xdata$x	ENDS
;	COMDAT xdata$x
xdata$x	SEGMENT
__ehfuncinfo$??1?$CList@PAVCCallPutIMonthData@@PAV1@@@UAE@XZ DD 019930522H
	DD	00H
	DD	00H
	DD	2 DUP(00H)
	DD	2 DUP(00H)
	DD	00H
	DD	05H
xdata$x	ENDS
;	COMDAT xdata$x
xdata$x	SEGMENT
__unwindtable$??_GCCallPutIMonthData@@QAEPAXI@Z DD 0ffffffffH
	DD	FLAT:___std_terminate
	DD	00H
	DD	FLAT:___std_terminate
__ehfuncinfo$??_GCCallPutIMonthData@@QAEPAXI@Z DD 019930522H
	DD	02H
	DD	FLAT:__unwindtable$??_GCCallPutIMonthData@@QAEPAXI@Z
	DD	2 DUP(00H)
	DD	2 DUP(00H)
	DD	00H
	DD	05H
xdata$x	ENDS
;	COMDAT xdata$x
xdata$x	SEGMENT
__unwindtable$??1CCallPutIMonthData@@QAE@XZ DD 0ffffffffH
	DD	FLAT:___std_terminate
__ehfuncinfo$??1CCallPutIMonthData@@QAE@XZ DD 019930522H
	DD	01H
	DD	FLAT:__unwindtable$??1CCallPutIMonthData@@QAE@XZ
	DD	2 DUP(00H)
	DD	2 DUP(00H)
	DD	00H
	DD	05H
xdata$x	ENDS
;	COMDAT xdata$x
xdata$x	SEGMENT
__unwindtable$??_G?$CList@PAVCCallPutItemData@@PAV1@@@UAEPAXI@Z DD 0ffffffffH
	DD	FLAT:___std_terminate
__ehfuncinfo$??_G?$CList@PAVCCallPutItemData@@PAV1@@@UAEPAXI@Z DD 019930522H
	DD	01H
	DD	FLAT:__unwindtable$??_G?$CList@PAVCCallPutItemData@@PAV1@@@UAEPAXI@Z
	DD	2 DUP(00H)
	DD	2 DUP(00H)
	DD	00H
	DD	05H
xdata$x	ENDS
;	COMDAT xdata$x
xdata$x	SEGMENT
__ehfuncinfo$??1?$CList@PAVCCallPutItemData@@PAV1@@@UAE@XZ DD 019930522H
	DD	00H
	DD	00H
	DD	2 DUP(00H)
	DD	2 DUP(00H)
	DD	00H
	DD	05H
xdata$x	ENDS
;	COMDAT xdata$x
xdata$x	SEGMENT
__unwindtable$??0CCodeTypeA@@QAE@ABV0@@Z DD 0ffffffffH
	DD	FLAT:__unwindfunclet$??0CCodeTypeA@@QAE@ABV0@@Z$1
__ehfuncinfo$??0CCodeTypeA@@QAE@ABV0@@Z DD 019930522H
	DD	01H
	DD	FLAT:__unwindtable$??0CCodeTypeA@@QAE@ABV0@@Z
	DD	2 DUP(00H)
	DD	2 DUP(00H)
	DD	00H
	DD	01H
xdata$x	ENDS
;	COMDAT xdata$x
xdata$x	SEGMENT
__unwindtable$??0CCodeTypeBase@@QAE@ABV0@@Z DD 0ffffffffH
	DD	FLAT:__unwindfunclet$??0CCodeTypeBase@@QAE@ABV0@@Z$0
__ehfuncinfo$??0CCodeTypeBase@@QAE@ABV0@@Z DD 019930522H
	DD	01H
	DD	FLAT:__unwindtable$??0CCodeTypeBase@@QAE@ABV0@@Z
	DD	2 DUP(00H)
	DD	2 DUP(00H)
	DD	00H
	DD	01H
xdata$x	ENDS
;	COMDAT xdata$x
xdata$x	SEGMENT
__unwindtable$?CheckeNameType@CCodeTypeBase@@SAHPAD@Z DD 0ffffffffH
	DD	FLAT:__unwindfunclet$?CheckeNameType@CCodeTypeBase@@SAHPAD@Z$0
__ehfuncinfo$?CheckeNameType@CCodeTypeBase@@SAHPAD@Z DD 019930522H
	DD	01H
	DD	FLAT:__unwindtable$?CheckeNameType@CCodeTypeBase@@SAHPAD@Z
	DD	2 DUP(00H)
	DD	2 DUP(00H)
	DD	00H
	DD	01H
xdata$x	ENDS
;	COMDAT xdata$x
xdata$x	SEGMENT
__unwindtable$?ConvertOneClickData@CCodeTypeBase@@UAEXPAD@Z DD 0ffffffffH
	DD	FLAT:__unwindfunclet$?ConvertOneClickData@CCodeTypeBase@@UAEXPAD@Z$0
__ehfuncinfo$?ConvertOneClickData@CCodeTypeBase@@UAEXPAD@Z DD 019930522H
	DD	01H
	DD	FLAT:__unwindtable$?ConvertOneClickData@CCodeTypeBase@@UAEXPAD@Z
	DD	2 DUP(00H)
	DD	2 DUP(00H)
	DD	00H
	DD	01H
xdata$x	ENDS
;	COMDAT xdata$x
xdata$x	SEGMENT
__unwindtable$??0CInputCodeListEx@@QAE@XZ DD 0ffffffffH
	DD	FLAT:__unwindfunclet$??0CInputCodeListEx@@QAE@XZ$1
	DD	00H
	DD	FLAT:__unwindfunclet$??0CInputCodeListEx@@QAE@XZ$2
__ehfuncinfo$??0CInputCodeListEx@@QAE@XZ DD 019930522H
	DD	02H
	DD	FLAT:__unwindtable$??0CInputCodeListEx@@QAE@XZ
	DD	2 DUP(00H)
	DD	2 DUP(00H)
	DD	00H
	DD	01H
xdata$x	ENDS
;	COMDAT xdata$x
xdata$x	SEGMENT
__unwindtable$??0CInputCodeList@@QAE@XZ DD 0ffffffffH
	DD	FLAT:__unwindfunclet$??0CInputCodeList@@QAE@XZ$0
	DD	00H
	DD	FLAT:__unwindfunclet$??0CInputCodeList@@QAE@XZ$1
__ehfuncinfo$??0CInputCodeList@@QAE@XZ DD 019930522H
	DD	02H
	DD	FLAT:__unwindtable$??0CInputCodeList@@QAE@XZ
	DD	2 DUP(00H)
	DD	2 DUP(00H)
	DD	00H
	DD	01H
xdata$x	ENDS
;	COMDAT xdata$x
xdata$x	SEGMENT
__unwindtable$?AfxGetPctrInterface@@YGJH@Z DD 0ffffffffH
	DD	FLAT:__unwindfunclet$?AfxGetPctrInterface@@YGJH@Z$0
__ehfuncinfo$?AfxGetPctrInterface@@YGJH@Z DD 019930522H
	DD	01H
	DD	FLAT:__unwindtable$?AfxGetPctrInterface@@YGJH@Z
	DD	2 DUP(00H)
	DD	2 DUP(00H)
	DD	00H
	DD	01H
xdata$x	ENDS
;	COMDAT xdata$x
xdata$x	SEGMENT
__unwindtable$??_G?$CList@PAVCDlgCompGroupData@@PAV1@@@UAEPAXI@Z DD 0ffffffffH
	DD	FLAT:___std_terminate
__ehfuncinfo$??_G?$CList@PAVCDlgCompGroupData@@PAV1@@@UAEPAXI@Z DD 019930522H
	DD	01H
	DD	FLAT:__unwindtable$??_G?$CList@PAVCDlgCompGroupData@@PAV1@@@UAEPAXI@Z
	DD	2 DUP(00H)
	DD	2 DUP(00H)
	DD	00H
	DD	05H
xdata$x	ENDS
;	COMDAT xdata$x
xdata$x	SEGMENT
__ehfuncinfo$??1?$CList@PAVCDlgCompGroupData@@PAV1@@@UAE@XZ DD 019930522H
	DD	00H
	DD	00H
	DD	2 DUP(00H)
	DD	2 DUP(00H)
	DD	00H
	DD	05H
xdata$x	ENDS
;	COMDAT xdata$x
xdata$x	SEGMENT
__unwindtable$??_G?$CList@PAVCDlgCompSubItem@@PAV1@@@UAEPAXI@Z DD 0ffffffffH
	DD	FLAT:___std_terminate
__ehfuncinfo$??_G?$CList@PAVCDlgCompSubItem@@PAV1@@@UAEPAXI@Z DD 019930522H
	DD	01H
	DD	FLAT:__unwindtable$??_G?$CList@PAVCDlgCompSubItem@@PAV1@@@UAEPAXI@Z
	DD	2 DUP(00H)
	DD	2 DUP(00H)
	DD	00H
	DD	05H
xdata$x	ENDS
;	COMDAT xdata$x
xdata$x	SEGMENT
__ehfuncinfo$??1?$CList@PAVCDlgCompSubItem@@PAV1@@@UAE@XZ DD 019930522H
	DD	00H
	DD	00H
	DD	2 DUP(00H)
	DD	2 DUP(00H)
	DD	00H
	DD	05H
xdata$x	ENDS
CRT$XCU	SEGMENT
?RMSG_GETPCTRDATA$initializer$@@3P6AXXZA DD FLAT:??__ERMSG_GETPCTRDATA@@YAXXZ ; RMSG_GETPCTRDATA$initializer$
CRT$XCU	ENDS
CRT$XCU	SEGMENT
?RMSG_SETPCTRDATA$initializer$@@3P6AXXZA DD FLAT:??__ERMSG_SETPCTRDATA@@YAXXZ ; RMSG_SETPCTRDATA$initializer$
CRT$XCU	ENDS
; Function compile flags: /Ogtp
; File C:\Program Files (x86)\Microsoft Visual Studio\2019\Community\VC\Tools\MSVC\14.29.30133\include\xmemory
;	COMDAT ??$_Allocate_manually_vector_aligned@U_Default_allocate_traits@std@@@std@@YAPAXI@Z
_TEXT	SEGMENT
__Bytes$ = 8						; size = 4
??$_Allocate_manually_vector_aligned@U_Default_allocate_traits@std@@@std@@YAPAXI@Z PROC ; std::_Allocate_manually_vector_aligned<std::_Default_allocate_traits>, COMDAT

; 127  : __declspec(allocator) void* _Allocate_manually_vector_aligned(const size_t _Bytes) {

  00000	55		 push	 ebp
  00001	8b ec		 mov	 ebp, esp

; 128  :     // allocate _Bytes manually aligned to at least _Big_allocation_alignment
; 129  :     const size_t _Block_size = _Non_user_size + _Bytes;

  00003	8b 45 08	 mov	 eax, DWORD PTR __Bytes$[ebp]
  00006	8d 48 23	 lea	 ecx, DWORD PTR [eax+35]

; 130  :     if (_Block_size <= _Bytes) {

  00009	3b c8		 cmp	 ecx, eax
  0000b	0f 86 00 00 00
	00		 jbe	 ?_Throw_bad_array_new_length@std@@YAXXZ ; std::_Throw_bad_array_new_length

; 79   :         return ::operator new(_Bytes);

  00011	51		 push	 ecx
  00012	e8 00 00 00 00	 call	 ??2@YAPAXI@Z		; operator new

; 131  :         _Throw_bad_array_new_length(); // add overflow
; 132  :     }
; 133  : 
; 134  :     const uintptr_t _Ptr_container = reinterpret_cast<uintptr_t>(_Traits::_Allocate(_Block_size));

  00017	8b c8		 mov	 ecx, eax

; 79   :         return ::operator new(_Bytes);

  00019	83 c4 04	 add	 esp, 4

; 135  :     _STL_VERIFY(_Ptr_container != 0, "invalid argument"); // validate even in release since we're doing p[-1]

  0001c	85 c9		 test	 ecx, ecx
  0001e	74 0b		 je	 SHORT $LN7@Allocate_m

; 136  :     void* const _Ptr = reinterpret_cast<void*>((_Ptr_container + _Non_user_size) & ~(_Big_allocation_alignment - 1));

  00020	8d 41 23	 lea	 eax, DWORD PTR [ecx+35]
  00023	83 e0 e0	 and	 eax, -32		; ffffffe0H

; 137  :     static_cast<uintptr_t*>(_Ptr)[-1] = _Ptr_container;

  00026	89 48 fc	 mov	 DWORD PTR [eax-4], ecx

; 138  : 
; 139  : #ifdef _DEBUG
; 140  :     static_cast<uintptr_t*>(_Ptr)[-2] = _Big_allocation_sentinel;
; 141  : #endif // _DEBUG
; 142  :     return _Ptr;
; 143  : }

  00029	5d		 pop	 ebp
  0002a	c3		 ret	 0
$LN7@Allocate_m:

; 135  :     _STL_VERIFY(_Ptr_container != 0, "invalid argument"); // validate even in release since we're doing p[-1]

  0002b	ff 25 00 00 00
	00		 jmp	 DWORD PTR __imp___invalid_parameter_noinfo_noreturn
??$_Allocate_manually_vector_aligned@U_Default_allocate_traits@std@@@std@@YAPAXI@Z ENDP ; std::_Allocate_manually_vector_aligned<std::_Default_allocate_traits>
_TEXT	ENDS
; Function compile flags: /Ogtp
; File C:\Program Files (x86)\Microsoft Visual Studio\2019\Community\VC\Tools\MSVC\14.29.30133\include\xutility
;	COMDAT ??$_Copy_memmove@PAHPAH@std@@YAPAHPAH00@Z
_TEXT	SEGMENT
__First$ = 8						; size = 4
__Last$ = 12						; size = 4
__Dest$ = 16						; size = 4
??$_Copy_memmove@PAHPAH@std@@YAPAHPAH00@Z PROC		; std::_Copy_memmove<int *,int *>, COMDAT

; 4058 : _OutCtgIt _Copy_memmove(_CtgIt _First, _CtgIt _Last, _OutCtgIt _Dest) {

  00000	55		 push	 ebp
  00001	8b ec		 mov	 ebp, esp

; 4059 :     auto _FirstPtr              = _To_address(_First);
; 4060 :     auto _LastPtr               = _To_address(_Last);
; 4061 :     auto _DestPtr               = _To_address(_Dest);
; 4062 :     const char* const _First_ch = const_cast<const char*>(reinterpret_cast<const volatile char*>(_FirstPtr));
; 4063 :     const char* const _Last_ch  = const_cast<const char*>(reinterpret_cast<const volatile char*>(_LastPtr));
; 4064 :     char* const _Dest_ch        = const_cast<char*>(reinterpret_cast<const volatile char*>(_DestPtr));
; 4065 :     const auto _Count           = static_cast<size_t>(_Last_ch - _First_ch);

  00003	8b 45 08	 mov	 eax, DWORD PTR __First$[ebp]
  00006	56		 push	 esi

; 4066 :     _CSTD memmove(_Dest_ch, _First_ch, _Count);

  00007	8b 75 10	 mov	 esi, DWORD PTR __Dest$[ebp]
  0000a	57		 push	 edi
  0000b	8b 7d 0c	 mov	 edi, DWORD PTR __Last$[ebp]
  0000e	2b f8		 sub	 edi, eax
  00010	57		 push	 edi
  00011	50		 push	 eax
  00012	56		 push	 esi
  00013	e8 00 00 00 00	 call	 _memmove
  00018	83 c4 0c	 add	 esp, 12			; 0000000cH

; 4067 :     if constexpr (is_pointer_v<_OutCtgIt>) {
; 4068 :         return reinterpret_cast<_OutCtgIt>(_Dest_ch + _Count);

  0001b	8d 04 37	 lea	 eax, DWORD PTR [edi+esi]
  0001e	5f		 pop	 edi
  0001f	5e		 pop	 esi

; 4069 :     } else {
; 4070 :         return _Dest + (_LastPtr - _FirstPtr);
; 4071 :     }
; 4072 : }

  00020	5d		 pop	 ebp
  00021	c3		 ret	 0
??$_Copy_memmove@PAHPAH@std@@YAPAHPAH00@Z ENDP		; std::_Copy_memmove<int *,int *>
_TEXT	ENDS
; Function compile flags: /Ogtp
; File C:\Program Files (x86)\Microsoft Visual Studio\2019\Community\VC\Tools\MSVC\14.29.30133\atlmfc\include\afxtempl.h
; File C:\Program Files (x86)\Microsoft Visual Studio\2019\Community\VC\Tools\MSVC\14.29.30133\atlmfc\include\afx.inl
; File C:\Program Files (x86)\Microsoft Visual Studio\2019\Community\VC\Tools\MSVC\14.29.30133\atlmfc\include\afxtempl.h
; File C:\Program Files (x86)\Microsoft Visual Studio\2019\Community\VC\Tools\MSVC\14.29.30133\atlmfc\include\afx.inl
; File C:\Program Files (x86)\Microsoft Visual Studio\2019\Community\VC\Tools\MSVC\14.29.30133\atlmfc\include\afxtempl.h
; File C:\Program Files (x86)\Microsoft Visual Studio\2019\Community\VC\Tools\MSVC\14.29.30133\atlmfc\include\afx.inl
; File C:\Program Files (x86)\Microsoft Visual Studio\2019\Community\VC\Tools\MSVC\14.29.30133\atlmfc\include\afxtempl.h
;	COMDAT ??$SerializeElements@PAVCCallPutIMonthData@@@@YGXAAVCArchive@@PAPAVCCallPutIMonthData@@H@Z
_TEXT	SEGMENT
_ar$ = 8						; size = 4
_pElements$ = 12					; size = 4
_nCount$ = 16						; size = 4
??$SerializeElements@PAVCCallPutIMonthData@@@@YGXAAVCArchive@@PAPAVCCallPutIMonthData@@H@Z PROC ; SerializeElements<CCallPutIMonthData *>, COMDAT

; 67   : {

  00000	55		 push	 ebp
  00001	8b ec		 mov	 ebp, esp

; 68   : 	ENSURE(nCount == 0 || pElements != NULL);

  00003	8b 4d 0c	 mov	 ecx, DWORD PTR _pElements$[ebp]
  00006	53		 push	 ebx
  00007	56		 push	 esi
  00008	8b 75 10	 mov	 esi, DWORD PTR _nCount$[ebp]
  0000b	57		 push	 edi
  0000c	85 f6		 test	 esi, esi
  0000e	74 08		 je	 SHORT $LN2@SerializeE
  00010	85 c9		 test	 ecx, ecx
  00012	0f 84 89 00 00
	00		 je	 $LN34@SerializeE
$LN2@SerializeE:
; File C:\Program Files (x86)\Microsoft Visual Studio\2019\Community\VC\Tools\MSVC\14.29.30133\atlmfc\include\afx.inl

; 212  : 	{ return (m_nMode & CArchive::load) == 0; }

  00018	8b 55 08	 mov	 edx, DWORD PTR _ar$[ebp]
  0001b	8b 42 18	 mov	 eax, DWORD PTR [edx+24]
  0001e	f7 d0		 not	 eax
  00020	a8 01		 test	 al, 1
; File C:\Program Files (x86)\Microsoft Visual Studio\2019\Community\VC\Tools\MSVC\14.29.30133\atlmfc\include\afxtempl.h

; 73   : 	if (ar.IsStoring())

  00022	74 3c		 je	 SHORT $LN10@SerializeE

; 74   : 	{
; 75   : 		TYPE* pData;
; 76   : 		UINT_PTR nElementsLeft;
; 77   : 
; 78   : 		nElementsLeft = nCount;
; 79   : 		pData = pElements;
; 80   : 		while( nElementsLeft > 0 )

  00024	85 f6		 test	 esi, esi
  00026	74 31		 je	 SHORT $LN8@SerializeE
  00028	0f 1f 84 00 00
	00 00 00	 npad	 8
$LL5@SerializeE:

; 81   : 		{
; 82   : 			UINT nElementsToWrite;
; 83   : 
; 84   : 			nElementsToWrite = UINT(__min(nElementsLeft, INT_MAX/sizeof(TYPE)));

  00030	bb ff ff ff 1f	 mov	 ebx, 536870911		; 1fffffffH
  00035	3b f3		 cmp	 esi, ebx
  00037	0f 42 de	 cmovb	 ebx, esi

; 85   : 			ar.Write(pData, nElementsToWrite*sizeof(TYPE));

  0003a	8d 3c 9d 00 00
	00 00		 lea	 edi, DWORD PTR [ebx*4]
  00041	57		 push	 edi
  00042	51		 push	 ecx
  00043	8b ca		 mov	 ecx, edx
  00045	e8 00 00 00 00	 call	 ?Write@CArchive@@QAEXPBXI@Z ; CArchive::Write

; 86   : 			nElementsLeft -= nElementsToWrite;
; 87   : 			pData += nElementsToWrite;

  0004a	8b 4d 0c	 mov	 ecx, DWORD PTR _pElements$[ebp]
  0004d	8b 55 08	 mov	 edx, DWORD PTR _ar$[ebp]
  00050	03 cf		 add	 ecx, edi
  00052	89 4d 0c	 mov	 DWORD PTR _pElements$[ebp], ecx
  00055	2b f3		 sub	 esi, ebx
  00057	75 d7		 jne	 SHORT $LL5@SerializeE
$LN8@SerializeE:
  00059	5f		 pop	 edi

; 105  : 		}
; 106  : 	}
; 107  : }

  0005a	5e		 pop	 esi
  0005b	5b		 pop	 ebx
  0005c	5d		 pop	 ebp
  0005d	c2 0c 00	 ret	 12			; 0000000cH
$LN10@SerializeE:

; 97   : 		while( nElementsLeft > 0 )

  00060	85 f6		 test	 esi, esi
  00062	74 f5		 je	 SHORT $LN8@SerializeE
$LL7@SerializeE:

; 98   : 		{
; 99   : 			UINT nElementsToRead;
; 100  : 
; 101  : 			nElementsToRead = UINT(__min(nElementsLeft, INT_MAX/sizeof(TYPE)));

  00064	bf ff ff ff 1f	 mov	 edi, 536870911		; 1fffffffH
  00069	3b f7		 cmp	 esi, edi
  0006b	0f 42 fe	 cmovb	 edi, esi

; 102  : 			ar.EnsureRead(pData, nElementsToRead*sizeof(TYPE));

  0006e	8d 1c bd 00 00
	00 00		 lea	 ebx, DWORD PTR [edi*4]
; File C:\Program Files (x86)\Microsoft Visual Studio\2019\Community\VC\Tools\MSVC\14.29.30133\atlmfc\include\afx.inl

; 399  : 	UINT nRead=Read(lpBuf, nCount);

  00075	53		 push	 ebx
  00076	51		 push	 ecx
  00077	8b ca		 mov	 ecx, edx
  00079	e8 00 00 00 00	 call	 ?Read@CArchive@@QAEIPAXI@Z ; CArchive::Read

; 400  : 	if(nRead!=nCount)

  0007e	3b c3		 cmp	 eax, ebx
  00080	75 16		 jne	 SHORT $LN23@SerializeE
; File C:\Program Files (x86)\Microsoft Visual Studio\2019\Community\VC\Tools\MSVC\14.29.30133\atlmfc\include\afxtempl.h

; 97   : 		while( nElementsLeft > 0 )

  00082	8b 4d 0c	 mov	 ecx, DWORD PTR _pElements$[ebp]
  00085	8b 55 08	 mov	 edx, DWORD PTR _ar$[ebp]

; 103  : 			nElementsLeft -= nElementsToRead;
; 104  : 			pData += nElementsToRead;

  00088	03 cb		 add	 ecx, ebx
  0008a	89 4d 0c	 mov	 DWORD PTR _pElements$[ebp], ecx
  0008d	2b f7		 sub	 esi, edi
  0008f	75 d3		 jne	 SHORT $LL7@SerializeE

; 105  : 		}
; 106  : 	}
; 107  : }

  00091	5f		 pop	 edi
  00092	5e		 pop	 esi
  00093	5b		 pop	 ebx
  00094	5d		 pop	 ebp
  00095	c2 0c 00	 ret	 12			; 0000000cH
$LN23@SerializeE:
; File C:\Program Files (x86)\Microsoft Visual Studio\2019\Community\VC\Tools\MSVC\14.29.30133\atlmfc\include\afx.inl

; 402  : 		AfxThrowArchiveException(CArchiveException::endOfFile);

  00098	6a 00		 push	 0
  0009a	6a 03		 push	 3
  0009c	e8 00 00 00 00	 call	 ?AfxThrowArchiveException@@YGXHPBD@Z ; AfxThrowArchiveException
$LN34@SerializeE:
; File C:\Program Files (x86)\Microsoft Visual Studio\2019\Community\VC\Tools\MSVC\14.29.30133\atlmfc\include\afxtempl.h

; 68   : 	ENSURE(nCount == 0 || pElements != NULL);

  000a1	e8 00 00 00 00	 call	 ?AfxThrowInvalidArgException@@YGXXZ ; AfxThrowInvalidArgException
$LN32@SerializeE:
  000a6	cc		 int	 3
??$SerializeElements@PAVCCallPutIMonthData@@@@YGXAAVCArchive@@PAPAVCCallPutIMonthData@@H@Z ENDP ; SerializeElements<CCallPutIMonthData *>
_TEXT	ENDS
; Function compile flags: /Ogtp
; File C:\Program Files (x86)\Microsoft Visual Studio\2019\Community\VC\Tools\MSVC\14.29.30133\atlmfc\include\afxtempl.h
; File C:\Program Files (x86)\Microsoft Visual Studio\2019\Community\VC\Tools\MSVC\14.29.30133\atlmfc\include\afx.inl
; File C:\Program Files (x86)\Microsoft Visual Studio\2019\Community\VC\Tools\MSVC\14.29.30133\atlmfc\include\afxtempl.h
; File C:\Program Files (x86)\Microsoft Visual Studio\2019\Community\VC\Tools\MSVC\14.29.30133\atlmfc\include\afx.inl
; File C:\Program Files (x86)\Microsoft Visual Studio\2019\Community\VC\Tools\MSVC\14.29.30133\atlmfc\include\afxtempl.h
; File C:\Program Files (x86)\Microsoft Visual Studio\2019\Community\VC\Tools\MSVC\14.29.30133\atlmfc\include\afx.inl
; File C:\Program Files (x86)\Microsoft Visual Studio\2019\Community\VC\Tools\MSVC\14.29.30133\atlmfc\include\afxtempl.h
;	COMDAT ??$SerializeElements@PAVCCallPutItemData@@@@YGXAAVCArchive@@PAPAVCCallPutItemData@@H@Z
_TEXT	SEGMENT
_ar$ = 8						; size = 4
_pElements$ = 12					; size = 4
_nCount$ = 16						; size = 4
??$SerializeElements@PAVCCallPutItemData@@@@YGXAAVCArchive@@PAPAVCCallPutItemData@@H@Z PROC ; SerializeElements<CCallPutItemData *>, COMDAT

; 67   : {

  00000	55		 push	 ebp
  00001	8b ec		 mov	 ebp, esp

; 68   : 	ENSURE(nCount == 0 || pElements != NULL);

  00003	8b 4d 0c	 mov	 ecx, DWORD PTR _pElements$[ebp]
  00006	53		 push	 ebx
  00007	56		 push	 esi
  00008	8b 75 10	 mov	 esi, DWORD PTR _nCount$[ebp]
  0000b	57		 push	 edi
  0000c	85 f6		 test	 esi, esi
  0000e	74 08		 je	 SHORT $LN2@SerializeE
  00010	85 c9		 test	 ecx, ecx
  00012	0f 84 89 00 00
	00		 je	 $LN34@SerializeE
$LN2@SerializeE:
; File C:\Program Files (x86)\Microsoft Visual Studio\2019\Community\VC\Tools\MSVC\14.29.30133\atlmfc\include\afx.inl

; 212  : 	{ return (m_nMode & CArchive::load) == 0; }

  00018	8b 55 08	 mov	 edx, DWORD PTR _ar$[ebp]
  0001b	8b 42 18	 mov	 eax, DWORD PTR [edx+24]
  0001e	f7 d0		 not	 eax
  00020	a8 01		 test	 al, 1
; File C:\Program Files (x86)\Microsoft Visual Studio\2019\Community\VC\Tools\MSVC\14.29.30133\atlmfc\include\afxtempl.h

; 73   : 	if (ar.IsStoring())

  00022	74 3c		 je	 SHORT $LN10@SerializeE

; 74   : 	{
; 75   : 		TYPE* pData;
; 76   : 		UINT_PTR nElementsLeft;
; 77   : 
; 78   : 		nElementsLeft = nCount;
; 79   : 		pData = pElements;
; 80   : 		while( nElementsLeft > 0 )

  00024	85 f6		 test	 esi, esi
  00026	74 31		 je	 SHORT $LN8@SerializeE
  00028	0f 1f 84 00 00
	00 00 00	 npad	 8
$LL5@SerializeE:

; 81   : 		{
; 82   : 			UINT nElementsToWrite;
; 83   : 
; 84   : 			nElementsToWrite = UINT(__min(nElementsLeft, INT_MAX/sizeof(TYPE)));

  00030	bb ff ff ff 1f	 mov	 ebx, 536870911		; 1fffffffH
  00035	3b f3		 cmp	 esi, ebx
  00037	0f 42 de	 cmovb	 ebx, esi

; 85   : 			ar.Write(pData, nElementsToWrite*sizeof(TYPE));

  0003a	8d 3c 9d 00 00
	00 00		 lea	 edi, DWORD PTR [ebx*4]
  00041	57		 push	 edi
  00042	51		 push	 ecx
  00043	8b ca		 mov	 ecx, edx
  00045	e8 00 00 00 00	 call	 ?Write@CArchive@@QAEXPBXI@Z ; CArchive::Write

; 86   : 			nElementsLeft -= nElementsToWrite;
; 87   : 			pData += nElementsToWrite;

  0004a	8b 4d 0c	 mov	 ecx, DWORD PTR _pElements$[ebp]
  0004d	8b 55 08	 mov	 edx, DWORD PTR _ar$[ebp]
  00050	03 cf		 add	 ecx, edi
  00052	89 4d 0c	 mov	 DWORD PTR _pElements$[ebp], ecx
  00055	2b f3		 sub	 esi, ebx
  00057	75 d7		 jne	 SHORT $LL5@SerializeE
$LN8@SerializeE:
  00059	5f		 pop	 edi

; 105  : 		}
; 106  : 	}
; 107  : }

  0005a	5e		 pop	 esi
  0005b	5b		 pop	 ebx
  0005c	5d		 pop	 ebp
  0005d	c2 0c 00	 ret	 12			; 0000000cH
$LN10@SerializeE:

; 97   : 		while( nElementsLeft > 0 )

  00060	85 f6		 test	 esi, esi
  00062	74 f5		 je	 SHORT $LN8@SerializeE
$LL7@SerializeE:

; 98   : 		{
; 99   : 			UINT nElementsToRead;
; 100  : 
; 101  : 			nElementsToRead = UINT(__min(nElementsLeft, INT_MAX/sizeof(TYPE)));

  00064	bf ff ff ff 1f	 mov	 edi, 536870911		; 1fffffffH
  00069	3b f7		 cmp	 esi, edi
  0006b	0f 42 fe	 cmovb	 edi, esi

; 102  : 			ar.EnsureRead(pData, nElementsToRead*sizeof(TYPE));

  0006e	8d 1c bd 00 00
	00 00		 lea	 ebx, DWORD PTR [edi*4]
; File C:\Program Files (x86)\Microsoft Visual Studio\2019\Community\VC\Tools\MSVC\14.29.30133\atlmfc\include\afx.inl

; 399  : 	UINT nRead=Read(lpBuf, nCount);

  00075	53		 push	 ebx
  00076	51		 push	 ecx
  00077	8b ca		 mov	 ecx, edx
  00079	e8 00 00 00 00	 call	 ?Read@CArchive@@QAEIPAXI@Z ; CArchive::Read

; 400  : 	if(nRead!=nCount)

  0007e	3b c3		 cmp	 eax, ebx
  00080	75 16		 jne	 SHORT $LN23@SerializeE
; File C:\Program Files (x86)\Microsoft Visual Studio\2019\Community\VC\Tools\MSVC\14.29.30133\atlmfc\include\afxtempl.h

; 97   : 		while( nElementsLeft > 0 )

  00082	8b 4d 0c	 mov	 ecx, DWORD PTR _pElements$[ebp]
  00085	8b 55 08	 mov	 edx, DWORD PTR _ar$[ebp]

; 103  : 			nElementsLeft -= nElementsToRead;
; 104  : 			pData += nElementsToRead;

  00088	03 cb		 add	 ecx, ebx
  0008a	89 4d 0c	 mov	 DWORD PTR _pElements$[ebp], ecx
  0008d	2b f7		 sub	 esi, edi
  0008f	75 d3		 jne	 SHORT $LL7@SerializeE

; 105  : 		}
; 106  : 	}
; 107  : }

  00091	5f		 pop	 edi
  00092	5e		 pop	 esi
  00093	5b		 pop	 ebx
  00094	5d		 pop	 ebp
  00095	c2 0c 00	 ret	 12			; 0000000cH
$LN23@SerializeE:
; File C:\Program Files (x86)\Microsoft Visual Studio\2019\Community\VC\Tools\MSVC\14.29.30133\atlmfc\include\afx.inl

; 402  : 		AfxThrowArchiveException(CArchiveException::endOfFile);

  00098	6a 00		 push	 0
  0009a	6a 03		 push	 3
  0009c	e8 00 00 00 00	 call	 ?AfxThrowArchiveException@@YGXHPBD@Z ; AfxThrowArchiveException
$LN34@SerializeE:
; File C:\Program Files (x86)\Microsoft Visual Studio\2019\Community\VC\Tools\MSVC\14.29.30133\atlmfc\include\afxtempl.h

; 68   : 	ENSURE(nCount == 0 || pElements != NULL);

  000a1	e8 00 00 00 00	 call	 ?AfxThrowInvalidArgException@@YGXXZ ; AfxThrowInvalidArgException
$LN32@SerializeE:
  000a6	cc		 int	 3
??$SerializeElements@PAVCCallPutItemData@@@@YGXAAVCArchive@@PAPAVCCallPutItemData@@H@Z ENDP ; SerializeElements<CCallPutItemData *>
_TEXT	ENDS
; Function compile flags: /Ogtp
; File C:\Program Files (x86)\Microsoft Visual Studio\2019\Community\VC\Tools\MSVC\14.29.30133\atlmfc\include\afxtempl.h
; File C:\Program Files (x86)\Microsoft Visual Studio\2019\Community\VC\Tools\MSVC\14.29.30133\atlmfc\include\afx.inl
; File C:\Program Files (x86)\Microsoft Visual Studio\2019\Community\VC\Tools\MSVC\14.29.30133\atlmfc\include\afxtempl.h
; File C:\Program Files (x86)\Microsoft Visual Studio\2019\Community\VC\Tools\MSVC\14.29.30133\atlmfc\include\afx.inl
; File C:\Program Files (x86)\Microsoft Visual Studio\2019\Community\VC\Tools\MSVC\14.29.30133\atlmfc\include\afxtempl.h
; File C:\Program Files (x86)\Microsoft Visual Studio\2019\Community\VC\Tools\MSVC\14.29.30133\atlmfc\include\afx.inl
; File C:\Program Files (x86)\Microsoft Visual Studio\2019\Community\VC\Tools\MSVC\14.29.30133\atlmfc\include\afxtempl.h
;	COMDAT ??$SerializeElements@PAVCDlgCompGroupData@@@@YGXAAVCArchive@@PAPAVCDlgCompGroupData@@H@Z
_TEXT	SEGMENT
_ar$ = 8						; size = 4
_pElements$ = 12					; size = 4
_nCount$ = 16						; size = 4
??$SerializeElements@PAVCDlgCompGroupData@@@@YGXAAVCArchive@@PAPAVCDlgCompGroupData@@H@Z PROC ; SerializeElements<CDlgCompGroupData *>, COMDAT

; 67   : {

  00000	55		 push	 ebp
  00001	8b ec		 mov	 ebp, esp

; 68   : 	ENSURE(nCount == 0 || pElements != NULL);

  00003	8b 4d 0c	 mov	 ecx, DWORD PTR _pElements$[ebp]
  00006	53		 push	 ebx
  00007	56		 push	 esi
  00008	8b 75 10	 mov	 esi, DWORD PTR _nCount$[ebp]
  0000b	57		 push	 edi
  0000c	85 f6		 test	 esi, esi
  0000e	74 08		 je	 SHORT $LN2@SerializeE
  00010	85 c9		 test	 ecx, ecx
  00012	0f 84 89 00 00
	00		 je	 $LN34@SerializeE
$LN2@SerializeE:
; File C:\Program Files (x86)\Microsoft Visual Studio\2019\Community\VC\Tools\MSVC\14.29.30133\atlmfc\include\afx.inl

; 212  : 	{ return (m_nMode & CArchive::load) == 0; }

  00018	8b 55 08	 mov	 edx, DWORD PTR _ar$[ebp]
  0001b	8b 42 18	 mov	 eax, DWORD PTR [edx+24]
  0001e	f7 d0		 not	 eax
  00020	a8 01		 test	 al, 1
; File C:\Program Files (x86)\Microsoft Visual Studio\2019\Community\VC\Tools\MSVC\14.29.30133\atlmfc\include\afxtempl.h

; 73   : 	if (ar.IsStoring())

  00022	74 3c		 je	 SHORT $LN10@SerializeE

; 74   : 	{
; 75   : 		TYPE* pData;
; 76   : 		UINT_PTR nElementsLeft;
; 77   : 
; 78   : 		nElementsLeft = nCount;
; 79   : 		pData = pElements;
; 80   : 		while( nElementsLeft > 0 )

  00024	85 f6		 test	 esi, esi
  00026	74 31		 je	 SHORT $LN8@SerializeE
  00028	0f 1f 84 00 00
	00 00 00	 npad	 8
$LL5@SerializeE:

; 81   : 		{
; 82   : 			UINT nElementsToWrite;
; 83   : 
; 84   : 			nElementsToWrite = UINT(__min(nElementsLeft, INT_MAX/sizeof(TYPE)));

  00030	bb ff ff ff 1f	 mov	 ebx, 536870911		; 1fffffffH
  00035	3b f3		 cmp	 esi, ebx
  00037	0f 42 de	 cmovb	 ebx, esi

; 85   : 			ar.Write(pData, nElementsToWrite*sizeof(TYPE));

  0003a	8d 3c 9d 00 00
	00 00		 lea	 edi, DWORD PTR [ebx*4]
  00041	57		 push	 edi
  00042	51		 push	 ecx
  00043	8b ca		 mov	 ecx, edx
  00045	e8 00 00 00 00	 call	 ?Write@CArchive@@QAEXPBXI@Z ; CArchive::Write

; 86   : 			nElementsLeft -= nElementsToWrite;
; 87   : 			pData += nElementsToWrite;

  0004a	8b 4d 0c	 mov	 ecx, DWORD PTR _pElements$[ebp]
  0004d	8b 55 08	 mov	 edx, DWORD PTR _ar$[ebp]
  00050	03 cf		 add	 ecx, edi
  00052	89 4d 0c	 mov	 DWORD PTR _pElements$[ebp], ecx
  00055	2b f3		 sub	 esi, ebx
  00057	75 d7		 jne	 SHORT $LL5@SerializeE
$LN8@SerializeE:
  00059	5f		 pop	 edi

; 105  : 		}
; 106  : 	}
; 107  : }

  0005a	5e		 pop	 esi
  0005b	5b		 pop	 ebx
  0005c	5d		 pop	 ebp
  0005d	c2 0c 00	 ret	 12			; 0000000cH
$LN10@SerializeE:

; 97   : 		while( nElementsLeft > 0 )

  00060	85 f6		 test	 esi, esi
  00062	74 f5		 je	 SHORT $LN8@SerializeE
$LL7@SerializeE:

; 98   : 		{
; 99   : 			UINT nElementsToRead;
; 100  : 
; 101  : 			nElementsToRead = UINT(__min(nElementsLeft, INT_MAX/sizeof(TYPE)));

  00064	bf ff ff ff 1f	 mov	 edi, 536870911		; 1fffffffH
  00069	3b f7		 cmp	 esi, edi
  0006b	0f 42 fe	 cmovb	 edi, esi

; 102  : 			ar.EnsureRead(pData, nElementsToRead*sizeof(TYPE));

  0006e	8d 1c bd 00 00
	00 00		 lea	 ebx, DWORD PTR [edi*4]
; File C:\Program Files (x86)\Microsoft Visual Studio\2019\Community\VC\Tools\MSVC\14.29.30133\atlmfc\include\afx.inl

; 399  : 	UINT nRead=Read(lpBuf, nCount);

  00075	53		 push	 ebx
  00076	51		 push	 ecx
  00077	8b ca		 mov	 ecx, edx
  00079	e8 00 00 00 00	 call	 ?Read@CArchive@@QAEIPAXI@Z ; CArchive::Read

; 400  : 	if(nRead!=nCount)

  0007e	3b c3		 cmp	 eax, ebx
  00080	75 16		 jne	 SHORT $LN23@SerializeE
; File C:\Program Files (x86)\Microsoft Visual Studio\2019\Community\VC\Tools\MSVC\14.29.30133\atlmfc\include\afxtempl.h

; 97   : 		while( nElementsLeft > 0 )

  00082	8b 4d 0c	 mov	 ecx, DWORD PTR _pElements$[ebp]
  00085	8b 55 08	 mov	 edx, DWORD PTR _ar$[ebp]

; 103  : 			nElementsLeft -= nElementsToRead;
; 104  : 			pData += nElementsToRead;

  00088	03 cb		 add	 ecx, ebx
  0008a	89 4d 0c	 mov	 DWORD PTR _pElements$[ebp], ecx
  0008d	2b f7		 sub	 esi, edi
  0008f	75 d3		 jne	 SHORT $LL7@SerializeE

; 105  : 		}
; 106  : 	}
; 107  : }

  00091	5f		 pop	 edi
  00092	5e		 pop	 esi
  00093	5b		 pop	 ebx
  00094	5d		 pop	 ebp
  00095	c2 0c 00	 ret	 12			; 0000000cH
$LN23@SerializeE:
; File C:\Program Files (x86)\Microsoft Visual Studio\2019\Community\VC\Tools\MSVC\14.29.30133\atlmfc\include\afx.inl

; 402  : 		AfxThrowArchiveException(CArchiveException::endOfFile);

  00098	6a 00		 push	 0
  0009a	6a 03		 push	 3
  0009c	e8 00 00 00 00	 call	 ?AfxThrowArchiveException@@YGXHPBD@Z ; AfxThrowArchiveException
$LN34@SerializeE:
; File C:\Program Files (x86)\Microsoft Visual Studio\2019\Community\VC\Tools\MSVC\14.29.30133\atlmfc\include\afxtempl.h

; 68   : 	ENSURE(nCount == 0 || pElements != NULL);

  000a1	e8 00 00 00 00	 call	 ?AfxThrowInvalidArgException@@YGXXZ ; AfxThrowInvalidArgException
$LN32@SerializeE:
  000a6	cc		 int	 3
??$SerializeElements@PAVCDlgCompGroupData@@@@YGXAAVCArchive@@PAPAVCDlgCompGroupData@@H@Z ENDP ; SerializeElements<CDlgCompGroupData *>
_TEXT	ENDS
; Function compile flags: /Ogtp
; File C:\Program Files (x86)\Microsoft Visual Studio\2019\Community\VC\Tools\MSVC\14.29.30133\atlmfc\include\afxtempl.h
; File C:\Program Files (x86)\Microsoft Visual Studio\2019\Community\VC\Tools\MSVC\14.29.30133\atlmfc\include\afx.inl
; File C:\Program Files (x86)\Microsoft Visual Studio\2019\Community\VC\Tools\MSVC\14.29.30133\atlmfc\include\afxtempl.h
; File C:\Program Files (x86)\Microsoft Visual Studio\2019\Community\VC\Tools\MSVC\14.29.30133\atlmfc\include\afx.inl
; File C:\Program Files (x86)\Microsoft Visual Studio\2019\Community\VC\Tools\MSVC\14.29.30133\atlmfc\include\afxtempl.h
; File C:\Program Files (x86)\Microsoft Visual Studio\2019\Community\VC\Tools\MSVC\14.29.30133\atlmfc\include\afx.inl
; File C:\Program Files (x86)\Microsoft Visual Studio\2019\Community\VC\Tools\MSVC\14.29.30133\atlmfc\include\afxtempl.h
;	COMDAT ??$SerializeElements@PAVCDlgCompSubItem@@@@YGXAAVCArchive@@PAPAVCDlgCompSubItem@@H@Z
_TEXT	SEGMENT
_ar$ = 8						; size = 4
_pElements$ = 12					; size = 4
_nCount$ = 16						; size = 4
??$SerializeElements@PAVCDlgCompSubItem@@@@YGXAAVCArchive@@PAPAVCDlgCompSubItem@@H@Z PROC ; SerializeElements<CDlgCompSubItem *>, COMDAT

; 67   : {

  00000	55		 push	 ebp
  00001	8b ec		 mov	 ebp, esp

; 68   : 	ENSURE(nCount == 0 || pElements != NULL);

  00003	8b 4d 0c	 mov	 ecx, DWORD PTR _pElements$[ebp]
  00006	53		 push	 ebx
  00007	56		 push	 esi
  00008	8b 75 10	 mov	 esi, DWORD PTR _nCount$[ebp]
  0000b	57		 push	 edi
  0000c	85 f6		 test	 esi, esi
  0000e	74 08		 je	 SHORT $LN2@SerializeE
  00010	85 c9		 test	 ecx, ecx
  00012	0f 84 89 00 00
	00		 je	 $LN34@SerializeE
$LN2@SerializeE:
; File C:\Program Files (x86)\Microsoft Visual Studio\2019\Community\VC\Tools\MSVC\14.29.30133\atlmfc\include\afx.inl

; 212  : 	{ return (m_nMode & CArchive::load) == 0; }

  00018	8b 55 08	 mov	 edx, DWORD PTR _ar$[ebp]
  0001b	8b 42 18	 mov	 eax, DWORD PTR [edx+24]
  0001e	f7 d0		 not	 eax
  00020	a8 01		 test	 al, 1
; File C:\Program Files (x86)\Microsoft Visual Studio\2019\Community\VC\Tools\MSVC\14.29.30133\atlmfc\include\afxtempl.h

; 73   : 	if (ar.IsStoring())

  00022	74 3c		 je	 SHORT $LN10@SerializeE

; 74   : 	{
; 75   : 		TYPE* pData;
; 76   : 		UINT_PTR nElementsLeft;
; 77   : 
; 78   : 		nElementsLeft = nCount;
; 79   : 		pData = pElements;
; 80   : 		while( nElementsLeft > 0 )

  00024	85 f6		 test	 esi, esi
  00026	74 31		 je	 SHORT $LN8@SerializeE
  00028	0f 1f 84 00 00
	00 00 00	 npad	 8
$LL5@SerializeE:

; 81   : 		{
; 82   : 			UINT nElementsToWrite;
; 83   : 
; 84   : 			nElementsToWrite = UINT(__min(nElementsLeft, INT_MAX/sizeof(TYPE)));

  00030	bb ff ff ff 1f	 mov	 ebx, 536870911		; 1fffffffH
  00035	3b f3		 cmp	 esi, ebx
  00037	0f 42 de	 cmovb	 ebx, esi

; 85   : 			ar.Write(pData, nElementsToWrite*sizeof(TYPE));

  0003a	8d 3c 9d 00 00
	00 00		 lea	 edi, DWORD PTR [ebx*4]
  00041	57		 push	 edi
  00042	51		 push	 ecx
  00043	8b ca		 mov	 ecx, edx
  00045	e8 00 00 00 00	 call	 ?Write@CArchive@@QAEXPBXI@Z ; CArchive::Write

; 86   : 			nElementsLeft -= nElementsToWrite;
; 87   : 			pData += nElementsToWrite;

  0004a	8b 4d 0c	 mov	 ecx, DWORD PTR _pElements$[ebp]
  0004d	8b 55 08	 mov	 edx, DWORD PTR _ar$[ebp]
  00050	03 cf		 add	 ecx, edi
  00052	89 4d 0c	 mov	 DWORD PTR _pElements$[ebp], ecx
  00055	2b f3		 sub	 esi, ebx
  00057	75 d7		 jne	 SHORT $LL5@SerializeE
$LN8@SerializeE:
  00059	5f		 pop	 edi

; 105  : 		}
; 106  : 	}
; 107  : }

  0005a	5e		 pop	 esi
  0005b	5b		 pop	 ebx
  0005c	5d		 pop	 ebp
  0005d	c2 0c 00	 ret	 12			; 0000000cH
$LN10@SerializeE:

; 97   : 		while( nElementsLeft > 0 )

  00060	85 f6		 test	 esi, esi
  00062	74 f5		 je	 SHORT $LN8@SerializeE
$LL7@SerializeE:

; 98   : 		{
; 99   : 			UINT nElementsToRead;
; 100  : 
; 101  : 			nElementsToRead = UINT(__min(nElementsLeft, INT_MAX/sizeof(TYPE)));

  00064	bf ff ff ff 1f	 mov	 edi, 536870911		; 1fffffffH
  00069	3b f7		 cmp	 esi, edi
  0006b	0f 42 fe	 cmovb	 edi, esi

; 102  : 			ar.EnsureRead(pData, nElementsToRead*sizeof(TYPE));

  0006e	8d 1c bd 00 00
	00 00		 lea	 ebx, DWORD PTR [edi*4]
; File C:\Program Files (x86)\Microsoft Visual Studio\2019\Community\VC\Tools\MSVC\14.29.30133\atlmfc\include\afx.inl

; 399  : 	UINT nRead=Read(lpBuf, nCount);

  00075	53		 push	 ebx
  00076	51		 push	 ecx
  00077	8b ca		 mov	 ecx, edx
  00079	e8 00 00 00 00	 call	 ?Read@CArchive@@QAEIPAXI@Z ; CArchive::Read

; 400  : 	if(nRead!=nCount)

  0007e	3b c3		 cmp	 eax, ebx
  00080	75 16		 jne	 SHORT $LN23@SerializeE
; File C:\Program Files (x86)\Microsoft Visual Studio\2019\Community\VC\Tools\MSVC\14.29.30133\atlmfc\include\afxtempl.h

; 97   : 		while( nElementsLeft > 0 )

  00082	8b 4d 0c	 mov	 ecx, DWORD PTR _pElements$[ebp]
  00085	8b 55 08	 mov	 edx, DWORD PTR _ar$[ebp]

; 103  : 			nElementsLeft -= nElementsToRead;
; 104  : 			pData += nElementsToRead;

  00088	03 cb		 add	 ecx, ebx
  0008a	89 4d 0c	 mov	 DWORD PTR _pElements$[ebp], ecx
  0008d	2b f7		 sub	 esi, edi
  0008f	75 d3		 jne	 SHORT $LL7@SerializeE

; 105  : 		}
; 106  : 	}
; 107  : }

  00091	5f		 pop	 edi
  00092	5e		 pop	 esi
  00093	5b		 pop	 ebx
  00094	5d		 pop	 ebp
  00095	c2 0c 00	 ret	 12			; 0000000cH
$LN23@SerializeE:
; File C:\Program Files (x86)\Microsoft Visual Studio\2019\Community\VC\Tools\MSVC\14.29.30133\atlmfc\include\afx.inl

; 402  : 		AfxThrowArchiveException(CArchiveException::endOfFile);

  00098	6a 00		 push	 0
  0009a	6a 03		 push	 3
  0009c	e8 00 00 00 00	 call	 ?AfxThrowArchiveException@@YGXHPBD@Z ; AfxThrowArchiveException
$LN34@SerializeE:
; File C:\Program Files (x86)\Microsoft Visual Studio\2019\Community\VC\Tools\MSVC\14.29.30133\atlmfc\include\afxtempl.h

; 68   : 	ENSURE(nCount == 0 || pElements != NULL);

  000a1	e8 00 00 00 00	 call	 ?AfxThrowInvalidArgException@@YGXXZ ; AfxThrowInvalidArgException
$LN32@SerializeE:
  000a6	cc		 int	 3
??$SerializeElements@PAVCDlgCompSubItem@@@@YGXAAVCArchive@@PAPAVCDlgCompSubItem@@H@Z ENDP ; SerializeElements<CDlgCompSubItem *>
_TEXT	ENDS
; Function compile flags: /Ogtp
; File C:\Program Files (x86)\Microsoft Visual Studio\2019\Community\VC\Tools\MSVC\14.29.30133\include\vector
; File C:\Program Files (x86)\Microsoft Visual Studio\2019\Community\VC\Tools\MSVC\14.29.30133\include\xmemory
; File C:\Program Files (x86)\Microsoft Visual Studio\2019\Community\VC\Tools\MSVC\14.29.30133\include\vector
; File C:\Program Files (x86)\Microsoft Visual Studio\2019\Community\VC\Tools\MSVC\14.29.30133\include\xutility
; File C:\Program Files (x86)\Microsoft Visual Studio\2019\Community\VC\Tools\MSVC\14.29.30133\include\vector
; File C:\Program Files (x86)\Microsoft Visual Studio\2019\Community\VC\Tools\MSVC\14.29.30133\include\xutility
; File C:\Program Files (x86)\Microsoft Visual Studio\2019\Community\VC\Tools\MSVC\14.29.30133\include\vector
; File C:\Program Files (x86)\Microsoft Visual Studio\2019\Community\VC\Tools\MSVC\14.29.30133\include\xutility
; File C:\Program Files (x86)\Microsoft Visual Studio\2019\Community\VC\Tools\MSVC\14.29.30133\include\vector
; File C:\Program Files (x86)\Microsoft Visual Studio\2019\Community\VC\Tools\MSVC\14.29.30133\include\xutility
; File C:\Program Files (x86)\Microsoft Visual Studio\2019\Community\VC\Tools\MSVC\14.29.30133\include\vector
; File C:\Program Files (x86)\Microsoft Visual Studio\2019\Community\VC\Tools\MSVC\14.29.30133\include\xmemory
; File C:\Program Files (x86)\Microsoft Visual Studio\2019\Community\VC\Tools\MSVC\14.29.30133\include\vector
; File C:\Program Files (x86)\Microsoft Visual Studio\2019\Community\VC\Tools\MSVC\14.29.30133\include\xmemory
; File C:\Program Files (x86)\Microsoft Visual Studio\2019\Community\VC\Tools\MSVC\14.29.30133\include\vector
;	COMDAT ??$_Emplace_reallocate@ABH@?$vector@HV?$allocator@H@std@@@std@@QAEPAHQAHABH@Z
_TEXT	SEGMENT
__Newsize$1$ = -8					; size = 4
tv710 = -4						; size = 4
__Whereoff$1$ = -4					; size = 4
__Whereptr$ = 8						; size = 4
_<_Val_0>$ = 12						; size = 4
??$_Emplace_reallocate@ABH@?$vector@HV?$allocator@H@std@@@std@@QAEPAHQAHABH@Z PROC ; std::vector<int,std::allocator<int> >::_Emplace_reallocate<int const &>, COMDAT
; _this$ = ecx

; 752  :     _CONSTEXPR20_CONTAINER pointer _Emplace_reallocate(const pointer _Whereptr, _Valty&&... _Val) {

  00000	55		 push	 ebp
  00001	8b ec		 mov	 ebp, esp
  00003	83 ec 08	 sub	 esp, 8

; 753  :         // reallocate and insert by perfectly forwarding _Val at _Whereptr
; 754  :         _Alty& _Al        = _Getal();
; 755  :         auto& _My_data    = _Mypair._Myval2;
; 756  :         pointer& _Myfirst = _My_data._Myfirst;
; 757  :         pointer& _Mylast  = _My_data._Mylast;
; 758  : 
; 759  :         _STL_INTERNAL_CHECK(_Mylast == _My_data._Myend); // check that we have no unused capacity
; 760  : 
; 761  :         const auto _Whereoff = static_cast<size_type>(_Whereptr - _Myfirst);

  00006	8b 45 08	 mov	 eax, DWORD PTR __Whereptr$[ebp]
  00009	53		 push	 ebx
  0000a	56		 push	 esi
  0000b	57		 push	 edi
  0000c	8b f9		 mov	 edi, ecx
  0000e	8b 0f		 mov	 ecx, DWORD PTR [edi]
  00010	2b c1		 sub	 eax, ecx
  00012	c1 f8 02	 sar	 eax, 2
  00015	89 45 fc	 mov	 DWORD PTR __Whereoff$1$[ebp], eax

; 762  :         const auto _Oldsize  = static_cast<size_type>(_Mylast - _Myfirst);

  00018	8b 47 04	 mov	 eax, DWORD PTR [edi+4]
  0001b	2b c1		 sub	 eax, ecx
  0001d	c1 f8 02	 sar	 eax, 2

; 763  : 
; 764  :         if (_Oldsize == max_size()) {

  00020	3d ff ff ff 3f	 cmp	 eax, 1073741823		; 3fffffffH
  00025	0f 84 24 01 00
	00		 je	 $LN117@Emplace_re

; 1546 :         return static_cast<size_type>(_My_data._Myend - _My_data._Myfirst);

  0002b	8b 57 08	 mov	 edx, DWORD PTR [edi+8]

; 766  :         }
; 767  : 
; 768  :         const size_type _Newsize     = _Oldsize + 1;

  0002e	8d 70 01	 lea	 esi, DWORD PTR [eax+1]

; 1546 :         return static_cast<size_type>(_My_data._Myend - _My_data._Myfirst);

  00031	2b d1		 sub	 edx, ecx

; 766  :         }
; 767  : 
; 768  :         const size_type _Newsize     = _Oldsize + 1;

  00033	89 75 f8	 mov	 DWORD PTR __Newsize$1$[ebp], esi

; 1546 :         return static_cast<size_type>(_My_data._Myend - _My_data._Myfirst);

  00036	c1 fa 02	 sar	 edx, 2

; 1675 :         if (_Oldcapacity > _Max - _Oldcapacity / 2) {

  00039	b8 ff ff ff 3f	 mov	 eax, 1073741823		; 3fffffffH
  0003e	8b ca		 mov	 ecx, edx
  00040	d1 e9		 shr	 ecx, 1
  00042	2b c1		 sub	 eax, ecx
  00044	3b d0		 cmp	 edx, eax
  00046	0f 87 fe 00 00
	00		 ja	 $LN114@Emplace_re

; 1676 :             return _Max; // geometric growth would overflow
; 1677 :         }
; 1678 : 
; 1679 :         const size_type _Geometric = _Oldcapacity + _Oldcapacity / 2;

  0004c	8d 04 11	 lea	 eax, DWORD PTR [ecx+edx]
; File C:\Program Files (x86)\Microsoft Visual Studio\2019\Community\VC\Tools\MSVC\14.29.30133\include\xmemory

; 60   :         if (_Count > _Max_possible) {

  0004f	8b de		 mov	 ebx, esi
  00051	3b c6		 cmp	 eax, esi
  00053	0f 43 d8	 cmovae	 ebx, eax
  00056	81 fb ff ff ff
	3f		 cmp	 ebx, 1073741823		; 3fffffffH
  0005c	0f 87 e8 00 00
	00		 ja	 $LN114@Emplace_re

; 61   :             _Throw_bad_array_new_length(); // multiply overflow
; 62   :         }
; 63   :     }
; 64   : 
; 65   :     return _Count * _Ty_size;

  00062	c1 e3 02	 shl	 ebx, 2

; 228  :         if (_Bytes >= _Big_allocation_threshold) { // boost the alignment of big allocations to help autovectorization

  00065	81 fb 00 10 00
	00		 cmp	 ebx, 4096		; 00001000H
  0006b	72 27		 jb	 SHORT $LN24@Emplace_re

; 129  :     const size_t _Block_size = _Non_user_size + _Bytes;

  0006d	8d 43 23	 lea	 eax, DWORD PTR [ebx+35]

; 130  :     if (_Block_size <= _Bytes) {

  00070	3b c3		 cmp	 eax, ebx
  00072	0f 86 d2 00 00
	00		 jbe	 $LN114@Emplace_re

; 79   :         return ::operator new(_Bytes);

  00078	50		 push	 eax
  00079	e8 00 00 00 00	 call	 ??2@YAPAXI@Z		; operator new
  0007e	83 c4 04	 add	 esp, 4

; 135  :     _STL_VERIFY(_Ptr_container != 0, "invalid argument"); // validate even in release since we're doing p[-1]

  00081	85 c0		 test	 eax, eax
  00083	0f 84 bb 00 00
	00		 je	 $LN105@Emplace_re

; 136  :     void* const _Ptr = reinterpret_cast<void*>((_Ptr_container + _Non_user_size) & ~(_Big_allocation_alignment - 1));

  00089	8d 70 23	 lea	 esi, DWORD PTR [eax+35]
  0008c	83 e6 e0	 and	 esi, -32		; ffffffe0H

; 137  :     static_cast<uintptr_t*>(_Ptr)[-1] = _Ptr_container;

  0008f	89 46 fc	 mov	 DWORD PTR [esi-4], eax

; 229  :             return _Allocate_manually_vector_aligned<_Traits>(_Bytes);

  00092	eb 13		 jmp	 SHORT $LN23@Emplace_re
$LN24@Emplace_re:

; 230  :         }
; 231  :     }
; 232  : #endif // defined(_M_IX86) || defined(_M_X64)
; 233  : 
; 234  :     if (_Bytes != 0) {

  00094	85 db		 test	 ebx, ebx
  00096	74 0d		 je	 SHORT $LN25@Emplace_re

; 79   :         return ::operator new(_Bytes);

  00098	53		 push	 ebx
  00099	e8 00 00 00 00	 call	 ??2@YAPAXI@Z		; operator new
  0009e	83 c4 04	 add	 esp, 4

; 235  :         return _Traits::_Allocate(_Bytes);

  000a1	8b f0		 mov	 esi, eax
  000a3	eb 02		 jmp	 SHORT $LN23@Emplace_re
$LN25@Emplace_re:

; 236  :     }
; 237  : 
; 238  :     return nullptr;

  000a5	33 f6		 xor	 esi, esi
$LN23@Emplace_re:
; File C:\Program Files (x86)\Microsoft Visual Studio\2019\Community\VC\Tools\MSVC\14.29.30133\include\vector

; 776  :         _Alty_traits::construct(_Al, _Unfancy(_Newvec + _Whereoff), _STD forward<_Valty>(_Val)...);

  000a7	8b 45 fc	 mov	 eax, DWORD PTR __Whereoff$1$[ebp]

; 777  :         _Constructed_first = _Newvec + _Whereoff;
; 778  : 
; 779  :         if (_Whereptr == _Mylast) { // at back, provide strong guarantee

  000aa	8b 55 08	 mov	 edx, DWORD PTR __Whereptr$[ebp]
  000ad	8d 0c 86	 lea	 ecx, DWORD PTR [esi+eax*4]
  000b0	8b 45 0c	 mov	 eax, DWORD PTR _<_Val_0>$[ebp]
  000b3	89 4d fc	 mov	 DWORD PTR tv710[ebp], ecx
  000b6	8b 00		 mov	 eax, DWORD PTR [eax]
  000b8	89 01		 mov	 DWORD PTR [ecx], eax
  000ba	8b 47 04	 mov	 eax, DWORD PTR [edi+4]
  000bd	8b 0f		 mov	 ecx, DWORD PTR [edi]
  000bf	3b d0		 cmp	 edx, eax
  000c1	75 0f		 jne	 SHORT $LN4@Emplace_re
; File C:\Program Files (x86)\Microsoft Visual Studio\2019\Community\VC\Tools\MSVC\14.29.30133\include\xutility

; 4065 :     const auto _Count           = static_cast<size_t>(_Last_ch - _First_ch);

  000c3	2b c1		 sub	 eax, ecx

; 4066 :     _CSTD memmove(_Dest_ch, _First_ch, _Count);

  000c5	50		 push	 eax
  000c6	51		 push	 ecx
  000c7	56		 push	 esi
  000c8	e8 00 00 00 00	 call	 _memmove
  000cd	83 c4 0c	 add	 esp, 12			; 0000000cH
; File C:\Program Files (x86)\Microsoft Visual Studio\2019\Community\VC\Tools\MSVC\14.29.30133\include\vector

; 781  :         } else { // provide basic guarantee

  000d0	eb 23		 jmp	 SHORT $LN78@Emplace_re
$LN4@Emplace_re:
; File C:\Program Files (x86)\Microsoft Visual Studio\2019\Community\VC\Tools\MSVC\14.29.30133\include\xutility

; 4065 :     const auto _Count           = static_cast<size_t>(_Last_ch - _First_ch);

  000d2	2b d1		 sub	 edx, ecx

; 4066 :     _CSTD memmove(_Dest_ch, _First_ch, _Count);

  000d4	52		 push	 edx
  000d5	51		 push	 ecx
  000d6	56		 push	 esi
  000d7	e8 00 00 00 00	 call	 _memmove

; 4065 :     const auto _Count           = static_cast<size_t>(_Last_ch - _First_ch);

  000dc	8b 47 04	 mov	 eax, DWORD PTR [edi+4]
  000df	8b 4d 08	 mov	 ecx, DWORD PTR __Whereptr$[ebp]
  000e2	2b c1		 sub	 eax, ecx

; 4066 :     _CSTD memmove(_Dest_ch, _First_ch, _Count);

  000e4	50		 push	 eax
; File C:\Program Files (x86)\Microsoft Visual Studio\2019\Community\VC\Tools\MSVC\14.29.30133\include\vector

; 784  :             _Umove(_Whereptr, _Mylast, _Newvec + _Whereoff + 1);

  000e5	8b 45 fc	 mov	 eax, DWORD PTR tv710[ebp]
; File C:\Program Files (x86)\Microsoft Visual Studio\2019\Community\VC\Tools\MSVC\14.29.30133\include\xutility

; 4066 :     _CSTD memmove(_Dest_ch, _First_ch, _Count);

  000e8	51		 push	 ecx
; File C:\Program Files (x86)\Microsoft Visual Studio\2019\Community\VC\Tools\MSVC\14.29.30133\include\vector

; 784  :             _Umove(_Whereptr, _Mylast, _Newvec + _Whereoff + 1);

  000e9	83 c0 04	 add	 eax, 4
; File C:\Program Files (x86)\Microsoft Visual Studio\2019\Community\VC\Tools\MSVC\14.29.30133\include\xutility

; 4066 :     _CSTD memmove(_Dest_ch, _First_ch, _Count);

  000ec	50		 push	 eax
  000ed	e8 00 00 00 00	 call	 _memmove
  000f2	83 c4 18	 add	 esp, 24			; 00000018H
$LN78@Emplace_re:
; File C:\Program Files (x86)\Microsoft Visual Studio\2019\Community\VC\Tools\MSVC\14.29.30133\include\vector

; 1732 :         if (_Myfirst) { // destroy and deallocate old array

  000f5	8b 07		 mov	 eax, DWORD PTR [edi]
  000f7	85 c0		 test	 eax, eax
  000f9	74 2c		 je	 SHORT $LN98@Emplace_re

; 1733 :             _Destroy(_Myfirst, _Mylast);
; 1734 :             _Getal().deallocate(_Myfirst, static_cast<size_type>(_Myend - _Myfirst));

  000fb	8b 4f 08	 mov	 ecx, DWORD PTR [edi+8]
  000fe	2b c8		 sub	 ecx, eax
; File C:\Program Files (x86)\Microsoft Visual Studio\2019\Community\VC\Tools\MSVC\14.29.30133\include\xmemory

; 797  :         _Deallocate<_New_alignof<_Ty>>(_Ptr, sizeof(_Ty) * _Count);

  00100	83 e1 fc	 and	 ecx, -4			; fffffffcH

; 251  :         if (_Bytes >= _Big_allocation_threshold) { // boost the alignment of big allocations to help autovectorization

  00103	81 f9 00 10 00
	00		 cmp	 ecx, 4096		; 00001000H
  00109	72 12		 jb	 SHORT $LN108@Emplace_re

; 150  :     const uintptr_t _Ptr_container   = _Ptr_user[-1];

  0010b	8b 50 fc	 mov	 edx, DWORD PTR [eax-4]
  0010e	83 c1 23	 add	 ecx, 35			; 00000023H

; 151  : 
; 152  :     // If the following asserts, it likely means that we are performing
; 153  :     // an aligned delete on memory coming from an unaligned allocation.
; 154  :     _STL_ASSERT(_Ptr_user[-2] == _Big_allocation_sentinel, "invalid argument");
; 155  : 
; 156  :     // Extra paranoia on aligned allocation/deallocation; ensure _Ptr_container is
; 157  :     // in range [_Min_back_shift, _Non_user_size]
; 158  : #ifdef _DEBUG
; 159  :     constexpr uintptr_t _Min_back_shift = 2 * sizeof(void*);
; 160  : #else // ^^^ _DEBUG ^^^ // vvv !_DEBUG vvv
; 161  :     constexpr uintptr_t _Min_back_shift = sizeof(void*);
; 162  : #endif // _DEBUG
; 163  :     const uintptr_t _Back_shift = reinterpret_cast<uintptr_t>(_Ptr) - _Ptr_container;

  00111	2b c2		 sub	 eax, edx

; 164  :     _STL_VERIFY(_Back_shift >= _Min_back_shift && _Back_shift <= _Non_user_size, "invalid argument");

  00113	83 c0 fc	 add	 eax, -4			; fffffffcH
  00116	83 f8 1f	 cmp	 eax, 31			; 0000001fH
  00119	77 29		 ja	 SHORT $LN105@Emplace_re

; 165  :     _Ptr = reinterpret_cast<void*>(_Ptr_container);

  0011b	8b c2		 mov	 eax, edx
$LN108@Emplace_re:

; 255  :         ::operator delete(_Ptr, _Bytes);

  0011d	51		 push	 ecx
  0011e	50		 push	 eax
  0011f	e8 00 00 00 00	 call	 ??3@YAXPAXI@Z		; operator delete
  00124	83 c4 08	 add	 esp, 8
$LN98@Emplace_re:
; File C:\Program Files (x86)\Microsoft Visual Studio\2019\Community\VC\Tools\MSVC\14.29.30133\include\vector

; 1738 :         _Mylast  = _Newvec + _Newsize;

  00127	8b 45 f8	 mov	 eax, DWORD PTR __Newsize$1$[ebp]
  0012a	89 37		 mov	 DWORD PTR [edi], esi
  0012c	8d 0c 86	 lea	 ecx, DWORD PTR [esi+eax*4]

; 785  :         }
; 786  :         _CATCH_ALL
; 787  :         _Destroy(_Constructed_first, _Constructed_last);
; 788  :         _Al.deallocate(_Newvec, _Newcapacity);
; 789  :         _RERAISE;
; 790  :         _CATCH_END
; 791  : 
; 792  :         _Change_array(_Newvec, _Newsize, _Newcapacity);
; 793  :         return _Newvec + _Whereoff;

  0012f	8b 45 fc	 mov	 eax, DWORD PTR tv710[ebp]

; 1738 :         _Mylast  = _Newvec + _Newsize;

  00132	89 4f 04	 mov	 DWORD PTR [edi+4], ecx

; 1739 :         _Myend   = _Newvec + _Newcapacity;

  00135	8d 0c 33	 lea	 ecx, DWORD PTR [ebx+esi]
  00138	89 4f 08	 mov	 DWORD PTR [edi+8], ecx

; 785  :         }
; 786  :         _CATCH_ALL
; 787  :         _Destroy(_Constructed_first, _Constructed_last);
; 788  :         _Al.deallocate(_Newvec, _Newcapacity);
; 789  :         _RERAISE;
; 790  :         _CATCH_END
; 791  : 
; 792  :         _Change_array(_Newvec, _Newsize, _Newcapacity);
; 793  :         return _Newvec + _Whereoff;

  0013b	5f		 pop	 edi
  0013c	5e		 pop	 esi
  0013d	5b		 pop	 ebx

; 794  :     }

  0013e	8b e5		 mov	 esp, ebp
  00140	5d		 pop	 ebp
  00141	c2 08 00	 ret	 8
$LN105@Emplace_re:
; File C:\Program Files (x86)\Microsoft Visual Studio\2019\Community\VC\Tools\MSVC\14.29.30133\include\xmemory

; 164  :     _STL_VERIFY(_Back_shift >= _Min_back_shift && _Back_shift <= _Non_user_size, "invalid argument");

  00144	ff 15 00 00 00
	00		 call	 DWORD PTR __imp___invalid_parameter_noinfo_noreturn
$LN114@Emplace_re:

; 131  :         _Throw_bad_array_new_length(); // add overflow

  0014a	e8 00 00 00 00	 call	 ?_Throw_bad_array_new_length@std@@YAXXZ ; std::_Throw_bad_array_new_length
$LN117@Emplace_re:
; File C:\Program Files (x86)\Microsoft Visual Studio\2019\Community\VC\Tools\MSVC\14.29.30133\include\vector

; 765  :             _Xlength();

  0014f	e8 00 00 00 00	 call	 ?_Xlength@?$vector@HV?$allocator@H@std@@@std@@CAXXZ ; std::vector<int,std::allocator<int> >::_Xlength
$LN115@Emplace_re:
  00154	cc		 int	 3
??$_Emplace_reallocate@ABH@?$vector@HV?$allocator@H@std@@@std@@QAEPAHQAHABH@Z ENDP ; std::vector<int,std::allocator<int> >::_Emplace_reallocate<int const &>
_TEXT	ENDS
; Function compile flags: /Ogtp
; File C:\Program Files (x86)\Microsoft Visual Studio\2019\Community\VC\Tools\MSVC\14.29.30133\include\vector
;	COMDAT ?_Xrange@?$vector@HV?$allocator@H@std@@@std@@CAXXZ
_TEXT	SEGMENT
?_Xrange@?$vector@HV?$allocator@H@std@@@std@@CAXXZ PROC	; std::vector<int,std::allocator<int> >::_Xrange, COMDAT

; 1765 :         _Xout_of_range("invalid vector subscript");

  00000	68 00 00 00 00	 push	 OFFSET ??_C@_0BJ@DHFDPMIM@invalid?5vector?5subscript@
  00005	e8 00 00 00 00	 call	 ?_Xout_of_range@std@@YAXPBD@Z ; std::_Xout_of_range
$LN3@Xrange:
  0000a	cc		 int	 3
?_Xrange@?$vector@HV?$allocator@H@std@@@std@@CAXXZ ENDP	; std::vector<int,std::allocator<int> >::_Xrange
_TEXT	ENDS
; Function compile flags: /Ogtp
; File C:\Program Files (x86)\Microsoft Visual Studio\2019\Community\VC\Tools\MSVC\14.29.30133\include\vector
;	COMDAT ?_Xlength@?$vector@HV?$allocator@H@std@@@std@@CAXXZ
_TEXT	SEGMENT
?_Xlength@?$vector@HV?$allocator@H@std@@@std@@CAXXZ PROC ; std::vector<int,std::allocator<int> >::_Xlength, COMDAT

; 1761 :         _Xlength_error("vector too long");

  00000	68 00 00 00 00	 push	 OFFSET ??_C@_0BA@FOIKENOD@vector?5too?5long@
  00005	e8 00 00 00 00	 call	 ?_Xlength_error@std@@YAXPBD@Z ; std::_Xlength_error
$LN3@Xlength:
  0000a	cc		 int	 3
?_Xlength@?$vector@HV?$allocator@H@std@@@std@@CAXXZ ENDP ; std::vector<int,std::allocator<int> >::_Xlength
_TEXT	ENDS
; Function compile flags: /Ogtp
; File C:\Program Files (x86)\Microsoft Visual Studio\2019\Community\VC\Tools\MSVC\14.29.30133\include\vector
; File C:\Program Files (x86)\Microsoft Visual Studio\2019\Community\VC\Tools\MSVC\14.29.30133\include\xmemory
; File C:\Program Files (x86)\Microsoft Visual Studio\2019\Community\VC\Tools\MSVC\14.29.30133\include\vector
; File C:\Program Files (x86)\Microsoft Visual Studio\2019\Community\VC\Tools\MSVC\14.29.30133\include\xmemory
; File C:\Program Files (x86)\Microsoft Visual Studio\2019\Community\VC\Tools\MSVC\14.29.30133\include\vector
; File C:\Program Files (x86)\Microsoft Visual Studio\2019\Community\VC\Tools\MSVC\14.29.30133\include\xmemory
; File C:\Program Files (x86)\Microsoft Visual Studio\2019\Community\VC\Tools\MSVC\14.29.30133\include\vector
;	COMDAT ??1?$vector@HV?$allocator@H@std@@@std@@QAE@XZ
_TEXT	SEGMENT
??1?$vector@HV?$allocator@H@std@@@std@@QAE@XZ PROC	; std::vector<int,std::allocator<int> >::~vector<int,std::allocator<int> >, COMDAT
; _this$ = ecx

; 698  :     _CONSTEXPR20_CONTAINER ~vector() noexcept {

  00000	56		 push	 esi
  00001	8b f1		 mov	 esi, ecx

; 1750 :         if (_Myfirst) { // destroy and deallocate old array

  00003	8b 06		 mov	 eax, DWORD PTR [esi]
  00005	85 c0		 test	 eax, eax
  00007	74 40		 je	 SHORT $LN4@vector

; 1751 :             _Destroy(_Myfirst, _Mylast);
; 1752 :             _Getal().deallocate(_Myfirst, static_cast<size_type>(_Myend - _Myfirst));

  00009	8b 4e 08	 mov	 ecx, DWORD PTR [esi+8]
  0000c	2b c8		 sub	 ecx, eax
; File C:\Program Files (x86)\Microsoft Visual Studio\2019\Community\VC\Tools\MSVC\14.29.30133\include\xmemory

; 797  :         _Deallocate<_New_alignof<_Ty>>(_Ptr, sizeof(_Ty) * _Count);

  0000e	83 e1 fc	 and	 ecx, -4			; fffffffcH

; 251  :         if (_Bytes >= _Big_allocation_threshold) { // boost the alignment of big allocations to help autovectorization

  00011	81 f9 00 10 00
	00		 cmp	 ecx, 4096		; 00001000H
  00017	72 12		 jb	 SHORT $LN20@vector

; 150  :     const uintptr_t _Ptr_container   = _Ptr_user[-1];

  00019	8b 50 fc	 mov	 edx, DWORD PTR [eax-4]
  0001c	83 c1 23	 add	 ecx, 35			; 00000023H

; 151  : 
; 152  :     // If the following asserts, it likely means that we are performing
; 153  :     // an aligned delete on memory coming from an unaligned allocation.
; 154  :     _STL_ASSERT(_Ptr_user[-2] == _Big_allocation_sentinel, "invalid argument");
; 155  : 
; 156  :     // Extra paranoia on aligned allocation/deallocation; ensure _Ptr_container is
; 157  :     // in range [_Min_back_shift, _Non_user_size]
; 158  : #ifdef _DEBUG
; 159  :     constexpr uintptr_t _Min_back_shift = 2 * sizeof(void*);
; 160  : #else // ^^^ _DEBUG ^^^ // vvv !_DEBUG vvv
; 161  :     constexpr uintptr_t _Min_back_shift = sizeof(void*);
; 162  : #endif // _DEBUG
; 163  :     const uintptr_t _Back_shift = reinterpret_cast<uintptr_t>(_Ptr) - _Ptr_container;

  0001f	2b c2		 sub	 eax, edx

; 164  :     _STL_VERIFY(_Back_shift >= _Min_back_shift && _Back_shift <= _Non_user_size, "invalid argument");

  00021	83 c0 fc	 add	 eax, -4			; fffffffcH
  00024	83 f8 1f	 cmp	 eax, 31			; 0000001fH
  00027	77 22		 ja	 SHORT $LN17@vector

; 165  :     _Ptr = reinterpret_cast<void*>(_Ptr_container);

  00029	8b c2		 mov	 eax, edx
$LN20@vector:

; 255  :         ::operator delete(_Ptr, _Bytes);

  0002b	51		 push	 ecx
  0002c	50		 push	 eax
  0002d	e8 00 00 00 00	 call	 ??3@YAXPAXI@Z		; operator delete
; File C:\Program Files (x86)\Microsoft Visual Studio\2019\Community\VC\Tools\MSVC\14.29.30133\include\vector

; 1754 :             _Myfirst = nullptr;

  00032	c7 06 00 00 00
	00		 mov	 DWORD PTR [esi], 0
; File C:\Program Files (x86)\Microsoft Visual Studio\2019\Community\VC\Tools\MSVC\14.29.30133\include\xmemory

; 255  :         ::operator delete(_Ptr, _Bytes);

  00038	83 c4 08	 add	 esp, 8
; File C:\Program Files (x86)\Microsoft Visual Studio\2019\Community\VC\Tools\MSVC\14.29.30133\include\vector

; 1755 :             _Mylast  = nullptr;

  0003b	c7 46 04 00 00
	00 00		 mov	 DWORD PTR [esi+4], 0

; 1756 :             _Myend   = nullptr;

  00042	c7 46 08 00 00
	00 00		 mov	 DWORD PTR [esi+8], 0
$LN4@vector:
  00049	5e		 pop	 esi

; 704  :     }

  0004a	c3		 ret	 0
$LN17@vector:
; File C:\Program Files (x86)\Microsoft Visual Studio\2019\Community\VC\Tools\MSVC\14.29.30133\include\xmemory

; 164  :     _STL_VERIFY(_Back_shift >= _Min_back_shift && _Back_shift <= _Non_user_size, "invalid argument");

  0004b	ff 15 00 00 00
	00		 call	 DWORD PTR __imp___invalid_parameter_noinfo_noreturn
$LN25@vector:
  00051	cc		 int	 3
??1?$vector@HV?$allocator@H@std@@@std@@QAE@XZ ENDP	; std::vector<int,std::allocator<int> >::~vector<int,std::allocator<int> >
_TEXT	ENDS
; Function compile flags: /Ogtp
;	COMDAT ??1CDlgGroupName@@UAE@XZ
_TEXT	SEGMENT
??1CDlgGroupName@@UAE@XZ PROC				; CDlgGroupName::~CDlgGroupName, COMDAT
; _this$ = ecx
  00000	56		 push	 esi
  00001	8b f1		 mov	 esi, ecx
  00003	8d 8e a8 00 00
	00		 lea	 ecx, DWORD PTR [esi+168]
  00009	ff 15 00 00 00
	00		 call	 DWORD PTR __imp_??1?$CStringT@DV?$StrTraitMFC_DLL@DV?$ChTraitsCRT@D@ATL@@@@@ATL@@QAE@XZ
  0000f	8b ce		 mov	 ecx, esi
  00011	5e		 pop	 esi
  00012	e9 00 00 00 00	 jmp	 ??1CDialog@@UAE@XZ	; CDialog::~CDialog
??1CDlgGroupName@@UAE@XZ ENDP				; CDlgGroupName::~CDlgGroupName
_TEXT	ENDS
; Function compile flags: /Ogtp
; File C:\Program Files (x86)\Microsoft Visual Studio\2019\Community\VC\Tools\MSVC\14.29.30133\include\exception
;	COMDAT ?_Throw_bad_array_new_length@std@@YAXXZ
_TEXT	SEGMENT
$T1 = -12						; size = 12
?_Throw_bad_array_new_length@std@@YAXXZ PROC		; std::_Throw_bad_array_new_length, COMDAT

; 315  : [[noreturn]] inline void _Throw_bad_array_new_length() {

  00000	55		 push	 ebp
  00001	8b ec		 mov	 ebp, esp
  00003	83 ec 0c	 sub	 esp, 12			; 0000000cH

; 316  :     _THROW(bad_array_new_length{});

  00006	8d 4d f4	 lea	 ecx, DWORD PTR $T1[ebp]
  00009	e8 00 00 00 00	 call	 ??0bad_array_new_length@std@@QAE@XZ ; std::bad_array_new_length::bad_array_new_length
  0000e	68 00 00 00 00	 push	 OFFSET __TI3?AVbad_array_new_length@std@@
  00013	8d 45 f4	 lea	 eax, DWORD PTR $T1[ebp]
  00016	50		 push	 eax
  00017	e8 00 00 00 00	 call	 __CxxThrowException@8
$LN3@Throw_bad_:
  0001c	cc		 int	 3
?_Throw_bad_array_new_length@std@@YAXXZ ENDP		; std::_Throw_bad_array_new_length
_TEXT	ENDS
; Function compile flags: /Ogtp
; File C:\Program Files (x86)\Microsoft Visual Studio\2019\Community\VC\Tools\MSVC\14.29.30133\include\vcruntime_exception.h
;	COMDAT ??_Gbad_array_new_length@std@@UAEPAXI@Z
_TEXT	SEGMENT
___flags$ = 8						; size = 4
??_Gbad_array_new_length@std@@UAEPAXI@Z PROC		; std::bad_array_new_length::`scalar deleting destructor', COMDAT
; _this$ = ecx
  00000	55		 push	 ebp
  00001	8b ec		 mov	 ebp, esp

; 89   :     {

  00003	56		 push	 esi
  00004	8b f1		 mov	 esi, ecx

; 90   :         __std_exception_destroy(&_Data);

  00006	8d 46 04	 lea	 eax, DWORD PTR [esi+4]
  00009	c7 06 00 00 00
	00		 mov	 DWORD PTR [esi], OFFSET ??_7exception@std@@6B@
  0000f	50		 push	 eax
  00010	e8 00 00 00 00	 call	 ___std_exception_destroy
  00015	83 c4 04	 add	 esp, 4
  00018	f6 45 08 01	 test	 BYTE PTR ___flags$[ebp], 1
  0001c	74 0b		 je	 SHORT $LN12@scalar
  0001e	6a 0c		 push	 12			; 0000000cH
  00020	56		 push	 esi
  00021	e8 00 00 00 00	 call	 ??3@YAXPAXI@Z		; operator delete
  00026	83 c4 08	 add	 esp, 8
$LN12@scalar:
  00029	8b c6		 mov	 eax, esi
  0002b	5e		 pop	 esi
  0002c	5d		 pop	 ebp
  0002d	c2 04 00	 ret	 4
??_Gbad_array_new_length@std@@UAEPAXI@Z ENDP		; std::bad_array_new_length::`scalar deleting destructor'
_TEXT	ENDS
; Function compile flags: /Ogtp
; File C:\Program Files (x86)\Microsoft Visual Studio\2019\Community\VC\Tools\MSVC\14.29.30133\include\vcruntime_exception.h
;	COMDAT ??0bad_array_new_length@std@@QAE@ABV01@@Z
_TEXT	SEGMENT
___that$ = 8						; size = 4
??0bad_array_new_length@std@@QAE@ABV01@@Z PROC		; std::bad_array_new_length::bad_array_new_length, COMDAT
; _this$ = ecx
  00000	55		 push	 ebp
  00001	8b ec		 mov	 ebp, esp

; 72   :     {

  00003	56		 push	 esi
  00004	8b f1		 mov	 esi, ecx
  00006	0f 57 c0	 xorps	 xmm0, xmm0

; 71   :         : _Data()

  00009	8d 46 04	 lea	 eax, DWORD PTR [esi+4]

; 73   :         __std_exception_copy(&_Other._Data, &_Data);

  0000c	50		 push	 eax
  0000d	c7 06 00 00 00
	00		 mov	 DWORD PTR [esi], OFFSET ??_7exception@std@@6B@
  00013	66 0f d6 00	 movq	 QWORD PTR [eax], xmm0
  00017	8b 45 08	 mov	 eax, DWORD PTR ___that$[ebp]
  0001a	83 c0 04	 add	 eax, 4
  0001d	50		 push	 eax
  0001e	e8 00 00 00 00	 call	 ___std_exception_copy
  00023	83 c4 08	 add	 esp, 8
  00026	c7 06 00 00 00
	00		 mov	 DWORD PTR [esi], OFFSET ??_7bad_array_new_length@std@@6B@
  0002c	8b c6		 mov	 eax, esi
  0002e	5e		 pop	 esi
  0002f	5d		 pop	 ebp
  00030	c2 04 00	 ret	 4
??0bad_array_new_length@std@@QAE@ABV01@@Z ENDP		; std::bad_array_new_length::bad_array_new_length
_TEXT	ENDS
; Function compile flags: /Ogtp
; File C:\Program Files (x86)\Microsoft Visual Studio\2019\Community\VC\Tools\MSVC\14.29.30133\include\vcruntime_exception.h
;	COMDAT ??1bad_array_new_length@std@@UAE@XZ
_TEXT	SEGMENT
??1bad_array_new_length@std@@UAE@XZ PROC		; std::bad_array_new_length::~bad_array_new_length, COMDAT
; _this$ = ecx

; 90   :         __std_exception_destroy(&_Data);

  00000	8d 41 04	 lea	 eax, DWORD PTR [ecx+4]
  00003	c7 01 00 00 00
	00		 mov	 DWORD PTR [ecx], OFFSET ??_7exception@std@@6B@
  00009	50		 push	 eax
  0000a	e8 00 00 00 00	 call	 ___std_exception_destroy
  0000f	59		 pop	 ecx
  00010	c3		 ret	 0
??1bad_array_new_length@std@@UAE@XZ ENDP		; std::bad_array_new_length::~bad_array_new_length
_TEXT	ENDS
; Function compile flags: /Ogtp
; File C:\Program Files (x86)\Microsoft Visual Studio\2019\Community\VC\Tools\MSVC\14.29.30133\include\vcruntime_exception.h
;	COMDAT ??0bad_array_new_length@std@@QAE@XZ
_TEXT	SEGMENT
??0bad_array_new_length@std@@QAE@XZ PROC		; std::bad_array_new_length::bad_array_new_length, COMDAT
; _this$ = ecx

; 141  :     {

  00000	0f 57 c0	 xorps	 xmm0, xmm0

; 142  :     }

  00003	8b c1		 mov	 eax, ecx

; 65   :         : _Data()

  00005	66 0f d6 41 04	 movq	 QWORD PTR [ecx+4], xmm0

; 66   :     {
; 67   :         _Data._What = _Message;

  0000a	c7 41 04 00 00
	00 00		 mov	 DWORD PTR [ecx+4], OFFSET ??_C@_0BF@KINCDENJ@bad?5array?5new?5length@

; 141  :     {

  00011	c7 01 00 00 00
	00		 mov	 DWORD PTR [ecx], OFFSET ??_7bad_array_new_length@std@@6B@

; 142  :     }

  00017	c3		 ret	 0
??0bad_array_new_length@std@@QAE@XZ ENDP		; std::bad_array_new_length::bad_array_new_length
_TEXT	ENDS
; Function compile flags: /Ogtp
; File C:\Program Files (x86)\Microsoft Visual Studio\2019\Community\VC\Tools\MSVC\14.29.30133\include\vcruntime_exception.h
;	COMDAT ??_Gbad_alloc@std@@UAEPAXI@Z
_TEXT	SEGMENT
___flags$ = 8						; size = 4
??_Gbad_alloc@std@@UAEPAXI@Z PROC			; std::bad_alloc::`scalar deleting destructor', COMDAT
; _this$ = ecx
  00000	55		 push	 ebp
  00001	8b ec		 mov	 ebp, esp

; 89   :     {

  00003	56		 push	 esi
  00004	8b f1		 mov	 esi, ecx

; 90   :         __std_exception_destroy(&_Data);

  00006	8d 46 04	 lea	 eax, DWORD PTR [esi+4]
  00009	c7 06 00 00 00
	00		 mov	 DWORD PTR [esi], OFFSET ??_7exception@std@@6B@
  0000f	50		 push	 eax
  00010	e8 00 00 00 00	 call	 ___std_exception_destroy
  00015	83 c4 04	 add	 esp, 4
  00018	f6 45 08 01	 test	 BYTE PTR ___flags$[ebp], 1
  0001c	74 0b		 je	 SHORT $LN9@scalar
  0001e	6a 0c		 push	 12			; 0000000cH
  00020	56		 push	 esi
  00021	e8 00 00 00 00	 call	 ??3@YAXPAXI@Z		; operator delete
  00026	83 c4 08	 add	 esp, 8
$LN9@scalar:
  00029	8b c6		 mov	 eax, esi
  0002b	5e		 pop	 esi
  0002c	5d		 pop	 ebp
  0002d	c2 04 00	 ret	 4
??_Gbad_alloc@std@@UAEPAXI@Z ENDP			; std::bad_alloc::`scalar deleting destructor'
_TEXT	ENDS
; Function compile flags: /Ogtp
; File C:\Program Files (x86)\Microsoft Visual Studio\2019\Community\VC\Tools\MSVC\14.29.30133\include\vcruntime_exception.h
;	COMDAT ??0bad_alloc@std@@QAE@ABV01@@Z
_TEXT	SEGMENT
___that$ = 8						; size = 4
??0bad_alloc@std@@QAE@ABV01@@Z PROC			; std::bad_alloc::bad_alloc, COMDAT
; _this$ = ecx
  00000	55		 push	 ebp
  00001	8b ec		 mov	 ebp, esp

; 72   :     {

  00003	56		 push	 esi
  00004	8b f1		 mov	 esi, ecx
  00006	0f 57 c0	 xorps	 xmm0, xmm0

; 71   :         : _Data()

  00009	8d 46 04	 lea	 eax, DWORD PTR [esi+4]

; 73   :         __std_exception_copy(&_Other._Data, &_Data);

  0000c	50		 push	 eax
  0000d	c7 06 00 00 00
	00		 mov	 DWORD PTR [esi], OFFSET ??_7exception@std@@6B@
  00013	66 0f d6 00	 movq	 QWORD PTR [eax], xmm0
  00017	8b 45 08	 mov	 eax, DWORD PTR ___that$[ebp]
  0001a	83 c0 04	 add	 eax, 4
  0001d	50		 push	 eax
  0001e	e8 00 00 00 00	 call	 ___std_exception_copy
  00023	83 c4 08	 add	 esp, 8
  00026	c7 06 00 00 00
	00		 mov	 DWORD PTR [esi], OFFSET ??_7bad_alloc@std@@6B@
  0002c	8b c6		 mov	 eax, esi
  0002e	5e		 pop	 esi
  0002f	5d		 pop	 ebp
  00030	c2 04 00	 ret	 4
??0bad_alloc@std@@QAE@ABV01@@Z ENDP			; std::bad_alloc::bad_alloc
_TEXT	ENDS
; Function compile flags: /Ogtp
; File C:\Program Files (x86)\Microsoft Visual Studio\2019\Community\VC\Tools\MSVC\14.29.30133\include\vcruntime_exception.h
;	COMDAT ??_Gexception@std@@UAEPAXI@Z
_TEXT	SEGMENT
___flags$ = 8						; size = 4
??_Gexception@std@@UAEPAXI@Z PROC			; std::exception::`scalar deleting destructor', COMDAT
; _this$ = ecx
  00000	55		 push	 ebp
  00001	8b ec		 mov	 ebp, esp

; 89   :     {

  00003	56		 push	 esi
  00004	8b f1		 mov	 esi, ecx

; 90   :         __std_exception_destroy(&_Data);

  00006	8d 46 04	 lea	 eax, DWORD PTR [esi+4]
  00009	c7 06 00 00 00
	00		 mov	 DWORD PTR [esi], OFFSET ??_7exception@std@@6B@
  0000f	50		 push	 eax
  00010	e8 00 00 00 00	 call	 ___std_exception_destroy
  00015	83 c4 04	 add	 esp, 4
  00018	f6 45 08 01	 test	 BYTE PTR ___flags$[ebp], 1
  0001c	74 0b		 je	 SHORT $LN6@scalar
  0001e	6a 0c		 push	 12			; 0000000cH
  00020	56		 push	 esi
  00021	e8 00 00 00 00	 call	 ??3@YAXPAXI@Z		; operator delete
  00026	83 c4 08	 add	 esp, 8
$LN6@scalar:
  00029	8b c6		 mov	 eax, esi
  0002b	5e		 pop	 esi
  0002c	5d		 pop	 ebp
  0002d	c2 04 00	 ret	 4
??_Gexception@std@@UAEPAXI@Z ENDP			; std::exception::`scalar deleting destructor'
_TEXT	ENDS
; Function compile flags: /Ogtp
; File C:\Program Files (x86)\Microsoft Visual Studio\2019\Community\VC\Tools\MSVC\14.29.30133\include\vcruntime_exception.h
;	COMDAT ?what@exception@std@@UBEPBDXZ
_TEXT	SEGMENT
?what@exception@std@@UBEPBDXZ PROC			; std::exception::what, COMDAT
; _this$ = ecx

; 95   :         return _Data._What ? _Data._What : "Unknown exception";

  00000	8b 49 04	 mov	 ecx, DWORD PTR [ecx+4]
  00003	b8 00 00 00 00	 mov	 eax, OFFSET ??_C@_0BC@EOODALEL@Unknown?5exception@
  00008	85 c9		 test	 ecx, ecx
  0000a	0f 45 c1	 cmovne	 eax, ecx

; 96   :     }

  0000d	c3		 ret	 0
?what@exception@std@@UBEPBDXZ ENDP			; std::exception::what
_TEXT	ENDS
; Function compile flags: /Ogtp
; File C:\Program Files (x86)\Microsoft Visual Studio\2019\Community\VC\Tools\MSVC\14.29.30133\include\vcruntime_exception.h
;	COMDAT ??1exception@std@@UAE@XZ
_TEXT	SEGMENT
??1exception@std@@UAE@XZ PROC				; std::exception::~exception, COMDAT
; _this$ = ecx

; 90   :         __std_exception_destroy(&_Data);

  00000	8d 41 04	 lea	 eax, DWORD PTR [ecx+4]
  00003	c7 01 00 00 00
	00		 mov	 DWORD PTR [ecx], OFFSET ??_7exception@std@@6B@
  00009	50		 push	 eax
  0000a	e8 00 00 00 00	 call	 ___std_exception_destroy
  0000f	59		 pop	 ecx

; 91   :     }

  00010	c3		 ret	 0
??1exception@std@@UAE@XZ ENDP				; std::exception::~exception
_TEXT	ENDS
; Function compile flags: /Ogtp
; File C:\Program Files (x86)\Microsoft Visual Studio\2019\Community\VC\Tools\MSVC\14.29.30133\include\vcruntime_exception.h
;	COMDAT ??0exception@std@@QAE@ABV01@@Z
_TEXT	SEGMENT
__Other$ = 8						; size = 4
??0exception@std@@QAE@ABV01@@Z PROC			; std::exception::exception, COMDAT
; _this$ = ecx

; 72   :     {

  00000	55		 push	 ebp
  00001	8b ec		 mov	 ebp, esp
  00003	56		 push	 esi
  00004	8b f1		 mov	 esi, ecx
  00006	0f 57 c0	 xorps	 xmm0, xmm0
  00009	8d 46 04	 lea	 eax, DWORD PTR [esi+4]

; 73   :         __std_exception_copy(&_Other._Data, &_Data);

  0000c	50		 push	 eax
  0000d	c7 06 00 00 00
	00		 mov	 DWORD PTR [esi], OFFSET ??_7exception@std@@6B@
  00013	66 0f d6 00	 movq	 QWORD PTR [eax], xmm0
  00017	8b 45 08	 mov	 eax, DWORD PTR __Other$[ebp]
  0001a	83 c0 04	 add	 eax, 4
  0001d	50		 push	 eax
  0001e	e8 00 00 00 00	 call	 ___std_exception_copy
  00023	83 c4 08	 add	 esp, 8

; 74   :     }

  00026	8b c6		 mov	 eax, esi
  00028	5e		 pop	 esi
  00029	5d		 pop	 ebp
  0002a	c2 04 00	 ret	 4
??0exception@std@@QAE@ABV01@@Z ENDP			; std::exception::exception
_TEXT	ENDS
; Function compile flags: /Ogtp
; File D:\git\src\IBK\IBK_DRFN\ProjSrc\SrcDrfn\Chart\Chart_Common\CallPutHelper.h
; File C:\Program Files (x86)\Microsoft Visual Studio\2019\Community\VC\Tools\MSVC\14.29.30133\atlmfc\include\afxtempl.h
; File C:\Program Files (x86)\Microsoft Visual Studio\2019\Community\VC\Tools\MSVC\14.29.30133\atlmfc\include\afx.inl
;	COMDAT ??_GCDlgCompSetup@@UAEPAXI@Z
_TEXT	SEGMENT
__$EHRec$ = -12						; size = 12
___flags$ = 8						; size = 4
??_GCDlgCompSetup@@UAEPAXI@Z PROC			; CDlgCompSetup::`scalar deleting destructor', COMDAT
; _this$ = ecx
  00000	55		 push	 ebp
  00001	8b ec		 mov	 ebp, esp
  00003	6a ff		 push	 -1
  00005	68 00 00 00 00	 push	 __ehhandler$??_GCDlgCompSetup@@UAEPAXI@Z
  0000a	64 a1 00 00 00
	00		 mov	 eax, DWORD PTR fs:0
  00010	50		 push	 eax
  00011	56		 push	 esi
  00012	57		 push	 edi
  00013	a1 00 00 00 00	 mov	 eax, DWORD PTR ___security_cookie
  00018	33 c5		 xor	 eax, ebp
  0001a	50		 push	 eax
  0001b	8d 45 f4	 lea	 eax, DWORD PTR __$EHRec$[ebp]
  0001e	64 a3 00 00 00
	00		 mov	 DWORD PTR fs:0, eax
  00024	8b f9		 mov	 edi, ecx
  00026	8d 8f 14 07 00
	00		 lea	 ecx, DWORD PTR [edi+1812]
  0002c	ff 15 00 00 00
	00		 call	 DWORD PTR __imp_??1?$CStringT@DV?$StrTraitMFC_DLL@DV?$ChTraitsCRT@D@ATL@@@@@ATL@@QAE@XZ
  00032	8d 8f 10 07 00
	00		 lea	 ecx, DWORD PTR [edi+1808]
  00038	ff 15 00 00 00
	00		 call	 DWORD PTR __imp_??1?$CStringT@DV?$StrTraitMFC_DLL@DV?$ChTraitsCRT@D@ATL@@@@@ATL@@QAE@XZ
  0003e	8d b7 e0 06 00
	00		 lea	 esi, DWORD PTR [edi+1760]
; File D:\git\src\IBK\IBK_DRFN\ProjSrc\SrcDrfn\Chart\Chart_Common\CallPutHelper.h

; 150  : 		ClearList();

  00044	8b ce		 mov	 ecx, esi
  00046	c7 45 fc 00 00
	00 00		 mov	 DWORD PTR __$EHRec$[ebp+8], 0
  0004d	e8 00 00 00 00	 call	 ?ClearList@CCallPutIHelper@@QAEXXZ ; CCallPutIHelper::ClearList
; File C:\Program Files (x86)\Microsoft Visual Studio\2019\Community\VC\Tools\MSVC\14.29.30133\atlmfc\include\afxtempl.h

; 872  : 	m_pBlocks->FreeDataChain();

  00052	8b 4e 14	 mov	 ecx, DWORD PTR [esi+20]

; 878  : {

  00055	c6 45 fc 01	 mov	 BYTE PTR __$EHRec$[ebp+8], 1
  00059	c7 06 00 00 00
	00		 mov	 DWORD PTR [esi], OFFSET ??_7?$CList@PAVCCallPutIMonthData@@PAV1@@@6B@

; 870  : 	m_nCount = 0;

  0005f	c7 46 0c 00 00
	00 00		 mov	 DWORD PTR [esi+12], 0

; 871  : 	m_pNodeHead = m_pNodeTail = m_pNodeFree = NULL;

  00066	c7 46 10 00 00
	00 00		 mov	 DWORD PTR [esi+16], 0
  0006d	c7 46 08 00 00
	00 00		 mov	 DWORD PTR [esi+8], 0
  00074	c7 46 04 00 00
	00 00		 mov	 DWORD PTR [esi+4], 0

; 872  : 	m_pBlocks->FreeDataChain();

  0007b	e8 00 00 00 00	 call	 ?FreeDataChain@CPlex@@QAEXXZ ; CPlex::FreeDataChain
  00080	8d 8f 48 06 00
	00		 lea	 ecx, DWORD PTR [edi+1608]

; 873  : 	m_pBlocks = NULL;

  00086	c7 46 14 00 00
	00 00		 mov	 DWORD PTR [esi+20], 0
  0008d	e8 00 00 00 00	 call	 ??1CComboBox@@UAE@XZ	; CComboBox::~CComboBox
  00092	8d 8f c0 05 00
	00		 lea	 ecx, DWORD PTR [edi+1472]
  00098	e8 00 00 00 00	 call	 ??1CBitmapItemComboBox@@UAE@XZ ; CBitmapItemComboBox::~CBitmapItemComboBox
  0009d	8d 8f 38 05 00
	00		 lea	 ecx, DWORD PTR [edi+1336]
  000a3	e8 00 00 00 00	 call	 ??1CBitmapItemComboBox@@UAE@XZ ; CBitmapItemComboBox::~CBitmapItemComboBox
  000a8	8d 8f a0 04 00
	00		 lea	 ecx, DWORD PTR [edi+1184]
  000ae	e8 00 00 00 00	 call	 ??1CXEditPrompt@@UAE@XZ	; CXEditPrompt::~CXEditPrompt
  000b3	8d 8f 08 04 00
	00		 lea	 ecx, DWORD PTR [edi+1032]
  000b9	e8 00 00 00 00	 call	 ??1CXEditPrompt@@UAE@XZ	; CXEditPrompt::~CXEditPrompt
  000be	8d 8f 18 03 00
	00		 lea	 ecx, DWORD PTR [edi+792]
  000c4	e8 00 00 00 00	 call	 ??1CXColourPicker@@UAE@XZ ; CXColourPicker::~CXColourPicker
  000c9	8d 8f 98 02 00
	00		 lea	 ecx, DWORD PTR [edi+664]
  000cf	e8 00 00 00 00	 call	 ??1CTreeCtrl@@UAE@XZ	; CTreeCtrl::~CTreeCtrl
  000d4	8d 8f 18 02 00
	00		 lea	 ecx, DWORD PTR [edi+536]
  000da	e8 00 00 00 00	 call	 ??1CListBox@@UAE@XZ	; CListBox::~CListBox
  000df	8d 8f 98 01 00
	00		 lea	 ecx, DWORD PTR [edi+408]
  000e5	e8 00 00 00 00	 call	 ??1CListCtrl@@UAE@XZ	; CListCtrl::~CListCtrl
  000ea	8d 8f e8 00 00
	00		 lea	 ecx, DWORD PTR [edi+232]
  000f0	e8 00 00 00 00	 call	 ??1CVirtualListCtrl@@UAE@XZ ; CVirtualListCtrl::~CVirtualListCtrl
  000f5	8d 8f e0 00 00
	00		 lea	 ecx, DWORD PTR [edi+224]
  000fb	ff 15 00 00 00
	00		 call	 DWORD PTR __imp_??1?$CStringT@DV?$StrTraitMFC_DLL@DV?$ChTraitsCRT@D@ATL@@@@@ATL@@QAE@XZ

; 872  : 	m_pBlocks->FreeDataChain();

  00101	8b 8f c4 00 00
	00		 mov	 ecx, DWORD PTR [edi+196]

; 878  : {

  00107	c7 45 fc 02 00
	00 00		 mov	 DWORD PTR __$EHRec$[ebp+8], 2
  0010e	c7 87 b0 00 00
	00 00 00 00 00	 mov	 DWORD PTR [edi+176], OFFSET ??_7?$CList@PAVCDlgCompGroupData@@PAV1@@@6B@

; 870  : 	m_nCount = 0;

  00118	c7 87 bc 00 00
	00 00 00 00 00	 mov	 DWORD PTR [edi+188], 0

; 871  : 	m_pNodeHead = m_pNodeTail = m_pNodeFree = NULL;

  00122	c7 87 c0 00 00
	00 00 00 00 00	 mov	 DWORD PTR [edi+192], 0
  0012c	c7 87 b8 00 00
	00 00 00 00 00	 mov	 DWORD PTR [edi+184], 0
  00136	c7 87 b4 00 00
	00 00 00 00 00	 mov	 DWORD PTR [edi+180], 0

; 872  : 	m_pBlocks->FreeDataChain();

  00140	e8 00 00 00 00	 call	 ?FreeDataChain@CPlex@@QAEXXZ ; CPlex::FreeDataChain
  00145	8b cf		 mov	 ecx, edi

; 873  : 	m_pBlocks = NULL;

  00147	c7 87 c4 00 00
	00 00 00 00 00	 mov	 DWORD PTR [edi+196], 0
  00151	e8 00 00 00 00	 call	 ??1CDialog@@UAE@XZ	; CDialog::~CDialog
  00156	8b 45 08	 mov	 eax, DWORD PTR ___flags$[ebp]
  00159	a8 01		 test	 al, 1
  0015b	74 1d		 je	 SHORT $LN41@scalar
  0015d	a8 04		 test	 al, 4
  0015f	75 0b		 jne	 SHORT $LN3@scalar
; File C:\Program Files (x86)\Microsoft Visual Studio\2019\Community\VC\Tools\MSVC\14.29.30133\atlmfc\include\afx.inl

; 112  : 	{ ::operator delete(p); }

  00161	57		 push	 edi
  00162	e8 00 00 00 00	 call	 ??3@YAXPAX@Z		; operator delete
  00167	83 c4 04	 add	 esp, 4
  0016a	eb 0e		 jmp	 SHORT $LN41@scalar
$LN3@scalar:
  0016c	68 20 07 00 00	 push	 1824			; 00000720H
  00171	57		 push	 edi
  00172	e8 00 00 00 00	 call	 ?__global_delete@@YAXPAXI@Z ; __global_delete
  00177	83 c4 08	 add	 esp, 8
$LN41@scalar:
  0017a	8b c7		 mov	 eax, edi
  0017c	8b 4d f4	 mov	 ecx, DWORD PTR __$EHRec$[ebp]
  0017f	64 89 0d 00 00
	00 00		 mov	 DWORD PTR fs:0, ecx
  00186	59		 pop	 ecx
  00187	5f		 pop	 edi
  00188	5e		 pop	 esi
  00189	8b e5		 mov	 esp, ebp
  0018b	5d		 pop	 ebp
  0018c	c2 04 00	 ret	 4
  0018f	cc		 int	 3
  00190	cc		 int	 3
  00191	cc		 int	 3
  00192	cc		 int	 3
  00193	cc		 int	 3
_TEXT	ENDS
;	COMDAT text$x
text$x	SEGMENT
__ehhandler$??_GCDlgCompSetup@@UAEPAXI@Z:
  00000	90		 npad	 1
  00001	90		 npad	 1
  00002	8b 54 24 08	 mov	 edx, DWORD PTR [esp+8]
  00006	8d 42 0c	 lea	 eax, DWORD PTR [edx+12]
  00009	8b 4a f4	 mov	 ecx, DWORD PTR [edx-12]
  0000c	33 c8		 xor	 ecx, eax
  0000e	e8 00 00 00 00	 call	 @__security_check_cookie@4
  00013	b8 00 00 00 00	 mov	 eax, OFFSET __ehfuncinfo$??_GCDlgCompSetup@@UAEPAXI@Z
  00018	e9 00 00 00 00	 jmp	 ___CxxFrameHandler3
text$x	ENDS
??_GCDlgCompSetup@@UAEPAXI@Z ENDP			; CDlgCompSetup::`scalar deleting destructor'
; Function compile flags: /Ogtp
; File D:\git\src\IBK\IBK_DRFN\ProjSrc\SrcDrfn\Chart\ChartUtil\DlgCompSetup.cpp
; File C:\Program Files (x86)\Microsoft Visual Studio\2019\Community\VC\Tools\MSVC\14.29.30133\atlmfc\include\afxcmn.inl
; File D:\git\src\IBK\IBK_DRFN\ProjSrc\SrcDrfn\Chart\ChartUtil\DlgCompSetup.cpp
; File C:\Program Files (x86)\Microsoft Visual Studio\2019\Community\VC\Tools\MSVC\14.29.30133\atlmfc\include\afxcmn.inl
; File D:\git\src\IBK\IBK_DRFN\ProjSrc\SrcDrfn\Chart\ChartUtil\DlgCompSetup.cpp
; File C:\Program Files (x86)\Microsoft Visual Studio\2019\Community\VC\Tools\MSVC\14.29.30133\atlmfc\include\afxcmn.inl
; File D:\git\src\IBK\IBK_DRFN\ProjSrc\SrcDrfn\Chart\ChartUtil\DlgCompSetup.cpp
; File C:\Program Files (x86)\Microsoft Visual Studio\2019\Community\VC\Tools\MSVC\14.29.30133\atlmfc\include\afxcmn.inl
; File D:\git\src\IBK\IBK_DRFN\ProjSrc\SrcDrfn\Chart\ChartUtil\DlgCompSetup.cpp
; File C:\Program Files (x86)\Microsoft Visual Studio\2019\Community\VC\Tools\MSVC\14.29.30133\atlmfc\include\afxcmn.inl
; File D:\git\src\IBK\IBK_DRFN\ProjSrc\SrcDrfn\Chart\ChartUtil\DlgCompSetup.cpp
; File C:\Program Files (x86)\Microsoft Visual Studio\2019\Community\VC\Tools\MSVC\14.29.30133\atlmfc\include\afxcmn.inl
; File D:\git\src\IBK\IBK_DRFN\ProjSrc\SrcDrfn\Chart\ChartUtil\DlgCompSetup.cpp
;	COMDAT ?DoSelectionClear@CDlgCompSetup@@IAEXXZ
_TEXT	SEGMENT
?DoSelectionClear@CDlgCompSetup@@IAEXXZ PROC		; CDlgCompSetup::DoSelectionClear, COMDAT
; _this$ = ecx

; 1458 : {

  00000	53		 push	 ebx
  00001	56		 push	 esi
; File C:\Program Files (x86)\Microsoft Visual Studio\2019\Community\VC\Tools\MSVC\14.29.30133\atlmfc\include\afxcmn.inl

; 245  : 	{ ASSERT(::IsWindow(m_hWnd)); return (UINT) ::SendMessage(m_hWnd, LVM_GETSELECTEDCOUNT, 0, 0L); }

  00002	8b 35 00 00 00
	00		 mov	 esi, DWORD PTR __imp__SendMessageA@16
; File D:\git\src\IBK\IBK_DRFN\ProjSrc\SrcDrfn\Chart\ChartUtil\DlgCompSetup.cpp

; 1458 : {

  00008	8b d9		 mov	 ebx, ecx
; File C:\Program Files (x86)\Microsoft Visual Studio\2019\Community\VC\Tools\MSVC\14.29.30133\atlmfc\include\afxcmn.inl

; 245  : 	{ ASSERT(::IsWindow(m_hWnd)); return (UINT) ::SendMessage(m_hWnd, LVM_GETSELECTEDCOUNT, 0, 0L); }

  0000a	6a 00		 push	 0
  0000c	6a 00		 push	 0
  0000e	68 32 10 00 00	 push	 4146			; 00001032H
  00013	ff b3 08 01 00
	00		 push	 DWORD PTR [ebx+264]
  00019	ff d6		 call	 esi
; File D:\git\src\IBK\IBK_DRFN\ProjSrc\SrcDrfn\Chart\ChartUtil\DlgCompSetup.cpp

; 1459 : 	if(m_ListCodes.GetSelectedCount()==0) return;

  0001b	85 c0		 test	 eax, eax
  0001d	74 48		 je	 SHORT $LN3@DoSelectio
; File C:\Program Files (x86)\Microsoft Visual Studio\2019\Community\VC\Tools\MSVC\14.29.30133\atlmfc\include\afxcmn.inl

; 177  : 	{ ASSERT(::IsWindow(m_hWnd)); return (int) ::SendMessage(m_hWnd, LVM_GETNEXTITEM, nItem, MAKELPARAM(nFlags, 0)); }

  0001f	57		 push	 edi
  00020	6a 02		 push	 2
  00022	6a ff		 push	 -1
  00024	68 0c 10 00 00	 push	 4108			; 0000100cH
  00029	ff b3 08 01 00
	00		 push	 DWORD PTR [ebx+264]
  0002f	ff d6		 call	 esi
  00031	8b f8		 mov	 edi, eax

; 179  : 	{ ASSERT(::IsWindow(m_hWnd)); return (POSITION)(DWORD_PTR)(1+GetNextItem(-1, LVIS_SELECTED)); }

  00033	83 c7 01	 add	 edi, 1
; File D:\git\src\IBK\IBK_DRFN\ProjSrc\SrcDrfn\Chart\ChartUtil\DlgCompSetup.cpp

; 1462 : 	if (pos == NULL)

  00036	74 2e		 je	 SHORT $LN22@DoSelectio
$LL2@DoSelectio:
; File C:\Program Files (x86)\Microsoft Visual Studio\2019\Community\VC\Tools\MSVC\14.29.30133\atlmfc\include\afxcmn.inl

; 177  : 	{ ASSERT(::IsWindow(m_hWnd)); return (int) ::SendMessage(m_hWnd, LVM_GETNEXTITEM, nItem, MAKELPARAM(nFlags, 0)); }

  00038	6a 02		 push	 2

; 181  : 	{ ASSERT(::IsWindow(m_hWnd)); DWORD_PTR nOldPos = (DWORD_PTR)pos-1; pos = (POSITION)(DWORD_PTR)(1+GetNextItem((UINT)nOldPos, LVIS_SELECTED)); return (UINT)nOldPos; }

  0003a	8d 77 ff	 lea	 esi, DWORD PTR [edi-1]

; 177  : 	{ ASSERT(::IsWindow(m_hWnd)); return (int) ::SendMessage(m_hWnd, LVM_GETNEXTITEM, nItem, MAKELPARAM(nFlags, 0)); }

  0003d	56		 push	 esi
  0003e	68 0c 10 00 00	 push	 4108			; 0000100cH
  00043	ff b3 08 01 00
	00		 push	 DWORD PTR [ebx+264]
  00049	ff 15 00 00 00
	00		 call	 DWORD PTR __imp__SendMessageA@16
; File D:\git\src\IBK\IBK_DRFN\ProjSrc\SrcDrfn\Chart\ChartUtil\DlgCompSetup.cpp

; 1470 : 			m_ListCodes.SetItemState(nItem, 0, flag);

  0004f	6a 02		 push	 2
  00051	6a 00		 push	 0
  00053	56		 push	 esi
  00054	8d 8b e8 00 00
	00		 lea	 ecx, DWORD PTR [ebx+232]
; File C:\Program Files (x86)\Microsoft Visual Studio\2019\Community\VC\Tools\MSVC\14.29.30133\atlmfc\include\afxcmn.inl

; 177  : 	{ ASSERT(::IsWindow(m_hWnd)); return (int) ::SendMessage(m_hWnd, LVM_GETNEXTITEM, nItem, MAKELPARAM(nFlags, 0)); }

  0005a	8b f8		 mov	 edi, eax
; File D:\git\src\IBK\IBK_DRFN\ProjSrc\SrcDrfn\Chart\ChartUtil\DlgCompSetup.cpp

; 1470 : 			m_ListCodes.SetItemState(nItem, 0, flag);

  0005c	e8 00 00 00 00	 call	 ?SetItemState@CListCtrl@@QAEHHII@Z ; CListCtrl::SetItemState
; File C:\Program Files (x86)\Microsoft Visual Studio\2019\Community\VC\Tools\MSVC\14.29.30133\atlmfc\include\afxcmn.inl

; 181  : 	{ ASSERT(::IsWindow(m_hWnd)); DWORD_PTR nOldPos = (DWORD_PTR)pos-1; pos = (POSITION)(DWORD_PTR)(1+GetNextItem((UINT)nOldPos, LVIS_SELECTED)); return (UINT)nOldPos; }

  00061	83 c7 01	 add	 edi, 1
; File D:\git\src\IBK\IBK_DRFN\ProjSrc\SrcDrfn\Chart\ChartUtil\DlgCompSetup.cpp

; 1466 : 		while (pos)

  00064	75 d2		 jne	 SHORT $LL2@DoSelectio
$LN22@DoSelectio:
  00066	5f		 pop	 edi
$LN3@DoSelectio:
  00067	5e		 pop	 esi

; 1471 : 		}
; 1472 : 	}
; 1473 : }

  00068	5b		 pop	 ebx
  00069	c3		 ret	 0
?DoSelectionClear@CDlgCompSetup@@IAEXXZ ENDP		; CDlgCompSetup::DoSelectionClear
_TEXT	ENDS
; Function compile flags: /Ogtp
; File D:\git\src\IBK\IBK_DRFN\ProjSrc\SrcDrfn\Chart\ChartUtil\DlgCompSetup.cpp
; File C:\Program Files (x86)\Microsoft Visual Studio\2019\Community\VC\Tools\MSVC\14.29.30133\atlmfc\include\atlsimpstr.h
; File D:\git\src\IBK\IBK_DRFN\ProjSrc\SrcDrfn\Chart\ChartUtil\DlgCompSetup.cpp
; File C:\Program Files (x86)\Microsoft Visual Studio\2019\Community\VC\Tools\MSVC\14.29.30133\atlmfc\include\afxcmn.inl
; File D:\git\src\IBK\IBK_DRFN\ProjSrc\SrcDrfn\Chart\ChartUtil\DlgCompSetup.cpp
; File C:\Program Files (x86)\Microsoft Visual Studio\2019\Community\VC\Tools\MSVC\14.29.30133\atlmfc\include\afxcmn.inl
; File D:\git\src\IBK\IBK_DRFN\ProjSrc\SrcDrfn\Chart\ChartUtil\DlgCompSetup.cpp
;	COMDAT ?DoFindEdtName@CDlgCompSetup@@IAEXPBD@Z
_TEXT	SEGMENT
$T2 = -20						; size = 4
_rString$ = -16						; size = 4
__$EHRec$ = -12						; size = 12
_szIn$ = 8						; size = 4
_szInput$ = 8						; size = 4
?DoFindEdtName@CDlgCompSetup@@IAEXPBD@Z PROC		; CDlgCompSetup::DoFindEdtName, COMDAT
; _this$ = ecx

; 1423 : {

  00000	55		 push	 ebp
  00001	8b ec		 mov	 ebp, esp
  00003	6a ff		 push	 -1
  00005	68 00 00 00 00	 push	 __ehhandler$?DoFindEdtName@CDlgCompSetup@@IAEXPBD@Z
  0000a	64 a1 00 00 00
	00		 mov	 eax, DWORD PTR fs:0
  00010	50		 push	 eax
  00011	83 ec 08	 sub	 esp, 8
  00014	53		 push	 ebx
  00015	56		 push	 esi
  00016	57		 push	 edi
  00017	a1 00 00 00 00	 mov	 eax, DWORD PTR ___security_cookie
  0001c	33 c5		 xor	 eax, ebp
  0001e	50		 push	 eax
  0001f	8d 45 f4	 lea	 eax, DWORD PTR __$EHRec$[ebp]
  00022	64 a3 00 00 00
	00		 mov	 DWORD PTR fs:0, eax
  00028	8b d9		 mov	 ebx, ecx

; 1424 : 	CString szIn = szInput;

  0002a	ff 75 08	 push	 DWORD PTR _szInput$[ebp]
  0002d	8d 4d 08	 lea	 ecx, DWORD PTR _szIn$[ebp]
  00030	ff 15 00 00 00
	00		 call	 DWORD PTR __imp_??0?$CStringT@DV?$StrTraitMFC_DLL@DV?$ChTraitsCRT@D@ATL@@@@@ATL@@QAE@PBD@Z
; File C:\Program Files (x86)\Microsoft Visual Studio\2019\Community\VC\Tools\MSVC\14.29.30133\atlmfc\include\atlsimpstr.h

; 519  : 		return( GetData()->nDataLength );

  00036	8b 45 08	 mov	 eax, DWORD PTR _szIn$[ebp]
; File D:\git\src\IBK\IBK_DRFN\ProjSrc\SrcDrfn\Chart\ChartUtil\DlgCompSetup.cpp

; 1424 : 	CString szIn = szInput;

  00039	c7 45 fc 00 00
	00 00		 mov	 DWORD PTR __$EHRec$[ebp+8], 0

; 1425 : 	if(szIn.GetLength()==0)

  00040	83 78 f4 00	 cmp	 DWORD PTR [eax-12], 0
  00044	75 1c		 jne	 SHORT $LN34@DoFindEdtN

; 1426 : 		m_edtCodeName.GetWindowText(szIn);

  00046	8d 45 08	 lea	 eax, DWORD PTR _szIn$[ebp]
  00049	50		 push	 eax
  0004a	8d 8b a0 04 00
	00		 lea	 ecx, DWORD PTR [ebx+1184]
  00050	e8 00 00 00 00	 call	 ?GetWindowTextA@CXEditPrompt@@QBEXAAV?$CStringT@DV?$StrTraitMFC_DLL@DV?$ChTraitsCRT@D@ATL@@@@@ATL@@@Z ; CXEditPrompt::GetWindowTextA
  00055	8b 45 08	 mov	 eax, DWORD PTR _szIn$[ebp]

; 1427 : 
; 1428 : 	if(szIn.GetLength()==0) return;

  00058	83 78 f4 00	 cmp	 DWORD PTR [eax-12], 0
  0005c	0f 84 ba 00 00
	00		 je	 $LN12@DoFindEdtN
$LN34@DoFindEdtN:

; 1429 : 
; 1430 : 	// TODO: Add your control notification handler code here
; 1431 : //	LVFINDINFO info;
; 1432 : //	info.flags = LVFI_PARTIAL|LVFI_STRING;
; 1433 : //	info.psz = szIn;
; 1434 : //	int nIndex = m_ListCodes.FindItem(&info, -1);
; 1435 : //	if(nIndex>=0)
; 1436 : //	{
; 1437 : //		m_ListCodes.EnsureVisible(nIndex, FALSE);
; 1438 : //	}
; 1439 : 	szIn.MakeUpper();

  00062	8d 4d 08	 lea	 ecx, DWORD PTR _szIn$[ebp]
  00065	ff 15 00 00 00
	00		 call	 DWORD PTR __imp_?MakeUpper@?$CStringT@DV?$StrTraitMFC_DLL@DV?$ChTraitsCRT@D@ATL@@@@@ATL@@QAEAAV12@XZ
; File C:\Program Files (x86)\Microsoft Visual Studio\2019\Community\VC\Tools\MSVC\14.29.30133\atlmfc\include\afxcmn.inl

; 155  : 	{ ASSERT(::IsWindow(m_hWnd)); return (int) ::SendMessage(m_hWnd, LVM_GETITEMCOUNT, 0, 0L); }

  0006b	6a 00		 push	 0
  0006d	6a 00		 push	 0
  0006f	68 04 10 00 00	 push	 4100			; 00001004H
  00074	ff b3 08 01 00
	00		 push	 DWORD PTR [ebx+264]
  0007a	ff 15 00 00 00
	00		 call	 DWORD PTR __imp__SendMessageA@16
; File D:\git\src\IBK\IBK_DRFN\ProjSrc\SrcDrfn\Chart\ChartUtil\DlgCompSetup.cpp

; 1442 : 	CString rString;

  00080	8d 4d f0	 lea	 ecx, DWORD PTR _rString$[ebp]
  00083	8b f8		 mov	 edi, eax
  00085	ff 15 00 00 00
	00		 call	 DWORD PTR __imp_??0?$CStringT@DV?$StrTraitMFC_DLL@DV?$ChTraitsCRT@D@ATL@@@@@ATL@@QAE@XZ

; 1443 : 	for(int i=0; i<nCnt; i++)

  0008b	33 f6		 xor	 esi, esi
  0008d	c6 45 fc 01	 mov	 BYTE PTR __$EHRec$[ebp+8], 1
  00091	85 ff		 test	 edi, edi
  00093	7e 7e		 jle	 SHORT $LN3@DoFindEdtN
  00095	8d 83 e8 00 00
	00		 lea	 eax, DWORD PTR [ebx+232]
  0009b	0f 1f 44 00 00	 npad	 5
$LL4@DoFindEdtN:

; 1444 : 	{
; 1445 : 		rString = m_ListCodes.GetItemText(i, 0);

  000a0	6a 00		 push	 0
  000a2	56		 push	 esi
  000a3	8d 4d ec	 lea	 ecx, DWORD PTR $T2[ebp]
  000a6	51		 push	 ecx
  000a7	8b c8		 mov	 ecx, eax
  000a9	e8 00 00 00 00	 call	 ?GetItemText@CListCtrl@@QBE?AV?$CStringT@DV?$StrTraitMFC_DLL@DV?$ChTraitsCRT@D@ATL@@@@@ATL@@HH@Z ; CListCtrl::GetItemText
  000ae	50		 push	 eax
  000af	8d 4d f0	 lea	 ecx, DWORD PTR _rString$[ebp]
  000b2	c6 45 fc 02	 mov	 BYTE PTR __$EHRec$[ebp+8], 2
  000b6	ff 15 00 00 00
	00		 call	 DWORD PTR __imp_??4?$CStringT@DV?$StrTraitMFC_DLL@DV?$ChTraitsCRT@D@ATL@@@@@ATL@@QAEAAV01@ABV01@@Z
  000bc	8d 4d ec	 lea	 ecx, DWORD PTR $T2[ebp]
  000bf	c6 45 fc 01	 mov	 BYTE PTR __$EHRec$[ebp+8], 1
  000c3	ff 15 00 00 00
	00		 call	 DWORD PTR __imp_??1?$CStringT@DV?$StrTraitMFC_DLL@DV?$ChTraitsCRT@D@ATL@@@@@ATL@@QAE@XZ

; 1446 : 		if(rString.Find(szIn)==0)

  000c9	6a 00		 push	 0
  000cb	ff 75 08	 push	 DWORD PTR _szIn$[ebp]
  000ce	8d 4d f0	 lea	 ecx, DWORD PTR _rString$[ebp]
  000d1	ff 15 00 00 00
	00		 call	 DWORD PTR __imp_?Find@?$CStringT@DV?$StrTraitMFC_DLL@DV?$ChTraitsCRT@D@ATL@@@@@ATL@@QBEHPBDH@Z
  000d7	85 c0		 test	 eax, eax
  000d9	74 0d		 je	 SHORT $LN28@DoFindEdtN

; 1443 : 	for(int i=0; i<nCnt; i++)

  000db	46		 inc	 esi
  000dc	8d 83 e8 00 00
	00		 lea	 eax, DWORD PTR [ebx+232]
  000e2	3b f7		 cmp	 esi, edi
  000e4	7c ba		 jl	 SHORT $LL4@DoFindEdtN

; 1446 : 		if(rString.Find(szIn)==0)

  000e6	eb 2b		 jmp	 SHORT $LN3@DoFindEdtN
$LN28@DoFindEdtN:
; File C:\Program Files (x86)\Microsoft Visual Studio\2019\Community\VC\Tools\MSVC\14.29.30133\atlmfc\include\afxcmn.inl

; 193  : 	{ ASSERT(::IsWindow(m_hWnd)); return (BOOL) ::SendMessage(m_hWnd, LVM_ENSUREVISIBLE, nItem, MAKELPARAM(bPartialOK, 0)); }

  000e8	6a 00		 push	 0
  000ea	56		 push	 esi
  000eb	68 13 10 00 00	 push	 4115			; 00001013H
  000f0	ff b3 08 01 00
	00		 push	 DWORD PTR [ebx+264]
  000f6	ff 15 00 00 00
	00		 call	 DWORD PTR __imp__SendMessageA@16
; File D:\git\src\IBK\IBK_DRFN\ProjSrc\SrcDrfn\Chart\ChartUtil\DlgCompSetup.cpp

; 1450 : 			DoSelectionClear();

  000fc	8b cb		 mov	 ecx, ebx
  000fe	e8 00 00 00 00	 call	 ?DoSelectionClear@CDlgCompSetup@@IAEXXZ ; CDlgCompSetup::DoSelectionClear

; 1451 : 			m_ListCodes.SetItemState(i, flag, flag);

  00103	6a 03		 push	 3
  00105	6a 03		 push	 3
  00107	56		 push	 esi
  00108	8d 8b e8 00 00
	00		 lea	 ecx, DWORD PTR [ebx+232]
  0010e	e8 00 00 00 00	 call	 ?SetItemState@CListCtrl@@QAEHHII@Z ; CListCtrl::SetItemState
$LN3@DoFindEdtN:

; 1452 : 			break;
; 1453 : 		}
; 1454 : 	}	
; 1455 : }

  00113	8d 4d f0	 lea	 ecx, DWORD PTR _rString$[ebp]
  00116	ff 15 00 00 00
	00		 call	 DWORD PTR __imp_??1?$CStringT@DV?$StrTraitMFC_DLL@DV?$ChTraitsCRT@D@ATL@@@@@ATL@@QAE@XZ
$LN12@DoFindEdtN:
  0011c	8d 4d 08	 lea	 ecx, DWORD PTR _szIn$[ebp]
  0011f	ff 15 00 00 00
	00		 call	 DWORD PTR __imp_??1?$CStringT@DV?$StrTraitMFC_DLL@DV?$ChTraitsCRT@D@ATL@@@@@ATL@@QAE@XZ
  00125	8b 4d f4	 mov	 ecx, DWORD PTR __$EHRec$[ebp]
  00128	64 89 0d 00 00
	00 00		 mov	 DWORD PTR fs:0, ecx
  0012f	59		 pop	 ecx
  00130	5f		 pop	 edi
  00131	5e		 pop	 esi
  00132	5b		 pop	 ebx
  00133	8b e5		 mov	 esp, ebp
  00135	5d		 pop	 ebp
  00136	c2 04 00	 ret	 4
_TEXT	ENDS
;	COMDAT text$x
text$x	SEGMENT
__unwindfunclet$?DoFindEdtName@CDlgCompSetup@@IAEXPBD@Z$0:
  00000	8d 4d 08	 lea	 ecx, DWORD PTR _szIn$[ebp]
  00003	ff 25 00 00 00
	00		 jmp	 DWORD PTR __imp_??1?$CStringT@DV?$StrTraitMFC_DLL@DV?$ChTraitsCRT@D@ATL@@@@@ATL@@QAE@XZ
__unwindfunclet$?DoFindEdtName@CDlgCompSetup@@IAEXPBD@Z$1:
  00009	8d 4d f0	 lea	 ecx, DWORD PTR _rString$[ebp]
  0000c	ff 25 00 00 00
	00		 jmp	 DWORD PTR __imp_??1?$CStringT@DV?$StrTraitMFC_DLL@DV?$ChTraitsCRT@D@ATL@@@@@ATL@@QAE@XZ
__unwindfunclet$?DoFindEdtName@CDlgCompSetup@@IAEXPBD@Z$2:
  00012	8d 4d ec	 lea	 ecx, DWORD PTR $T2[ebp]
  00015	ff 25 00 00 00
	00		 jmp	 DWORD PTR __imp_??1?$CStringT@DV?$StrTraitMFC_DLL@DV?$ChTraitsCRT@D@ATL@@@@@ATL@@QAE@XZ
  0001b	cc		 int	 3
  0001c	cc		 int	 3
  0001d	cc		 int	 3
  0001e	cc		 int	 3
  0001f	cc		 int	 3
__ehhandler$?DoFindEdtName@CDlgCompSetup@@IAEXPBD@Z:
  00020	90		 npad	 1
  00021	90		 npad	 1
  00022	8b 54 24 08	 mov	 edx, DWORD PTR [esp+8]
  00026	8d 42 0c	 lea	 eax, DWORD PTR [edx+12]
  00029	8b 4a e8	 mov	 ecx, DWORD PTR [edx-24]
  0002c	33 c8		 xor	 ecx, eax
  0002e	e8 00 00 00 00	 call	 @__security_check_cookie@4
  00033	b8 00 00 00 00	 mov	 eax, OFFSET __ehfuncinfo$?DoFindEdtName@CDlgCompSetup@@IAEXPBD@Z
  00038	e9 00 00 00 00	 jmp	 ___CxxFrameHandler3
text$x	ENDS
?DoFindEdtName@CDlgCompSetup@@IAEXPBD@Z ENDP		; CDlgCompSetup::DoFindEdtName
; Function compile flags: /Ogtp
; File D:\git\src\IBK\IBK_DRFN\ProjSrc\SrcDrfn\Chart\ChartUtil\DlgCompSetup.cpp
; File C:\Program Files (x86)\Microsoft Visual Studio\2019\Community\VC\Tools\MSVC\14.29.30133\atlmfc\include\atlsimpstr.h
; File D:\git\src\IBK\IBK_DRFN\ProjSrc\SrcDrfn\Chart\ChartUtil\DlgCompSetup.cpp
; File C:\Program Files (x86)\Microsoft Visual Studio\2019\Community\VC\Tools\MSVC\14.29.30133\atlmfc\include\afxcmn.inl
; File D:\git\src\IBK\IBK_DRFN\ProjSrc\SrcDrfn\Chart\ChartUtil\DlgCompSetup.cpp
; File C:\Program Files (x86)\Microsoft Visual Studio\2019\Community\VC\Tools\MSVC\14.29.30133\atlmfc\include\afxcmn.inl
; File D:\git\src\IBK\IBK_DRFN\ProjSrc\SrcDrfn\Chart\ChartUtil\DlgCompSetup.cpp
;	COMDAT ?DoFindEdtCode@CDlgCompSetup@@IAEXXZ
_TEXT	SEGMENT
$T2 = -24						; size = 4
_rString$ = -20						; size = 4
_szIn$ = -16						; size = 4
__$EHRec$ = -12						; size = 12
?DoFindEdtCode@CDlgCompSetup@@IAEXXZ PROC		; CDlgCompSetup::DoFindEdtCode, COMDAT
; _this$ = ecx

; 1398 : {

  00000	55		 push	 ebp
  00001	8b ec		 mov	 ebp, esp
  00003	6a ff		 push	 -1
  00005	68 00 00 00 00	 push	 __ehhandler$?DoFindEdtCode@CDlgCompSetup@@IAEXXZ
  0000a	64 a1 00 00 00
	00		 mov	 eax, DWORD PTR fs:0
  00010	50		 push	 eax
  00011	83 ec 0c	 sub	 esp, 12			; 0000000cH
  00014	53		 push	 ebx
  00015	56		 push	 esi
  00016	57		 push	 edi
  00017	a1 00 00 00 00	 mov	 eax, DWORD PTR ___security_cookie
  0001c	33 c5		 xor	 eax, ebp
  0001e	50		 push	 eax
  0001f	8d 45 f4	 lea	 eax, DWORD PTR __$EHRec$[ebp]
  00022	64 a3 00 00 00
	00		 mov	 DWORD PTR fs:0, eax
  00028	8b d9		 mov	 ebx, ecx

; 1399 : 	CString szIn;

  0002a	8d 4d f0	 lea	 ecx, DWORD PTR _szIn$[ebp]
  0002d	ff 15 00 00 00
	00		 call	 DWORD PTR __imp_??0?$CStringT@DV?$StrTraitMFC_DLL@DV?$ChTraitsCRT@D@ATL@@@@@ATL@@QAE@XZ

; 1400 : 	m_edtCode.GetWindowText(szIn);

  00033	8d 45 f0	 lea	 eax, DWORD PTR _szIn$[ebp]
  00036	c7 45 fc 00 00
	00 00		 mov	 DWORD PTR __$EHRec$[ebp+8], 0
  0003d	50		 push	 eax
  0003e	8d 8b 08 04 00
	00		 lea	 ecx, DWORD PTR [ebx+1032]
  00044	e8 00 00 00 00	 call	 ?GetWindowTextA@CXEditPrompt@@QBEXAAV?$CStringT@DV?$StrTraitMFC_DLL@DV?$ChTraitsCRT@D@ATL@@@@@ATL@@@Z ; CXEditPrompt::GetWindowTextA
; File C:\Program Files (x86)\Microsoft Visual Studio\2019\Community\VC\Tools\MSVC\14.29.30133\atlmfc\include\atlsimpstr.h

; 519  : 		return( GetData()->nDataLength );

  00049	8b 45 f0	 mov	 eax, DWORD PTR _szIn$[ebp]
; File D:\git\src\IBK\IBK_DRFN\ProjSrc\SrcDrfn\Chart\ChartUtil\DlgCompSetup.cpp

; 1402 : 	if(szIn.GetLength()==0) return;

  0004c	83 78 f4 00	 cmp	 DWORD PTR [eax-12], 0
  00050	0f 84 ac 00 00
	00		 je	 $LN11@DoFindEdtC
; File C:\Program Files (x86)\Microsoft Visual Studio\2019\Community\VC\Tools\MSVC\14.29.30133\atlmfc\include\afxcmn.inl

; 155  : 	{ ASSERT(::IsWindow(m_hWnd)); return (int) ::SendMessage(m_hWnd, LVM_GETITEMCOUNT, 0, 0L); }

  00056	6a 00		 push	 0
  00058	6a 00		 push	 0
  0005a	68 04 10 00 00	 push	 4100			; 00001004H
  0005f	ff b3 08 01 00
	00		 push	 DWORD PTR [ebx+264]
  00065	ff 15 00 00 00
	00		 call	 DWORD PTR __imp__SendMessageA@16
; File D:\git\src\IBK\IBK_DRFN\ProjSrc\SrcDrfn\Chart\ChartUtil\DlgCompSetup.cpp

; 1406 : 	CString rString;

  0006b	8d 4d ec	 lea	 ecx, DWORD PTR _rString$[ebp]
  0006e	8b f8		 mov	 edi, eax
  00070	ff 15 00 00 00
	00		 call	 DWORD PTR __imp_??0?$CStringT@DV?$StrTraitMFC_DLL@DV?$ChTraitsCRT@D@ATL@@@@@ATL@@QAE@XZ

; 1407 : 	for(int i=0; i<nCnt; i++)

  00076	33 f6		 xor	 esi, esi
  00078	c6 45 fc 01	 mov	 BYTE PTR __$EHRec$[ebp+8], 1
  0007c	85 ff		 test	 edi, edi
  0007e	7e 79		 jle	 SHORT $LN3@DoFindEdtC
  00080	8d 83 e8 00 00
	00		 lea	 eax, DWORD PTR [ebx+232]
$LL4@DoFindEdtC:

; 1408 : 	{
; 1409 : 		rString = m_ListCodes.GetItemText(i, 1);

  00086	6a 01		 push	 1
  00088	56		 push	 esi
  00089	8d 4d e8	 lea	 ecx, DWORD PTR $T2[ebp]
  0008c	51		 push	 ecx
  0008d	8b c8		 mov	 ecx, eax
  0008f	e8 00 00 00 00	 call	 ?GetItemText@CListCtrl@@QBE?AV?$CStringT@DV?$StrTraitMFC_DLL@DV?$ChTraitsCRT@D@ATL@@@@@ATL@@HH@Z ; CListCtrl::GetItemText
  00094	50		 push	 eax
  00095	8d 4d ec	 lea	 ecx, DWORD PTR _rString$[ebp]
  00098	c6 45 fc 02	 mov	 BYTE PTR __$EHRec$[ebp+8], 2
  0009c	ff 15 00 00 00
	00		 call	 DWORD PTR __imp_??4?$CStringT@DV?$StrTraitMFC_DLL@DV?$ChTraitsCRT@D@ATL@@@@@ATL@@QAEAAV01@ABV01@@Z
  000a2	8d 4d e8	 lea	 ecx, DWORD PTR $T2[ebp]
  000a5	c6 45 fc 01	 mov	 BYTE PTR __$EHRec$[ebp+8], 1
  000a9	ff 15 00 00 00
	00		 call	 DWORD PTR __imp_??1?$CStringT@DV?$StrTraitMFC_DLL@DV?$ChTraitsCRT@D@ATL@@@@@ATL@@QAE@XZ

; 1410 : 		if(rString.Find(szIn)==0)

  000af	6a 00		 push	 0
  000b1	ff 75 f0	 push	 DWORD PTR _szIn$[ebp]
  000b4	8d 4d ec	 lea	 ecx, DWORD PTR _rString$[ebp]
  000b7	ff 15 00 00 00
	00		 call	 DWORD PTR __imp_?Find@?$CStringT@DV?$StrTraitMFC_DLL@DV?$ChTraitsCRT@D@ATL@@@@@ATL@@QBEHPBDH@Z
  000bd	85 c0		 test	 eax, eax
  000bf	74 0d		 je	 SHORT $LN23@DoFindEdtC

; 1407 : 	for(int i=0; i<nCnt; i++)

  000c1	46		 inc	 esi
  000c2	8d 83 e8 00 00
	00		 lea	 eax, DWORD PTR [ebx+232]
  000c8	3b f7		 cmp	 esi, edi
  000ca	7c ba		 jl	 SHORT $LL4@DoFindEdtC

; 1410 : 		if(rString.Find(szIn)==0)

  000cc	eb 2b		 jmp	 SHORT $LN3@DoFindEdtC
$LN23@DoFindEdtC:
; File C:\Program Files (x86)\Microsoft Visual Studio\2019\Community\VC\Tools\MSVC\14.29.30133\atlmfc\include\afxcmn.inl

; 193  : 	{ ASSERT(::IsWindow(m_hWnd)); return (BOOL) ::SendMessage(m_hWnd, LVM_ENSUREVISIBLE, nItem, MAKELPARAM(bPartialOK, 0)); }

  000ce	6a 00		 push	 0
  000d0	56		 push	 esi
  000d1	68 13 10 00 00	 push	 4115			; 00001013H
  000d6	ff b3 08 01 00
	00		 push	 DWORD PTR [ebx+264]
  000dc	ff 15 00 00 00
	00		 call	 DWORD PTR __imp__SendMessageA@16
; File D:\git\src\IBK\IBK_DRFN\ProjSrc\SrcDrfn\Chart\ChartUtil\DlgCompSetup.cpp

; 1414 : 			DoSelectionClear();

  000e2	8b cb		 mov	 ecx, ebx
  000e4	e8 00 00 00 00	 call	 ?DoSelectionClear@CDlgCompSetup@@IAEXXZ ; CDlgCompSetup::DoSelectionClear

; 1415 : 			m_ListCodes.SetItemState(i, flag, flag);

  000e9	6a 03		 push	 3
  000eb	6a 03		 push	 3
  000ed	56		 push	 esi
  000ee	8d 8b e8 00 00
	00		 lea	 ecx, DWORD PTR [ebx+232]
  000f4	e8 00 00 00 00	 call	 ?SetItemState@CListCtrl@@QAEHHII@Z ; CListCtrl::SetItemState
$LN3@DoFindEdtC:

; 1416 : 			break;
; 1417 : 		}
; 1418 : 	}
; 1419 : }

  000f9	8d 4d ec	 lea	 ecx, DWORD PTR _rString$[ebp]
  000fc	ff 15 00 00 00
	00		 call	 DWORD PTR __imp_??1?$CStringT@DV?$StrTraitMFC_DLL@DV?$ChTraitsCRT@D@ATL@@@@@ATL@@QAE@XZ
$LN11@DoFindEdtC:
  00102	8d 4d f0	 lea	 ecx, DWORD PTR _szIn$[ebp]
  00105	ff 15 00 00 00
	00		 call	 DWORD PTR __imp_??1?$CStringT@DV?$StrTraitMFC_DLL@DV?$ChTraitsCRT@D@ATL@@@@@ATL@@QAE@XZ
  0010b	8b 4d f4	 mov	 ecx, DWORD PTR __$EHRec$[ebp]
  0010e	64 89 0d 00 00
	00 00		 mov	 DWORD PTR fs:0, ecx
  00115	59		 pop	 ecx
  00116	5f		 pop	 edi
  00117	5e		 pop	 esi
  00118	5b		 pop	 ebx
  00119	8b e5		 mov	 esp, ebp
  0011b	5d		 pop	 ebp
  0011c	c3		 ret	 0
_TEXT	ENDS
;	COMDAT text$x
text$x	SEGMENT
__unwindfunclet$?DoFindEdtCode@CDlgCompSetup@@IAEXXZ$0:
  00000	8d 4d f0	 lea	 ecx, DWORD PTR _szIn$[ebp]
  00003	ff 25 00 00 00
	00		 jmp	 DWORD PTR __imp_??1?$CStringT@DV?$StrTraitMFC_DLL@DV?$ChTraitsCRT@D@ATL@@@@@ATL@@QAE@XZ
__unwindfunclet$?DoFindEdtCode@CDlgCompSetup@@IAEXXZ$1:
  00009	8d 4d ec	 lea	 ecx, DWORD PTR _rString$[ebp]
  0000c	ff 25 00 00 00
	00		 jmp	 DWORD PTR __imp_??1?$CStringT@DV?$StrTraitMFC_DLL@DV?$ChTraitsCRT@D@ATL@@@@@ATL@@QAE@XZ
__unwindfunclet$?DoFindEdtCode@CDlgCompSetup@@IAEXXZ$2:
  00012	8d 4d e8	 lea	 ecx, DWORD PTR $T2[ebp]
  00015	ff 25 00 00 00
	00		 jmp	 DWORD PTR __imp_??1?$CStringT@DV?$StrTraitMFC_DLL@DV?$ChTraitsCRT@D@ATL@@@@@ATL@@QAE@XZ
  0001b	cc		 int	 3
  0001c	cc		 int	 3
  0001d	cc		 int	 3
  0001e	cc		 int	 3
  0001f	cc		 int	 3
__ehhandler$?DoFindEdtCode@CDlgCompSetup@@IAEXXZ:
  00020	90		 npad	 1
  00021	90		 npad	 1
  00022	8b 54 24 08	 mov	 edx, DWORD PTR [esp+8]
  00026	8d 42 0c	 lea	 eax, DWORD PTR [edx+12]
  00029	8b 4a e4	 mov	 ecx, DWORD PTR [edx-28]
  0002c	33 c8		 xor	 ecx, eax
  0002e	e8 00 00 00 00	 call	 @__security_check_cookie@4
  00033	b8 00 00 00 00	 mov	 eax, OFFSET __ehfuncinfo$?DoFindEdtCode@CDlgCompSetup@@IAEXXZ
  00038	e9 00 00 00 00	 jmp	 ___CxxFrameHandler3
text$x	ENDS
?DoFindEdtCode@CDlgCompSetup@@IAEXXZ ENDP		; CDlgCompSetup::DoFindEdtCode
; Function compile flags: /Ogtp
; File D:\git\src\IBK\IBK_DRFN\ProjSrc\SrcDrfn\Chart\ChartUtil\DlgCompSetup.cpp
;	COMDAT ?GetCodeInfo@CDlgCompSetup@@IAEHHAAH0AAV?$CStringT@DV?$StrTraitMFC_DLL@DV?$ChTraitsCRT@D@ATL@@@@@ATL@@@Z
_TEXT	SEGMENT
_nType$ = 8						; size = 4
_row$ = 12						; size = 4
_col$ = 16						; size = 4
_strCode$ = 20						; size = 4
?GetCodeInfo@CDlgCompSetup@@IAEHHAAH0AAV?$CStringT@DV?$StrTraitMFC_DLL@DV?$ChTraitsCRT@D@ATL@@@@@ATL@@@Z PROC ; CDlgCompSetup::GetCodeInfo, COMDAT
; _this$ = ecx

; 1211 : {

  00000	55		 push	 ebp
  00001	8b ec		 mov	 ebp, esp
  00003	56		 push	 esi
  00004	8b f1		 mov	 esi, ecx

; 1212 : 	int nRowTotal = m_pGridCtrl->GetRowCount();

  00006	8b 8e dc 06 00
	00		 mov	 ecx, DWORD PTR [esi+1756]
  0000c	e8 00 00 00 00	 call	 ?GetRowCount@CExGridCtrl@@QAEHXZ ; CExGridCtrl::GetRowCount

; 1213 : 	if (row < TITLE_ROW || row > nRowTotal || col == COL_CENTER)

  00011	8b 55 0c	 mov	 edx, DWORD PTR _row$[ebp]
  00014	8b 12		 mov	 edx, DWORD PTR [edx]
  00016	83 fa 01	 cmp	 edx, 1
  00019	7c 2f		 jl	 SHORT $LN3@GetCodeInf
  0001b	3b d0		 cmp	 edx, eax
  0001d	7f 2b		 jg	 SHORT $LN3@GetCodeInf
  0001f	8b 45 10	 mov	 eax, DWORD PTR _col$[ebp]
  00022	8b 00		 mov	 eax, DWORD PTR [eax]
  00024	83 f8 01	 cmp	 eax, 1
  00027	74 21		 je	 SHORT $LN3@GetCodeInf

; 1215 : 
; 1216 : 	strCode = (LPCSTR)m_pGridCtrl->GetItemData(row, col);

  00029	8b 8e dc 06 00
	00		 mov	 ecx, DWORD PTR [esi+1756]
  0002f	50		 push	 eax
  00030	52		 push	 edx
  00031	e8 00 00 00 00	 call	 ?GetItemData@CExGridCtrl@@QAEJHH@Z ; CExGridCtrl::GetItemData
  00036	8b 4d 14	 mov	 ecx, DWORD PTR _strCode$[ebp]
  00039	50		 push	 eax
  0003a	ff 15 00 00 00
	00		 call	 DWORD PTR __imp_??4?$CStringT@DV?$StrTraitMFC_DLL@DV?$ChTraitsCRT@D@ATL@@@@@ATL@@QAEAAV01@PBD@Z

; 1217 : 	return TRUE;

  00040	b8 01 00 00 00	 mov	 eax, 1
  00045	5e		 pop	 esi

; 1218 : }

  00046	5d		 pop	 ebp
  00047	c2 10 00	 ret	 16			; 00000010H
$LN3@GetCodeInf:

; 1214 : 		return FALSE;

  0004a	33 c0		 xor	 eax, eax
  0004c	5e		 pop	 esi

; 1218 : }

  0004d	5d		 pop	 ebp
  0004e	c2 10 00	 ret	 16			; 00000010H
?GetCodeInfo@CDlgCompSetup@@IAEHHAAH0AAV?$CStringT@DV?$StrTraitMFC_DLL@DV?$ChTraitsCRT@D@ATL@@@@@ATL@@@Z ENDP ; CDlgCompSetup::GetCodeInfo
_TEXT	ENDS
; Function compile flags: /Ogtp
; File D:\git\src\IBK\IBK_DRFN\ProjSrc\SrcDrfn\Chart\ChartUtil\DlgCompSetup.cpp
;	COMDAT ?GetInsertGridDataText@CDlgCompSetup@@IAE?AV?$CStringT@DV?$StrTraitMFC_DLL@DV?$ChTraitsCRT@D@ATL@@@@@ATL@@HH@Z
_TEXT	SEGMENT
___$ReturnUdt$ = 8					; size = 4
_row$ = 12						; size = 4
_col$ = 16						; size = 4
?GetInsertGridDataText@CDlgCompSetup@@IAE?AV?$CStringT@DV?$StrTraitMFC_DLL@DV?$ChTraitsCRT@D@ATL@@@@@ATL@@HH@Z PROC ; CDlgCompSetup::GetInsertGridDataText, COMDAT
; _this$ = ecx

; 1200 : {

  00000	55		 push	 ebp
  00001	8b ec		 mov	 ebp, esp

; 1201 : 	if (row != 0 )		return "";

  00003	83 7d 0c 00	 cmp	 DWORD PTR _row$[ebp], 0
  00007	56		 push	 esi
  00008	75 4c		 jne	 SHORT $LN7@GetInsertG

; 1202 : 
; 1203 : 	if (col == COL_CENTER)	return "";

  0000a	83 7d 10 01	 cmp	 DWORD PTR _col$[ebp], 1
  0000e	75 16		 jne	 SHORT $LN3@GetInsertG

; 1206 : 
; 1207 : 	return "";
; 1208 : }

  00010	8b 4d 08	 mov	 ecx, DWORD PTR ___$ReturnUdt$[ebp]
  00013	68 00 00 00 00	 push	 OFFSET ??_C@_06CDJAKJDK@?G?$OA?$LL?g?$LA?$KB@
  00018	ff 15 00 00 00
	00		 call	 DWORD PTR __imp_??0?$CStringT@DV?$StrTraitMFC_DLL@DV?$ChTraitsCRT@D@ATL@@@@@ATL@@QAE@PBD@Z
  0001e	8b 45 08	 mov	 eax, DWORD PTR ___$ReturnUdt$[ebp]
  00021	5e		 pop	 esi
  00022	5d		 pop	 ebp
  00023	c2 0c 00	 ret	 12			; 0000000cH
$LN3@GetInsertG:

; 1204 : 	else if (col < COL_CENTER)	return "";

  00026	7d 16		 jge	 SHORT $LN5@GetInsertG

; 1206 : 
; 1207 : 	return "";
; 1208 : }

  00028	8b 4d 08	 mov	 ecx, DWORD PTR ___$ReturnUdt$[ebp]
  0002b	68 00 00 00 00	 push	 OFFSET ??_C@_02KCIOKDCD@?D?$NN@
  00030	ff 15 00 00 00
	00		 call	 DWORD PTR __imp_??0?$CStringT@DV?$StrTraitMFC_DLL@DV?$ChTraitsCRT@D@ATL@@@@@ATL@@QAE@PBD@Z
  00036	8b 45 08	 mov	 eax, DWORD PTR ___$ReturnUdt$[ebp]
  00039	5e		 pop	 esi
  0003a	5d		 pop	 ebp
  0003b	c2 0c 00	 ret	 12			; 0000000cH
$LN5@GetInsertG:

; 1205 : 	else if (col > COL_CENTER)	return "";

  0003e	7e 16		 jle	 SHORT $LN7@GetInsertG

; 1206 : 
; 1207 : 	return "";
; 1208 : }

  00040	8b 4d 08	 mov	 ecx, DWORD PTR ___$ReturnUdt$[ebp]
  00043	68 00 00 00 00	 push	 OFFSET ??_C@_02ECKNGKBC@?G?$LC@
  00048	ff 15 00 00 00
	00		 call	 DWORD PTR __imp_??0?$CStringT@DV?$StrTraitMFC_DLL@DV?$ChTraitsCRT@D@ATL@@@@@ATL@@QAE@PBD@Z
  0004e	8b 45 08	 mov	 eax, DWORD PTR ___$ReturnUdt$[ebp]
  00051	5e		 pop	 esi
  00052	5d		 pop	 ebp
  00053	c2 0c 00	 ret	 12			; 0000000cH
$LN7@GetInsertG:
  00056	8b 4d 08	 mov	 ecx, DWORD PTR ___$ReturnUdt$[ebp]
  00059	68 00 00 00 00	 push	 OFFSET ??_C@_00CNPNBAHC@@
  0005e	ff 15 00 00 00
	00		 call	 DWORD PTR __imp_??0?$CStringT@DV?$StrTraitMFC_DLL@DV?$ChTraitsCRT@D@ATL@@@@@ATL@@QAE@PBD@Z
  00064	8b 45 08	 mov	 eax, DWORD PTR ___$ReturnUdt$[ebp]
  00067	5e		 pop	 esi
  00068	5d		 pop	 ebp
  00069	c2 0c 00	 ret	 12			; 0000000cH
?GetInsertGridDataText@CDlgCompSetup@@IAE?AV?$CStringT@DV?$StrTraitMFC_DLL@DV?$ChTraitsCRT@D@ATL@@@@@ATL@@HH@Z ENDP ; CDlgCompSetup::GetInsertGridDataText
_TEXT	ENDS
; Function compile flags: /Ogtp
; File D:\git\src\IBK\IBK_DRFN\ProjSrc\SrcDrfn\Chart\ChartUtil\DlgCompSetup.cpp
;	COMDAT ?InsertGridData@CDlgCompSetup@@IAEXXZ
_TEXT	SEGMENT
_nRow$1$ = -132						; size = 4
_this$GSCopy$1$ = -128					; size = 4
$T2 = -124						; size = 4
_Item$3 = -120						; size = 104
__$ArrayPad$ = -16					; size = 4
__$EHRec$ = -12						; size = 12
?InsertGridData@CDlgCompSetup@@IAEXXZ PROC		; CDlgCompSetup::InsertGridData, COMDAT
; _this$ = ecx

; 1169 : {

  00000	55		 push	 ebp
  00001	8b ec		 mov	 ebp, esp
  00003	6a ff		 push	 -1
  00005	68 00 00 00 00	 push	 __ehhandler$?InsertGridData@CDlgCompSetup@@IAEXXZ
  0000a	64 a1 00 00 00
	00		 mov	 eax, DWORD PTR fs:0
  00010	50		 push	 eax
  00011	83 ec 78	 sub	 esp, 120		; 00000078H
  00014	a1 00 00 00 00	 mov	 eax, DWORD PTR ___security_cookie
  00019	33 c5		 xor	 eax, ebp
  0001b	89 45 f0	 mov	 DWORD PTR __$ArrayPad$[ebp], eax
  0001e	53		 push	 ebx
  0001f	56		 push	 esi
  00020	57		 push	 edi
  00021	50		 push	 eax
  00022	8d 45 f4	 lea	 eax, DWORD PTR __$EHRec$[ebp]
  00025	64 a3 00 00 00
	00		 mov	 DWORD PTR fs:0, eax
  0002b	8b f1		 mov	 esi, ecx
  0002d	89 75 80	 mov	 DWORD PTR _this$GSCopy$1$[ebp], esi

; 1170 : 	int nCol = m_pGridCtrl->GetColumnCount();

  00030	8b 8e dc 06 00
	00		 mov	 ecx, DWORD PTR [esi+1756]
  00036	e8 00 00 00 00	 call	 ?GetColumnCount@CExGridCtrl@@QAEHXZ ; CExGridCtrl::GetColumnCount

; 1171 : 	int nRow = m_pGridCtrl->GetRowCount();

  0003b	8b 8e dc 06 00
	00		 mov	 ecx, DWORD PTR [esi+1756]
  00041	8b d8		 mov	 ebx, eax
  00043	e8 00 00 00 00	 call	 ?GetRowCount@CExGridCtrl@@QAEHXZ ; CExGridCtrl::GetRowCount

; 1172 : 	
; 1173 : 	// fill rows/cols with text
; 1174 : 	int row, col;	
; 1175 : 	for (row = 0; row < nRow; row++)

  00048	33 ff		 xor	 edi, edi
  0004a	89 85 7c ff ff
	ff		 mov	 DWORD PTR _nRow$1$[ebp], eax
  00050	85 c0		 test	 eax, eax
  00052	0f 8e f7 00 00
	00		 jle	 $LN3@InsertGrid
  00058	0f 1f 84 00 00
	00 00 00	 npad	 8
$LL4@InsertGrid:

; 1176 : 	{
; 1177 : 		for (col = 0; col < nCol; col++)

  00060	33 f6		 xor	 esi, esi
  00062	85 db		 test	 ebx, ebx
  00064	0f 8e dc 00 00
	00		 jle	 $LN2@InsertGrid
  0006a	66 0f 1f 44 00
	00		 npad	 6
$LL7@InsertGrid:
  00070	8d 4d ec	 lea	 ecx, DWORD PTR _Item$3[ebp+100]
  00073	ff 15 00 00 00
	00		 call	 DWORD PTR __imp_??0?$CStringT@DV?$StrTraitMFC_DLL@DV?$ChTraitsCRT@D@ATL@@@@@ATL@@QAE@XZ

; 1178 : 		{ 
; 1179 : 
; 1180 : 			GV_ITEM Item;

  00079	c7 45 fc 00 00
	00 00		 mov	 DWORD PTR __$EHRec$[ebp+8], 0

; 1181 : 			Item.mask = GVIF_TEXT|GVIF_FORMAT|GVIF_FGCLR|GVIF_BKCLR|GVIF_STATE|GVIF_PARAM;

  00080	c7 45 90 7d 00
	00 00		 mov	 DWORD PTR _Item$3[ebp+8], 125 ; 0000007dH

; 1182 : 			Item.nState = GVIS_READONLY | GVIS_MODIFIED ;//| GVIS_DROPHILITED;

  00087	c7 45 94 88 00
	00 00		 mov	 DWORD PTR _Item$3[ebp+12], 136 ; 00000088H

; 1183 : 			Item.row = row;

  0008e	89 7d 88	 mov	 DWORD PTR _Item$3[ebp], edi

; 1184 : 			Item.col = col;

  00091	89 75 8c	 mov	 DWORD PTR _Item$3[ebp+4], esi

; 1185 : 			
; 1186 : 			Item.nFormat = DT_VCENTER|DT_SINGLELINE|DT_END_ELLIPSIS|DT_NOPREFIX|DT_CENTER;

  00094	c7 45 98 25 88
	00 00		 mov	 DWORD PTR _Item$3[ebp+16], 34853 ; 00008825H

; 1201 : 	if (row != 0 )		return "";

  0009b	85 ff		 test	 edi, edi
  0009d	75 1e		 jne	 SHORT $LN23@InsertGrid

; 1202 : 
; 1203 : 	if (col == COL_CENTER)	return "";

  0009f	83 fe 01	 cmp	 esi, 1
  000a2	75 07		 jne	 SHORT $LN19@InsertGrid
  000a4	68 00 00 00 00	 push	 OFFSET ??_C@_06CDJAKJDK@?G?$OA?$LL?g?$LA?$KB@
  000a9	eb 17		 jmp	 SHORT $LN40@InsertGrid
$LN19@InsertGrid:

; 1204 : 	else if (col < COL_CENTER)	return "";

  000ab	73 07		 jae	 SHORT $LN21@InsertGrid
  000ad	68 00 00 00 00	 push	 OFFSET ??_C@_02KCIOKDCD@?D?$NN@
  000b2	eb 0e		 jmp	 SHORT $LN40@InsertGrid
$LN21@InsertGrid:

; 1205 : 	else if (col > COL_CENTER)	return "";

  000b4	76 07		 jbe	 SHORT $LN23@InsertGrid
  000b6	68 00 00 00 00	 push	 OFFSET ??_C@_02ECKNGKBC@?G?$LC@
  000bb	eb 05		 jmp	 SHORT $LN40@InsertGrid
$LN23@InsertGrid:

; 1206 : 
; 1207 : 	return "";

  000bd	68 00 00 00 00	 push	 OFFSET ??_C@_00CNPNBAHC@@
$LN40@InsertGrid:

; 1187 : 
; 1188 : 			Item.strText = GetInsertGridDataText(row, col);

  000c2	8d 4d 84	 lea	 ecx, DWORD PTR $T2[ebp]
  000c5	ff 15 00 00 00
	00		 call	 DWORD PTR __imp_??0?$CStringT@DV?$StrTraitMFC_DLL@DV?$ChTraitsCRT@D@ATL@@@@@ATL@@QAE@PBD@Z
  000cb	8d 45 84	 lea	 eax, DWORD PTR $T2[ebp]
  000ce	c6 45 fc 01	 mov	 BYTE PTR __$EHRec$[ebp+8], 1
  000d2	50		 push	 eax
  000d3	8d 4d ec	 lea	 ecx, DWORD PTR _Item$3[ebp+100]
  000d6	ff 15 00 00 00
	00		 call	 DWORD PTR __imp_??4?$CStringT@DV?$StrTraitMFC_DLL@DV?$ChTraitsCRT@D@ATL@@@@@ATL@@QAEAAV01@ABV01@@Z
  000dc	8d 4d 84	 lea	 ecx, DWORD PTR $T2[ebp]
  000df	c6 45 fc 00	 mov	 BYTE PTR __$EHRec$[ebp+8], 0
  000e3	ff 15 00 00 00
	00		 call	 DWORD PTR __imp_??1?$CStringT@DV?$StrTraitMFC_DLL@DV?$ChTraitsCRT@D@ATL@@@@@ATL@@QAE@XZ

; 1189 : 			Item.crBkClr = RGB(238,239,243);

  000e9	b8 ee ef f3 00	 mov	 eax, 15986670		; 00f3efeeH
  000ee	89 45 a0	 mov	 DWORD PTR _Item$3[ebp+24], eax

; 1190 : 			if(row == 0 && col < COL_CENTER)			Item.crBkClr = RGB(244, 180, 180);

  000f1	85 ff		 test	 edi, edi
  000f3	75 19		 jne	 SHORT $LN10@InsertGrid
  000f5	83 fe 01	 cmp	 esi, 1
  000f8	73 09		 jae	 SHORT $LN38@InsertGrid
  000fa	c7 45 a0 f4 b4
	b4 00		 mov	 DWORD PTR _Item$3[ebp+24], 11842804 ; 00b4b4f4H
  00101	eb 0b		 jmp	 SHORT $LN10@InsertGrid
$LN38@InsertGrid:

; 1191 : 			else if(row == 0 && col > COL_CENTER)		Item.crBkClr = RGB(180, 207, 244);

  00103	b9 b4 cf f4 00	 mov	 ecx, 16043956		; 00f4cfb4H
  00108	0f 47 c1	 cmova	 eax, ecx
  0010b	89 45 a0	 mov	 DWORD PTR _Item$3[ebp+24], eax
$LN10@InsertGrid:

; 1192 : 			Item.crFgClr = COLOR_BLACK;
; 1193 : 			
; 1194 : 			m_pGridCtrl->SetItem(&Item);

  0010e	8d 45 88	 lea	 eax, DWORD PTR _Item$3[ebp]
  00111	c7 45 a4 00 00
	00 00		 mov	 DWORD PTR _Item$3[ebp+28], 0
  00118	50		 push	 eax
  00119	8b 45 80	 mov	 eax, DWORD PTR _this$GSCopy$1$[ebp]
  0011c	8b 88 dc 06 00
	00		 mov	 ecx, DWORD PTR [eax+1756]
  00122	e8 00 00 00 00	 call	 ?SetItem@CExGridCtrl@@QAEHPAU_GV_ITEM@@@Z ; CExGridCtrl::SetItem
  00127	8d 4d ec	 lea	 ecx, DWORD PTR _Item$3[ebp+100]

; 1195 : 		}

  0012a	c7 45 fc ff ff
	ff ff		 mov	 DWORD PTR __$EHRec$[ebp+8], -1
  00131	ff 15 00 00 00
	00		 call	 DWORD PTR __imp_??1?$CStringT@DV?$StrTraitMFC_DLL@DV?$ChTraitsCRT@D@ATL@@@@@ATL@@QAE@XZ
  00137	46		 inc	 esi
  00138	3b f3		 cmp	 esi, ebx
  0013a	0f 8c 30 ff ff
	ff		 jl	 $LL7@InsertGrid
  00140	8b 85 7c ff ff
	ff		 mov	 eax, DWORD PTR _nRow$1$[ebp]
$LN2@InsertGrid:

; 1172 : 	
; 1173 : 	// fill rows/cols with text
; 1174 : 	int row, col;	
; 1175 : 	for (row = 0; row < nRow; row++)

  00146	47		 inc	 edi
  00147	3b f8		 cmp	 edi, eax
  00149	0f 8c 11 ff ff
	ff		 jl	 $LL4@InsertGrid
$LN3@InsertGrid:

; 1196 : 	}	
; 1197 : }

  0014f	8b 4d f4	 mov	 ecx, DWORD PTR __$EHRec$[ebp]
  00152	64 89 0d 00 00
	00 00		 mov	 DWORD PTR fs:0, ecx
  00159	59		 pop	 ecx
  0015a	5f		 pop	 edi
  0015b	5e		 pop	 esi
  0015c	5b		 pop	 ebx
  0015d	8b 4d f0	 mov	 ecx, DWORD PTR __$ArrayPad$[ebp]
  00160	33 cd		 xor	 ecx, ebp
  00162	e8 00 00 00 00	 call	 @__security_check_cookie@4
  00167	8b e5		 mov	 esp, ebp
  00169	5d		 pop	 ebp
  0016a	c3		 ret	 0
_TEXT	ENDS
;	COMDAT text$x
text$x	SEGMENT
__unwindfunclet$?InsertGridData@CDlgCompSetup@@IAEXXZ$0:
  00000	8d 4d 88	 lea	 ecx, DWORD PTR _Item$3[ebp]
  00003	e9 00 00 00 00	 jmp	 ??1_GV_ITEM@@QAE@XZ
__unwindfunclet$?InsertGridData@CDlgCompSetup@@IAEXXZ$1:
  00008	8d 4d 84	 lea	 ecx, DWORD PTR $T2[ebp]
  0000b	ff 25 00 00 00
	00		 jmp	 DWORD PTR __imp_??1?$CStringT@DV?$StrTraitMFC_DLL@DV?$ChTraitsCRT@D@ATL@@@@@ATL@@QAE@XZ
  00011	cc		 int	 3
  00012	cc		 int	 3
  00013	cc		 int	 3
  00014	cc		 int	 3
  00015	cc		 int	 3
__ehhandler$?InsertGridData@CDlgCompSetup@@IAEXXZ:
  00016	90		 npad	 1
  00017	90		 npad	 1
  00018	8b 54 24 08	 mov	 edx, DWORD PTR [esp+8]
  0001c	8d 42 0c	 lea	 eax, DWORD PTR [edx+12]
  0001f	8b 8a 78 ff ff
	ff		 mov	 ecx, DWORD PTR [edx-136]
  00025	33 c8		 xor	 ecx, eax
  00027	e8 00 00 00 00	 call	 @__security_check_cookie@4
  0002c	8b 4a fc	 mov	 ecx, DWORD PTR [edx-4]
  0002f	33 c8		 xor	 ecx, eax
  00031	e8 00 00 00 00	 call	 @__security_check_cookie@4
  00036	b8 00 00 00 00	 mov	 eax, OFFSET __ehfuncinfo$?InsertGridData@CDlgCompSetup@@IAEXXZ
  0003b	e9 00 00 00 00	 jmp	 ___CxxFrameHandler3
text$x	ENDS
?InsertGridData@CDlgCompSetup@@IAEXXZ ENDP		; CDlgCompSetup::InsertGridData
; Function compile flags: /Ogtp
; File D:\git\src\IBK\IBK_DRFN\ProjSrc\SrcDrfn\Chart\ChartUtil\DlgCompSetup.cpp
;	COMDAT ?ChangeGridRowCol@CDlgCompSetup@@IAEXXZ
_TEXT	SEGMENT
_nCol$1$ = -8						; size = 4
?ChangeGridRowCol@CDlgCompSetup@@IAEXXZ PROC		; CDlgCompSetup::ChangeGridRowCol, COMDAT
; _this$ = ecx

; 1128 : {

  00000	55		 push	 ebp
  00001	8b ec		 mov	 ebp, esp
  00003	83 ec 08	 sub	 esp, 8
  00006	53		 push	 ebx
  00007	56		 push	 esi
  00008	57		 push	 edi
  00009	8b f9		 mov	 edi, ecx

; 1129 : 	int nCol = m_pGridCtrl->GetColumnCount();		// Column Count 

  0000b	8b 8f dc 06 00
	00		 mov	 ecx, DWORD PTR [edi+1756]
  00011	e8 00 00 00 00	 call	 ?GetColumnCount@CExGridCtrl@@QAEHXZ ; CExGridCtrl::GetColumnCount

; 1130 : 	int nRow = m_pGridCtrl->GetRowCount();			// Row Count 

  00016	8b 8f dc 06 00
	00		 mov	 ecx, DWORD PTR [edi+1756]
  0001c	8b d8		 mov	 ebx, eax
  0001e	89 5d f8	 mov	 DWORD PTR _nCol$1$[ebp], ebx
  00021	e8 00 00 00 00	 call	 ?GetRowCount@CExGridCtrl@@QAEHXZ ; CExGridCtrl::GetRowCount
  00026	33 f6		 xor	 esi, esi

; 1131 : 
; 1132 : 	// fill rows/cols with text
; 1133 : 	for (int row = 0; row < nRow; row++)

  00028	85 c0		 test	 eax, eax
  0002a	7e 1a		 jle	 SHORT $LN3@ChangeGrid
  0002c	8b d8		 mov	 ebx, eax
  0002e	66 90		 npad	 2
$LL4@ChangeGrid:

; 1134 : 		m_pGridCtrl->SetRowHeight(row, ROW_HEIGHT);

  00030	8b 8f dc 06 00
	00		 mov	 ecx, DWORD PTR [edi+1756]
  00036	6a 0f		 push	 15			; 0000000fH
  00038	56		 push	 esi
  00039	e8 00 00 00 00	 call	 ?SetRowHeight@CExGridCtrl@@QAEHHH@Z ; CExGridCtrl::SetRowHeight
  0003e	46		 inc	 esi
  0003f	3b f3		 cmp	 esi, ebx
  00041	7c ed		 jl	 SHORT $LL4@ChangeGrid
  00043	8b 5d f8	 mov	 ebx, DWORD PTR _nCol$1$[ebp]
$LN3@ChangeGrid:

; 1135 : 	
; 1136 : 	for (int col = 0; col < nCol; col++)

  00046	33 f6		 xor	 esi, esi
  00048	85 db		 test	 ebx, ebx
  0004a	7e 17		 jle	 SHORT $LN6@ChangeGrid
  0004c	0f 1f 40 00	 npad	 4
$LL7@ChangeGrid:

; 1137 : 		m_pGridCtrl->SetColumnWidth(col, GRID_CALLPUT_WIDTH);

  00050	8b 8f dc 06 00
	00		 mov	 ecx, DWORD PTR [edi+1756]
  00056	6a 21		 push	 33			; 00000021H
  00058	56		 push	 esi
  00059	e8 00 00 00 00	 call	 ?SetColumnWidth@CExGridCtrl@@QAEHHH@Z ; CExGridCtrl::SetColumnWidth
  0005e	46		 inc	 esi
  0005f	3b f3		 cmp	 esi, ebx
  00061	7c ed		 jl	 SHORT $LL7@ChangeGrid
$LN6@ChangeGrid:

; 1138 : 
; 1139 : 	m_pGridCtrl->SetColumnWidth(COL_CENTER, GRID_CENTER_WIDTH);		

  00063	8b 8f dc 06 00
	00		 mov	 ecx, DWORD PTR [edi+1756]
  00069	6a 64		 push	 100			; 00000064H
  0006b	6a 01		 push	 1
  0006d	e8 00 00 00 00	 call	 ?SetColumnWidth@CExGridCtrl@@QAEHHH@Z ; CExGridCtrl::SetColumnWidth

; 1140 : 	m_pGridCtrl->Refresh();

  00072	8b 8f dc 06 00
	00		 mov	 ecx, DWORD PTR [edi+1756]
  00078	e8 00 00 00 00	 call	 ?Refresh@CExGridCtrl@@QAEXXZ ; CExGridCtrl::Refresh
  0007d	5f		 pop	 edi
  0007e	5e		 pop	 esi
  0007f	5b		 pop	 ebx

; 1141 : }

  00080	8b e5		 mov	 esp, ebp
  00082	5d		 pop	 ebp
  00083	c3		 ret	 0
?ChangeGridRowCol@CDlgCompSetup@@IAEXXZ ENDP		; CDlgCompSetup::ChangeGridRowCol
_TEXT	ENDS
; Function compile flags: /Ogtp
; File D:\git\src\IBK\IBK_DRFN\ProjSrc\SrcDrfn\Chart\ChartUtil\DlgCompSetup.cpp
;	COMDAT ?InitGridRowCol@CDlgCompSetup@@IAEXH@Z
_TEXT	SEGMENT
_e$2 = -20						; size = 4
__$EHRec$ = -16						; size = 16
_nRowCount$ = 8						; size = 4
?InitGridRowCol@CDlgCompSetup@@IAEXH@Z PROC		; CDlgCompSetup::InitGridRowCol, COMDAT
; _this$ = ecx

; 1108 : {	

  00000	55		 push	 ebp
  00001	8b ec		 mov	 ebp, esp
  00003	6a ff		 push	 -1
  00005	68 00 00 00 00	 push	 __ehhandler$?InitGridRowCol@CDlgCompSetup@@IAEXH@Z
  0000a	64 a1 00 00 00
	00		 mov	 eax, DWORD PTR fs:0
  00010	50		 push	 eax
  00011	83 ec 08	 sub	 esp, 8
  00014	53		 push	 ebx
  00015	56		 push	 esi
  00016	57		 push	 edi
  00017	a1 00 00 00 00	 mov	 eax, DWORD PTR ___security_cookie
  0001c	33 c5		 xor	 eax, ebp
  0001e	50		 push	 eax
  0001f	8d 45 f4	 lea	 eax, DWORD PTR __$EHRec$[ebp+4]
  00022	64 a3 00 00 00
	00		 mov	 DWORD PTR fs:0, eax
  00028	89 65 f0	 mov	 DWORD PTR __$EHRec$[ebp], esp
  0002b	8b f1		 mov	 esi, ecx

; 1109 : 	try {
; 1110 : 		int nRow, nCol;
; 1111 : 
; 1112 : 		nRow = nRowCount + TITLE_ROW;

  0002d	8b 45 08	 mov	 eax, DWORD PTR _nRowCount$[ebp]

; 1113 : 		nCol = 3;
; 1114 : 		
; 1115 : 		m_pGridCtrl->SetRowCount(nRow);				// Row A

  00030	8b 8e dc 06 00
	00		 mov	 ecx, DWORD PTR [esi+1756]
  00036	40		 inc	 eax
  00037	50		 push	 eax
  00038	c7 45 fc 00 00
	00 00		 mov	 DWORD PTR __$EHRec$[ebp+12], 0
  0003f	e8 00 00 00 00	 call	 ?SetRowCount@CExGridCtrl@@QAEHH@Z ; CExGridCtrl::SetRowCount

; 1116 : 		m_pGridCtrl->SetColumnCount(nCol);			// Column A

  00044	8b 8e dc 06 00
	00		 mov	 ecx, DWORD PTR [esi+1756]
  0004a	6a 03		 push	 3
  0004c	e8 00 00 00 00	 call	 ?SetColumnCount@CExGridCtrl@@QAEHH@Z ; CExGridCtrl::SetColumnCount

; 1117 : 		m_pGridCtrl->SetFixedColumnCount(0);		// Fixed Column A

  00051	8b 8e dc 06 00
	00		 mov	 ecx, DWORD PTR [esi+1756]
  00057	6a 00		 push	 0
  00059	e8 00 00 00 00	 call	 ?SetFixedColumnCount@CExGridCtrl@@QAEHH@Z ; CExGridCtrl::SetFixedColumnCount
$LN7@InitGridRo:

; 1124 : 	}
; 1125 : }

  0005e	8b 4d f4	 mov	 ecx, DWORD PTR __$EHRec$[ebp+4]
  00061	64 89 0d 00 00
	00 00		 mov	 DWORD PTR fs:0, ecx
  00068	59		 pop	 ecx
  00069	5f		 pop	 edi
  0006a	5e		 pop	 esi
  0006b	5b		 pop	 ebx
  0006c	8b e5		 mov	 esp, ebp
  0006e	5d		 pop	 ebp
  0006f	c2 04 00	 ret	 4
