; Listing generated by Microsoft (R) Optimizing Compiler Version 19.29.30145.0 

	TITLE	D:\git\src\IBK\IBK_DRFN\#DRfn-CS\_Obj\ChartUtil\DlgCompSetup.obj
	.686P
	.XMM
	include listing.inc
	.model	flat

INCLUDELIB MSVCRT
INCLUDELIB OLDNAMES

PUBLIC	??_C@_0P@BKKCOCLK@RMSG_INTERFACE@		; `string'
PUBLIC	??_C@_0BB@GOOPDKI@RMSG_GETPCTRDATA@		; `string'
PUBLIC	??_C@_0BB@JPACFCL@RMSG_SETPCTRDATA@		; `string'
;	COMDAT ??_C@_0BB@JPACFCL@RMSG_SETPCTRDATA@
CONST	SEGMENT
??_C@_0BB@JPACFCL@RMSG_SETPCTRDATA@ DB 'RMSG_SETPCTRDATA', 00H ; `string'
CONST	ENDS
;	COMDAT ??_C@_0BB@GOOPDKI@RMSG_GETPCTRDATA@
CONST	SEGMENT
??_C@_0BB@GOOPDKI@RMSG_GETPCTRDATA@ DB 'RMSG_GETPCTRDATA', 00H ; `string'
CONST	ENDS
;	COMDAT ??_C@_0P@BKKCOCLK@RMSG_INTERFACE@
CONST	SEGMENT
??_C@_0P@BKKCOCLK@RMSG_INTERFACE@ DB 'RMSG_INTERFACE', 00H ; `string'
CONST	ENDS
CONST	SEGMENT
?_Fake_alloc@std@@3U_Fake_allocator@1@B	ORG $+1		; std::_Fake_alloc
CONST	ENDS
PUBLIC	?__empty_global_delete@@YAXPAX@Z		; __empty_global_delete
PUBLIC	?__empty_global_delete@@YAXPAXI@Z		; __empty_global_delete
PUBLIC	___local_stdio_scanf_options
PUBLIC	_sscanf
PUBLIC	?AfxCrtErrorCheck@@YAHH@Z			; AfxCrtErrorCheck
PUBLIC	??1CObject@@UAE@XZ				; CObject::~CObject
PUBLIC	??3CObject@@SGXPAX@Z				; CObject::operator delete
PUBLIC	?Serialize@CObject@@UAEXAAVCArchive@@@Z		; CObject::Serialize
PUBLIC	?AssertValid@CObject@@UBEXXZ			; CObject::AssertValid
PUBLIC	?Dump@CObject@@UBEXAAVCDumpContext@@@Z		; CObject::Dump
PUBLIC	?_AfxInitManaged@@YAHXZ				; _AfxInitManaged
PUBLIC	?DoDataExchange@CWnd@@MAEXPAVCDataExchange@@@Z	; CWnd::DoDataExchange
PUBLIC	?BeginModalState@CWnd@@UAEXXZ			; CWnd::BeginModalState
PUBLIC	?EndModalState@CWnd@@UAEXXZ			; CWnd::EndModalState
PUBLIC	?Create@CDialog@@UAEHIPAVCWnd@@@Z		; CDialog::Create
PUBLIC	??_GCListBox@@UAEPAXI@Z				; CListBox::`scalar deleting destructor'
PUBLIC	??_GCComboBox@@UAEPAXI@Z			; CComboBox::`scalar deleting destructor'
PUBLIC	?GetItemCount@CListCtrl@@QBEHXZ			; CListCtrl::GetItemCount
PUBLIC	??_GCListCtrl@@UAEPAXI@Z			; CListCtrl::`scalar deleting destructor'
PUBLIC	??_GCTreeCtrl@@UAEPAXI@Z			; CTreeCtrl::`scalar deleting destructor'
PUBLIC	??0CDlgCompSubItem@@QAE@XZ			; CDlgCompSubItem::CDlgCompSubItem
PUBLIC	??0?$CList@PAVCDlgCompSubItem@@PAV1@@@QAE@H@Z	; CList<CDlgCompSubItem *,CDlgCompSubItem *>::CList<CDlgCompSubItem *,CDlgCompSubItem *>
PUBLIC	?AddTail@?$CList@PAVCDlgCompSubItem@@PAV1@@@QAEPAU__POSITION@@PAVCDlgCompSubItem@@@Z ; CList<CDlgCompSubItem *,CDlgCompSubItem *>::AddTail
PUBLIC	?RemoveAll@?$CList@PAVCDlgCompSubItem@@PAV1@@@QAEXXZ ; CList<CDlgCompSubItem *,CDlgCompSubItem *>::RemoveAll
PUBLIC	?RemoveAt@?$CList@PAVCDlgCompSubItem@@PAV1@@@QAEXPAU__POSITION@@@Z ; CList<CDlgCompSubItem *,CDlgCompSubItem *>::RemoveAt
PUBLIC	?FindIndex@?$CList@PAVCDlgCompSubItem@@PAV1@@@QBEPAU__POSITION@@H@Z ; CList<CDlgCompSubItem *,CDlgCompSubItem *>::FindIndex
PUBLIC	?NewNode@?$CList@PAVCDlgCompSubItem@@PAV1@@@IAEPAUCNode@1@PAU21@0@Z ; CList<CDlgCompSubItem *,CDlgCompSubItem *>::NewNode
PUBLIC	?FreeNode@?$CList@PAVCDlgCompSubItem@@PAV1@@@IAEXPAUCNode@1@@Z ; CList<CDlgCompSubItem *,CDlgCompSubItem *>::FreeNode
PUBLIC	??1?$CList@PAVCDlgCompSubItem@@PAV1@@@UAE@XZ	; CList<CDlgCompSubItem *,CDlgCompSubItem *>::~CList<CDlgCompSubItem *,CDlgCompSubItem *>
PUBLIC	?Serialize@?$CList@PAVCDlgCompSubItem@@PAV1@@@UAEXAAVCArchive@@@Z ; CList<CDlgCompSubItem *,CDlgCompSubItem *>::Serialize
PUBLIC	??_G?$CList@PAVCDlgCompSubItem@@PAV1@@@UAEPAXI@Z ; CList<CDlgCompSubItem *,CDlgCompSubItem *>::`scalar deleting destructor'
PUBLIC	??0CDlgCompGroupData@@QAE@XZ			; CDlgCompGroupData::CDlgCompGroupData
PUBLIC	??0?$CList@PAVCDlgCompGroupData@@PAV1@@@QAE@H@Z	; CList<CDlgCompGroupData *,CDlgCompGroupData *>::CList<CDlgCompGroupData *,CDlgCompGroupData *>
PUBLIC	?AddTail@?$CList@PAVCDlgCompGroupData@@PAV1@@@QAEPAU__POSITION@@PAVCDlgCompGroupData@@@Z ; CList<CDlgCompGroupData *,CDlgCompGroupData *>::AddTail
PUBLIC	?RemoveAll@?$CList@PAVCDlgCompGroupData@@PAV1@@@QAEXXZ ; CList<CDlgCompGroupData *,CDlgCompGroupData *>::RemoveAll
PUBLIC	?RemoveAt@?$CList@PAVCDlgCompGroupData@@PAV1@@@QAEXPAU__POSITION@@@Z ; CList<CDlgCompGroupData *,CDlgCompGroupData *>::RemoveAt
PUBLIC	?FindIndex@?$CList@PAVCDlgCompGroupData@@PAV1@@@QBEPAU__POSITION@@H@Z ; CList<CDlgCompGroupData *,CDlgCompGroupData *>::FindIndex
PUBLIC	?NewNode@?$CList@PAVCDlgCompGroupData@@PAV1@@@IAEPAUCNode@1@PAU21@0@Z ; CList<CDlgCompGroupData *,CDlgCompGroupData *>::NewNode
PUBLIC	?FreeNode@?$CList@PAVCDlgCompGroupData@@PAV1@@@IAEXPAUCNode@1@@Z ; CList<CDlgCompGroupData *,CDlgCompGroupData *>::FreeNode
PUBLIC	??1?$CList@PAVCDlgCompGroupData@@PAV1@@@UAE@XZ	; CList<CDlgCompGroupData *,CDlgCompGroupData *>::~CList<CDlgCompGroupData *,CDlgCompGroupData *>
PUBLIC	?Serialize@?$CList@PAVCDlgCompGroupData@@PAV1@@@UAEXAAVCArchive@@@Z ; CList<CDlgCompGroupData *,CDlgCompGroupData *>::Serialize
PUBLIC	??_G?$CList@PAVCDlgCompGroupData@@PAV1@@@UAEPAXI@Z ; CList<CDlgCompGroupData *,CDlgCompGroupData *>::`scalar deleting destructor'
PUBLIC	??1CInputCodeListEx@@QAE@XZ			; CInputCodeListEx::~CInputCodeListEx
PUBLIC	?Convert@CCodeTypeBase@@UAEXPAD@Z		; CCodeTypeBase::Convert
PUBLIC	?Convert2@CCodeTypeBase@@UAEXPAD@Z		; CCodeTypeBase::Convert2
PUBLIC	?ConvertOneClickData@CCodeTypeBase@@UAEXPAD@Z	; CCodeTypeBase::ConvertOneClickData
PUBLIC	??0CCodeTypeA@@QAE@XZ				; CCodeTypeA::CCodeTypeA
PUBLIC	?Convert@CCodeTypeA@@UAEXPAD@Z			; CCodeTypeA::Convert
PUBLIC	?Convert2@CCodeTypeA@@UAEXPAD@Z			; CCodeTypeA::Convert2
PUBLIC	?ConvertOneClickData@CCodeTypeA@@UAEXPAD@Z	; CCodeTypeA::ConvertOneClickData
PUBLIC	??1CCodeTypeA@@QAE@XZ				; CCodeTypeA::~CCodeTypeA
PUBLIC	?SetSize@?$CArray@PAU__MASTERCODE@@PAU1@@@QAEXHH@Z ; CArray<__MASTERCODE *,__MASTERCODE *>::SetSize
PUBLIC	?SetAtGrow@?$CArray@PAU__MASTERCODE@@PAU1@@@QAEXHPAU__MASTERCODE@@@Z ; CArray<__MASTERCODE *,__MASTERCODE *>::SetAtGrow
PUBLIC	??1_GV_ITEM@@QAE@XZ				; _GV_ITEM::~_GV_ITEM
PUBLIC	??0?$CList@PAVCCallPutItemData@@PAV1@@@QAE@H@Z	; CList<CCallPutItemData *,CCallPutItemData *>::CList<CCallPutItemData *,CCallPutItemData *>
PUBLIC	?AddTail@?$CList@PAVCCallPutItemData@@PAV1@@@QAEPAU__POSITION@@PAVCCallPutItemData@@@Z ; CList<CCallPutItemData *,CCallPutItemData *>::AddTail
PUBLIC	?RemoveAll@?$CList@PAVCCallPutItemData@@PAV1@@@QAEXXZ ; CList<CCallPutItemData *,CCallPutItemData *>::RemoveAll
PUBLIC	?NewNode@?$CList@PAVCCallPutItemData@@PAV1@@@IAEPAUCNode@1@PAU21@0@Z ; CList<CCallPutItemData *,CCallPutItemData *>::NewNode
PUBLIC	??1?$CList@PAVCCallPutItemData@@PAV1@@@UAE@XZ	; CList<CCallPutItemData *,CCallPutItemData *>::~CList<CCallPutItemData *,CCallPutItemData *>
PUBLIC	?Serialize@?$CList@PAVCCallPutItemData@@PAV1@@@UAEXAAVCArchive@@@Z ; CList<CCallPutItemData *,CCallPutItemData *>::Serialize
PUBLIC	??_G?$CList@PAVCCallPutItemData@@PAV1@@@UAEPAXI@Z ; CList<CCallPutItemData *,CCallPutItemData *>::`scalar deleting destructor'
PUBLIC	?fnDataToList@CCallPutIMonthData@@QAEHPAUST_OPTION_ITEM_DATA@@@Z ; CCallPutIMonthData::fnDataToList
PUBLIC	??0?$CList@PAVCCallPutIMonthData@@PAV1@@@QAE@H@Z ; CList<CCallPutIMonthData *,CCallPutIMonthData *>::CList<CCallPutIMonthData *,CCallPutIMonthData *>
PUBLIC	?AddTail@?$CList@PAVCCallPutIMonthData@@PAV1@@@QAEPAU__POSITION@@PAVCCallPutIMonthData@@@Z ; CList<CCallPutIMonthData *,CCallPutIMonthData *>::AddTail
PUBLIC	?RemoveAll@?$CList@PAVCCallPutIMonthData@@PAV1@@@QAEXXZ ; CList<CCallPutIMonthData *,CCallPutIMonthData *>::RemoveAll
PUBLIC	?NewNode@?$CList@PAVCCallPutIMonthData@@PAV1@@@IAEPAUCNode@1@PAU21@0@Z ; CList<CCallPutIMonthData *,CCallPutIMonthData *>::NewNode
PUBLIC	??1?$CList@PAVCCallPutIMonthData@@PAV1@@@UAE@XZ	; CList<CCallPutIMonthData *,CCallPutIMonthData *>::~CList<CCallPutIMonthData *,CCallPutIMonthData *>
PUBLIC	?Serialize@?$CList@PAVCCallPutIMonthData@@PAV1@@@UAEXAAVCArchive@@@Z ; CList<CCallPutIMonthData *,CCallPutIMonthData *>::Serialize
PUBLIC	??_G?$CList@PAVCCallPutIMonthData@@PAV1@@@UAEPAXI@Z ; CList<CCallPutIMonthData *,CCallPutIMonthData *>::`scalar deleting destructor'
PUBLIC	?Parsing@CCallPutIHelper@@QAEXPAV?$CList@VCCodeTypeA@@V1@@@H@Z ; CCallPutIHelper::Parsing
PUBLIC	?ClearList@CCallPutIHelper@@QAEXXZ		; CCallPutIHelper::ClearList
PUBLIC	??0CDlgCompSetup@@QAE@PAVCWnd@@@Z		; CDlgCompSetup::CDlgCompSetup
PUBLIC	?GetCurSubItemList@CDlgCompSetup@@QAEPAV?$CList@PAVCDlgCompSubItem@@PAV1@@@XZ ; CDlgCompSetup::GetCurSubItemList
PUBLIC	?SetInOutData@CDlgCompSetup@@QAEXJJ@Z		; CDlgCompSetup::SetInOutData
PUBLIC	?DoDataExchange@CDlgCompSetup@@MAEXPAVCDataExchange@@@Z ; CDlgCompSetup::DoDataExchange
PUBLIC	?WindowProc@CDlgCompSetup@@MAEJIIJ@Z		; CDlgCompSetup::WindowProc
PUBLIC	?PreTranslateMessage@CDlgCompSetup@@MAEHPAUtagMSG@@@Z ; CDlgCompSetup::PreTranslateMessage
PUBLIC	?Initial_ThicknessComboBox@CDlgCompSetup@@IAEXHHAAVCBitmapItemComboBox@@@Z ; CDlgCompSetup::Initial_ThicknessComboBox
PUBLIC	?AddLineType@CDlgCompSetup@@IAEXPAVCComboBox@@H@Z ; CDlgCompSetup::AddLineType
PUBLIC	?Initial_DrawStyleComboBox@CDlgCompSetup@@IAEXHAAVCBitmapItemComboBox@@@Z ; CDlgCompSetup::Initial_DrawStyleComboBox
PUBLIC	?LoadBitmapToDrawStyleCombo@CDlgCompSetup@@IAEXHAAVCBitmapItemComboBox@@@Z ; CDlgCompSetup::LoadBitmapToDrawStyleCombo
PUBLIC	?RealLoadBitmap@CDlgCompSetup@@IAEXHHAAVCBitmapItemComboBox@@@Z ; CDlgCompSetup::RealLoadBitmap
PUBLIC	?fnCheckCode@CDlgCompSetup@@IAEHPBD0@Z		; CDlgCompSetup::fnCheckCode
PUBLIC	?OnInitDialog@CDlgCompSetup@@MAEHXZ		; CDlgCompSetup::OnInitDialog
PUBLIC	?OnBtngrpnew@CDlgCompSetup@@IAEXXZ		; CDlgCompSetup::OnBtngrpnew
PUBLIC	?OnBtngrpdel@CDlgCompSetup@@IAEXXZ		; CDlgCompSetup::OnBtngrpdel
PUBLIC	?OnBtngrpchange@CDlgCompSetup@@IAEXXZ		; CDlgCompSetup::OnBtngrpchange
PUBLIC	?OnArrow1@CDlgCompSetup@@IAEXXZ			; CDlgCompSetup::OnArrow1
PUBLIC	?OnArrow2@CDlgCompSetup@@IAEXXZ			; CDlgCompSetup::OnArrow2
PUBLIC	?OnArrow3@CDlgCompSetup@@IAEXXZ			; CDlgCompSetup::OnArrow3
PUBLIC	?OnArrow4@CDlgCompSetup@@IAEXXZ			; CDlgCompSetup::OnArrow4
PUBLIC	?OnBtnleft@CDlgCompSetup@@IAEXXZ		; CDlgCompSetup::OnBtnleft
PUBLIC	?OnBtnright@CDlgCompSetup@@IAEXXZ		; CDlgCompSetup::OnBtnright
PUBLIC	?OnBtnleft3@CDlgCompSetup@@IAEXXZ		; CDlgCompSetup::OnBtnleft3
PUBLIC	?OnOk@CDlgCompSetup@@IAEXXZ			; CDlgCompSetup::OnOk
PUBLIC	?OnDestroy@CDlgCompSetup@@IAEXXZ		; CDlgCompSetup::OnDestroy
PUBLIC	?OnSelchangeListgrp@CDlgCompSetup@@IAEXXZ	; CDlgCompSetup::OnSelchangeListgrp
PUBLIC	?OnItemchangedListitem@CDlgCompSetup@@IAEXPAUtagNMHDR@@PAJ@Z ; CDlgCompSetup::OnItemchangedListitem
PUBLIC	?OnSelchangedTreesearch@CDlgCompSetup@@IAEXPAUtagNMHDR@@PAJ@Z ; CDlgCompSetup::OnSelchangedTreesearch
PUBLIC	?OnClkListItem@CDlgCompSetup@@IAEXPAUtagNMHDR@@PAJ@Z ; CDlgCompSetup::OnClkListItem
PUBLIC	?OnDblclkListItem@CDlgCompSetup@@IAEXPAUtagNMHDR@@PAJ@Z ; CDlgCompSetup::OnDblclkListItem
PUBLIC	?OnClkListcodes@CDlgCompSetup@@IAEXPAUtagNMHDR@@PAJ@Z ; CDlgCompSetup::OnClkListcodes
PUBLIC	?OnDblclkListcodes@CDlgCompSetup@@IAEXPAUtagNMHDR@@PAJ@Z ; CDlgCompSetup::OnDblclkListcodes
PUBLIC	?OnSelchangeDrawstyle@CDlgCompSetup@@IAEXXZ	; CDlgCompSetup::OnSelchangeDrawstyle
PUBLIC	?OnSelchangeThickness@CDlgCompSetup@@IAEXXZ	; CDlgCompSetup::OnSelchangeThickness
PUBLIC	?OnSelchangeCmbsel@CDlgCompSetup@@IAEXXZ	; CDlgCompSetup::OnSelchangeCmbsel
PUBLIC	?OnColorSelChange@CDlgCompSetup@@IAEJIJ@Z	; CDlgCompSetup::OnColorSelChange
PUBLIC	?GetThisMessageMap@CDlgCompSetup@@KGPBUAFX_MSGMAP@@XZ ; CDlgCompSetup::GetThisMessageMap
PUBLIC	?GetMessageMap@CDlgCompSetup@@MBEPBUAFX_MSGMAP@@XZ ; CDlgCompSetup::GetMessageMap
PUBLIC	?fnCheckNoGroup@CDlgCompSetup@@IAEXXZ		; CDlgCompSetup::fnCheckNoGroup
PUBLIC	?InitFromLoadData@CDlgCompSetup@@IAEXXZ		; CDlgCompSetup::InitFromLoadData
PUBLIC	?FindGroupInfo@CDlgCompSetup@@IAEPAVCDlgCompGroupData@@HAAPAU__POSITION@@@Z ; CDlgCompSetup::FindGroupInfo
PUBLIC	?ReceiveData@CTLMCallback@CDlgCompSetup@@EAGXHDJHPAX@Z ; CDlgCompSetup::CTLMCallback::ReceiveData
PUBLIC	?fnInitList@CDlgCompSetup@@IAEXXZ		; CDlgCompSetup::fnInitList
PUBLIC	?fnTreeLoad@CDlgCompSetup@@IAEXXZ		; CDlgCompSetup::fnTreeLoad
PUBLIC	?fnSelectGroup@CDlgCompSetup@@IAEXH@Z		; CDlgCompSetup::fnSelectGroup
PUBLIC	?fnSelectItem@CDlgCompSetup@@IAEXPAVCDlgCompGroupData@@H@Z ; CDlgCompSetup::fnSelectItem
PUBLIC	?fnSelectItem@CDlgCompSetup@@IAEXPAVCDlgCompSubItem@@@Z ; CDlgCompSetup::fnSelectItem
PUBLIC	?fnUpdateToControl@CDlgCompSetup@@IAEXPAVCDlgCompSubItem@@@Z ; CDlgCompSetup::fnUpdateToControl
PUBLIC	?fnUpdateToMemory@CDlgCompSetup@@IAEXPAVCDlgCompSubItem@@@Z ; CDlgCompSetup::fnUpdateToMemory
PUBLIC	?DoAddToItem@CDlgCompSetup@@IAEXH@Z		; CDlgCompSetup::DoAddToItem
PUBLIC	?DoGridAddToItem@CDlgCompSetup@@IAEXPBD0@Z	; CDlgCompSetup::DoGridAddToItem
PUBLIC	?DoDeleteItem@CDlgCompSetup@@IAEXH@Z		; CDlgCompSetup::DoDeleteItem
PUBLIC	?DoCurItemChange@CDlgCompSetup@@IAEXXZ		; CDlgCompSetup::DoCurItemChange
PUBLIC	?fnInitSelctGroup@CDlgCompSetup@@IAEXPBD@Z	; CDlgCompSetup::fnInitSelctGroup
PUBLIC	?ChangeListOrGridCtrl@CDlgCompSetup@@IAEXV?$CStringT@DV?$StrTraitMFC_DLL@DV?$ChTraitsCRT@D@ATL@@@@@ATL@@@Z ; CDlgCompSetup::ChangeListOrGridCtrl
PUBLIC	?SetMasterData@CDlgCompSetup@@IAEXPAV?$CList@VCCodeTypeA@@V1@@@@Z ; CDlgCompSetup::SetMasterData
PUBLIC	?InitGrid@CDlgCompSetup@@IAEXXZ			; CDlgCompSetup::InitGrid
PUBLIC	?InitGridRowCol@CDlgCompSetup@@IAEXH@Z		; CDlgCompSetup::InitGridRowCol
PUBLIC	?ChangeGridRowCol@CDlgCompSetup@@IAEXXZ		; CDlgCompSetup::ChangeGridRowCol
PUBLIC	?InsertGridData@CDlgCompSetup@@IAEXXZ		; CDlgCompSetup::InsertGridData
PUBLIC	?GetInsertGridDataText@CDlgCompSetup@@IAE?AV?$CStringT@DV?$StrTraitMFC_DLL@DV?$ChTraitsCRT@D@ATL@@@@@ATL@@HH@Z ; CDlgCompSetup::GetInsertGridDataText
PUBLIC	?GetCodeInfo@CDlgCompSetup@@IAEHHAAH0AAV?$CStringT@DV?$StrTraitMFC_DLL@DV?$ChTraitsCRT@D@ATL@@@@@ATL@@@Z ; CDlgCompSetup::GetCodeInfo
PUBLIC	?DoFindEdtCode@CDlgCompSetup@@IAEXXZ		; CDlgCompSetup::DoFindEdtCode
PUBLIC	?DoFindEdtName@CDlgCompSetup@@IAEXPBD@Z		; CDlgCompSetup::DoFindEdtName
PUBLIC	?DoSelectionClear@CDlgCompSetup@@IAEXXZ		; CDlgCompSetup::DoSelectionClear
PUBLIC	??_GCDlgCompSetup@@UAEPAXI@Z			; CDlgCompSetup::`scalar deleting destructor'
PUBLIC	??0exception@std@@QAE@ABV01@@Z			; std::exception::exception
PUBLIC	??1exception@std@@UAE@XZ			; std::exception::~exception
PUBLIC	?what@exception@std@@UBEPBDXZ			; std::exception::what
PUBLIC	??_Gexception@std@@UAEPAXI@Z			; std::exception::`scalar deleting destructor'
PUBLIC	??0bad_alloc@std@@QAE@ABV01@@Z			; std::bad_alloc::bad_alloc
PUBLIC	??_Gbad_alloc@std@@UAEPAXI@Z			; std::bad_alloc::`scalar deleting destructor'
PUBLIC	??0bad_array_new_length@std@@QAE@XZ		; std::bad_array_new_length::bad_array_new_length
PUBLIC	??1bad_array_new_length@std@@UAE@XZ		; std::bad_array_new_length::~bad_array_new_length
PUBLIC	??0bad_array_new_length@std@@QAE@ABV01@@Z	; std::bad_array_new_length::bad_array_new_length
PUBLIC	??_Gbad_array_new_length@std@@UAEPAXI@Z		; std::bad_array_new_length::`scalar deleting destructor'
PUBLIC	?_Throw_bad_array_new_length@std@@YAXXZ		; std::_Throw_bad_array_new_length
PUBLIC	??1CDlgGroupName@@UAE@XZ			; CDlgGroupName::~CDlgGroupName
PUBLIC	??1?$vector@HV?$allocator@H@std@@@std@@QAE@XZ	; std::vector<int,std::allocator<int> >::~vector<int,std::allocator<int> >
PUBLIC	?_Xlength@?$vector@HV?$allocator@H@std@@@std@@CAXXZ ; std::vector<int,std::allocator<int> >::_Xlength
PUBLIC	?_Xrange@?$vector@HV?$allocator@H@std@@@std@@CAXXZ ; std::vector<int,std::allocator<int> >::_Xrange
PUBLIC	??$_Emplace_reallocate@ABH@?$vector@HV?$allocator@H@std@@@std@@QAEPAHQAHABH@Z ; std::vector<int,std::allocator<int> >::_Emplace_reallocate<int const &>
PUBLIC	??$SerializeElements@PAVCDlgCompSubItem@@@@YGXAAVCArchive@@PAPAVCDlgCompSubItem@@H@Z ; SerializeElements<CDlgCompSubItem *>
PUBLIC	??$SerializeElements@PAVCDlgCompGroupData@@@@YGXAAVCArchive@@PAPAVCDlgCompGroupData@@H@Z ; SerializeElements<CDlgCompGroupData *>
PUBLIC	??$SerializeElements@PAVCCallPutItemData@@@@YGXAAVCArchive@@PAPAVCCallPutItemData@@H@Z ; SerializeElements<CCallPutItemData *>
PUBLIC	??$SerializeElements@PAVCCallPutIMonthData@@@@YGXAAVCArchive@@PAPAVCCallPutIMonthData@@H@Z ; SerializeElements<CCallPutIMonthData *>
PUBLIC	??$_Copy_memmove@PAHPAH@std@@YAPAHPAH00@Z	; std::_Copy_memmove<int *,int *>
PUBLIC	??$_Allocate_manually_vector_aligned@U_Default_allocate_traits@std@@@std@@YAPAXI@Z ; std::_Allocate_manually_vector_aligned<std::_Default_allocate_traits>
PUBLIC	?_OptionsStorage@?1??__local_stdio_scanf_options@@9@4_KA ; `__local_stdio_scanf_options'::`2'::_OptionsStorage
PUBLIC	??_C@_00CNPNBAHC@@				; `string'
PUBLIC	??_7CListBox@@6B@				; CListBox::`vftable'
PUBLIC	??_7CComboBox@@6B@				; CComboBox::`vftable'
PUBLIC	??_7CListCtrl@@6B@				; CListCtrl::`vftable'
PUBLIC	??_7CTreeCtrl@@6B@				; CTreeCtrl::`vftable'
PUBLIC	??_R0?AVCObject@@@8				; CObject `RTTI Type Descriptor'
PUBLIC	??_R3CObject@@8					; CObject::`RTTI Class Hierarchy Descriptor'
PUBLIC	??_R2CObject@@8					; CObject::`RTTI Base Class Array'
PUBLIC	??_R1A@?0A@EA@CObject@@8			; CObject::`RTTI Base Class Descriptor at (0,-1,0,64)'
PUBLIC	??_R1A@?0A@EA@CWnd@@8				; CWnd::`RTTI Base Class Descriptor at (0,-1,0,64)'
PUBLIC	??_R0?AVCWnd@@@8				; CWnd `RTTI Type Descriptor'
PUBLIC	??_R3CWnd@@8					; CWnd::`RTTI Class Hierarchy Descriptor'
PUBLIC	??_R2CWnd@@8					; CWnd::`RTTI Base Class Array'
PUBLIC	??_R1A@?0A@EA@CCmdTarget@@8			; CCmdTarget::`RTTI Base Class Descriptor at (0,-1,0,64)'
PUBLIC	??_R0?AVCCmdTarget@@@8				; CCmdTarget `RTTI Type Descriptor'
PUBLIC	??_R3CCmdTarget@@8				; CCmdTarget::`RTTI Class Hierarchy Descriptor'
PUBLIC	??_R2CCmdTarget@@8				; CCmdTarget::`RTTI Base Class Array'
PUBLIC	??_R4CListBox@@6B@				; CListBox::`RTTI Complete Object Locator'
PUBLIC	??_R0?AVCListBox@@@8				; CListBox `RTTI Type Descriptor'
PUBLIC	??_R3CListBox@@8				; CListBox::`RTTI Class Hierarchy Descriptor'
PUBLIC	??_R2CListBox@@8				; CListBox::`RTTI Base Class Array'
PUBLIC	??_R1A@?0A@EA@CListBox@@8			; CListBox::`RTTI Base Class Descriptor at (0,-1,0,64)'
PUBLIC	??_R4CComboBox@@6B@				; CComboBox::`RTTI Complete Object Locator'
PUBLIC	??_R0?AVCComboBox@@@8				; CComboBox `RTTI Type Descriptor'
PUBLIC	??_R3CComboBox@@8				; CComboBox::`RTTI Class Hierarchy Descriptor'
PUBLIC	??_R2CComboBox@@8				; CComboBox::`RTTI Base Class Array'
PUBLIC	??_R1A@?0A@EA@CComboBox@@8			; CComboBox::`RTTI Base Class Descriptor at (0,-1,0,64)'
PUBLIC	??_R1A@?0A@EA@CDialog@@8			; CDialog::`RTTI Base Class Descriptor at (0,-1,0,64)'
PUBLIC	??_R0?AVCDialog@@@8				; CDialog `RTTI Type Descriptor'
PUBLIC	??_R3CDialog@@8					; CDialog::`RTTI Class Hierarchy Descriptor'
PUBLIC	??_R2CDialog@@8					; CDialog::`RTTI Base Class Array'
PUBLIC	??_R4CListCtrl@@6B@				; CListCtrl::`RTTI Complete Object Locator'
PUBLIC	??_R0?AVCListCtrl@@@8				; CListCtrl `RTTI Type Descriptor'
PUBLIC	??_R3CListCtrl@@8				; CListCtrl::`RTTI Class Hierarchy Descriptor'
PUBLIC	??_R2CListCtrl@@8				; CListCtrl::`RTTI Base Class Array'
PUBLIC	??_R1A@?0A@EA@CListCtrl@@8			; CListCtrl::`RTTI Base Class Descriptor at (0,-1,0,64)'
PUBLIC	??_R4CTreeCtrl@@6B@				; CTreeCtrl::`RTTI Complete Object Locator'
PUBLIC	??_R0?AVCTreeCtrl@@@8				; CTreeCtrl `RTTI Type Descriptor'
PUBLIC	??_R3CTreeCtrl@@8				; CTreeCtrl::`RTTI Class Hierarchy Descriptor'
PUBLIC	??_R2CTreeCtrl@@8				; CTreeCtrl::`RTTI Base Class Array'
PUBLIC	??_R1A@?0A@EA@CTreeCtrl@@8			; CTreeCtrl::`RTTI Base Class Descriptor at (0,-1,0,64)'
PUBLIC	??_7?$CList@PAVCDlgCompSubItem@@PAV1@@@6B@	; CList<CDlgCompSubItem *,CDlgCompSubItem *>::`vftable'
PUBLIC	??_7?$CList@PAVCDlgCompGroupData@@PAV1@@@6B@	; CList<CDlgCompGroupData *,CDlgCompGroupData *>::`vftable'
PUBLIC	??_C@_0M@CBBNGGHM@PcTrMng?4dll@			; `string'
PUBLIC	??_C@_0P@IDMAJEGN@HANAROPCTRMAIN@		; `string'
PUBLIC	??_C@_06NDLAHCHE@?$CFs?$CF08X@			; `string'
PUBLIC	??_C@_02EMFKHFLK@?$CFX@				; `string'
PUBLIC	??_C@_08KDNPGENH@TREELIST@			; `string'
PUBLIC	??_7CCodeTypeBase@@6B@				; CCodeTypeBase::`vftable'
PUBLIC	??_C@_05KBKNOCPJ@?$CF2?42s@			; `string'
PUBLIC	??_C@_02BJKMHJON@?$KI?W@			; `string'
PUBLIC	??_C@_02IJKLNJNJ@?$KI?$OA@			; `string'
PUBLIC	??_7CCodeTypeA@@6B@				; CCodeTypeA::`vftable'
PUBLIC	??_C@_01COCBENDE@7@				; `string'
PUBLIC	??_C@_01DHDKHMHF@6@				; `string'
PUBLIC	??_C@_01BMBHCPLG@5@				; `string'
PUBLIC	??_C@_01EKENIIDA@3@				; `string'
PUBLIC	??_C@_01FAMBOPH@4@				; `string'
PUBLIC	??_7?$CList@PAVCCallPutItemData@@PAV1@@@6B@	; CList<CCallPutItemData *,CCallPutItemData *>::`vftable'
PUBLIC	??_7?$CList@PAVCCallPutIMonthData@@PAV1@@@6B@	; CList<CCallPutIMonthData *,CCallPutIMonthData *>::`vftable'
PUBLIC	??_C@_04HOGOKFCN@?$LP?y?$LJ?$LA@		; `string'
PUBLIC	??_C@_04CNJBKMPC@Call@				; `string'
PUBLIC	??_7CTLMCallback@CDlgCompSetup@@6B@		; CDlgCompSetup::CTLMCallback::`vftable'
PUBLIC	??_7CDlgCompSetup@@6B@				; CDlgCompSetup::`vftable'
PUBLIC	??_7exception@std@@6B@				; std::exception::`vftable'
PUBLIC	??_C@_0BC@EOODALEL@Unknown?5exception@		; `string'
PUBLIC	??_7bad_alloc@std@@6B@				; std::bad_alloc::`vftable'
PUBLIC	??_7bad_array_new_length@std@@6B@		; std::bad_array_new_length::`vftable'
PUBLIC	??_C@_0BF@KINCDENJ@bad?5array?5new?5length@	; `string'
PUBLIC	__TI3?AVbad_array_new_length@std@@
PUBLIC	__CTA3?AVbad_array_new_length@std@@
PUBLIC	??_R0?AVbad_array_new_length@std@@@8		; std::bad_array_new_length `RTTI Type Descriptor'
PUBLIC	__CT??_R0?AVbad_array_new_length@std@@@8??0bad_array_new_length@std@@QAE@ABV01@@Z12
PUBLIC	??_R0?AVbad_alloc@std@@@8			; std::bad_alloc `RTTI Type Descriptor'
PUBLIC	__CT??_R0?AVbad_alloc@std@@@8??0bad_alloc@std@@QAE@ABV01@@Z12
PUBLIC	??_R0?AVexception@std@@@8			; std::exception `RTTI Type Descriptor'
PUBLIC	__CT??_R0?AVexception@std@@@8??0exception@std@@QAE@ABV01@@Z12
PUBLIC	??_C@_08KMEBHNMN@?$DM?A?$LO?$LI?q?$LI?m?$DO@	; `string'
PUBLIC	??_C@_0L@OLLFJJOD@?$DM?A?$LO?$LI?q?D?Z?$LF?e?$DO@ ; `string'
PUBLIC	??_C@_0BP@BLNMJNIH@?$MA?L?$LJ?L?5?$LA?$LA?$MA?$LK?5?$LB?W?$LH?l?$LI?m?$MA?L?5?A?$LI?$MA?g?G?U?$LE?O?$LE?Y?4@ ; `string'
PUBLIC	??_C@_0CA@KGDMODEH@?$CFs?5?$LB?W?$LH?l?$MA?$LL?$CI?$LI?$KG?$CJ?5?$LL?h?A?$KG?G?O?$LN?C?$LA?Z?$LN?$MA?$LE?O?$LB?n?$DP@ ; `string'
PUBLIC	??_C@_01GBGANLPD@0@				; `string'
PUBLIC	??_C@_01HIHLOKLC@1@				; `string'
PUBLIC	??_C@_01FDFGLJHB@2@				; `string'
PUBLIC	??_C@_01KJLJFBPL@8@				; `string'
PUBLIC	??_C@_01LAKCGALK@9@				; `string'
PUBLIC	??_C@_02PKFBJPLJ@10@				; `string'
PUBLIC	??_C@_02ODEKKOPI@11@				; `string'
PUBLIC	??_C@_02MIGHPNDL@12@				; `string'
PUBLIC	??_C@_02NBHMMMHK@13@				; `string'
PUBLIC	??_C@_02JODNFKLN@14@				; `string'
PUBLIC	??_C@_02IHCGGLPM@15@				; `string'
PUBLIC	??_C@_02KMALDIDP@16@				; `string'
PUBLIC	??_C@_02LFBAAJHO@17@				; `string'
PUBLIC	??_C@_02DCIIBFLB@18@				; `string'
PUBLIC	??_C@_02CLJDCEPA@19@				; `string'
PUBLIC	??_C@_02PIBHCBOA@20@				; `string'
PUBLIC	??_C@_02OBAMBAKB@21@				; `string'
PUBLIC	??_C@_02MKCBEDGC@22@				; `string'
PUBLIC	??_C@_02NDDKHCCD@23@				; `string'
PUBLIC	??_C@_02JMHLOEOE@24@				; `string'
PUBLIC	??_C@_06BGMJNGKF@?A?$LO?$LI?q?$LI?m@		; `string'
PUBLIC	??_C@_04IMDNCEFG@?D?Z?$LF?e@			; `string'
PUBLIC	??_C@_0L@HJJAEEML@?$LF?n?$LG?t?$LH?$PM?B?w?F?$KO@ ; `string'
PUBLIC	??_C@_04HBCHAADI@4602@				; `string'
PUBLIC	??_C@_0L@DIKICJIA@SCREENCODE@			; `string'
PUBLIC	??_C@_03JMDFPPIA@CFG@				; `string'
PUBLIC	??_C@_0BE@GEHHHPPG@?$LM?$LB?E?C?$LF?H?5?$LB?W?$LH?l?$MA?L?5?$LO?x?$MA?$LN?4@ ; `string'
PUBLIC	??_C@_0BF@GGAGLMPO@?$LB?W?$LH?l?$MA?L?5?$LM?$LB?E?C?$LF?G?A?v?5?$LO?J?$MA?$LN@ ; `string'
PUBLIC	??_C@_0BP@NJDMJDP@?$MA?L?$LJ?L?5?C?$NP?$LA?$KB?$LF?G?$LO?n?5?$MA?V?$LE?B?5?A?$LO?$LI?q?$MA?T?$LE?O?$LE?Y?4@ ; `string'
PUBLIC	??_C@_0BP@BKPHIEFF@?C?V?$LE?k?5?$CFd?$LA?$LD?5?A?$LO?$LI?q?$LB?n?A?v?5?$LA?$KB?$LE?I?G?U?$LE?O?$LE?Y?4@ ; `string'
PUBLIC	??_C@_0CB@GHOJNJLD@?G?v?$MA?g?5?$LO?F?$MA?L?E?$NL?5?C?$LD?$LI?$KO?$LA?$KB?5?$LF?G?$LO?n?$MA?V?A?v?5?$LO?J?$MA@ ; `string'
PUBLIC	??_C@_08NHOKBKDK@?$LB?b?$LK?$LL?$LB?W?$LH?l@	; `string'
PUBLIC	??_R0PAVCMemoryException@@@8			; CMemoryException * `RTTI Type Descriptor'
PUBLIC	??_C@_07OLCDEDDD@PMASTER@			; `string'
PUBLIC	??_C@_08CDLEABGN@JPMASTER@			; `string'
PUBLIC	??_C@_06CDJAKJDK@?G?$OA?$LL?g?$LA?$KB@		; `string'
PUBLIC	??_C@_02KCIOKDCD@?D?$NN@			; `string'
PUBLIC	??_C@_02ECKNGKBC@?G?$LC@			; `string'
PUBLIC	??_C@_0P@JIBKHGJJ@master?2atm?4dat@		; `string'
PUBLIC	??_C@_03KBDGFMG@mst@				; `string'
PUBLIC	??_C@_08EFGGCJLD@?$CFs?2?$CFs?2?$CFs@		; `string'
PUBLIC	??_C@_05BJKOFFGO@PRICE@				; `string'
PUBLIC	??_C@_03NDHBKIJP@ATM@				; `string'
PUBLIC	??_C@_05DNIIFBMG@?$CFs?5?$CFs@			; `string'
PUBLIC	??_C@_01MJMHLOMK@O@				; `string'
PUBLIC	??_C@_01MMEEDKFM@X@				; `string'
PUBLIC	??_C@_0BJ@DHFDPMIM@invalid?5vector?5subscript@	; `string'
PUBLIC	??_C@_0BA@FOIKENOD@vector?5too?5long@		; `string'
PUBLIC	??_R4?$CList@PAVCDlgCompSubItem@@PAV1@@@6B@	; CList<CDlgCompSubItem *,CDlgCompSubItem *>::`RTTI Complete Object Locator'
PUBLIC	??_R0?AV?$CList@PAVCDlgCompSubItem@@PAV1@@@@8	; CList<CDlgCompSubItem *,CDlgCompSubItem *> `RTTI Type Descriptor'
PUBLIC	??_R3?$CList@PAVCDlgCompSubItem@@PAV1@@@8	; CList<CDlgCompSubItem *,CDlgCompSubItem *>::`RTTI Class Hierarchy Descriptor'
PUBLIC	??_R2?$CList@PAVCDlgCompSubItem@@PAV1@@@8	; CList<CDlgCompSubItem *,CDlgCompSubItem *>::`RTTI Base Class Array'
PUBLIC	??_R1A@?0A@EA@?$CList@PAVCDlgCompSubItem@@PAV1@@@8 ; CList<CDlgCompSubItem *,CDlgCompSubItem *>::`RTTI Base Class Descriptor at (0,-1,0,64)'
PUBLIC	??_R4?$CList@PAVCDlgCompGroupData@@PAV1@@@6B@	; CList<CDlgCompGroupData *,CDlgCompGroupData *>::`RTTI Complete Object Locator'
PUBLIC	??_R0?AV?$CList@PAVCDlgCompGroupData@@PAV1@@@@8	; CList<CDlgCompGroupData *,CDlgCompGroupData *> `RTTI Type Descriptor'
PUBLIC	??_R3?$CList@PAVCDlgCompGroupData@@PAV1@@@8	; CList<CDlgCompGroupData *,CDlgCompGroupData *>::`RTTI Class Hierarchy Descriptor'
PUBLIC	??_R2?$CList@PAVCDlgCompGroupData@@PAV1@@@8	; CList<CDlgCompGroupData *,CDlgCompGroupData *>::`RTTI Base Class Array'
PUBLIC	??_R1A@?0A@EA@?$CList@PAVCDlgCompGroupData@@PAV1@@@8 ; CList<CDlgCompGroupData *,CDlgCompGroupData *>::`RTTI Base Class Descriptor at (0,-1,0,64)'
PUBLIC	??_R0?AUITLMCallback@@@8			; ITLMCallback `RTTI Type Descriptor'
PUBLIC	??_R3ITLMCallback@@8				; ITLMCallback::`RTTI Class Hierarchy Descriptor'
PUBLIC	??_R2ITLMCallback@@8				; ITLMCallback::`RTTI Base Class Array'
PUBLIC	??_R1A@?0A@EA@ITLMCallback@@8			; ITLMCallback::`RTTI Base Class Descriptor at (0,-1,0,64)'
PUBLIC	??_R4CCodeTypeBase@@6B@				; CCodeTypeBase::`RTTI Complete Object Locator'
PUBLIC	??_R0?AVCCodeTypeBase@@@8			; CCodeTypeBase `RTTI Type Descriptor'
PUBLIC	??_R3CCodeTypeBase@@8				; CCodeTypeBase::`RTTI Class Hierarchy Descriptor'
PUBLIC	??_R2CCodeTypeBase@@8				; CCodeTypeBase::`RTTI Base Class Array'
PUBLIC	??_R1A@?0A@EA@CCodeTypeBase@@8			; CCodeTypeBase::`RTTI Base Class Descriptor at (0,-1,0,64)'
PUBLIC	??_R4CCodeTypeA@@6B@				; CCodeTypeA::`RTTI Complete Object Locator'
PUBLIC	??_R0?AVCCodeTypeA@@@8				; CCodeTypeA `RTTI Type Descriptor'
PUBLIC	??_R3CCodeTypeA@@8				; CCodeTypeA::`RTTI Class Hierarchy Descriptor'
PUBLIC	??_R2CCodeTypeA@@8				; CCodeTypeA::`RTTI Base Class Array'
PUBLIC	??_R1A@?0A@EA@CCodeTypeA@@8			; CCodeTypeA::`RTTI Base Class Descriptor at (0,-1,0,64)'
PUBLIC	??_R4?$CList@PAVCCallPutItemData@@PAV1@@@6B@	; CList<CCallPutItemData *,CCallPutItemData *>::`RTTI Complete Object Locator'
PUBLIC	??_R0?AV?$CList@PAVCCallPutItemData@@PAV1@@@@8	; CList<CCallPutItemData *,CCallPutItemData *> `RTTI Type Descriptor'
PUBLIC	??_R3?$CList@PAVCCallPutItemData@@PAV1@@@8	; CList<CCallPutItemData *,CCallPutItemData *>::`RTTI Class Hierarchy Descriptor'
PUBLIC	??_R2?$CList@PAVCCallPutItemData@@PAV1@@@8	; CList<CCallPutItemData *,CCallPutItemData *>::`RTTI Base Class Array'
PUBLIC	??_R1A@?0A@EA@?$CList@PAVCCallPutItemData@@PAV1@@@8 ; CList<CCallPutItemData *,CCallPutItemData *>::`RTTI Base Class Descriptor at (0,-1,0,64)'
PUBLIC	??_R4?$CList@PAVCCallPutIMonthData@@PAV1@@@6B@	; CList<CCallPutIMonthData *,CCallPutIMonthData *>::`RTTI Complete Object Locator'
PUBLIC	??_R0?AV?$CList@PAVCCallPutIMonthData@@PAV1@@@@8 ; CList<CCallPutIMonthData *,CCallPutIMonthData *> `RTTI Type Descriptor'
PUBLIC	??_R3?$CList@PAVCCallPutIMonthData@@PAV1@@@8	; CList<CCallPutIMonthData *,CCallPutIMonthData *>::`RTTI Class Hierarchy Descriptor'
PUBLIC	??_R2?$CList@PAVCCallPutIMonthData@@PAV1@@@8	; CList<CCallPutIMonthData *,CCallPutIMonthData *>::`RTTI Base Class Array'
PUBLIC	??_R1A@?0A@EA@?$CList@PAVCCallPutIMonthData@@PAV1@@@8 ; CList<CCallPutIMonthData *,CCallPutIMonthData *>::`RTTI Base Class Descriptor at (0,-1,0,64)'
PUBLIC	??_R4CDlgCompSetup@@6B@				; CDlgCompSetup::`RTTI Complete Object Locator'
PUBLIC	??_R0?AVCDlgCompSetup@@@8			; CDlgCompSetup `RTTI Type Descriptor'
PUBLIC	??_R3CDlgCompSetup@@8				; CDlgCompSetup::`RTTI Class Hierarchy Descriptor'
PUBLIC	??_R2CDlgCompSetup@@8				; CDlgCompSetup::`RTTI Base Class Array'
PUBLIC	??_R1A@?0A@EA@CDlgCompSetup@@8			; CDlgCompSetup::`RTTI Base Class Descriptor at (0,-1,0,64)'
PUBLIC	??_R4CTLMCallback@CDlgCompSetup@@6B@		; CDlgCompSetup::CTLMCallback::`RTTI Complete Object Locator'
PUBLIC	??_R0?AVCTLMCallback@CDlgCompSetup@@@8		; CDlgCompSetup::CTLMCallback `RTTI Type Descriptor'
PUBLIC	??_R3CTLMCallback@CDlgCompSetup@@8		; CDlgCompSetup::CTLMCallback::`RTTI Class Hierarchy Descriptor'
PUBLIC	??_R2CTLMCallback@CDlgCompSetup@@8		; CDlgCompSetup::CTLMCallback::`RTTI Base Class Array'
PUBLIC	??_R1A@?0A@EA@CTLMCallback@CDlgCompSetup@@8	; CDlgCompSetup::CTLMCallback::`RTTI Base Class Descriptor at (0,-1,0,64)'
PUBLIC	??_R4exception@std@@6B@				; std::exception::`RTTI Complete Object Locator'
PUBLIC	??_R3exception@std@@8				; std::exception::`RTTI Class Hierarchy Descriptor'
PUBLIC	??_R2exception@std@@8				; std::exception::`RTTI Base Class Array'
PUBLIC	??_R1A@?0A@EA@exception@std@@8			; std::exception::`RTTI Base Class Descriptor at (0,-1,0,64)'
PUBLIC	??_R4bad_alloc@std@@6B@				; std::bad_alloc::`RTTI Complete Object Locator'
PUBLIC	??_R3bad_alloc@std@@8				; std::bad_alloc::`RTTI Class Hierarchy Descriptor'
PUBLIC	??_R2bad_alloc@std@@8				; std::bad_alloc::`RTTI Base Class Array'
PUBLIC	??_R1A@?0A@EA@bad_alloc@std@@8			; std::bad_alloc::`RTTI Base Class Descriptor at (0,-1,0,64)'
PUBLIC	??_R4bad_array_new_length@std@@6B@		; std::bad_array_new_length::`RTTI Complete Object Locator'
PUBLIC	??_R3bad_array_new_length@std@@8		; std::bad_array_new_length::`RTTI Class Hierarchy Descriptor'
PUBLIC	??_R2bad_array_new_length@std@@8		; std::bad_array_new_length::`RTTI Base Class Array'
PUBLIC	??_R1A@?0A@EA@bad_array_new_length@std@@8	; std::bad_array_new_length::`RTTI Base Class Descriptor at (0,-1,0,64)'
EXTRN	??2@YAPAXI@Z:PROC				; operator new
EXTRN	??3@YAXPAX@Z:PROC				; operator delete
EXTRN	??3@YAXPAXI@Z:PROC				; operator delete
EXTRN	?__global_delete@@YAXPAXI@Z:PROC		; __global_delete
EXTRN	??_U@YAPAXI@Z:PROC				; operator new[]
EXTRN	??_V@YAXPAX@Z:PROC				; operator delete[]
EXTRN	___std_terminate:PROC
EXTRN	__imp___invalid_parameter_noinfo:PROC
EXTRN	__imp___invalid_parameter_noinfo_noreturn:PROC
EXTRN	__imp___errno:PROC
EXTRN	__imp__GetEnvironmentVariableA@12:PROC
EXTRN	__imp__GetModuleHandleA@4:PROC
EXTRN	__imp__GetPrivateProfileStringA@24:PROC
EXTRN	__imp__RegisterWindowMessageA@4:PROC
EXTRN	__imp__SendMessageA@16:PROC
EXTRN	__imp__IsWindow@4:PROC
EXTRN	__imp__EnableWindow@8:PROC
EXTRN	__imp__GetWindowRect@8:PROC
EXTRN	__imp__GetSysColor@4:PROC
EXTRN	__imp__LoadBitmapW@8:PROC
EXTRN	__imp____stdio_common_vsscanf:PROC
EXTRN	?AfxThrowMemoryException@@YGXXZ:PROC		; AfxThrowMemoryException
EXTRN	?AfxThrowInvalidArgException@@YGXXZ:PROC	; AfxThrowInvalidArgException
EXTRN	?AfxThrowArchiveException@@YGXHPBD@Z:PROC	; AfxThrowArchiveException
EXTRN	?GetRuntimeClass@CObject@@UBEPAUCRuntimeClass@@XZ:PROC ; CObject::GetRuntimeClass
EXTRN	?Delete@CException@@QAEXXZ:PROC			; CException::Delete
EXTRN	__imp_??0?$CStringT@DV?$StrTraitMFC_DLL@DV?$ChTraitsCRT@D@ATL@@@@@ATL@@QAE@XZ:PROC
EXTRN	__imp_??0?$CStringT@DV?$StrTraitMFC_DLL@DV?$ChTraitsCRT@D@ATL@@@@@ATL@@QAE@ABV01@@Z:PROC
EXTRN	__imp_??0?$CStringT@DV?$StrTraitMFC_DLL@DV?$ChTraitsCRT@D@ATL@@@@@ATL@@QAE@PBD@Z:PROC
EXTRN	__imp_??1?$CStringT@DV?$StrTraitMFC_DLL@DV?$ChTraitsCRT@D@ATL@@@@@ATL@@QAE@XZ:PROC
EXTRN	__imp_??4?$CStringT@DV?$StrTraitMFC_DLL@DV?$ChTraitsCRT@D@ATL@@@@@ATL@@QAEAAV01@ABV01@@Z:PROC
EXTRN	__imp_??4?$CStringT@DV?$StrTraitMFC_DLL@DV?$ChTraitsCRT@D@ATL@@@@@ATL@@QAEAAV01@PBD@Z:PROC
EXTRN	__imp_?Compare@?$CStringT@DV?$StrTraitMFC_DLL@DV?$ChTraitsCRT@D@ATL@@@@@ATL@@QBEHPBD@Z:PROC
EXTRN	__imp_?CompareNoCase@?$CStringT@DV?$StrTraitMFC_DLL@DV?$ChTraitsCRT@D@ATL@@@@@ATL@@QBEHPBD@Z:PROC
EXTRN	__imp_?Remove@?$CStringT@DV?$StrTraitMFC_DLL@DV?$ChTraitsCRT@D@ATL@@@@@ATL@@QAEHD@Z:PROC
EXTRN	__imp_?Find@?$CStringT@DV?$StrTraitMFC_DLL@DV?$ChTraitsCRT@D@ATL@@@@@ATL@@QBEHPBDH@Z:PROC
EXTRN	__imp_?MakeUpper@?$CStringT@DV?$StrTraitMFC_DLL@DV?$ChTraitsCRT@D@ATL@@@@@ATL@@QAEAAV12@XZ:PROC
EXTRN	__imp_?TrimRight@?$CStringT@DV?$StrTraitMFC_DLL@DV?$ChTraitsCRT@D@ATL@@@@@ATL@@QAEAAV12@XZ:PROC
EXTRN	__imp_?TrimLeft@?$CStringT@DV?$StrTraitMFC_DLL@DV?$ChTraitsCRT@D@ATL@@@@@ATL@@QAEAAV12@XZ:PROC
EXTRN	__imp_?Mid@?$CStringT@DV?$StrTraitMFC_DLL@DV?$ChTraitsCRT@D@ATL@@@@@ATL@@QBE?AV12@HH@Z:PROC
EXTRN	__imp_?Format@?$CStringT@DV?$StrTraitMFC_DLL@DV?$ChTraitsCRT@D@ATL@@@@@ATL@@QAAXPBDZZ:PROC
EXTRN	?Read@CArchive@@QAEIPAXI@Z:PROC			; CArchive::Read
EXTRN	?Write@CArchive@@QAEXPBXI@Z:PROC		; CArchive::Write
EXTRN	?ReadCount@CArchive@@QAEKXZ:PROC		; CArchive::ReadCount
EXTRN	?WriteCount@CArchive@@QAEXK@Z:PROC		; CArchive::WriteCount
EXTRN	?AfxGetStaticModuleState@@YGPAVAFX_MODULE_STATE@@XZ:PROC ; AfxGetStaticModuleState
EXTRN	??0AFX_MAINTAIN_STATE2@@QAE@PAVAFX_MODULE_STATE@@@Z:PROC ; AFX_MAINTAIN_STATE2::AFX_MAINTAIN_STATE2
EXTRN	??1AFX_MAINTAIN_STATE2@@QAE@XZ:PROC		; AFX_MAINTAIN_STATE2::~AFX_MAINTAIN_STATE2
EXTRN	?Create@CPlex@@SGPAU1@AAPAU1@II@Z:PROC		; CPlex::Create
EXTRN	?FreeDataChain@CPlex@@QAEXXZ:PROC		; CPlex::FreeDataChain
EXTRN	?Attach@CGdiObject@@QAEHPAX@Z:PROC		; CGdiObject::Attach
EXTRN	?DeleteObject@CGdiObject@@QAEHXZ:PROC		; CGdiObject::DeleteObject
EXTRN	?DDX_Text@@YGXPAVCDataExchange@@HAAH@Z:PROC	; DDX_Text
EXTRN	?DDX_Check@@YGXPAVCDataExchange@@HAAH@Z:PROC	; DDX_Check
EXTRN	?DDX_Radio@@YGXPAVCDataExchange@@HAAH@Z:PROC	; DDX_Radio
EXTRN	?DDX_Control@@YGXPAVCDataExchange@@HAAVCWnd@@@Z:PROC ; DDX_Control
EXTRN	?DDV_MinMaxInt@@YGXPAVCDataExchange@@HHH@Z:PROC	; DDV_MinMaxInt
EXTRN	?OnCmdMsg@CCmdTarget@@UAEHIHPAXPAUAFX_CMDHANDLERINFO@@@Z:PROC ; CCmdTarget::OnCmdMsg
EXTRN	?IsInvokeAllowed@CCmdTarget@@UAEHJ@Z:PROC	; CCmdTarget::IsInvokeAllowed
EXTRN	?GetDispatchIID@CCmdTarget@@UAEHPAU_GUID@@@Z:PROC ; CCmdTarget::GetDispatchIID
EXTRN	?GetTypeInfoCount@CCmdTarget@@UAEIXZ:PROC	; CCmdTarget::GetTypeInfoCount
EXTRN	?GetTypeLibCache@CCmdTarget@@UAEPAVCTypeLibCache@@XZ:PROC ; CCmdTarget::GetTypeLibCache
EXTRN	?GetTypeLib@CCmdTarget@@UAEJKPAPAUITypeLib@@@Z:PROC ; CCmdTarget::GetTypeLib
EXTRN	?GetCommandMap@CCmdTarget@@MBEPBUAFX_OLECMDMAP@@XZ:PROC ; CCmdTarget::GetCommandMap
EXTRN	?GetDispatchMap@CCmdTarget@@MBEPBUAFX_DISPMAP@@XZ:PROC ; CCmdTarget::GetDispatchMap
EXTRN	?GetConnectionMap@CCmdTarget@@MBEPBUAFX_CONNECTIONMAP@@XZ:PROC ; CCmdTarget::GetConnectionMap
EXTRN	?GetEventSinkMap@CCmdTarget@@MBEPBUAFX_EVENTSINKMAP@@XZ:PROC ; CCmdTarget::GetEventSinkMap
EXTRN	?OnCreateAggregates@CCmdTarget@@UAEHXZ:PROC	; CCmdTarget::OnCreateAggregates
EXTRN	?GetInterfaceHook@CCmdTarget@@UAEPAUIUnknown@@PBX@Z:PROC ; CCmdTarget::GetInterfaceHook
EXTRN	?GetExtraConnectionPoints@CCmdTarget@@MAEHPAVCPtrArray@@@Z:PROC ; CCmdTarget::GetExtraConnectionPoints
EXTRN	?GetConnectionHook@CCmdTarget@@MAEPAUIConnectionPoint@@ABU_GUID@@@Z:PROC ; CCmdTarget::GetConnectionHook
EXTRN	??0CWnd@@QAE@XZ:PROC				; CWnd::CWnd
EXTRN	?FromHandle@CWnd@@SGPAV1@PAUHWND__@@@Z:PROC	; CWnd::FromHandle
EXTRN	?PreSubclassWindow@CWnd@@UAEXXZ:PROC		; CWnd::PreSubclassWindow
EXTRN	?Create@CWnd@@UAEHPBD0KABUtagRECT@@PAV1@IPAUCCreateContext@@@Z:PROC ; CWnd::Create
EXTRN	?CreateEx@CWnd@@UAEHKPBD0KHHHHPAUHWND__@@PAUHMENU__@@PAX@Z:PROC ; CWnd::CreateEx
EXTRN	?CreateEx@CWnd@@UAEHKPBD0KABUtagRECT@@PAV1@IPAX@Z:PROC ; CWnd::CreateEx
EXTRN	?DestroyWindow@CWnd@@UAEHXZ:PROC		; CWnd::DestroyWindow
EXTRN	?PreCreateWindow@CWnd@@UAEHAAUtagCREATESTRUCTA@@@Z:PROC ; CWnd::PreCreateWindow
EXTRN	?CalcWindowRect@CWnd@@UAEXPAUtagRECT@@I@Z:PROC	; CWnd::CalcWindowRect
EXTRN	?GetMenu@CWnd@@UBEPAVCMenu@@XZ:PROC		; CWnd::GetMenu
EXTRN	?SetMenu@CWnd@@UAEHPAVCMenu@@@Z:PROC		; CWnd::SetMenu
EXTRN	?MoveWindow@CWnd@@QAEXHHHHH@Z:PROC		; CWnd::MoveWindow
EXTRN	?ScreenToClient@CWnd@@QBEXPAUtagRECT@@@Z:PROC	; CWnd::ScreenToClient
EXTRN	?ShowWindow@CWnd@@QAEHH@Z:PROC			; CWnd::ShowWindow
EXTRN	?OnToolHitTest@CWnd@@UBEHVCPoint@@PAUtagTOOLINFOA@@@Z:PROC ; CWnd::OnToolHitTest
EXTRN	?SetDlgItemTextA@CWnd@@QAEXHPBD@Z:PROC		; CWnd::SetDlgItemTextA
EXTRN	?GetScrollBarCtrl@CWnd@@UBEPAVCScrollBar@@H@Z:PROC ; CWnd::GetScrollBarCtrl
EXTRN	?UpdateData@CWnd@@QAEHH@Z:PROC			; CWnd::UpdateData
EXTRN	?WinHelpA@CWnd@@UAEXKI@Z:PROC			; CWnd::WinHelpA
EXTRN	?HtmlHelpA@CWnd@@UAEXKI@Z:PROC			; CWnd::HtmlHelpA
EXTRN	?WinHelpInternal@CWnd@@UAEXKI@Z:PROC		; CWnd::WinHelpInternal
EXTRN	?ContinueModal@CWnd@@UAEHXZ:PROC		; CWnd::ContinueModal
EXTRN	?EndModalLoop@CWnd@@UAEXH@Z:PROC		; CWnd::EndModalLoop
EXTRN	?OnDrawIconicThumbnailOrLivePreview@CWnd@@UAEXAAVCDC@@VCRect@@VCSize@@HAAH@Z:PROC ; CWnd::OnDrawIconicThumbnailOrLivePreview
EXTRN	?GetInterfaceMap@CWnd@@MBEPBUAFX_INTERFACEMAP@@XZ:PROC ; CWnd::GetInterfaceMap
EXTRN	?EnsureStdObj@CWnd@@UAEJXZ:PROC			; CWnd::EnsureStdObj
EXTRN	?get_accParent@CWnd@@UAEJPAPAUIDispatch@@@Z:PROC ; CWnd::get_accParent
EXTRN	?get_accChildCount@CWnd@@UAEJPAJ@Z:PROC		; CWnd::get_accChildCount
EXTRN	?get_accChild@CWnd@@UAEJUtagVARIANT@@PAPAUIDispatch@@@Z:PROC ; CWnd::get_accChild
EXTRN	?get_accName@CWnd@@UAEJUtagVARIANT@@PAPA_W@Z:PROC ; CWnd::get_accName
EXTRN	?get_accValue@CWnd@@UAEJUtagVARIANT@@PAPA_W@Z:PROC ; CWnd::get_accValue
EXTRN	?get_accDescription@CWnd@@UAEJUtagVARIANT@@PAPA_W@Z:PROC ; CWnd::get_accDescription
EXTRN	?get_accRole@CWnd@@UAEJUtagVARIANT@@PAU2@@Z:PROC ; CWnd::get_accRole
EXTRN	?get_accState@CWnd@@UAEJUtagVARIANT@@PAU2@@Z:PROC ; CWnd::get_accState
EXTRN	?get_accHelp@CWnd@@UAEJUtagVARIANT@@PAPA_W@Z:PROC ; CWnd::get_accHelp
EXTRN	?get_accHelpTopic@CWnd@@UAEJPAPA_WUtagVARIANT@@PAJ@Z:PROC ; CWnd::get_accHelpTopic
EXTRN	?get_accKeyboardShortcut@CWnd@@UAEJUtagVARIANT@@PAPA_W@Z:PROC ; CWnd::get_accKeyboardShortcut
EXTRN	?get_accFocus@CWnd@@UAEJPAUtagVARIANT@@@Z:PROC	; CWnd::get_accFocus
EXTRN	?get_accSelection@CWnd@@UAEJPAUtagVARIANT@@@Z:PROC ; CWnd::get_accSelection
EXTRN	?get_accDefaultAction@CWnd@@UAEJUtagVARIANT@@PAPA_W@Z:PROC ; CWnd::get_accDefaultAction
EXTRN	?accSelect@CWnd@@UAEJJUtagVARIANT@@@Z:PROC	; CWnd::accSelect
EXTRN	?accLocation@CWnd@@UAEJPAJ000UtagVARIANT@@@Z:PROC ; CWnd::accLocation
EXTRN	?accNavigate@CWnd@@UAEJJUtagVARIANT@@PAU2@@Z:PROC ; CWnd::accNavigate
EXTRN	?accHitTest@CWnd@@UAEJJJPAUtagVARIANT@@@Z:PROC	; CWnd::accHitTest
EXTRN	?accDoDefaultAction@CWnd@@UAEJUtagVARIANT@@@Z:PROC ; CWnd::accDoDefaultAction
EXTRN	?put_accName@CWnd@@UAEJUtagVARIANT@@PA_W@Z:PROC	; CWnd::put_accName
EXTRN	?put_accValue@CWnd@@UAEJUtagVARIANT@@PA_W@Z:PROC ; CWnd::put_accValue
EXTRN	?SetProxy@CWnd@@UAEJPAUIAccessibleProxy@@@Z:PROC ; CWnd::SetProxy
EXTRN	?CreateAccessibleProxy@CWnd@@UAEJIJPAJ@Z:PROC	; CWnd::CreateAccessibleProxy
EXTRN	?OnCommand@CWnd@@MAEHIJ@Z:PROC			; CWnd::OnCommand
EXTRN	?OnNotify@CWnd@@MAEHIJPAJ@Z:PROC		; CWnd::OnNotify
EXTRN	?OnDestroy@CWnd@@IAEXXZ:PROC			; CWnd::OnDestroy
EXTRN	?GetSuperWndProcAddr@CWnd@@MAEPAP6GJPAUHWND__@@IIJ@ZXZ:PROC ; CWnd::GetSuperWndProcAddr
EXTRN	?PreTranslateMessage@CWnd@@UAEHPAUtagMSG@@@Z:PROC ; CWnd::PreTranslateMessage
EXTRN	?OnAmbientProperty@CWnd@@UAEHPAVCOleControlSite@@JPAUtagVARIANT@@@Z:PROC ; CWnd::OnAmbientProperty
EXTRN	?WindowProc@CWnd@@MAEJIIJ@Z:PROC		; CWnd::WindowProc
EXTRN	?OnWndMsg@CWnd@@MAEHIIJPAJ@Z:PROC		; CWnd::OnWndMsg
EXTRN	?DefWindowProcA@CWnd@@MAEJIIJ@Z:PROC		; CWnd::DefWindowProcA
EXTRN	?PostNcDestroy@CWnd@@MAEXXZ:PROC		; CWnd::PostNcDestroy
EXTRN	?OnChildNotify@CWnd@@MAEHIIJPAJ@Z:PROC		; CWnd::OnChildNotify
EXTRN	?OnTouchInputs@CWnd@@MAEHIPAUtagTOUCHINPUT@@@Z:PROC ; CWnd::OnTouchInputs
EXTRN	?OnTouchInput@CWnd@@MAEHVCPoint@@HHPAUtagTOUCHINPUT@@@Z:PROC ; CWnd::OnTouchInput
EXTRN	?GetGestureStatus@CWnd@@MAEKVCPoint@@@Z:PROC	; CWnd::GetGestureStatus
EXTRN	?OnGestureZoom@CWnd@@MAEHVCPoint@@J@Z:PROC	; CWnd::OnGestureZoom
EXTRN	?OnGesturePan@CWnd@@MAEHVCPoint@@0@Z:PROC	; CWnd::OnGesturePan
EXTRN	?OnGestureRotate@CWnd@@MAEHVCPoint@@N@Z:PROC	; CWnd::OnGestureRotate
EXTRN	?OnGestureTwoFingerTap@CWnd@@MAEHVCPoint@@@Z:PROC ; CWnd::OnGestureTwoFingerTap
EXTRN	?OnGesturePressAndTap@CWnd@@MAEHVCPoint@@J@Z:PROC ; CWnd::OnGesturePressAndTap
EXTRN	?ResizeDynamicLayout@CWnd@@MAEXXZ:PROC		; CWnd::ResizeDynamicLayout
EXTRN	?CheckAutoCenter@CWnd@@UAEHXZ:PROC		; CWnd::CheckAutoCenter
EXTRN	?IsFrameWnd@CWnd@@UBEHXZ:PROC			; CWnd::IsFrameWnd
EXTRN	?OnFinalRelease@CWnd@@UAEXXZ:PROC		; CWnd::OnFinalRelease
EXTRN	?CreateControlContainer@CWnd@@MAEHPAPAVCOleControlContainer@@@Z:PROC ; CWnd::CreateControlContainer
EXTRN	?CreateControlSite@CWnd@@MAEHPAVCOleControlContainer@@PAPAVCOleControlSite@@IABU_GUID@@@Z:PROC ; CWnd::CreateControlSite
EXTRN	?SetOccDialogInfo@CWnd@@MAEHPAU_AFX_OCC_DIALOG_INFO@@@Z:PROC ; CWnd::SetOccDialogInfo
EXTRN	?GetOccDialogInfo@CWnd@@MAEPAU_AFX_OCC_DIALOG_INFO@@XZ:PROC ; CWnd::GetOccDialogInfo
EXTRN	?GetMessageMap@CWnd@@MBEPBUAFX_MSGMAP@@XZ:PROC	; CWnd::GetMessageMap
EXTRN	?GetRuntimeClass@CDialog@@UBEPAUCRuntimeClass@@XZ:PROC ; CDialog::GetRuntimeClass
EXTRN	?Create@CDialog@@UAEHPBDPAVCWnd@@@Z:PROC	; CDialog::Create
EXTRN	?CreateIndirect@CDialog@@UAEHPBUDLGTEMPLATE@@PAVCWnd@@PAX@Z:PROC ; CDialog::CreateIndirect
EXTRN	?CreateIndirect@CDialog@@UAEHPAXPAVCWnd@@@Z:PROC ; CDialog::CreateIndirect
EXTRN	??0CDialog@@QAE@IPAVCWnd@@@Z:PROC		; CDialog::CDialog
EXTRN	?DoModal@CDialog@@UAEHXZ:PROC			; CDialog::DoModal
EXTRN	?OnInitDialog@CDialog@@UAEHXZ:PROC		; CDialog::OnInitDialog
EXTRN	?OnSetFont@CDialog@@UAEXPAVCFont@@@Z:PROC	; CDialog::OnSetFont
EXTRN	?OnOK@CDialog@@MAEXXZ:PROC			; CDialog::OnOK
EXTRN	?OnCancel@CDialog@@MAEXXZ:PROC			; CDialog::OnCancel
EXTRN	??1CDialog@@UAE@XZ:PROC				; CDialog::~CDialog
EXTRN	?PreTranslateMessage@CDialog@@UAEHPAUtagMSG@@@Z:PROC ; CDialog::PreTranslateMessage
EXTRN	?OnCmdMsg@CDialog@@UAEHIHPAXPAUAFX_CMDHANDLERINFO@@@Z:PROC ; CDialog::OnCmdMsg
EXTRN	?CheckAutoCenter@CDialog@@UAEHXZ:PROC		; CDialog::CheckAutoCenter
EXTRN	?SetOccDialogInfo@CDialog@@MAEHPAU_AFX_OCC_DIALOG_INFO@@@Z:PROC ; CDialog::SetOccDialogInfo
EXTRN	?GetOccDialogInfo@CDialog@@MAEPAU_AFX_OCC_DIALOG_INFO@@XZ:PROC ; CDialog::GetOccDialogInfo
EXTRN	?PreInitDialog@CDialog@@MAEXXZ:PROC		; CDialog::PreInitDialog
EXTRN	?GetThisMessageMap@CDialog@@KGPBUAFX_MSGMAP@@XZ:PROC ; CDialog::GetThisMessageMap
EXTRN	?GetRuntimeClass@CListBox@@UBEPAUCRuntimeClass@@XZ:PROC ; CListBox::GetRuntimeClass
EXTRN	?Create@CListBox@@UAEHKABUtagRECT@@PAVCWnd@@I@Z:PROC ; CListBox::Create
EXTRN	?GetText@CListBox@@QBEXHAAV?$CStringT@DV?$StrTraitMFC_DLL@DV?$ChTraitsCRT@D@ATL@@@@@ATL@@@Z:PROC ; CListBox::GetText
EXTRN	?DrawItem@CListBox@@UAEXPAUtagDRAWITEMSTRUCT@@@Z:PROC ; CListBox::DrawItem
EXTRN	?MeasureItem@CListBox@@UAEXPAUtagMEASUREITEMSTRUCT@@@Z:PROC ; CListBox::MeasureItem
EXTRN	?CompareItem@CListBox@@UAEHPAUtagCOMPAREITEMSTRUCT@@@Z:PROC ; CListBox::CompareItem
EXTRN	?DeleteItem@CListBox@@UAEXPAUtagDELETEITEMSTRUCT@@@Z:PROC ; CListBox::DeleteItem
EXTRN	?VKeyToItem@CListBox@@UAEHII@Z:PROC		; CListBox::VKeyToItem
EXTRN	?CharToItem@CListBox@@UAEHII@Z:PROC		; CListBox::CharToItem
EXTRN	??1CListBox@@UAE@XZ:PROC			; CListBox::~CListBox
EXTRN	?OnChildNotify@CListBox@@MAEHIIJPAJ@Z:PROC	; CListBox::OnChildNotify
EXTRN	??_ECListBox@@UAEPAXI@Z:PROC			; CListBox::`vector deleting destructor'
EXTRN	?GetRuntimeClass@CComboBox@@UBEPAUCRuntimeClass@@XZ:PROC ; CComboBox::GetRuntimeClass
EXTRN	?Create@CComboBox@@UAEHKABUtagRECT@@PAVCWnd@@I@Z:PROC ; CComboBox::Create
EXTRN	?GetLBText@CComboBox@@QBEXHAAV?$CStringT@DV?$StrTraitMFC_DLL@DV?$ChTraitsCRT@D@ATL@@@@@ATL@@@Z:PROC ; CComboBox::GetLBText
EXTRN	?DrawItem@CComboBox@@UAEXPAUtagDRAWITEMSTRUCT@@@Z:PROC ; CComboBox::DrawItem
EXTRN	?MeasureItem@CComboBox@@UAEXPAUtagMEASUREITEMSTRUCT@@@Z:PROC ; CComboBox::MeasureItem
EXTRN	?CompareItem@CComboBox@@UAEHPAUtagCOMPAREITEMSTRUCT@@@Z:PROC ; CComboBox::CompareItem
EXTRN	?DeleteItem@CComboBox@@UAEXPAUtagDELETEITEMSTRUCT@@@Z:PROC ; CComboBox::DeleteItem
EXTRN	??1CComboBox@@UAE@XZ:PROC			; CComboBox::~CComboBox
EXTRN	?OnChildNotify@CComboBox@@MAEHIIJPAJ@Z:PROC	; CComboBox::OnChildNotify
EXTRN	??_ECComboBox@@UAEPAXI@Z:PROC			; CComboBox::`vector deleting destructor'
EXTRN	?AfxFindResourceHandle@@YGPAUHINSTANCE__@@PBD0@Z:PROC ; AfxFindResourceHandle
EXTRN	?AfxMessageBox@@YGHPBDII@Z:PROC			; AfxMessageBox
EXTRN	?GetRuntimeClass@CListCtrl@@UBEPAUCRuntimeClass@@XZ:PROC ; CListCtrl::GetRuntimeClass
EXTRN	?SetItemState@CListCtrl@@QAEHHII@Z:PROC		; CListCtrl::SetItemState
EXTRN	?GetItemText@CListCtrl@@QBE?AV?$CStringT@DV?$StrTraitMFC_DLL@DV?$ChTraitsCRT@D@ATL@@@@@ATL@@HH@Z:PROC ; CListCtrl::GetItemText
EXTRN	?SetItemText@CListCtrl@@QAEHHHPBD@Z:PROC	; CListCtrl::SetItemText
EXTRN	?InsertColumn@CListCtrl@@QAEHHPBDHHH@Z:PROC	; CListCtrl::InsertColumn
EXTRN	?DrawItem@CListCtrl@@UAEXPAUtagDRAWITEMSTRUCT@@@Z:PROC ; CListCtrl::DrawItem
EXTRN	?InsertItem@CListCtrl@@QAEHIHPBDIIHJ@Z:PROC	; CListCtrl::InsertItem
EXTRN	??1CListCtrl@@UAE@XZ:PROC			; CListCtrl::~CListCtrl
EXTRN	?OnChildNotify@CListCtrl@@MAEHIIJPAJ@Z:PROC	; CListCtrl::OnChildNotify
EXTRN	?GetMessageMap@CListCtrl@@MBEPBUAFX_MSGMAP@@XZ:PROC ; CListCtrl::GetMessageMap
EXTRN	??_ECListCtrl@@UAEPAXI@Z:PROC			; CListCtrl::`vector deleting destructor'
EXTRN	?GetRuntimeClass@CTreeCtrl@@UBEPAUCRuntimeClass@@XZ:PROC ; CTreeCtrl::GetRuntimeClass
EXTRN	?GetItemData@CTreeCtrl@@QBEKPAU_TREEITEM@@@Z:PROC ; CTreeCtrl::GetItemData
EXTRN	??1CTreeCtrl@@UAE@XZ:PROC			; CTreeCtrl::~CTreeCtrl
EXTRN	?GetMessageMap@CTreeCtrl@@MBEPBUAFX_MSGMAP@@XZ:PROC ; CTreeCtrl::GetMessageMap
EXTRN	??_ECTreeCtrl@@UAEPAXI@Z:PROC			; CTreeCtrl::`vector deleting destructor'
EXTRN	?DDX_ColorPicker@@YGXPAVCDataExchange@@HAAK@Z:PROC ; DDX_ColorPicker
EXTRN	??0CXColourPicker@@QAE@XZ:PROC			; CXColourPicker::CXColourPicker
EXTRN	??1CXColourPicker@@UAE@XZ:PROC			; CXColourPicker::~CXColourPicker
EXTRN	?SetColor@CXColourPicker@@QAEXK@Z:PROC		; CXColourPicker::SetColor
EXTRN	?GetColor@CXColourPicker@@QAEKXZ:PROC		; CXColourPicker::GetColor
EXTRN	??0CXEditPrompt@@QAE@XZ:PROC			; CXEditPrompt::CXEditPrompt
EXTRN	??1CXEditPrompt@@UAE@XZ:PROC			; CXEditPrompt::~CXEditPrompt
EXTRN	?GetWindowTextA@CXEditPrompt@@QBEXAAV?$CStringT@DV?$StrTraitMFC_DLL@DV?$ChTraitsCRT@D@ATL@@@@@ATL@@@Z:PROC ; CXEditPrompt::GetWindowTextA
EXTRN	?SetPromptText@CXEditPrompt@@QAEXPBD@Z:PROC	; CXEditPrompt::SetPromptText
EXTRN	??0CBitmapItemComboBox@@QAE@XZ:PROC		; CBitmapItemComboBox::CBitmapItemComboBox
EXTRN	??1CBitmapItemComboBox@@UAE@XZ:PROC		; CBitmapItemComboBox::~CBitmapItemComboBox
EXTRN	??_E?$CList@PAVCDlgCompSubItem@@PAV1@@@UAEPAXI@Z:PROC ; CList<CDlgCompSubItem *,CDlgCompSubItem *>::`vector deleting destructor'
EXTRN	??_E?$CList@PAVCDlgCompGroupData@@PAV1@@@UAEPAXI@Z:PROC ; CList<CDlgCompGroupData *,CDlgCompGroupData *>::`vector deleting destructor'
EXTRN	??0CVirtualListCtrl@@QAE@XZ:PROC		; CVirtualListCtrl::CVirtualListCtrl
EXTRN	?fnUsingMemoryClear@CVirtualListCtrl@@QAEXXZ:PROC ; CVirtualListCtrl::fnUsingMemoryClear
EXTRN	??1CVirtualListCtrl@@UAE@XZ:PROC		; CVirtualListCtrl::~CVirtualListCtrl
EXTRN	?SetRowHeight@CVirtualListCtrl@@QAEXF@Z:PROC	; CVirtualListCtrl::SetRowHeight
EXTRN	??0CExGridCtrl@@QAE@HHHH@Z:PROC			; CExGridCtrl::CExGridCtrl
EXTRN	?Create@CExGridCtrl@@QAEHAAUtagRECT@@PAVCWnd@@IK@Z:PROC ; CExGridCtrl::Create
EXTRN	?GetRowCount@CExGridCtrl@@QAEHXZ:PROC		; CExGridCtrl::GetRowCount
EXTRN	?GetColumnCount@CExGridCtrl@@QAEHXZ:PROC	; CExGridCtrl::GetColumnCount
EXTRN	?SetRowCount@CExGridCtrl@@QAEHH@Z:PROC		; CExGridCtrl::SetRowCount
EXTRN	?SetColumnCount@CExGridCtrl@@QAEHH@Z:PROC	; CExGridCtrl::SetColumnCount
EXTRN	?SetFixedColumnCount@CExGridCtrl@@QAEHH@Z:PROC	; CExGridCtrl::SetFixedColumnCount
EXTRN	?SetRowHeight@CExGridCtrl@@QAEHHH@Z:PROC	; CExGridCtrl::SetRowHeight
EXTRN	?SetColumnWidth@CExGridCtrl@@QAEHHH@Z:PROC	; CExGridCtrl::SetColumnWidth
EXTRN	?SetGridLineColor@CExGridCtrl@@QAEXK@Z:PROC	; CExGridCtrl::SetGridLineColor
EXTRN	?SetHighlightColor@CExGridCtrl@@QAEXK@Z:PROC	; CExGridCtrl::SetHighlightColor
EXTRN	?SetGridColor@CExGridCtrl@@QAEXK@Z:PROC		; CExGridCtrl::SetGridColor
EXTRN	?SetBkColor@CExGridCtrl@@QAEXK@Z:PROC		; CExGridCtrl::SetBkColor
EXTRN	?SetEditable@CExGridCtrl@@QAEXH@Z:PROC		; CExGridCtrl::SetEditable
EXTRN	?EnableTitleTips@CExGridCtrl@@QAEXH@Z:PROC	; CExGridCtrl::EnableTitleTips
EXTRN	?EnableColumnHide@CExGridCtrl@@QAEXH@Z:PROC	; CExGridCtrl::EnableColumnHide
EXTRN	?EnableRowHide@CExGridCtrl@@QAEXH@Z:PROC	; CExGridCtrl::EnableRowHide
EXTRN	?SetItem@CExGridCtrl@@QAEHPAU_GV_ITEM@@@Z:PROC	; CExGridCtrl::SetItem
EXTRN	?SetItemText@CExGridCtrl@@QAEHHHPBD@Z:PROC	; CExGridCtrl::SetItemText
EXTRN	?GetItemText@CExGridCtrl@@QAE?AV?$CStringT@DV?$StrTraitMFC_DLL@DV?$ChTraitsCRT@D@ATL@@@@@ATL@@HH@Z:PROC ; CExGridCtrl::GetItemText
EXTRN	?SetItemData@CExGridCtrl@@QAEHHHJ@Z:PROC	; CExGridCtrl::SetItemData
EXTRN	?GetItemData@CExGridCtrl@@QAEJHH@Z:PROC		; CExGridCtrl::GetItemData
EXTRN	?SetItemFormat@CExGridCtrl@@QAEHHHI@Z:PROC	; CExGridCtrl::SetItemFormat
EXTRN	?SetItemBkColour@CExGridCtrl@@QAEHHHK@Z:PROC	; CExGridCtrl::SetItemBkColour
EXTRN	?SetItemFgColour@CExGridCtrl@@QAEHHHK@Z:PROC	; CExGridCtrl::SetItemFgColour
EXTRN	?Refresh@CExGridCtrl@@QAEXXZ:PROC		; CExGridCtrl::Refresh
EXTRN	??_E?$CList@PAVCCallPutItemData@@PAV1@@@UAEPAXI@Z:PROC ; CList<CCallPutItemData *,CCallPutItemData *>::`vector deleting destructor'
EXTRN	??_E?$CList@PAVCCallPutIMonthData@@PAV1@@@UAEPAXI@Z:PROC ; CList<CCallPutIMonthData *,CCallPutIMonthData *>::`vector deleting destructor'
EXTRN	??_ECDlgCompSetup@@UAEPAXI@Z:PROC		; CDlgCompSetup::`vector deleting destructor'
EXTRN	___std_exception_copy:PROC
EXTRN	___std_exception_destroy:PROC
EXTRN	??_Eexception@std@@UAEPAXI@Z:PROC		; std::exception::`vector deleting destructor'
EXTRN	??_Ebad_alloc@std@@UAEPAXI@Z:PROC		; std::bad_alloc::`vector deleting destructor'
EXTRN	??_Ebad_array_new_length@std@@UAEPAXI@Z:PROC	; std::bad_array_new_length::`vector deleting destructor'
EXTRN	?_Xlength_error@std@@YAXPBD@Z:PROC		; std::_Xlength_error
EXTRN	?_Xout_of_range@std@@YAXPBD@Z:PROC		; std::_Xout_of_range
EXTRN	??0CDlgGroupName@@QAE@PAVCWnd@@@Z:PROC		; CDlgGroupName::CDlgGroupName
EXTRN	@__security_check_cookie@4:PROC
EXTRN	__CxxThrowException@8:PROC
EXTRN	___CxxFrameHandler3:PROC
EXTRN	_memcpy:PROC
EXTRN	_memmove:PROC
EXTRN	_memset:PROC
EXTRN	??_7type_info@@6B@:QWORD			; type_info::`vftable'
EXTRN	___security_cookie:DWORD
EXTRN	__fltused:DWORD
;	COMDAT ?_OptionsStorage@?1??__local_stdio_scanf_options@@9@4_KA
_BSS	SEGMENT
?_OptionsStorage@?1??__local_stdio_scanf_options@@9@4_KA DQ 01H DUP (?) ; `__local_stdio_scanf_options'::`2'::_OptionsStorage
_BSS	ENDS
_BSS	SEGMENT
?RMSG_INTERFACE@@3IB DD 01H DUP (?)			; RMSG_INTERFACE
?RMSG_GETPCTRDATA@@3IB DD 01H DUP (?)			; RMSG_GETPCTRDATA
?RMSG_SETPCTRDATA@@3IB DD 01H DUP (?)			; RMSG_SETPCTRDATA
_BSS	ENDS
CRT$XCU	SEGMENT
?RMSG_INTERFACE$initializer$@@3P6AXXZA DD FLAT:??__ERMSG_INTERFACE@@YAXXZ ; RMSG_INTERFACE$initializer$
CRT$XCU	ENDS
;	COMDAT ??_R1A@?0A@EA@bad_array_new_length@std@@8
rdata$r	SEGMENT
??_R1A@?0A@EA@bad_array_new_length@std@@8 DD FLAT:??_R0?AVbad_array_new_length@std@@@8 ; std::bad_array_new_length::`RTTI Base Class Descriptor at (0,-1,0,64)'
	DD	02H
	DD	00H
	DD	0ffffffffH
	DD	00H
	DD	040H
	DD	FLAT:??_R3bad_array_new_length@std@@8
rdata$r	ENDS
;	COMDAT ??_R2bad_array_new_length@std@@8
rdata$r	SEGMENT
??_R2bad_array_new_length@std@@8 DD FLAT:??_R1A@?0A@EA@bad_array_new_length@std@@8 ; std::bad_array_new_length::`RTTI Base Class Array'
	DD	FLAT:??_R1A@?0A@EA@bad_alloc@std@@8
	DD	FLAT:??_R1A@?0A@EA@exception@std@@8
rdata$r	ENDS
;	COMDAT ??_R3bad_array_new_length@std@@8
rdata$r	SEGMENT
??_R3bad_array_new_length@std@@8 DD 00H			; std::bad_array_new_length::`RTTI Class Hierarchy Descriptor'
	DD	00H
	DD	03H
	DD	FLAT:??_R2bad_array_new_length@std@@8
rdata$r	ENDS
;	COMDAT ??_R4bad_array_new_length@std@@6B@
rdata$r	SEGMENT
??_R4bad_array_new_length@std@@6B@ DD 00H		; std::bad_array_new_length::`RTTI Complete Object Locator'
	DD	00H
	DD	00H
	DD	FLAT:??_R0?AVbad_array_new_length@std@@@8
	DD	FLAT:??_R3bad_array_new_length@std@@8
rdata$r	ENDS
;	COMDAT ??_R1A@?0A@EA@bad_alloc@std@@8
rdata$r	SEGMENT
??_R1A@?0A@EA@bad_alloc@std@@8 DD FLAT:??_R0?AVbad_alloc@std@@@8 ; std::bad_alloc::`RTTI Base Class Descriptor at (0,-1,0,64)'
	DD	01H
	DD	00H
	DD	0ffffffffH
	DD	00H
	DD	040H
	DD	FLAT:??_R3bad_alloc@std@@8
rdata$r	ENDS
;	COMDAT ??_R2bad_alloc@std@@8
rdata$r	SEGMENT
??_R2bad_alloc@std@@8 DD FLAT:??_R1A@?0A@EA@bad_alloc@std@@8 ; std::bad_alloc::`RTTI Base Class Array'
	DD	FLAT:??_R1A@?0A@EA@exception@std@@8
rdata$r	ENDS
;	COMDAT ??_R3bad_alloc@std@@8
rdata$r	SEGMENT
??_R3bad_alloc@std@@8 DD 00H				; std::bad_alloc::`RTTI Class Hierarchy Descriptor'
	DD	00H
	DD	02H
	DD	FLAT:??_R2bad_alloc@std@@8
rdata$r	ENDS
;	COMDAT ??_R4bad_alloc@std@@6B@
rdata$r	SEGMENT
??_R4bad_alloc@std@@6B@ DD 00H				; std::bad_alloc::`RTTI Complete Object Locator'
	DD	00H
	DD	00H
	DD	FLAT:??_R0?AVbad_alloc@std@@@8
	DD	FLAT:??_R3bad_alloc@std@@8
rdata$r	ENDS
;	COMDAT ??_R1A@?0A@EA@exception@std@@8
rdata$r	SEGMENT
??_R1A@?0A@EA@exception@std@@8 DD FLAT:??_R0?AVexception@std@@@8 ; std::exception::`RTTI Base Class Descriptor at (0,-1,0,64)'
	DD	00H
	DD	00H
	DD	0ffffffffH
	DD	00H
	DD	040H
	DD	FLAT:??_R3exception@std@@8
rdata$r	ENDS
;	COMDAT ??_R2exception@std@@8
rdata$r	SEGMENT
??_R2exception@std@@8 DD FLAT:??_R1A@?0A@EA@exception@std@@8 ; std::exception::`RTTI Base Class Array'
rdata$r	ENDS
;	COMDAT ??_R3exception@std@@8
rdata$r	SEGMENT
??_R3exception@std@@8 DD 00H				; std::exception::`RTTI Class Hierarchy Descriptor'
	DD	00H
	DD	01H
	DD	FLAT:??_R2exception@std@@8
rdata$r	ENDS
;	COMDAT ??_R4exception@std@@6B@
rdata$r	SEGMENT
??_R4exception@std@@6B@ DD 00H				; std::exception::`RTTI Complete Object Locator'
	DD	00H
	DD	00H
	DD	FLAT:??_R0?AVexception@std@@@8
	DD	FLAT:??_R3exception@std@@8
rdata$r	ENDS
;	COMDAT ??_R1A@?0A@EA@CTLMCallback@CDlgCompSetup@@8
rdata$r	SEGMENT
??_R1A@?0A@EA@CTLMCallback@CDlgCompSetup@@8 DD FLAT:??_R0?AVCTLMCallback@CDlgCompSetup@@@8 ; CDlgCompSetup::CTLMCallback::`RTTI Base Class Descriptor at (0,-1,0,64)'
	DD	01H
	DD	00H
	DD	0ffffffffH
	DD	00H
	DD	040H
	DD	FLAT:??_R3CTLMCallback@CDlgCompSetup@@8
rdata$r	ENDS
;	COMDAT ??_R2CTLMCallback@CDlgCompSetup@@8
rdata$r	SEGMENT
??_R2CTLMCallback@CDlgCompSetup@@8 DD FLAT:??_R1A@?0A@EA@CTLMCallback@CDlgCompSetup@@8 ; CDlgCompSetup::CTLMCallback::`RTTI Base Class Array'
	DD	FLAT:??_R1A@?0A@EA@ITLMCallback@@8
rdata$r	ENDS
;	COMDAT ??_R3CTLMCallback@CDlgCompSetup@@8
rdata$r	SEGMENT
??_R3CTLMCallback@CDlgCompSetup@@8 DD 00H		; CDlgCompSetup::CTLMCallback::`RTTI Class Hierarchy Descriptor'
	DD	00H
	DD	02H
	DD	FLAT:??_R2CTLMCallback@CDlgCompSetup@@8
rdata$r	ENDS
;	COMDAT ??_R0?AVCTLMCallback@CDlgCompSetup@@@8
data$rs	SEGMENT
??_R0?AVCTLMCallback@CDlgCompSetup@@@8 DD FLAT:??_7type_info@@6B@ ; CDlgCompSetup::CTLMCallback `RTTI Type Descriptor'
	DD	00H
	DB	'.?AVCTLMCallback@CDlgCompSetup@@', 00H
data$rs	ENDS
;	COMDAT ??_R4CTLMCallback@CDlgCompSetup@@6B@
rdata$r	SEGMENT
??_R4CTLMCallback@CDlgCompSetup@@6B@ DD 00H		; CDlgCompSetup::CTLMCallback::`RTTI Complete Object Locator'
	DD	00H
	DD	00H
	DD	FLAT:??_R0?AVCTLMCallback@CDlgCompSetup@@@8
	DD	FLAT:??_R3CTLMCallback@CDlgCompSetup@@8
rdata$r	ENDS
;	COMDAT ??_R1A@?0A@EA@CDlgCompSetup@@8
rdata$r	SEGMENT
??_R1A@?0A@EA@CDlgCompSetup@@8 DD FLAT:??_R0?AVCDlgCompSetup@@@8 ; CDlgCompSetup::`RTTI Base Class Descriptor at (0,-1,0,64)'
	DD	04H
	DD	00H
	DD	0ffffffffH
	DD	00H
	DD	040H
	DD	FLAT:??_R3CDlgCompSetup@@8
rdata$r	ENDS
;	COMDAT ??_R2CDlgCompSetup@@8
rdata$r	SEGMENT
??_R2CDlgCompSetup@@8 DD FLAT:??_R1A@?0A@EA@CDlgCompSetup@@8 ; CDlgCompSetup::`RTTI Base Class Array'
	DD	FLAT:??_R1A@?0A@EA@CDialog@@8
	DD	FLAT:??_R1A@?0A@EA@CWnd@@8
	DD	FLAT:??_R1A@?0A@EA@CCmdTarget@@8
	DD	FLAT:??_R1A@?0A@EA@CObject@@8
rdata$r	ENDS
;	COMDAT ??_R3CDlgCompSetup@@8
rdata$r	SEGMENT
??_R3CDlgCompSetup@@8 DD 00H				; CDlgCompSetup::`RTTI Class Hierarchy Descriptor'
	DD	00H
	DD	05H
	DD	FLAT:??_R2CDlgCompSetup@@8
rdata$r	ENDS
;	COMDAT ??_R0?AVCDlgCompSetup@@@8
data$rs	SEGMENT
??_R0?AVCDlgCompSetup@@@8 DD FLAT:??_7type_info@@6B@	; CDlgCompSetup `RTTI Type Descriptor'
	DD	00H
	DB	'.?AVCDlgCompSetup@@', 00H
data$rs	ENDS
;	COMDAT ??_R4CDlgCompSetup@@6B@
rdata$r	SEGMENT
??_R4CDlgCompSetup@@6B@ DD 00H				; CDlgCompSetup::`RTTI Complete Object Locator'
	DD	00H
	DD	00H
	DD	FLAT:??_R0?AVCDlgCompSetup@@@8
	DD	FLAT:??_R3CDlgCompSetup@@8
rdata$r	ENDS
;	COMDAT ??_R1A@?0A@EA@?$CList@PAVCCallPutIMonthData@@PAV1@@@8
rdata$r	SEGMENT
??_R1A@?0A@EA@?$CList@PAVCCallPutIMonthData@@PAV1@@@8 DD FLAT:??_R0?AV?$CList@PAVCCallPutIMonthData@@PAV1@@@@8 ; CList<CCallPutIMonthData *,CCallPutIMonthData *>::`RTTI Base Class Descriptor at (0,-1,0,64)'
	DD	01H
	DD	00H
	DD	0ffffffffH
	DD	00H
	DD	040H
	DD	FLAT:??_R3?$CList@PAVCCallPutIMonthData@@PAV1@@@8
rdata$r	ENDS
;	COMDAT ??_R2?$CList@PAVCCallPutIMonthData@@PAV1@@@8
rdata$r	SEGMENT
??_R2?$CList@PAVCCallPutIMonthData@@PAV1@@@8 DD FLAT:??_R1A@?0A@EA@?$CList@PAVCCallPutIMonthData@@PAV1@@@8 ; CList<CCallPutIMonthData *,CCallPutIMonthData *>::`RTTI Base Class Array'
	DD	FLAT:??_R1A@?0A@EA@CObject@@8
rdata$r	ENDS
;	COMDAT ??_R3?$CList@PAVCCallPutIMonthData@@PAV1@@@8
rdata$r	SEGMENT
??_R3?$CList@PAVCCallPutIMonthData@@PAV1@@@8 DD 00H	; CList<CCallPutIMonthData *,CCallPutIMonthData *>::`RTTI Class Hierarchy Descriptor'
	DD	00H
	DD	02H
	DD	FLAT:??_R2?$CList@PAVCCallPutIMonthData@@PAV1@@@8
rdata$r	ENDS
;	COMDAT ??_R0?AV?$CList@PAVCCallPutIMonthData@@PAV1@@@@8
data$rs	SEGMENT
??_R0?AV?$CList@PAVCCallPutIMonthData@@PAV1@@@@8 DD FLAT:??_7type_info@@6B@ ; CList<CCallPutIMonthData *,CCallPutIMonthData *> `RTTI Type Descriptor'
	DD	00H
	DB	'.?AV?$CList@PAVCCallPutIMonthData@@PAV1@@@', 00H
data$rs	ENDS
;	COMDAT ??_R4?$CList@PAVCCallPutIMonthData@@PAV1@@@6B@
rdata$r	SEGMENT
??_R4?$CList@PAVCCallPutIMonthData@@PAV1@@@6B@ DD 00H	; CList<CCallPutIMonthData *,CCallPutIMonthData *>::`RTTI Complete Object Locator'
	DD	00H
	DD	00H
	DD	FLAT:??_R0?AV?$CList@PAVCCallPutIMonthData@@PAV1@@@@8
	DD	FLAT:??_R3?$CList@PAVCCallPutIMonthData@@PAV1@@@8
rdata$r	ENDS
;	COMDAT ??_R1A@?0A@EA@?$CList@PAVCCallPutItemData@@PAV1@@@8
rdata$r	SEGMENT
??_R1A@?0A@EA@?$CList@PAVCCallPutItemData@@PAV1@@@8 DD FLAT:??_R0?AV?$CList@PAVCCallPutItemData@@PAV1@@@@8 ; CList<CCallPutItemData *,CCallPutItemData *>::`RTTI Base Class Descriptor at (0,-1,0,64)'
	DD	01H
	DD	00H
	DD	0ffffffffH
	DD	00H
	DD	040H
	DD	FLAT:??_R3?$CList@PAVCCallPutItemData@@PAV1@@@8
rdata$r	ENDS
;	COMDAT ??_R2?$CList@PAVCCallPutItemData@@PAV1@@@8
rdata$r	SEGMENT
??_R2?$CList@PAVCCallPutItemData@@PAV1@@@8 DD FLAT:??_R1A@?0A@EA@?$CList@PAVCCallPutItemData@@PAV1@@@8 ; CList<CCallPutItemData *,CCallPutItemData *>::`RTTI Base Class Array'
	DD	FLAT:??_R1A@?0A@EA@CObject@@8
rdata$r	ENDS
;	COMDAT ??_R3?$CList@PAVCCallPutItemData@@PAV1@@@8
rdata$r	SEGMENT
??_R3?$CList@PAVCCallPutItemData@@PAV1@@@8 DD 00H	; CList<CCallPutItemData *,CCallPutItemData *>::`RTTI Class Hierarchy Descriptor'
	DD	00H
	DD	02H
	DD	FLAT:??_R2?$CList@PAVCCallPutItemData@@PAV1@@@8
rdata$r	ENDS
;	COMDAT ??_R0?AV?$CList@PAVCCallPutItemData@@PAV1@@@@8
data$rs	SEGMENT
??_R0?AV?$CList@PAVCCallPutItemData@@PAV1@@@@8 DD FLAT:??_7type_info@@6B@ ; CList<CCallPutItemData *,CCallPutItemData *> `RTTI Type Descriptor'
	DD	00H
	DB	'.?AV?$CList@PAVCCallPutItemData@@PAV1@@@', 00H
data$rs	ENDS
;	COMDAT ??_R4?$CList@PAVCCallPutItemData@@PAV1@@@6B@
rdata$r	SEGMENT
??_R4?$CList@PAVCCallPutItemData@@PAV1@@@6B@ DD 00H	; CList<CCallPutItemData *,CCallPutItemData *>::`RTTI Complete Object Locator'
	DD	00H
	DD	00H
	DD	FLAT:??_R0?AV?$CList@PAVCCallPutItemData@@PAV1@@@@8
	DD	FLAT:??_R3?$CList@PAVCCallPutItemData@@PAV1@@@8
rdata$r	ENDS
;	COMDAT ??_R1A@?0A@EA@CCodeTypeA@@8
rdata$r	SEGMENT
??_R1A@?0A@EA@CCodeTypeA@@8 DD FLAT:??_R0?AVCCodeTypeA@@@8 ; CCodeTypeA::`RTTI Base Class Descriptor at (0,-1,0,64)'
	DD	01H
	DD	00H
	DD	0ffffffffH
	DD	00H
	DD	040H
	DD	FLAT:??_R3CCodeTypeA@@8
rdata$r	ENDS
;	COMDAT ??_R2CCodeTypeA@@8
rdata$r	SEGMENT
??_R2CCodeTypeA@@8 DD FLAT:??_R1A@?0A@EA@CCodeTypeA@@8	; CCodeTypeA::`RTTI Base Class Array'
	DD	FLAT:??_R1A@?0A@EA@CCodeTypeBase@@8
rdata$r	ENDS
;	COMDAT ??_R3CCodeTypeA@@8
rdata$r	SEGMENT
??_R3CCodeTypeA@@8 DD 00H				; CCodeTypeA::`RTTI Class Hierarchy Descriptor'
	DD	00H
	DD	02H
	DD	FLAT:??_R2CCodeTypeA@@8
rdata$r	ENDS
;	COMDAT ??_R0?AVCCodeTypeA@@@8
data$rs	SEGMENT
??_R0?AVCCodeTypeA@@@8 DD FLAT:??_7type_info@@6B@	; CCodeTypeA `RTTI Type Descriptor'
	DD	00H
	DB	'.?AVCCodeTypeA@@', 00H
data$rs	ENDS
;	COMDAT ??_R4CCodeTypeA@@6B@
rdata$r	SEGMENT
??_R4CCodeTypeA@@6B@ DD 00H				; CCodeTypeA::`RTTI Complete Object Locator'
	DD	00H
	DD	00H
	DD	FLAT:??_R0?AVCCodeTypeA@@@8
	DD	FLAT:??_R3CCodeTypeA@@8
rdata$r	ENDS
;	COMDAT ??_R1A@?0A@EA@CCodeTypeBase@@8
rdata$r	SEGMENT
??_R1A@?0A@EA@CCodeTypeBase@@8 DD FLAT:??_R0?AVCCodeTypeBase@@@8 ; CCodeTypeBase::`RTTI Base Class Descriptor at (0,-1,0,64)'
	DD	00H
	DD	00H
	DD	0ffffffffH
	DD	00H
	DD	040H
	DD	FLAT:??_R3CCodeTypeBase@@8
rdata$r	ENDS
;	COMDAT ??_R2CCodeTypeBase@@8
rdata$r	SEGMENT
??_R2CCodeTypeBase@@8 DD FLAT:??_R1A@?0A@EA@CCodeTypeBase@@8 ; CCodeTypeBase::`RTTI Base Class Array'
rdata$r	ENDS
;	COMDAT ??_R3CCodeTypeBase@@8
rdata$r	SEGMENT
??_R3CCodeTypeBase@@8 DD 00H				; CCodeTypeBase::`RTTI Class Hierarchy Descriptor'
	DD	00H
	DD	01H
	DD	FLAT:??_R2CCodeTypeBase@@8
rdata$r	ENDS
;	COMDAT ??_R0?AVCCodeTypeBase@@@8
data$rs	SEGMENT
??_R0?AVCCodeTypeBase@@@8 DD FLAT:??_7type_info@@6B@	; CCodeTypeBase `RTTI Type Descriptor'
	DD	00H
	DB	'.?AVCCodeTypeBase@@', 00H
data$rs	ENDS
;	COMDAT ??_R4CCodeTypeBase@@6B@
rdata$r	SEGMENT
??_R4CCodeTypeBase@@6B@ DD 00H				; CCodeTypeBase::`RTTI Complete Object Locator'
	DD	00H
	DD	00H
	DD	FLAT:??_R0?AVCCodeTypeBase@@@8
	DD	FLAT:??_R3CCodeTypeBase@@8
rdata$r	ENDS
;	COMDAT ??_R1A@?0A@EA@ITLMCallback@@8
rdata$r	SEGMENT
??_R1A@?0A@EA@ITLMCallback@@8 DD FLAT:??_R0?AUITLMCallback@@@8 ; ITLMCallback::`RTTI Base Class Descriptor at (0,-1,0,64)'
	DD	00H
	DD	00H
	DD	0ffffffffH
	DD	00H
	DD	040H
	DD	FLAT:??_R3ITLMCallback@@8
rdata$r	ENDS
;	COMDAT ??_R2ITLMCallback@@8
rdata$r	SEGMENT
??_R2ITLMCallback@@8 DD FLAT:??_R1A@?0A@EA@ITLMCallback@@8 ; ITLMCallback::`RTTI Base Class Array'
rdata$r	ENDS
;	COMDAT ??_R3ITLMCallback@@8
rdata$r	SEGMENT
??_R3ITLMCallback@@8 DD 00H				; ITLMCallback::`RTTI Class Hierarchy Descriptor'
	DD	00H
	DD	01H
	DD	FLAT:??_R2ITLMCallback@@8
rdata$r	ENDS
;	COMDAT ??_R0?AUITLMCallback@@@8
data$rs	SEGMENT
??_R0?AUITLMCallback@@@8 DD FLAT:??_7type_info@@6B@	; ITLMCallback `RTTI Type Descriptor'
	DD	00H
	DB	'.?AUITLMCallback@@', 00H
data$rs	ENDS
;	COMDAT ??_R1A@?0A@EA@?$CList@PAVCDlgCompGroupData@@PAV1@@@8
rdata$r	SEGMENT
??_R1A@?0A@EA@?$CList@PAVCDlgCompGroupData@@PAV1@@@8 DD FLAT:??_R0?AV?$CList@PAVCDlgCompGroupData@@PAV1@@@@8 ; CList<CDlgCompGroupData *,CDlgCompGroupData *>::`RTTI Base Class Descriptor at (0,-1,0,64)'
	DD	01H
	DD	00H
	DD	0ffffffffH
	DD	00H
	DD	040H
	DD	FLAT:??_R3?$CList@PAVCDlgCompGroupData@@PAV1@@@8
rdata$r	ENDS
;	COMDAT ??_R2?$CList@PAVCDlgCompGroupData@@PAV1@@@8
rdata$r	SEGMENT
??_R2?$CList@PAVCDlgCompGroupData@@PAV1@@@8 DD FLAT:??_R1A@?0A@EA@?$CList@PAVCDlgCompGroupData@@PAV1@@@8 ; CList<CDlgCompGroupData *,CDlgCompGroupData *>::`RTTI Base Class Array'
	DD	FLAT:??_R1A@?0A@EA@CObject@@8
rdata$r	ENDS
;	COMDAT ??_R3?$CList@PAVCDlgCompGroupData@@PAV1@@@8
rdata$r	SEGMENT
??_R3?$CList@PAVCDlgCompGroupData@@PAV1@@@8 DD 00H	; CList<CDlgCompGroupData *,CDlgCompGroupData *>::`RTTI Class Hierarchy Descriptor'
	DD	00H
	DD	02H
	DD	FLAT:??_R2?$CList@PAVCDlgCompGroupData@@PAV1@@@8
rdata$r	ENDS
;	COMDAT ??_R0?AV?$CList@PAVCDlgCompGroupData@@PAV1@@@@8
data$rs	SEGMENT
??_R0?AV?$CList@PAVCDlgCompGroupData@@PAV1@@@@8 DD FLAT:??_7type_info@@6B@ ; CList<CDlgCompGroupData *,CDlgCompGroupData *> `RTTI Type Descriptor'
	DD	00H
	DB	'.?AV?$CList@PAVCDlgCompGroupData@@PAV1@@@', 00H
data$rs	ENDS
;	COMDAT ??_R4?$CList@PAVCDlgCompGroupData@@PAV1@@@6B@
rdata$r	SEGMENT
??_R4?$CList@PAVCDlgCompGroupData@@PAV1@@@6B@ DD 00H	; CList<CDlgCompGroupData *,CDlgCompGroupData *>::`RTTI Complete Object Locator'
	DD	00H
	DD	00H
	DD	FLAT:??_R0?AV?$CList@PAVCDlgCompGroupData@@PAV1@@@@8
	DD	FLAT:??_R3?$CList@PAVCDlgCompGroupData@@PAV1@@@8
rdata$r	ENDS
;	COMDAT ??_R1A@?0A@EA@?$CList@PAVCDlgCompSubItem@@PAV1@@@8
rdata$r	SEGMENT
??_R1A@?0A@EA@?$CList@PAVCDlgCompSubItem@@PAV1@@@8 DD FLAT:??_R0?AV?$CList@PAVCDlgCompSubItem@@PAV1@@@@8 ; CList<CDlgCompSubItem *,CDlgCompSubItem *>::`RTTI Base Class Descriptor at (0,-1,0,64)'
	DD	01H
	DD	00H
	DD	0ffffffffH
	DD	00H
	DD	040H
	DD	FLAT:??_R3?$CList@PAVCDlgCompSubItem@@PAV1@@@8
rdata$r	ENDS
;	COMDAT ??_R2?$CList@PAVCDlgCompSubItem@@PAV1@@@8
rdata$r	SEGMENT
??_R2?$CList@PAVCDlgCompSubItem@@PAV1@@@8 DD FLAT:??_R1A@?0A@EA@?$CList@PAVCDlgCompSubItem@@PAV1@@@8 ; CList<CDlgCompSubItem *,CDlgCompSubItem *>::`RTTI Base Class Array'
	DD	FLAT:??_R1A@?0A@EA@CObject@@8
rdata$r	ENDS
;	COMDAT ??_R3?$CList@PAVCDlgCompSubItem@@PAV1@@@8
rdata$r	SEGMENT
??_R3?$CList@PAVCDlgCompSubItem@@PAV1@@@8 DD 00H	; CList<CDlgCompSubItem *,CDlgCompSubItem *>::`RTTI Class Hierarchy Descriptor'
	DD	00H
	DD	02H
	DD	FLAT:??_R2?$CList@PAVCDlgCompSubItem@@PAV1@@@8
rdata$r	ENDS
;	COMDAT ??_R0?AV?$CList@PAVCDlgCompSubItem@@PAV1@@@@8
data$rs	SEGMENT
??_R0?AV?$CList@PAVCDlgCompSubItem@@PAV1@@@@8 DD FLAT:??_7type_info@@6B@ ; CList<CDlgCompSubItem *,CDlgCompSubItem *> `RTTI Type Descriptor'
	DD	00H
	DB	'.?AV?$CList@PAVCDlgCompSubItem@@PAV1@@@', 00H
data$rs	ENDS
;	COMDAT ??_R4?$CList@PAVCDlgCompSubItem@@PAV1@@@6B@
rdata$r	SEGMENT
??_R4?$CList@PAVCDlgCompSubItem@@PAV1@@@6B@ DD 00H	; CList<CDlgCompSubItem *,CDlgCompSubItem *>::`RTTI Complete Object Locator'
	DD	00H
	DD	00H
	DD	FLAT:??_R0?AV?$CList@PAVCDlgCompSubItem@@PAV1@@@@8
	DD	FLAT:??_R3?$CList@PAVCDlgCompSubItem@@PAV1@@@8
rdata$r	ENDS
;	COMDAT ??_C@_0BA@FOIKENOD@vector?5too?5long@
CONST	SEGMENT
??_C@_0BA@FOIKENOD@vector?5too?5long@ DB 'vector too long', 00H ; `string'
CONST	ENDS
;	COMDAT ??_C@_0BJ@DHFDPMIM@invalid?5vector?5subscript@
CONST	SEGMENT
??_C@_0BJ@DHFDPMIM@invalid?5vector?5subscript@ DB 'invalid vector subscri'
	DB	'pt', 00H					; `string'
CONST	ENDS
;	COMDAT ??_C@_01MMEEDKFM@X@
CONST	SEGMENT
??_C@_01MMEEDKFM@X@ DB 'X', 00H				; `string'
CONST	ENDS
;	COMDAT ??_C@_01MJMHLOMK@O@
CONST	SEGMENT
??_C@_01MJMHLOMK@O@ DB 'O', 00H				; `string'
CONST	ENDS
;	COMDAT ??_C@_05DNIIFBMG@?$CFs?5?$CFs@
CONST	SEGMENT
??_C@_05DNIIFBMG@?$CFs?5?$CFs@ DB '%s %s', 00H		; `string'
CONST	ENDS
;	COMDAT ??_C@_03NDHBKIJP@ATM@
CONST	SEGMENT
??_C@_03NDHBKIJP@ATM@ DB 'ATM', 00H			; `string'
CONST	ENDS
;	COMDAT ??_C@_05BJKOFFGO@PRICE@
CONST	SEGMENT
??_C@_05BJKOFFGO@PRICE@ DB 'PRICE', 00H			; `string'
CONST	ENDS
;	COMDAT ??_C@_08EFGGCJLD@?$CFs?2?$CFs?2?$CFs@
CONST	SEGMENT
??_C@_08EFGGCJLD@?$CFs?2?$CFs?2?$CFs@ DB '%s\%s\%s', 00H ; `string'
CONST	ENDS
;	COMDAT ??_C@_03KBDGFMG@mst@
CONST	SEGMENT
??_C@_03KBDGFMG@mst@ DB 'mst', 00H			; `string'
CONST	ENDS
;	COMDAT ??_C@_0P@JIBKHGJJ@master?2atm?4dat@
CONST	SEGMENT
??_C@_0P@JIBKHGJJ@master?2atm?4dat@ DB 'master\atm.dat', 00H ; `string'
CONST	ENDS
;	COMDAT ??_C@_02ECKNGKBC@?G?$LC@
CONST	SEGMENT
??_C@_02ECKNGKBC@?G?$LC@ DB 0c7H, 0b2H, 00H		; `string'
CONST	ENDS
;	COMDAT ??_C@_02KCIOKDCD@?D?$NN@
CONST	SEGMENT
??_C@_02KCIOKDCD@?D?$NN@ DB 0c4H, 0ddH, 00H		; `string'
CONST	ENDS
;	COMDAT ??_C@_06CDJAKJDK@?G?$OA?$LL?g?$LA?$KB@
CONST	SEGMENT
??_C@_06CDJAKJDK@?G?$OA?$LL?g?$LA?$KB@ DB 0c7H, 0e0H, 0bbH, 0e7H, 0b0H, 0a1H
	DB	00H						; `string'
CONST	ENDS
;	COMDAT ??_C@_08CDLEABGN@JPMASTER@
CONST	SEGMENT
??_C@_08CDLEABGN@JPMASTER@ DB 'JPMASTER', 00H		; `string'
CONST	ENDS
;	COMDAT ??_C@_07OLCDEDDD@PMASTER@
CONST	SEGMENT
??_C@_07OLCDEDDD@PMASTER@ DB 'PMASTER', 00H		; `string'
CONST	ENDS
;	COMDAT ??_R0PAVCMemoryException@@@8
data$r	SEGMENT
??_R0PAVCMemoryException@@@8 DD FLAT:??_7type_info@@6B@	; CMemoryException * `RTTI Type Descriptor'
	DD	00H
	DB	'.PAVCMemoryException@@', 00H
data$r	ENDS
;	COMDAT ??_C@_08NHOKBKDK@?$LB?b?$LK?$LL?$LB?W?$LH?l@
CONST	SEGMENT
??_C@_08NHOKBKDK@?$LB?b?$LK?$LL?$LB?W?$LH?l@ DB 0b1H, 0e2H, 0baH, 0bbH, 0b1H
	DB	0d7H, 0b7H, 0ecH, 00H			; `string'
CONST	ENDS
;	COMDAT ??_C@_0CB@GHOJNJLD@?G?v?$MA?g?5?$LO?F?$MA?L?E?$NL?5?C?$LD?$LI?$KO?$LA?$KB?5?$LF?G?$LO?n?$MA?V?A?v?5?$LO?J?$MA@
CONST	SEGMENT
??_C@_0CB@GHOJNJLD@?G?v?$MA?g?5?$LO?F?$MA?L?E?$NL?5?C?$LD?$LI?$KO?$LA?$KB?5?$LF?G?$LO?n?$MA?V?A?v?5?$LO?J?$MA@ DB 0c7H
	DB	0f6H, 0c0H, 0e7H, ' ', 0beH, 0c6H, 0c0H, 0ccH, 0c5H, 0dbH, ' ', 0c3H
	DB	0b3H, 0b8H, 0aeH, 0b0H, 0a1H, ' ', 0b5H, 0c7H, 0beH, 0eeH, 0c0H
	DB	0d6H, 0c1H, 0f6H, ' ', 0beH, 0caH, 0c0H, 0bdH, 00H ; `string'
CONST	ENDS
;	COMDAT ??_C@_0BP@BKPHIEFF@?C?V?$LE?k?5?$CFd?$LA?$LD?5?A?$LO?$LI?q?$LB?n?A?v?5?$LA?$KB?$LE?I?G?U?$LE?O?$LE?Y?4@
CONST	SEGMENT
??_C@_0BP@BKPHIEFF@?C?V?$LE?k?5?$CFd?$LA?$LD?5?A?$LO?$LI?q?$LB?n?A?v?5?$LA?$KB?$LE?I?G?U?$LE?O?$LE?Y?4@ DB 0c3H
	DB	0d6H, 0b4H, 0ebH, ' %d', 0b0H, 0b3H, ' ', 0c1H, 0beH, 0b8H, 0f1H
	DB	0b1H, 0eeH, 0c1H, 0f6H, ' ', 0b0H, 0a1H, 0b4H, 0c9H, 0c7H, 0d5H
	DB	0b4H, 0cfH, 0b4H, 0d9H, '.', 00H		; `string'
CONST	ENDS
;	COMDAT ??_C@_0BP@NJDMJDP@?$MA?L?$LJ?L?5?C?$NP?$LA?$KB?$LF?G?$LO?n?5?$MA?V?$LE?B?5?A?$LO?$LI?q?$MA?T?$LE?O?$LE?Y?4@
CONST	SEGMENT
??_C@_0BP@NJDMJDP@?$MA?L?$LJ?L?5?C?$NP?$LA?$KB?$LF?G?$LO?n?5?$MA?V?$LE?B?5?A?$LO?$LI?q?$MA?T?$LE?O?$LE?Y?4@ DB 0c0H
	DB	0ccH, 0b9H, 0ccH, ' ', 0c3H, 0dfH, 0b0H, 0a1H, 0b5H, 0c7H, 0beH
	DB	0eeH, ' ', 0c0H, 0d6H, 0b4H, 0c2H, ' ', 0c1H, 0beH, 0b8H, 0f1H
	DB	0c0H, 0d4H, 0b4H, 0cfH, 0b4H, 0d9H, '.', 00H	; `string'
CONST	ENDS
;	COMDAT ??_C@_0BF@GGAGLMPO@?$LB?W?$LH?l?$MA?L?5?$LM?$LB?E?C?$LF?G?A?v?5?$LO?J?$MA?$LN@
CONST	SEGMENT
??_C@_0BF@GGAGLMPO@?$LB?W?$LH?l?$MA?L?5?$LM?$LB?E?C?$LF?G?A?v?5?$LO?J?$MA?$LN@ DB 0b1H
	DB	0d7H, 0b7H, 0ecH, 0c0H, 0ccH, ' ', 0bcH, 0b1H, 0c5H, 0c3H, 0b5H
	DB	0c7H, 0c1H, 0f6H, ' ', 0beH, 0caH, 0c0H, 0bdH, 00H ; `string'
CONST	ENDS
;	COMDAT ??_C@_0BE@GEHHHPPG@?$LM?$LB?E?C?$LF?H?5?$LB?W?$LH?l?$MA?L?5?$LO?x?$MA?$LN?4@
CONST	SEGMENT
??_C@_0BE@GEHHHPPG@?$LM?$LB?E?C?$LF?H?5?$LB?W?$LH?l?$MA?L?5?$LO?x?$MA?$LN?4@ DB 0bcH
	DB	0b1H, 0c5H, 0c3H, 0b5H, 0c8H, ' ', 0b1H, 0d7H, 0b7H, 0ecH, 0c0H
	DB	0ccH, ' ', 0beH, 0f8H, 0c0H, 0bdH, '.', 00H	; `string'
CONST	ENDS
;	COMDAT ??_C@_03JMDFPPIA@CFG@
CONST	SEGMENT
??_C@_03JMDFPPIA@CFG@ DB 'CFG', 00H			; `string'
CONST	ENDS
;	COMDAT ??_C@_0L@DIKICJIA@SCREENCODE@
CONST	SEGMENT
??_C@_0L@DIKICJIA@SCREENCODE@ DB 'SCREENCODE', 00H	; `string'
CONST	ENDS
;	COMDAT ??_C@_04HBCHAADI@4602@
CONST	SEGMENT
??_C@_04HBCHAADI@4602@ DB '4602', 00H			; `string'
CONST	ENDS
;	COMDAT ??_C@_0L@HJJAEEML@?$LF?n?$LG?t?$LH?$PM?B?w?F?$KO@
CONST	SEGMENT
??_C@_0L@HJJAEEML@?$LF?n?$LG?t?$LH?$PM?B?w?F?$KO@ DB 0b5H, 0eeH, 0b6H, 0f4H
	DB	0b7H, 0fcH, 0c2H, 0f7H, 0c6H, 0aeH, 00H	; `string'
CONST	ENDS
;	COMDAT ??_C@_04IMDNCEFG@?D?Z?$LF?e@
CONST	SEGMENT
??_C@_04IMDNCEFG@?D?Z?$LF?e@ DB 0c4H, 0daH, 0b5H, 0e5H, 00H ; `string'
CONST	ENDS
;	COMDAT ??_C@_06BGMJNGKF@?A?$LO?$LI?q?$LI?m@
CONST	SEGMENT
??_C@_06BGMJNGKF@?A?$LO?$LI?q?$LI?m@ DB 0c1H, 0beH, 0b8H, 0f1H, 0b8H, 0edH
	DB	00H						; `string'
CONST	ENDS
;	COMDAT ??_C@_02JMHLOEOE@24@
CONST	SEGMENT
??_C@_02JMHLOEOE@24@ DB '24', 00H			; `string'
CONST	ENDS
;	COMDAT ??_C@_02NDDKHCCD@23@
CONST	SEGMENT
??_C@_02NDDKHCCD@23@ DB '23', 00H			; `string'
CONST	ENDS
;	COMDAT ??_C@_02MKCBEDGC@22@
CONST	SEGMENT
??_C@_02MKCBEDGC@22@ DB '22', 00H			; `string'
CONST	ENDS
;	COMDAT ??_C@_02OBAMBAKB@21@
CONST	SEGMENT
??_C@_02OBAMBAKB@21@ DB '21', 00H			; `string'
CONST	ENDS
;	COMDAT ??_C@_02PIBHCBOA@20@
CONST	SEGMENT
??_C@_02PIBHCBOA@20@ DB '20', 00H			; `string'
CONST	ENDS
;	COMDAT ??_C@_02CLJDCEPA@19@
CONST	SEGMENT
??_C@_02CLJDCEPA@19@ DB '19', 00H			; `string'
CONST	ENDS
;	COMDAT ??_C@_02DCIIBFLB@18@
CONST	SEGMENT
??_C@_02DCIIBFLB@18@ DB '18', 00H			; `string'
CONST	ENDS
;	COMDAT ??_C@_02LFBAAJHO@17@
CONST	SEGMENT
??_C@_02LFBAAJHO@17@ DB '17', 00H			; `string'
CONST	ENDS
;	COMDAT ??_C@_02KMALDIDP@16@
CONST	SEGMENT
??_C@_02KMALDIDP@16@ DB '16', 00H			; `string'
CONST	ENDS
;	COMDAT ??_C@_02IHCGGLPM@15@
CONST	SEGMENT
??_C@_02IHCGGLPM@15@ DB '15', 00H			; `string'
CONST	ENDS
;	COMDAT ??_C@_02JODNFKLN@14@
CONST	SEGMENT
??_C@_02JODNFKLN@14@ DB '14', 00H			; `string'
CONST	ENDS
;	COMDAT ??_C@_02NBHMMMHK@13@
CONST	SEGMENT
??_C@_02NBHMMMHK@13@ DB '13', 00H			; `string'
CONST	ENDS
;	COMDAT ??_C@_02MIGHPNDL@12@
CONST	SEGMENT
??_C@_02MIGHPNDL@12@ DB '12', 00H			; `string'
CONST	ENDS
;	COMDAT ??_C@_02ODEKKOPI@11@
CONST	SEGMENT
??_C@_02ODEKKOPI@11@ DB '11', 00H			; `string'
CONST	ENDS
;	COMDAT ??_C@_02PKFBJPLJ@10@
CONST	SEGMENT
??_C@_02PKFBJPLJ@10@ DB '10', 00H			; `string'
CONST	ENDS
;	COMDAT ??_C@_01LAKCGALK@9@
CONST	SEGMENT
??_C@_01LAKCGALK@9@ DB '9', 00H				; `string'
CONST	ENDS
;	COMDAT ??_C@_01KJLJFBPL@8@
CONST	SEGMENT
??_C@_01KJLJFBPL@8@ DB '8', 00H				; `string'
CONST	ENDS
;	COMDAT ??_C@_01FDFGLJHB@2@
CONST	SEGMENT
??_C@_01FDFGLJHB@2@ DB '2', 00H				; `string'
CONST	ENDS
;	COMDAT ??_C@_01HIHLOKLC@1@
CONST	SEGMENT
??_C@_01HIHLOKLC@1@ DB '1', 00H				; `string'
CONST	ENDS
;	COMDAT ??_C@_01GBGANLPD@0@
CONST	SEGMENT
??_C@_01GBGANLPD@0@ DB '0', 00H				; `string'
CONST	ENDS
;	COMDAT ??_C@_0CA@KGDMODEH@?$CFs?5?$LB?W?$LH?l?$MA?$LL?$CI?$LI?$KG?$CJ?5?$LL?h?A?$KG?G?O?$LN?C?$LA?Z?$LN?$MA?$LE?O?$LB?n?$DP@
CONST	SEGMENT
??_C@_0CA@KGDMODEH@?$CFs?5?$LB?W?$LH?l?$MA?$LL?$CI?$LI?$KG?$CJ?5?$LL?h?A?$KG?G?O?$LN?C?$LA?Z?$LN?$MA?$LE?O?$LB?n?$DP@ DB '%'
	DB	's ', 0b1H, 0d7H, 0b7H, 0ecH, 0c0H, 0bbH, '(', 0b8H, 0a6H, ') '
	DB	0bbH, 0e8H, 0c1H, 0a6H, 0c7H, 0cfH, 0bdH, 0c3H, 0b0H, 0daH, 0bdH
	DB	0c0H, 0b4H, 0cfH, 0b1H, 0eeH, '?', 00H	; `string'
CONST	ENDS
;	COMDAT ??_C@_0BP@BLNMJNIH@?$MA?L?$LJ?L?5?$LA?$LA?$MA?$LK?5?$LB?W?$LH?l?$LI?m?$MA?L?5?A?$LI?$MA?g?G?U?$LE?O?$LE?Y?4@
CONST	SEGMENT
??_C@_0BP@BLNMJNIH@?$MA?L?$LJ?L?5?$LA?$LA?$MA?$LK?5?$LB?W?$LH?l?$LI?m?$MA?L?5?A?$LI?$MA?g?G?U?$LE?O?$LE?Y?4@ DB 0c0H
	DB	0ccH, 0b9H, 0ccH, ' ', 0b0H, 0b0H, 0c0H, 0baH, ' ', 0b1H, 0d7H
	DB	0b7H, 0ecH, 0b8H, 0edH, 0c0H, 0ccH, ' ', 0c1H, 0b8H, 0c0H, 0e7H
	DB	0c7H, 0d5H, 0b4H, 0cfH, 0b4H, 0d9H, '.', 00H	; `string'
CONST	ENDS
;	COMDAT ??_C@_0L@OLLFJJOD@?$DM?A?$LO?$LI?q?D?Z?$LF?e?$DO@
CONST	SEGMENT
??_C@_0L@OLLFJJOD@?$DM?A?$LO?$LI?q?D?Z?$LF?e?$DO@ DB '<', 0c1H, 0beH, 0b8H
	DB	0f1H, 0c4H, 0daH, 0b5H, 0e5H, '>', 00H	; `string'
CONST	ENDS
;	COMDAT ??_C@_08KMEBHNMN@?$DM?A?$LO?$LI?q?$LI?m?$DO@
CONST	SEGMENT
??_C@_08KMEBHNMN@?$DM?A?$LO?$LI?q?$LI?m?$DO@ DB '<', 0c1H, 0beH, 0b8H, 0f1H
	DB	0b8H, 0edH, '>', 00H				; `string'
CONST	ENDS
;	COMDAT ?messageMap@?1??GetThisMessageMap@CDlgCompSetup@@KGPBUAFX_MSGMAP@@XZ@4U3@B
CONST	SEGMENT
?messageMap@?1??GetThisMessageMap@CDlgCompSetup@@KGPBUAFX_MSGMAP@@XZ@4U3@B DD FLAT:?GetThisMessageMap@CDialog@@KGPBUAFX_MSGMAP@@XZ ; `CDlgCompSetup::GetThisMessageMap'::`2'::messageMap
	DD	FLAT:?_messageEntries@?1??GetThisMessageMap@CDlgCompSetup@@KGPBUAFX_MSGMAP@@XZ@4QBUAFX_MSGMAP_ENTRY@@B
CONST	ENDS
;	COMDAT ?_messageEntries@?1??GetThisMessageMap@CDlgCompSetup@@KGPBUAFX_MSGMAP@@XZ@4QBUAFX_MSGMAP_ENTRY@@B
CONST	SEGMENT
?_messageEntries@?1??GetThisMessageMap@CDlgCompSetup@@KGPBUAFX_MSGMAP@@XZ@4QBUAFX_MSGMAP_ENTRY@@B DD 0111H ; `CDlgCompSetup::GetThisMessageMap'::`2'::_messageEntries
	DD	00H
	DD	01771H
	DD	01771H
	DD	03aH
	DD	FLAT:?OnBtngrpnew@CDlgCompSetup@@IAEXXZ
	DD	0111H
	DD	00H
	DD	01772H
	DD	01772H
	DD	03aH
	DD	FLAT:?OnBtngrpdel@CDlgCompSetup@@IAEXXZ
	DD	0111H
	DD	00H
	DD	01773H
	DD	01773H
	DD	03aH
	DD	FLAT:?OnBtngrpchange@CDlgCompSetup@@IAEXXZ
	DD	0111H
	DD	00H
	DD	01775H
	DD	01775H
	DD	03aH
	DD	FLAT:?OnArrow1@CDlgCompSetup@@IAEXXZ
	DD	0111H
	DD	00H
	DD	01776H
	DD	01776H
	DD	03aH
	DD	FLAT:?OnArrow2@CDlgCompSetup@@IAEXXZ
	DD	0111H
	DD	00H
	DD	01777H
	DD	01777H
	DD	03aH
	DD	FLAT:?OnArrow3@CDlgCompSetup@@IAEXXZ
	DD	0111H
	DD	00H
	DD	01778H
	DD	01778H
	DD	03aH
	DD	FLAT:?OnArrow4@CDlgCompSetup@@IAEXXZ
	DD	0111H
	DD	00H
	DD	01783H
	DD	01783H
	DD	03aH
	DD	FLAT:?OnBtnleft@CDlgCompSetup@@IAEXXZ
	DD	0111H
	DD	00H
	DD	01784H
	DD	01784H
	DD	03aH
	DD	FLAT:?OnBtnright@CDlgCompSetup@@IAEXXZ
	DD	0111H
	DD	00H
	DD	01785H
	DD	01785H
	DD	03aH
	DD	FLAT:?OnBtnleft3@CDlgCompSetup@@IAEXXZ
	DD	0111H
	DD	00H
	DD	01H
	DD	01H
	DD	03aH
	DD	FLAT:?OnOk@CDlgCompSetup@@IAEXXZ
	DD	02H
	DD	00H
	DD	00H
	DD	00H
	DD	013H
	DD	FLAT:?OnDestroy@CDlgCompSetup@@IAEXXZ
	DD	0111H
	DD	01H
	DD	01770H
	DD	01770H
	DD	03aH
	DD	FLAT:?OnSelchangeListgrp@CDlgCompSetup@@IAEXXZ
	DD	04eH
	DD	0fed3H
	DD	01774H
	DD	01774H
	DD	03eH
	DD	FLAT:?OnItemchangedListitem@CDlgCompSetup@@IAEXPAUtagNMHDR@@PAJ@Z
	DD	04eH
	DD	0fe6eH
	DD	01786H
	DD	01786H
	DD	03eH
	DD	FLAT:?OnSelchangedTreesearch@CDlgCompSetup@@IAEXPAUtagNMHDR@@PAJ@Z
	DD	04eH
	DD	0fffeH
	DD	01774H
	DD	01774H
	DD	03eH
	DD	FLAT:?OnClkListItem@CDlgCompSetup@@IAEXPAUtagNMHDR@@PAJ@Z
	DD	04eH
	DD	0fffdH
	DD	01774H
	DD	01774H
	DD	03eH
	DD	FLAT:?OnDblclkListItem@CDlgCompSetup@@IAEXPAUtagNMHDR@@PAJ@Z
	DD	04eH
	DD	0fffeH
	DD	0178aH
	DD	0178aH
	DD	03eH
	DD	FLAT:?OnClkListcodes@CDlgCompSetup@@IAEXPAUtagNMHDR@@PAJ@Z
	DD	04eH
	DD	0fffdH
	DD	0178aH
	DD	0178aH
	DD	03eH
	DD	FLAT:?OnDblclkListcodes@CDlgCompSetup@@IAEXPAUtagNMHDR@@PAJ@Z
	DD	0111H
	DD	01H
	DD	0177bH
	DD	0177bH
	DD	03aH
	DD	FLAT:?OnSelchangeDrawstyle@CDlgCompSetup@@IAEXXZ
	DD	0111H
	DD	01H
	DD	0177cH
	DD	0177cH
	DD	03aH
	DD	FLAT:?OnSelchangeThickness@CDlgCompSetup@@IAEXXZ
	DD	0111H
	DD	01H
	DD	01788H
	DD	01788H
	DD	03aH
	DD	FLAT:?OnSelchangeCmbsel@CDlgCompSetup@@IAEXXZ
	DD	07e9H
	DD	00H
	DD	00H
	DD	00H
	DD	0eH
	DD	FLAT:?OnColorSelChange@CDlgCompSetup@@IAEJIJ@Z
	DD	00H
	DD	00H
	DD	00H
	DD	00H
	DD	00H
	DD	00H
CONST	ENDS
;	COMDAT __CT??_R0?AVexception@std@@@8??0exception@std@@QAE@ABV01@@Z12
xdata$x	SEGMENT
__CT??_R0?AVexception@std@@@8??0exception@std@@QAE@ABV01@@Z12 DD 00H
	DD	FLAT:??_R0?AVexception@std@@@8
	DD	00H
	DD	0ffffffffH
	ORG $+4
	DD	0cH
	DD	FLAT:??0exception@std@@QAE@ABV01@@Z
xdata$x	ENDS
;	COMDAT ??_R0?AVexception@std@@@8
data$r	SEGMENT
??_R0?AVexception@std@@@8 DD FLAT:??_7type_info@@6B@	; std::exception `RTTI Type Descriptor'
	DD	00H
	DB	'.?AVexception@std@@', 00H
data$r	ENDS
;	COMDAT __CT??_R0?AVbad_alloc@std@@@8??0bad_alloc@std@@QAE@ABV01@@Z12
xdata$x	SEGMENT
__CT??_R0?AVbad_alloc@std@@@8??0bad_alloc@std@@QAE@ABV01@@Z12 DD 010H
	DD	FLAT:??_R0?AVbad_alloc@std@@@8
	DD	00H
	DD	0ffffffffH
	ORG $+4
	DD	0cH
	DD	FLAT:??0bad_alloc@std@@QAE@ABV01@@Z
xdata$x	ENDS
;	COMDAT ??_R0?AVbad_alloc@std@@@8
data$r	SEGMENT
??_R0?AVbad_alloc@std@@@8 DD FLAT:??_7type_info@@6B@	; std::bad_alloc `RTTI Type Descriptor'
	DD	00H
	DB	'.?AVbad_alloc@std@@', 00H
data$r	ENDS
;	COMDAT __CT??_R0?AVbad_array_new_length@std@@@8??0bad_array_new_length@std@@QAE@ABV01@@Z12
xdata$x	SEGMENT
__CT??_R0?AVbad_array_new_length@std@@@8??0bad_array_new_length@std@@QAE@ABV01@@Z12 DD 00H
	DD	FLAT:??_R0?AVbad_array_new_length@std@@@8
	DD	00H
	DD	0ffffffffH
	ORG $+4
	DD	0cH
	DD	FLAT:??0bad_array_new_length@std@@QAE@ABV01@@Z
xdata$x	ENDS
;	COMDAT ??_R0?AVbad_array_new_length@std@@@8
data$r	SEGMENT
??_R0?AVbad_array_new_length@std@@@8 DD FLAT:??_7type_info@@6B@ ; std::bad_array_new_length `RTTI Type Descriptor'
	DD	00H
	DB	'.?AVbad_array_new_length@std@@', 00H
data$r	ENDS
;	COMDAT __CTA3?AVbad_array_new_length@std@@
xdata$x	SEGMENT
__CTA3?AVbad_array_new_length@std@@ DD 03H
	DD	FLAT:__CT??_R0?AVbad_array_new_length@std@@@8??0bad_array_new_length@std@@QAE@ABV01@@Z12
	DD	FLAT:__CT??_R0?AVbad_alloc@std@@@8??0bad_alloc@std@@QAE@ABV01@@Z12
	DD	FLAT:__CT??_R0?AVexception@std@@@8??0exception@std@@QAE@ABV01@@Z12
xdata$x	ENDS
;	COMDAT __TI3?AVbad_array_new_length@std@@
xdata$x	SEGMENT
__TI3?AVbad_array_new_length@std@@ DD 00H
	DD	FLAT:??1bad_array_new_length@std@@UAE@XZ
	DD	00H
	DD	FLAT:__CTA3?AVbad_array_new_length@std@@
xdata$x	ENDS
;	COMDAT ??_C@_0BF@KINCDENJ@bad?5array?5new?5length@
CONST	SEGMENT
??_C@_0BF@KINCDENJ@bad?5array?5new?5length@ DB 'bad array new length', 00H ; `string'
CONST	ENDS
;	COMDAT ??_7bad_array_new_length@std@@6B@
CONST	SEGMENT
??_7bad_array_new_length@std@@6B@ DD FLAT:??_R4bad_array_new_length@std@@6B@ ; std::bad_array_new_length::`vftable'
	DD	FLAT:??_Ebad_array_new_length@std@@UAEPAXI@Z
	DD	FLAT:?what@exception@std@@UBEPBDXZ
CONST	ENDS
;	COMDAT ??_7bad_alloc@std@@6B@
CONST	SEGMENT
??_7bad_alloc@std@@6B@ DD FLAT:??_R4bad_alloc@std@@6B@	; std::bad_alloc::`vftable'
	DD	FLAT:??_Ebad_alloc@std@@UAEPAXI@Z
	DD	FLAT:?what@exception@std@@UBEPBDXZ
CONST	ENDS
;	COMDAT ??_C@_0BC@EOODALEL@Unknown?5exception@
CONST	SEGMENT
??_C@_0BC@EOODALEL@Unknown?5exception@ DB 'Unknown exception', 00H ; `string'
CONST	ENDS
;	COMDAT ??_7exception@std@@6B@
CONST	SEGMENT
??_7exception@std@@6B@ DD FLAT:??_R4exception@std@@6B@	; std::exception::`vftable'
	DD	FLAT:??_Eexception@std@@UAEPAXI@Z
	DD	FLAT:?what@exception@std@@UBEPBDXZ
CONST	ENDS
;	COMDAT ??_7CDlgCompSetup@@6B@
CONST	SEGMENT
??_7CDlgCompSetup@@6B@ DD FLAT:??_R4CDlgCompSetup@@6B@	; CDlgCompSetup::`vftable'
	DD	FLAT:?GetRuntimeClass@CDialog@@UBEPAUCRuntimeClass@@XZ
	DD	FLAT:??_ECDlgCompSetup@@UAEPAXI@Z
	DD	FLAT:?Serialize@CObject@@UAEXAAVCArchive@@@Z
	DD	FLAT:?AssertValid@CObject@@UBEXXZ
	DD	FLAT:?Dump@CObject@@UBEXAAVCDumpContext@@@Z
	DD	FLAT:?OnCmdMsg@CDialog@@UAEHIHPAXPAUAFX_CMDHANDLERINFO@@@Z
	DD	FLAT:?OnFinalRelease@CWnd@@UAEXXZ
	DD	FLAT:?IsInvokeAllowed@CCmdTarget@@UAEHJ@Z
	DD	FLAT:?GetDispatchIID@CCmdTarget@@UAEHPAU_GUID@@@Z
	DD	FLAT:?GetTypeInfoCount@CCmdTarget@@UAEIXZ
	DD	FLAT:?GetTypeLibCache@CCmdTarget@@UAEPAVCTypeLibCache@@XZ
	DD	FLAT:?GetTypeLib@CCmdTarget@@UAEJKPAPAUITypeLib@@@Z
	DD	FLAT:?GetMessageMap@CDlgCompSetup@@MBEPBUAFX_MSGMAP@@XZ
	DD	FLAT:?GetCommandMap@CCmdTarget@@MBEPBUAFX_OLECMDMAP@@XZ
	DD	FLAT:?GetDispatchMap@CCmdTarget@@MBEPBUAFX_DISPMAP@@XZ
	DD	FLAT:?GetConnectionMap@CCmdTarget@@MBEPBUAFX_CONNECTIONMAP@@XZ
	DD	FLAT:?GetInterfaceMap@CWnd@@MBEPBUAFX_INTERFACEMAP@@XZ
	DD	FLAT:?GetEventSinkMap@CCmdTarget@@MBEPBUAFX_EVENTSINKMAP@@XZ
	DD	FLAT:?OnCreateAggregates@CCmdTarget@@UAEHXZ
	DD	FLAT:?GetInterfaceHook@CCmdTarget@@UAEPAUIUnknown@@PBX@Z
	DD	FLAT:?GetExtraConnectionPoints@CCmdTarget@@MAEHPAVCPtrArray@@@Z
	DD	FLAT:?GetConnectionHook@CCmdTarget@@MAEPAUIConnectionPoint@@ABU_GUID@@@Z
	DD	FLAT:?PreSubclassWindow@CWnd@@UAEXXZ
	DD	FLAT:?Create@CWnd@@UAEHPBD0KABUtagRECT@@PAV1@IPAUCCreateContext@@@Z
	DD	FLAT:?CreateEx@CWnd@@UAEHKPBD0KABUtagRECT@@PAV1@IPAX@Z
	DD	FLAT:?CreateEx@CWnd@@UAEHKPBD0KHHHHPAUHWND__@@PAUHMENU__@@PAX@Z
	DD	FLAT:?DestroyWindow@CWnd@@UAEHXZ
	DD	FLAT:?PreCreateWindow@CWnd@@UAEHAAUtagCREATESTRUCTA@@@Z
	DD	FLAT:?CalcWindowRect@CWnd@@UAEXPAUtagRECT@@I@Z
	DD	FLAT:?GetMenu@CWnd@@UBEPAVCMenu@@XZ
	DD	FLAT:?SetMenu@CWnd@@UAEHPAVCMenu@@@Z
	DD	FLAT:?OnToolHitTest@CWnd@@UBEHVCPoint@@PAUtagTOOLINFOA@@@Z
	DD	FLAT:?GetScrollBarCtrl@CWnd@@UBEPAVCScrollBar@@H@Z
	DD	FLAT:?WinHelpA@CWnd@@UAEXKI@Z
	DD	FLAT:?HtmlHelpA@CWnd@@UAEXKI@Z
	DD	FLAT:?WinHelpInternal@CWnd@@UAEXKI@Z
	DD	FLAT:?ContinueModal@CWnd@@UAEHXZ
	DD	FLAT:?EndModalLoop@CWnd@@UAEXH@Z
	DD	FLAT:?OnDrawIconicThumbnailOrLivePreview@CWnd@@UAEXAAVCDC@@VCRect@@VCSize@@HAAH@Z
	DD	FLAT:?EnsureStdObj@CWnd@@UAEJXZ
	DD	FLAT:?get_accParent@CWnd@@UAEJPAPAUIDispatch@@@Z
	DD	FLAT:?get_accChildCount@CWnd@@UAEJPAJ@Z
	DD	FLAT:?get_accChild@CWnd@@UAEJUtagVARIANT@@PAPAUIDispatch@@@Z
	DD	FLAT:?get_accName@CWnd@@UAEJUtagVARIANT@@PAPA_W@Z
	DD	FLAT:?get_accValue@CWnd@@UAEJUtagVARIANT@@PAPA_W@Z
	DD	FLAT:?get_accDescription@CWnd@@UAEJUtagVARIANT@@PAPA_W@Z
	DD	FLAT:?get_accRole@CWnd@@UAEJUtagVARIANT@@PAU2@@Z
	DD	FLAT:?get_accState@CWnd@@UAEJUtagVARIANT@@PAU2@@Z
	DD	FLAT:?get_accHelp@CWnd@@UAEJUtagVARIANT@@PAPA_W@Z
	DD	FLAT:?get_accHelpTopic@CWnd@@UAEJPAPA_WUtagVARIANT@@PAJ@Z
	DD	FLAT:?get_accKeyboardShortcut@CWnd@@UAEJUtagVARIANT@@PAPA_W@Z
	DD	FLAT:?get_accFocus@CWnd@@UAEJPAUtagVARIANT@@@Z
	DD	FLAT:?get_accSelection@CWnd@@UAEJPAUtagVARIANT@@@Z
	DD	FLAT:?get_accDefaultAction@CWnd@@UAEJUtagVARIANT@@PAPA_W@Z
	DD	FLAT:?accSelect@CWnd@@UAEJJUtagVARIANT@@@Z
	DD	FLAT:?accLocation@CWnd@@UAEJPAJ000UtagVARIANT@@@Z
	DD	FLAT:?accNavigate@CWnd@@UAEJJUtagVARIANT@@PAU2@@Z
	DD	FLAT:?accHitTest@CWnd@@UAEJJJPAUtagVARIANT@@@Z
	DD	FLAT:?accDoDefaultAction@CWnd@@UAEJUtagVARIANT@@@Z
	DD	FLAT:?put_accName@CWnd@@UAEJUtagVARIANT@@PA_W@Z
	DD	FLAT:?put_accValue@CWnd@@UAEJUtagVARIANT@@PA_W@Z
	DD	FLAT:?SetProxy@CWnd@@UAEJPAUIAccessibleProxy@@@Z
	DD	FLAT:?CreateAccessibleProxy@CWnd@@UAEJIJPAJ@Z
	DD	FLAT:?OnCommand@CWnd@@MAEHIJ@Z
	DD	FLAT:?OnNotify@CWnd@@MAEHIJPAJ@Z
	DD	FLAT:?GetSuperWndProcAddr@CWnd@@MAEPAP6GJPAUHWND__@@IIJ@ZXZ
	DD	FLAT:?DoDataExchange@CDlgCompSetup@@MAEXPAVCDataExchange@@@Z
	DD	FLAT:?BeginModalState@CWnd@@UAEXXZ
	DD	FLAT:?EndModalState@CWnd@@UAEXXZ
	DD	FLAT:?PreTranslateMessage@CDlgCompSetup@@MAEHPAUtagMSG@@@Z
	DD	FLAT:?OnAmbientProperty@CWnd@@UAEHPAVCOleControlSite@@JPAUtagVARIANT@@@Z
	DD	FLAT:?WindowProc@CDlgCompSetup@@MAEJIIJ@Z
	DD	FLAT:?OnWndMsg@CWnd@@MAEHIIJPAJ@Z
	DD	FLAT:?DefWindowProcA@CWnd@@MAEJIIJ@Z
	DD	FLAT:?PostNcDestroy@CWnd@@MAEXXZ
	DD	FLAT:?OnChildNotify@CWnd@@MAEHIIJPAJ@Z
	DD	FLAT:?OnTouchInputs@CWnd@@MAEHIPAUtagTOUCHINPUT@@@Z
	DD	FLAT:?OnTouchInput@CWnd@@MAEHVCPoint@@HHPAUtagTOUCHINPUT@@@Z
	DD	FLAT:?GetGestureStatus@CWnd@@MAEKVCPoint@@@Z
	DD	FLAT:?OnGestureZoom@CWnd@@MAEHVCPoint@@J@Z
	DD	FLAT:?OnGesturePan@CWnd@@MAEHVCPoint@@0@Z
	DD	FLAT:?OnGestureRotate@CWnd@@MAEHVCPoint@@N@Z
	DD	FLAT:?OnGestureTwoFingerTap@CWnd@@MAEHVCPoint@@@Z
	DD	FLAT:?OnGesturePressAndTap@CWnd@@MAEHVCPoint@@J@Z
	DD	FLAT:?ResizeDynamicLayout@CWnd@@MAEXXZ
	DD	FLAT:?CheckAutoCenter@CDialog@@UAEHXZ
	DD	FLAT:?IsFrameWnd@CWnd@@UBEHXZ
	DD	FLAT:?CreateControlContainer@CWnd@@MAEHPAPAVCOleControlContainer@@@Z
	DD	FLAT:?CreateControlSite@CWnd@@MAEHPAVCOleControlContainer@@PAPAVCOleControlSite@@IABU_GUID@@@Z
	DD	FLAT:?SetOccDialogInfo@CDialog@@MAEHPAU_AFX_OCC_DIALOG_INFO@@@Z
	DD	FLAT:?GetOccDialogInfo@CDialog@@MAEPAU_AFX_OCC_DIALOG_INFO@@XZ
	DD	FLAT:?Create@CDialog@@UAEHIPAVCWnd@@@Z
	DD	FLAT:?Create@CDialog@@UAEHPBDPAVCWnd@@@Z
	DD	FLAT:?CreateIndirect@CDialog@@UAEHPAXPAVCWnd@@@Z
	DD	FLAT:?CreateIndirect@CDialog@@UAEHPBUDLGTEMPLATE@@PAVCWnd@@PAX@Z
	DD	FLAT:?DoModal@CDialog@@UAEHXZ
	DD	FLAT:?OnInitDialog@CDlgCompSetup@@MAEHXZ
	DD	FLAT:?OnSetFont@CDialog@@UAEXPAVCFont@@@Z
	DD	FLAT:?OnOK@CDialog@@MAEXXZ
	DD	FLAT:?OnCancel@CDialog@@MAEXXZ
	DD	FLAT:?PreInitDialog@CDialog@@MAEXXZ
CONST	ENDS
;	COMDAT ??_7CTLMCallback@CDlgCompSetup@@6B@
CONST	SEGMENT
??_7CTLMCallback@CDlgCompSetup@@6B@ DD FLAT:??_R4CTLMCallback@CDlgCompSetup@@6B@ ; CDlgCompSetup::CTLMCallback::`vftable'
	DD	FLAT:?ReceiveData@CTLMCallback@CDlgCompSetup@@EAGXHDJHPAX@Z
CONST	ENDS
;	COMDAT ??_C@_04CNJBKMPC@Call@
CONST	SEGMENT
??_C@_04CNJBKMPC@Call@ DB 'Call', 00H			; `string'
CONST	ENDS
;	COMDAT ??_C@_04HOGOKFCN@?$LP?y?$LJ?$LA@
CONST	SEGMENT
??_C@_04HOGOKFCN@?$LP?y?$LJ?$LA@ DB 0bfH, 0f9H, 0b9H, 0b0H, 00H ; `string'
CONST	ENDS
;	COMDAT ??_7?$CList@PAVCCallPutIMonthData@@PAV1@@@6B@
CONST	SEGMENT
??_7?$CList@PAVCCallPutIMonthData@@PAV1@@@6B@ DD FLAT:??_R4?$CList@PAVCCallPutIMonthData@@PAV1@@@6B@ ; CList<CCallPutIMonthData *,CCallPutIMonthData *>::`vftable'
	DD	FLAT:?GetRuntimeClass@CObject@@UBEPAUCRuntimeClass@@XZ
	DD	FLAT:??_E?$CList@PAVCCallPutIMonthData@@PAV1@@@UAEPAXI@Z
	DD	FLAT:?Serialize@?$CList@PAVCCallPutIMonthData@@PAV1@@@UAEXAAVCArchive@@@Z
	DD	FLAT:?AssertValid@CObject@@UBEXXZ
	DD	FLAT:?Dump@CObject@@UBEXAAVCDumpContext@@@Z
CONST	ENDS
;	COMDAT ??_7?$CList@PAVCCallPutItemData@@PAV1@@@6B@
CONST	SEGMENT
??_7?$CList@PAVCCallPutItemData@@PAV1@@@6B@ DD FLAT:??_R4?$CList@PAVCCallPutItemData@@PAV1@@@6B@ ; CList<CCallPutItemData *,CCallPutItemData *>::`vftable'
	DD	FLAT:?GetRuntimeClass@CObject@@UBEPAUCRuntimeClass@@XZ
	DD	FLAT:??_E?$CList@PAVCCallPutItemData@@PAV1@@@UAEPAXI@Z
	DD	FLAT:?Serialize@?$CList@PAVCCallPutItemData@@PAV1@@@UAEXAAVCArchive@@@Z
	DD	FLAT:?AssertValid@CObject@@UBEXXZ
	DD	FLAT:?Dump@CObject@@UBEXAAVCDumpContext@@@Z
CONST	ENDS
;	COMDAT ??_C@_01FAMBOPH@4@
CONST	SEGMENT
??_C@_01FAMBOPH@4@ DB '4', 00H				; `string'
CONST	ENDS
;	COMDAT ??_C@_01EKENIIDA@3@
CONST	SEGMENT
??_C@_01EKENIIDA@3@ DB '3', 00H				; `string'
CONST	ENDS
;	COMDAT ??_C@_01BMBHCPLG@5@
CONST	SEGMENT
??_C@_01BMBHCPLG@5@ DB '5', 00H				; `string'
CONST	ENDS
;	COMDAT ??_C@_01DHDKHMHF@6@
CONST	SEGMENT
??_C@_01DHDKHMHF@6@ DB '6', 00H				; `string'
CONST	ENDS
;	COMDAT ??_C@_01COCBENDE@7@
CONST	SEGMENT
??_C@_01COCBENDE@7@ DB '7', 00H				; `string'
CONST	ENDS
;	COMDAT ??_7CCodeTypeA@@6B@
CONST	SEGMENT
??_7CCodeTypeA@@6B@ DD FLAT:??_R4CCodeTypeA@@6B@	; CCodeTypeA::`vftable'
	DD	FLAT:?Convert@CCodeTypeA@@UAEXPAD@Z
	DD	FLAT:?Convert2@CCodeTypeA@@UAEXPAD@Z
	DD	FLAT:?ConvertOneClickData@CCodeTypeA@@UAEXPAD@Z
CONST	ENDS
;	COMDAT ??_C@_02IJKLNJNJ@?$KI?$OA@
CONST	SEGMENT
??_C@_02IJKLNJNJ@?$KI?$OA@ DB 0a8H, 0e0H, 00H		; `string'
CONST	ENDS
;	COMDAT ??_C@_02BJKMHJON@?$KI?W@
CONST	SEGMENT
??_C@_02BJKMHJON@?$KI?W@ DB 0a8H, 0d7H, 00H		; `string'
CONST	ENDS
;	COMDAT ??_C@_05KBKNOCPJ@?$CF2?42s@
CONST	SEGMENT
??_C@_05KBKNOCPJ@?$CF2?42s@ DB '%2.2s', 00H		; `string'
CONST	ENDS
;	COMDAT ??_7CCodeTypeBase@@6B@
CONST	SEGMENT
??_7CCodeTypeBase@@6B@ DD FLAT:??_R4CCodeTypeBase@@6B@	; CCodeTypeBase::`vftable'
	DD	FLAT:?Convert@CCodeTypeBase@@UAEXPAD@Z
	DD	FLAT:?Convert2@CCodeTypeBase@@UAEXPAD@Z
	DD	FLAT:?ConvertOneClickData@CCodeTypeBase@@UAEXPAD@Z
CONST	ENDS
;	COMDAT ??_C@_08KDNPGENH@TREELIST@
CONST	SEGMENT
??_C@_08KDNPGENH@TREELIST@ DB 'TREELIST', 00H		; `string'
CONST	ENDS
;	COMDAT ??_C@_02EMFKHFLK@?$CFX@
CONST	SEGMENT
??_C@_02EMFKHFLK@?$CFX@ DB '%X', 00H			; `string'
CONST	ENDS
;	COMDAT ??_C@_06NDLAHCHE@?$CFs?$CF08X@
CONST	SEGMENT
??_C@_06NDLAHCHE@?$CFs?$CF08X@ DB '%s%08X', 00H		; `string'
CONST	ENDS
;	COMDAT ??_C@_0P@IDMAJEGN@HANAROPCTRMAIN@
CONST	SEGMENT
??_C@_0P@IDMAJEGN@HANAROPCTRMAIN@ DB 'HANAROPCTRMAIN', 00H ; `string'
CONST	ENDS
;	COMDAT ??_C@_0M@CBBNGGHM@PcTrMng?4dll@
CONST	SEGMENT
??_C@_0M@CBBNGGHM@PcTrMng?4dll@ DB 'PcTrMng.dll', 00H	; `string'
CONST	ENDS
;	COMDAT ??_7?$CList@PAVCDlgCompGroupData@@PAV1@@@6B@
CONST	SEGMENT
??_7?$CList@PAVCDlgCompGroupData@@PAV1@@@6B@ DD FLAT:??_R4?$CList@PAVCDlgCompGroupData@@PAV1@@@6B@ ; CList<CDlgCompGroupData *,CDlgCompGroupData *>::`vftable'
	DD	FLAT:?GetRuntimeClass@CObject@@UBEPAUCRuntimeClass@@XZ
	DD	FLAT:??_E?$CList@PAVCDlgCompGroupData@@PAV1@@@UAEPAXI@Z
	DD	FLAT:?Serialize@?$CList@PAVCDlgCompGroupData@@PAV1@@@UAEXAAVCArchive@@@Z
	DD	FLAT:?AssertValid@CObject@@UBEXXZ
	DD	FLAT:?Dump@CObject@@UBEXAAVCDumpContext@@@Z
CONST	ENDS
;	COMDAT ??_7?$CList@PAVCDlgCompSubItem@@PAV1@@@6B@
CONST	SEGMENT
??_7?$CList@PAVCDlgCompSubItem@@PAV1@@@6B@ DD FLAT:??_R4?$CList@PAVCDlgCompSubItem@@PAV1@@@6B@ ; CList<CDlgCompSubItem *,CDlgCompSubItem *>::`vftable'
	DD	FLAT:?GetRuntimeClass@CObject@@UBEPAUCRuntimeClass@@XZ
	DD	FLAT:??_E?$CList@PAVCDlgCompSubItem@@PAV1@@@UAEPAXI@Z
	DD	FLAT:?Serialize@?$CList@PAVCDlgCompSubItem@@PAV1@@@UAEXAAVCArchive@@@Z
	DD	FLAT:?AssertValid@CObject@@UBEXXZ
	DD	FLAT:?Dump@CObject@@UBEXAAVCDumpContext@@@Z
CONST	ENDS
;	COMDAT ??_R1A@?0A@EA@CTreeCtrl@@8
rdata$r	SEGMENT
??_R1A@?0A@EA@CTreeCtrl@@8 DD FLAT:??_R0?AVCTreeCtrl@@@8 ; CTreeCtrl::`RTTI Base Class Descriptor at (0,-1,0,64)'
	DD	03H
	DD	00H
	DD	0ffffffffH
	DD	00H
	DD	040H
	DD	FLAT:??_R3CTreeCtrl@@8
rdata$r	ENDS
;	COMDAT ??_R2CTreeCtrl@@8
rdata$r	SEGMENT
??_R2CTreeCtrl@@8 DD FLAT:??_R1A@?0A@EA@CTreeCtrl@@8	; CTreeCtrl::`RTTI Base Class Array'
	DD	FLAT:??_R1A@?0A@EA@CWnd@@8
	DD	FLAT:??_R1A@?0A@EA@CCmdTarget@@8
	DD	FLAT:??_R1A@?0A@EA@CObject@@8
rdata$r	ENDS
;	COMDAT ??_R3CTreeCtrl@@8
rdata$r	SEGMENT
??_R3CTreeCtrl@@8 DD 00H				; CTreeCtrl::`RTTI Class Hierarchy Descriptor'
	DD	00H
	DD	04H
	DD	FLAT:??_R2CTreeCtrl@@8
rdata$r	ENDS
;	COMDAT ??_R0?AVCTreeCtrl@@@8
data$rs	SEGMENT
??_R0?AVCTreeCtrl@@@8 DD FLAT:??_7type_info@@6B@	; CTreeCtrl `RTTI Type Descriptor'
	DD	00H
	DB	'.?AVCTreeCtrl@@', 00H
data$rs	ENDS
;	COMDAT ??_R4CTreeCtrl@@6B@
rdata$r	SEGMENT
??_R4CTreeCtrl@@6B@ DD 00H				; CTreeCtrl::`RTTI Complete Object Locator'
	DD	00H
	DD	00H
	DD	FLAT:??_R0?AVCTreeCtrl@@@8
	DD	FLAT:??_R3CTreeCtrl@@8
rdata$r	ENDS
;	COMDAT ??_R1A@?0A@EA@CListCtrl@@8
rdata$r	SEGMENT
??_R1A@?0A@EA@CListCtrl@@8 DD FLAT:??_R0?AVCListCtrl@@@8 ; CListCtrl::`RTTI Base Class Descriptor at (0,-1,0,64)'
	DD	03H
	DD	00H
	DD	0ffffffffH
	DD	00H
	DD	040H
	DD	FLAT:??_R3CListCtrl@@8
rdata$r	ENDS
;	COMDAT ??_R2CListCtrl@@8
rdata$r	SEGMENT
??_R2CListCtrl@@8 DD FLAT:??_R1A@?0A@EA@CListCtrl@@8	; CListCtrl::`RTTI Base Class Array'
	DD	FLAT:??_R1A@?0A@EA@CWnd@@8
	DD	FLAT:??_R1A@?0A@EA@CCmdTarget@@8
	DD	FLAT:??_R1A@?0A@EA@CObject@@8
rdata$r	ENDS
;	COMDAT ??_R3CListCtrl@@8
rdata$r	SEGMENT
??_R3CListCtrl@@8 DD 00H				; CListCtrl::`RTTI Class Hierarchy Descriptor'
	DD	00H
	DD	04H
	DD	FLAT:??_R2CListCtrl@@8
rdata$r	ENDS
;	COMDAT ??_R0?AVCListCtrl@@@8
data$rs	SEGMENT
??_R0?AVCListCtrl@@@8 DD FLAT:??_7type_info@@6B@	; CListCtrl `RTTI Type Descriptor'
	DD	00H
	DB	'.?AVCListCtrl@@', 00H
data$rs	ENDS
;	COMDAT ??_R4CListCtrl@@6B@
rdata$r	SEGMENT
??_R4CListCtrl@@6B@ DD 00H				; CListCtrl::`RTTI Complete Object Locator'
	DD	00H
	DD	00H
	DD	FLAT:??_R0?AVCListCtrl@@@8
	DD	FLAT:??_R3CListCtrl@@8
rdata$r	ENDS
;	COMDAT ??_R2CDialog@@8
rdata$r	SEGMENT
??_R2CDialog@@8 DD FLAT:??_R1A@?0A@EA@CDialog@@8	; CDialog::`RTTI Base Class Array'
	DD	FLAT:??_R1A@?0A@EA@CWnd@@8
	DD	FLAT:??_R1A@?0A@EA@CCmdTarget@@8
	DD	FLAT:??_R1A@?0A@EA@CObject@@8
rdata$r	ENDS
;	COMDAT ??_R3CDialog@@8
rdata$r	SEGMENT
??_R3CDialog@@8 DD 00H					; CDialog::`RTTI Class Hierarchy Descriptor'
	DD	00H
	DD	04H
	DD	FLAT:??_R2CDialog@@8
rdata$r	ENDS
;	COMDAT ??_R0?AVCDialog@@@8
data$rs	SEGMENT
??_R0?AVCDialog@@@8 DD FLAT:??_7type_info@@6B@		; CDialog `RTTI Type Descriptor'
	DD	00H
	DB	'.?AVCDialog@@', 00H
data$rs	ENDS
;	COMDAT ??_R1A@?0A@EA@CDialog@@8
rdata$r	SEGMENT
??_R1A@?0A@EA@CDialog@@8 DD FLAT:??_R0?AVCDialog@@@8	; CDialog::`RTTI Base Class Descriptor at (0,-1,0,64)'
	DD	03H
	DD	00H
	DD	0ffffffffH
	DD	00H
	DD	040H
	DD	FLAT:??_R3CDialog@@8
rdata$r	ENDS
;	COMDAT ??_R1A@?0A@EA@CComboBox@@8
rdata$r	SEGMENT
??_R1A@?0A@EA@CComboBox@@8 DD FLAT:??_R0?AVCComboBox@@@8 ; CComboBox::`RTTI Base Class Descriptor at (0,-1,0,64)'
	DD	03H
	DD	00H
	DD	0ffffffffH
	DD	00H
	DD	040H
	DD	FLAT:??_R3CComboBox@@8
rdata$r	ENDS
;	COMDAT ??_R2CComboBox@@8
rdata$r	SEGMENT
??_R2CComboBox@@8 DD FLAT:??_R1A@?0A@EA@CComboBox@@8	; CComboBox::`RTTI Base Class Array'
	DD	FLAT:??_R1A@?0A@EA@CWnd@@8
	DD	FLAT:??_R1A@?0A@EA@CCmdTarget@@8
	DD	FLAT:??_R1A@?0A@EA@CObject@@8
rdata$r	ENDS
;	COMDAT ??_R3CComboBox@@8
rdata$r	SEGMENT
??_R3CComboBox@@8 DD 00H				; CComboBox::`RTTI Class Hierarchy Descriptor'
	DD	00H
	DD	04H
	DD	FLAT:??_R2CComboBox@@8
rdata$r	ENDS
;	COMDAT ??_R0?AVCComboBox@@@8
data$rs	SEGMENT
??_R0?AVCComboBox@@@8 DD FLAT:??_7type_info@@6B@	; CComboBox `RTTI Type Descriptor'
	DD	00H
	DB	'.?AVCComboBox@@', 00H
data$rs	ENDS
;	COMDAT ??_R4CComboBox@@6B@
rdata$r	SEGMENT
??_R4CComboBox@@6B@ DD 00H				; CComboBox::`RTTI Complete Object Locator'
	DD	00H
	DD	00H
	DD	FLAT:??_R0?AVCComboBox@@@8
	DD	FLAT:??_R3CComboBox@@8
rdata$r	ENDS
;	COMDAT ??_R1A@?0A@EA@CListBox@@8
rdata$r	SEGMENT
??_R1A@?0A@EA@CListBox@@8 DD FLAT:??_R0?AVCListBox@@@8	; CListBox::`RTTI Base Class Descriptor at (0,-1,0,64)'
	DD	03H
	DD	00H
	DD	0ffffffffH
	DD	00H
	DD	040H
	DD	FLAT:??_R3CListBox@@8
rdata$r	ENDS
;	COMDAT ??_R2CListBox@@8
rdata$r	SEGMENT
??_R2CListBox@@8 DD FLAT:??_R1A@?0A@EA@CListBox@@8	; CListBox::`RTTI Base Class Array'
	DD	FLAT:??_R1A@?0A@EA@CWnd@@8
	DD	FLAT:??_R1A@?0A@EA@CCmdTarget@@8
	DD	FLAT:??_R1A@?0A@EA@CObject@@8
rdata$r	ENDS
;	COMDAT ??_R3CListBox@@8
rdata$r	SEGMENT
??_R3CListBox@@8 DD 00H					; CListBox::`RTTI Class Hierarchy Descriptor'
	DD	00H
	DD	04H
	DD	FLAT:??_R2CListBox@@8
rdata$r	ENDS
;	COMDAT ??_R0?AVCListBox@@@8
data$rs	SEGMENT
??_R0?AVCListBox@@@8 DD FLAT:??_7type_info@@6B@		; CListBox `RTTI Type Descriptor'
	DD	00H
	DB	'.?AVCListBox@@', 00H
data$rs	ENDS
;	COMDAT ??_R4CListBox@@6B@
rdata$r	SEGMENT
??_R4CListBox@@6B@ DD 00H				; CListBox::`RTTI Complete Object Locator'
	DD	00H
	DD	00H
	DD	FLAT:??_R0?AVCListBox@@@8
	DD	FLAT:??_R3CListBox@@8
rdata$r	ENDS
;	COMDAT ??_R2CCmdTarget@@8
rdata$r	SEGMENT
??_R2CCmdTarget@@8 DD FLAT:??_R1A@?0A@EA@CCmdTarget@@8	; CCmdTarget::`RTTI Base Class Array'
	DD	FLAT:??_R1A@?0A@EA@CObject@@8
rdata$r	ENDS
;	COMDAT ??_R3CCmdTarget@@8
rdata$r	SEGMENT
??_R3CCmdTarget@@8 DD 00H				; CCmdTarget::`RTTI Class Hierarchy Descriptor'
	DD	00H
	DD	02H
	DD	FLAT:??_R2CCmdTarget@@8
rdata$r	ENDS
;	COMDAT ??_R0?AVCCmdTarget@@@8
data$rs	SEGMENT
??_R0?AVCCmdTarget@@@8 DD FLAT:??_7type_info@@6B@	; CCmdTarget `RTTI Type Descriptor'
	DD	00H
	DB	'.?AVCCmdTarget@@', 00H
data$rs	ENDS
;	COMDAT ??_R1A@?0A@EA@CCmdTarget@@8
rdata$r	SEGMENT
??_R1A@?0A@EA@CCmdTarget@@8 DD FLAT:??_R0?AVCCmdTarget@@@8 ; CCmdTarget::`RTTI Base Class Descriptor at (0,-1,0,64)'
	DD	01H
	DD	00H
	DD	0ffffffffH
	DD	00H
	DD	040H
	DD	FLAT:??_R3CCmdTarget@@8
rdata$r	ENDS
;	COMDAT ??_R2CWnd@@8
rdata$r	SEGMENT
??_R2CWnd@@8 DD	FLAT:??_R1A@?0A@EA@CWnd@@8		; CWnd::`RTTI Base Class Array'
	DD	FLAT:??_R1A@?0A@EA@CCmdTarget@@8
	DD	FLAT:??_R1A@?0A@EA@CObject@@8
rdata$r	ENDS
;	COMDAT ??_R3CWnd@@8
rdata$r	SEGMENT
??_R3CWnd@@8 DD	00H					; CWnd::`RTTI Class Hierarchy Descriptor'
	DD	00H
	DD	03H
	DD	FLAT:??_R2CWnd@@8
rdata$r	ENDS
;	COMDAT ??_R0?AVCWnd@@@8
data$rs	SEGMENT
??_R0?AVCWnd@@@8 DD FLAT:??_7type_info@@6B@		; CWnd `RTTI Type Descriptor'
	DD	00H
	DB	'.?AVCWnd@@', 00H
data$rs	ENDS
;	COMDAT ??_R1A@?0A@EA@CWnd@@8
rdata$r	SEGMENT
??_R1A@?0A@EA@CWnd@@8 DD FLAT:??_R0?AVCWnd@@@8		; CWnd::`RTTI Base Class Descriptor at (0,-1,0,64)'
	DD	02H
	DD	00H
	DD	0ffffffffH
	DD	00H
	DD	040H
	DD	FLAT:??_R3CWnd@@8
rdata$r	ENDS
;	COMDAT ??_R1A@?0A@EA@CObject@@8
rdata$r	SEGMENT
??_R1A@?0A@EA@CObject@@8 DD FLAT:??_R0?AVCObject@@@8	; CObject::`RTTI Base Class Descriptor at (0,-1,0,64)'
	DD	00H
	DD	00H
	DD	0ffffffffH
	DD	00H
	DD	040H
	DD	FLAT:??_R3CObject@@8
rdata$r	ENDS
;	COMDAT ??_R2CObject@@8
rdata$r	SEGMENT
??_R2CObject@@8 DD FLAT:??_R1A@?0A@EA@CObject@@8	; CObject::`RTTI Base Class Array'
rdata$r	ENDS
;	COMDAT ??_R3CObject@@8
rdata$r	SEGMENT
??_R3CObject@@8 DD 00H					; CObject::`RTTI Class Hierarchy Descriptor'
	DD	00H
	DD	01H
	DD	FLAT:??_R2CObject@@8
rdata$r	ENDS
;	COMDAT ??_R0?AVCObject@@@8
data$rs	SEGMENT
??_R0?AVCObject@@@8 DD FLAT:??_7type_info@@6B@		; CObject `RTTI Type Descriptor'
	DD	00H
	DB	'.?AVCObject@@', 00H
data$rs	ENDS
;	COMDAT ??_7CTreeCtrl@@6B@
CONST	SEGMENT
??_7CTreeCtrl@@6B@ DD FLAT:??_R4CTreeCtrl@@6B@		; CTreeCtrl::`vftable'
	DD	FLAT:?GetRuntimeClass@CTreeCtrl@@UBEPAUCRuntimeClass@@XZ
	DD	FLAT:??_ECTreeCtrl@@UAEPAXI@Z
	DD	FLAT:?Serialize@CObject@@UAEXAAVCArchive@@@Z
	DD	FLAT:?AssertValid@CObject@@UBEXXZ
	DD	FLAT:?Dump@CObject@@UBEXAAVCDumpContext@@@Z
	DD	FLAT:?OnCmdMsg@CCmdTarget@@UAEHIHPAXPAUAFX_CMDHANDLERINFO@@@Z
	DD	FLAT:?OnFinalRelease@CWnd@@UAEXXZ
	DD	FLAT:?IsInvokeAllowed@CCmdTarget@@UAEHJ@Z
	DD	FLAT:?GetDispatchIID@CCmdTarget@@UAEHPAU_GUID@@@Z
	DD	FLAT:?GetTypeInfoCount@CCmdTarget@@UAEIXZ
	DD	FLAT:?GetTypeLibCache@CCmdTarget@@UAEPAVCTypeLibCache@@XZ
	DD	FLAT:?GetTypeLib@CCmdTarget@@UAEJKPAPAUITypeLib@@@Z
	DD	FLAT:?GetMessageMap@CTreeCtrl@@MBEPBUAFX_MSGMAP@@XZ
	DD	FLAT:?GetCommandMap@CCmdTarget@@MBEPBUAFX_OLECMDMAP@@XZ
	DD	FLAT:?GetDispatchMap@CCmdTarget@@MBEPBUAFX_DISPMAP@@XZ
	DD	FLAT:?GetConnectionMap@CCmdTarget@@MBEPBUAFX_CONNECTIONMAP@@XZ
	DD	FLAT:?GetInterfaceMap@CWnd@@MBEPBUAFX_INTERFACEMAP@@XZ
	DD	FLAT:?GetEventSinkMap@CCmdTarget@@MBEPBUAFX_EVENTSINKMAP@@XZ
	DD	FLAT:?OnCreateAggregates@CCmdTarget@@UAEHXZ
	DD	FLAT:?GetInterfaceHook@CCmdTarget@@UAEPAUIUnknown@@PBX@Z
	DD	FLAT:?GetExtraConnectionPoints@CCmdTarget@@MAEHPAVCPtrArray@@@Z
	DD	FLAT:?GetConnectionHook@CCmdTarget@@MAEPAUIConnectionPoint@@ABU_GUID@@@Z
	DD	FLAT:?PreSubclassWindow@CWnd@@UAEXXZ
	DD	FLAT:?Create@CWnd@@UAEHPBD0KABUtagRECT@@PAV1@IPAUCCreateContext@@@Z
	DD	FLAT:?CreateEx@CWnd@@UAEHKPBD0KABUtagRECT@@PAV1@IPAX@Z
	DD	FLAT:?CreateEx@CWnd@@UAEHKPBD0KHHHHPAUHWND__@@PAUHMENU__@@PAX@Z
	DD	FLAT:?DestroyWindow@CWnd@@UAEHXZ
	DD	FLAT:?PreCreateWindow@CWnd@@UAEHAAUtagCREATESTRUCTA@@@Z
	DD	FLAT:?CalcWindowRect@CWnd@@UAEXPAUtagRECT@@I@Z
	DD	FLAT:?GetMenu@CWnd@@UBEPAVCMenu@@XZ
	DD	FLAT:?SetMenu@CWnd@@UAEHPAVCMenu@@@Z
	DD	FLAT:?OnToolHitTest@CWnd@@UBEHVCPoint@@PAUtagTOOLINFOA@@@Z
	DD	FLAT:?GetScrollBarCtrl@CWnd@@UBEPAVCScrollBar@@H@Z
	DD	FLAT:?WinHelpA@CWnd@@UAEXKI@Z
	DD	FLAT:?HtmlHelpA@CWnd@@UAEXKI@Z
	DD	FLAT:?WinHelpInternal@CWnd@@UAEXKI@Z
	DD	FLAT:?ContinueModal@CWnd@@UAEHXZ
	DD	FLAT:?EndModalLoop@CWnd@@UAEXH@Z
	DD	FLAT:?OnDrawIconicThumbnailOrLivePreview@CWnd@@UAEXAAVCDC@@VCRect@@VCSize@@HAAH@Z
	DD	FLAT:?EnsureStdObj@CWnd@@UAEJXZ
	DD	FLAT:?get_accParent@CWnd@@UAEJPAPAUIDispatch@@@Z
	DD	FLAT:?get_accChildCount@CWnd@@UAEJPAJ@Z
	DD	FLAT:?get_accChild@CWnd@@UAEJUtagVARIANT@@PAPAUIDispatch@@@Z
	DD	FLAT:?get_accName@CWnd@@UAEJUtagVARIANT@@PAPA_W@Z
	DD	FLAT:?get_accValue@CWnd@@UAEJUtagVARIANT@@PAPA_W@Z
	DD	FLAT:?get_accDescription@CWnd@@UAEJUtagVARIANT@@PAPA_W@Z
	DD	FLAT:?get_accRole@CWnd@@UAEJUtagVARIANT@@PAU2@@Z
	DD	FLAT:?get_accState@CWnd@@UAEJUtagVARIANT@@PAU2@@Z
	DD	FLAT:?get_accHelp@CWnd@@UAEJUtagVARIANT@@PAPA_W@Z
	DD	FLAT:?get_accHelpTopic@CWnd@@UAEJPAPA_WUtagVARIANT@@PAJ@Z
	DD	FLAT:?get_accKeyboardShortcut@CWnd@@UAEJUtagVARIANT@@PAPA_W@Z
	DD	FLAT:?get_accFocus@CWnd@@UAEJPAUtagVARIANT@@@Z
	DD	FLAT:?get_accSelection@CWnd@@UAEJPAUtagVARIANT@@@Z
	DD	FLAT:?get_accDefaultAction@CWnd@@UAEJUtagVARIANT@@PAPA_W@Z
	DD	FLAT:?accSelect@CWnd@@UAEJJUtagVARIANT@@@Z
	DD	FLAT:?accLocation@CWnd@@UAEJPAJ000UtagVARIANT@@@Z
	DD	FLAT:?accNavigate@CWnd@@UAEJJUtagVARIANT@@PAU2@@Z
	DD	FLAT:?accHitTest@CWnd@@UAEJJJPAUtagVARIANT@@@Z
	DD	FLAT:?accDoDefaultAction@CWnd@@UAEJUtagVARIANT@@@Z
	DD	FLAT:?put_accName@CWnd@@UAEJUtagVARIANT@@PA_W@Z
	DD	FLAT:?put_accValue@CWnd@@UAEJUtagVARIANT@@PA_W@Z
	DD	FLAT:?SetProxy@CWnd@@UAEJPAUIAccessibleProxy@@@Z
	DD	FLAT:?CreateAccessibleProxy@CWnd@@UAEJIJPAJ@Z
	DD	FLAT:?OnCommand@CWnd@@MAEHIJ@Z
	DD	FLAT:?OnNotify@CWnd@@MAEHIJPAJ@Z
	DD	FLAT:?GetSuperWndProcAddr@CWnd@@MAEPAP6GJPAUHWND__@@IIJ@ZXZ
	DD	FLAT:?DoDataExchange@CWnd@@MAEXPAVCDataExchange@@@Z
	DD	FLAT:?BeginModalState@CWnd@@UAEXXZ
	DD	FLAT:?EndModalState@CWnd@@UAEXXZ
	DD	FLAT:?PreTranslateMessage@CWnd@@UAEHPAUtagMSG@@@Z
	DD	FLAT:?OnAmbientProperty@CWnd@@UAEHPAVCOleControlSite@@JPAUtagVARIANT@@@Z
	DD	FLAT:?WindowProc@CWnd@@MAEJIIJ@Z
	DD	FLAT:?OnWndMsg@CWnd@@MAEHIIJPAJ@Z
	DD	FLAT:?DefWindowProcA@CWnd@@MAEJIIJ@Z
	DD	FLAT:?PostNcDestroy@CWnd@@MAEXXZ
	DD	FLAT:?OnChildNotify@CWnd@@MAEHIIJPAJ@Z
	DD	FLAT:?OnTouchInputs@CWnd@@MAEHIPAUtagTOUCHINPUT@@@Z
	DD	FLAT:?OnTouchInput@CWnd@@MAEHVCPoint@@HHPAUtagTOUCHINPUT@@@Z
	DD	FLAT:?GetGestureStatus@CWnd@@MAEKVCPoint@@@Z
	DD	FLAT:?OnGestureZoom@CWnd@@MAEHVCPoint@@J@Z
	DD	FLAT:?OnGesturePan@CWnd@@MAEHVCPoint@@0@Z
	DD	FLAT:?OnGestureRotate@CWnd@@MAEHVCPoint@@N@Z
	DD	FLAT:?OnGestureTwoFingerTap@CWnd@@MAEHVCPoint@@@Z
	DD	FLAT:?OnGesturePressAndTap@CWnd@@MAEHVCPoint@@J@Z
	DD	FLAT:?ResizeDynamicLayout@CWnd@@MAEXXZ
	DD	FLAT:?CheckAutoCenter@CWnd@@UAEHXZ
	DD	FLAT:?IsFrameWnd@CWnd@@UBEHXZ
	DD	FLAT:?CreateControlContainer@CWnd@@MAEHPAPAVCOleControlContainer@@@Z
	DD	FLAT:?CreateControlSite@CWnd@@MAEHPAVCOleControlContainer@@PAPAVCOleControlSite@@IABU_GUID@@@Z
	DD	FLAT:?SetOccDialogInfo@CWnd@@MAEHPAU_AFX_OCC_DIALOG_INFO@@@Z
	DD	FLAT:?GetOccDialogInfo@CWnd@@MAEPAU_AFX_OCC_DIALOG_INFO@@XZ
CONST	ENDS
;	COMDAT ??_7CListCtrl@@6B@
CONST	SEGMENT
??_7CListCtrl@@6B@ DD FLAT:??_R4CListCtrl@@6B@		; CListCtrl::`vftable'
	DD	FLAT:?GetRuntimeClass@CListCtrl@@UBEPAUCRuntimeClass@@XZ
	DD	FLAT:??_ECListCtrl@@UAEPAXI@Z
	DD	FLAT:?Serialize@CObject@@UAEXAAVCArchive@@@Z
	DD	FLAT:?AssertValid@CObject@@UBEXXZ
	DD	FLAT:?Dump@CObject@@UBEXAAVCDumpContext@@@Z
	DD	FLAT:?OnCmdMsg@CCmdTarget@@UAEHIHPAXPAUAFX_CMDHANDLERINFO@@@Z
	DD	FLAT:?OnFinalRelease@CWnd@@UAEXXZ
	DD	FLAT:?IsInvokeAllowed@CCmdTarget@@UAEHJ@Z
	DD	FLAT:?GetDispatchIID@CCmdTarget@@UAEHPAU_GUID@@@Z
	DD	FLAT:?GetTypeInfoCount@CCmdTarget@@UAEIXZ
	DD	FLAT:?GetTypeLibCache@CCmdTarget@@UAEPAVCTypeLibCache@@XZ
	DD	FLAT:?GetTypeLib@CCmdTarget@@UAEJKPAPAUITypeLib@@@Z
	DD	FLAT:?GetMessageMap@CListCtrl@@MBEPBUAFX_MSGMAP@@XZ
	DD	FLAT:?GetCommandMap@CCmdTarget@@MBEPBUAFX_OLECMDMAP@@XZ
	DD	FLAT:?GetDispatchMap@CCmdTarget@@MBEPBUAFX_DISPMAP@@XZ
	DD	FLAT:?GetConnectionMap@CCmdTarget@@MBEPBUAFX_CONNECTIONMAP@@XZ
	DD	FLAT:?GetInterfaceMap@CWnd@@MBEPBUAFX_INTERFACEMAP@@XZ
	DD	FLAT:?GetEventSinkMap@CCmdTarget@@MBEPBUAFX_EVENTSINKMAP@@XZ
	DD	FLAT:?OnCreateAggregates@CCmdTarget@@UAEHXZ
	DD	FLAT:?GetInterfaceHook@CCmdTarget@@UAEPAUIUnknown@@PBX@Z
	DD	FLAT:?GetExtraConnectionPoints@CCmdTarget@@MAEHPAVCPtrArray@@@Z
	DD	FLAT:?GetConnectionHook@CCmdTarget@@MAEPAUIConnectionPoint@@ABU_GUID@@@Z
	DD	FLAT:?PreSubclassWindow@CWnd@@UAEXXZ
	DD	FLAT:?Create@CWnd@@UAEHPBD0KABUtagRECT@@PAV1@IPAUCCreateContext@@@Z
	DD	FLAT:?CreateEx@CWnd@@UAEHKPBD0KABUtagRECT@@PAV1@IPAX@Z
	DD	FLAT:?CreateEx@CWnd@@UAEHKPBD0KHHHHPAUHWND__@@PAUHMENU__@@PAX@Z
	DD	FLAT:?DestroyWindow@CWnd@@UAEHXZ
	DD	FLAT:?PreCreateWindow@CWnd@@UAEHAAUtagCREATESTRUCTA@@@Z
	DD	FLAT:?CalcWindowRect@CWnd@@UAEXPAUtagRECT@@I@Z
	DD	FLAT:?GetMenu@CWnd@@UBEPAVCMenu@@XZ
	DD	FLAT:?SetMenu@CWnd@@UAEHPAVCMenu@@@Z
	DD	FLAT:?OnToolHitTest@CWnd@@UBEHVCPoint@@PAUtagTOOLINFOA@@@Z
	DD	FLAT:?GetScrollBarCtrl@CWnd@@UBEPAVCScrollBar@@H@Z
	DD	FLAT:?WinHelpA@CWnd@@UAEXKI@Z
	DD	FLAT:?HtmlHelpA@CWnd@@UAEXKI@Z
	DD	FLAT:?WinHelpInternal@CWnd@@UAEXKI@Z
	DD	FLAT:?ContinueModal@CWnd@@UAEHXZ
	DD	FLAT:?EndModalLoop@CWnd@@UAEXH@Z
	DD	FLAT:?OnDrawIconicThumbnailOrLivePreview@CWnd@@UAEXAAVCDC@@VCRect@@VCSize@@HAAH@Z
	DD	FLAT:?EnsureStdObj@CWnd@@UAEJXZ
	DD	FLAT:?get_accParent@CWnd@@UAEJPAPAUIDispatch@@@Z
	DD	FLAT:?get_accChildCount@CWnd@@UAEJPAJ@Z
	DD	FLAT:?get_accChild@CWnd@@UAEJUtagVARIANT@@PAPAUIDispatch@@@Z
	DD	FLAT:?get_accName@CWnd@@UAEJUtagVARIANT@@PAPA_W@Z
	DD	FLAT:?get_accValue@CWnd@@UAEJUtagVARIANT@@PAPA_W@Z
	DD	FLAT:?get_accDescription@CWnd@@UAEJUtagVARIANT@@PAPA_W@Z
	DD	FLAT:?get_accRole@CWnd@@UAEJUtagVARIANT@@PAU2@@Z
	DD	FLAT:?get_accState@CWnd@@UAEJUtagVARIANT@@PAU2@@Z
	DD	FLAT:?get_accHelp@CWnd@@UAEJUtagVARIANT@@PAPA_W@Z
	DD	FLAT:?get_accHelpTopic@CWnd@@UAEJPAPA_WUtagVARIANT@@PAJ@Z
	DD	FLAT:?get_accKeyboardShortcut@CWnd@@UAEJUtagVARIANT@@PAPA_W@Z
	DD	FLAT:?get_accFocus@CWnd@@UAEJPAUtagVARIANT@@@Z
	DD	FLAT:?get_accSelection@CWnd@@UAEJPAUtagVARIANT@@@Z
	DD	FLAT:?get_accDefaultAction@CWnd@@UAEJUtagVARIANT@@PAPA_W@Z
	DD	FLAT:?accSelect@CWnd@@UAEJJUtagVARIANT@@@Z
	DD	FLAT:?accLocation@CWnd@@UAEJPAJ000UtagVARIANT@@@Z
	DD	FLAT:?accNavigate@CWnd@@UAEJJUtagVARIANT@@PAU2@@Z
	DD	FLAT:?accHitTest@CWnd@@UAEJJJPAUtagVARIANT@@@Z
	DD	FLAT:?accDoDefaultAction@CWnd@@UAEJUtagVARIANT@@@Z
	DD	FLAT:?put_accName@CWnd@@UAEJUtagVARIANT@@PA_W@Z
	DD	FLAT:?put_accValue@CWnd@@UAEJUtagVARIANT@@PA_W@Z
	DD	FLAT:?SetProxy@CWnd@@UAEJPAUIAccessibleProxy@@@Z
	DD	FLAT:?CreateAccessibleProxy@CWnd@@UAEJIJPAJ@Z
	DD	FLAT:?OnCommand@CWnd@@MAEHIJ@Z
	DD	FLAT:?OnNotify@CWnd@@MAEHIJPAJ@Z
	DD	FLAT:?GetSuperWndProcAddr@CWnd@@MAEPAP6GJPAUHWND__@@IIJ@ZXZ
	DD	FLAT:?DoDataExchange@CWnd@@MAEXPAVCDataExchange@@@Z
	DD	FLAT:?BeginModalState@CWnd@@UAEXXZ
	DD	FLAT:?EndModalState@CWnd@@UAEXXZ
	DD	FLAT:?PreTranslateMessage@CWnd@@UAEHPAUtagMSG@@@Z
	DD	FLAT:?OnAmbientProperty@CWnd@@UAEHPAVCOleControlSite@@JPAUtagVARIANT@@@Z
	DD	FLAT:?WindowProc@CWnd@@MAEJIIJ@Z
	DD	FLAT:?OnWndMsg@CWnd@@MAEHIIJPAJ@Z
	DD	FLAT:?DefWindowProcA@CWnd@@MAEJIIJ@Z
	DD	FLAT:?PostNcDestroy@CWnd@@MAEXXZ
	DD	FLAT:?OnChildNotify@CListCtrl@@MAEHIIJPAJ@Z
	DD	FLAT:?OnTouchInputs@CWnd@@MAEHIPAUtagTOUCHINPUT@@@Z
	DD	FLAT:?OnTouchInput@CWnd@@MAEHVCPoint@@HHPAUtagTOUCHINPUT@@@Z
	DD	FLAT:?GetGestureStatus@CWnd@@MAEKVCPoint@@@Z
	DD	FLAT:?OnGestureZoom@CWnd@@MAEHVCPoint@@J@Z
	DD	FLAT:?OnGesturePan@CWnd@@MAEHVCPoint@@0@Z
	DD	FLAT:?OnGestureRotate@CWnd@@MAEHVCPoint@@N@Z
	DD	FLAT:?OnGestureTwoFingerTap@CWnd@@MAEHVCPoint@@@Z
	DD	FLAT:?OnGesturePressAndTap@CWnd@@MAEHVCPoint@@J@Z
	DD	FLAT:?ResizeDynamicLayout@CWnd@@MAEXXZ
	DD	FLAT:?CheckAutoCenter@CWnd@@UAEHXZ
	DD	FLAT:?IsFrameWnd@CWnd@@UBEHXZ
	DD	FLAT:?CreateControlContainer@CWnd@@MAEHPAPAVCOleControlContainer@@@Z
	DD	FLAT:?CreateControlSite@CWnd@@MAEHPAVCOleControlContainer@@PAPAVCOleControlSite@@IABU_GUID@@@Z
	DD	FLAT:?SetOccDialogInfo@CWnd@@MAEHPAU_AFX_OCC_DIALOG_INFO@@@Z
	DD	FLAT:?GetOccDialogInfo@CWnd@@MAEPAU_AFX_OCC_DIALOG_INFO@@XZ
	DD	FLAT:?DrawItem@CListCtrl@@UAEXPAUtagDRAWITEMSTRUCT@@@Z
CONST	ENDS
;	COMDAT ??_7CComboBox@@6B@
CONST	SEGMENT
??_7CComboBox@@6B@ DD FLAT:??_R4CComboBox@@6B@		; CComboBox::`vftable'
	DD	FLAT:?GetRuntimeClass@CComboBox@@UBEPAUCRuntimeClass@@XZ
	DD	FLAT:??_ECComboBox@@UAEPAXI@Z
	DD	FLAT:?Serialize@CObject@@UAEXAAVCArchive@@@Z
	DD	FLAT:?AssertValid@CObject@@UBEXXZ
	DD	FLAT:?Dump@CObject@@UBEXAAVCDumpContext@@@Z
	DD	FLAT:?OnCmdMsg@CCmdTarget@@UAEHIHPAXPAUAFX_CMDHANDLERINFO@@@Z
	DD	FLAT:?OnFinalRelease@CWnd@@UAEXXZ
	DD	FLAT:?IsInvokeAllowed@CCmdTarget@@UAEHJ@Z
	DD	FLAT:?GetDispatchIID@CCmdTarget@@UAEHPAU_GUID@@@Z
	DD	FLAT:?GetTypeInfoCount@CCmdTarget@@UAEIXZ
	DD	FLAT:?GetTypeLibCache@CCmdTarget@@UAEPAVCTypeLibCache@@XZ
	DD	FLAT:?GetTypeLib@CCmdTarget@@UAEJKPAPAUITypeLib@@@Z
	DD	FLAT:?GetMessageMap@CWnd@@MBEPBUAFX_MSGMAP@@XZ
	DD	FLAT:?GetCommandMap@CCmdTarget@@MBEPBUAFX_OLECMDMAP@@XZ
	DD	FLAT:?GetDispatchMap@CCmdTarget@@MBEPBUAFX_DISPMAP@@XZ
	DD	FLAT:?GetConnectionMap@CCmdTarget@@MBEPBUAFX_CONNECTIONMAP@@XZ
	DD	FLAT:?GetInterfaceMap@CWnd@@MBEPBUAFX_INTERFACEMAP@@XZ
	DD	FLAT:?GetEventSinkMap@CCmdTarget@@MBEPBUAFX_EVENTSINKMAP@@XZ
	DD	FLAT:?OnCreateAggregates@CCmdTarget@@UAEHXZ
	DD	FLAT:?GetInterfaceHook@CCmdTarget@@UAEPAUIUnknown@@PBX@Z
	DD	FLAT:?GetExtraConnectionPoints@CCmdTarget@@MAEHPAVCPtrArray@@@Z
	DD	FLAT:?GetConnectionHook@CCmdTarget@@MAEPAUIConnectionPoint@@ABU_GUID@@@Z
	DD	FLAT:?PreSubclassWindow@CWnd@@UAEXXZ
	DD	FLAT:?Create@CWnd@@UAEHPBD0KABUtagRECT@@PAV1@IPAUCCreateContext@@@Z
	DD	FLAT:?CreateEx@CWnd@@UAEHKPBD0KABUtagRECT@@PAV1@IPAX@Z
	DD	FLAT:?CreateEx@CWnd@@UAEHKPBD0KHHHHPAUHWND__@@PAUHMENU__@@PAX@Z
	DD	FLAT:?DestroyWindow@CWnd@@UAEHXZ
	DD	FLAT:?PreCreateWindow@CWnd@@UAEHAAUtagCREATESTRUCTA@@@Z
	DD	FLAT:?CalcWindowRect@CWnd@@UAEXPAUtagRECT@@I@Z
	DD	FLAT:?GetMenu@CWnd@@UBEPAVCMenu@@XZ
	DD	FLAT:?SetMenu@CWnd@@UAEHPAVCMenu@@@Z
	DD	FLAT:?OnToolHitTest@CWnd@@UBEHVCPoint@@PAUtagTOOLINFOA@@@Z
	DD	FLAT:?GetScrollBarCtrl@CWnd@@UBEPAVCScrollBar@@H@Z
	DD	FLAT:?WinHelpA@CWnd@@UAEXKI@Z
	DD	FLAT:?HtmlHelpA@CWnd@@UAEXKI@Z
	DD	FLAT:?WinHelpInternal@CWnd@@UAEXKI@Z
	DD	FLAT:?ContinueModal@CWnd@@UAEHXZ
	DD	FLAT:?EndModalLoop@CWnd@@UAEXH@Z
	DD	FLAT:?OnDrawIconicThumbnailOrLivePreview@CWnd@@UAEXAAVCDC@@VCRect@@VCSize@@HAAH@Z
	DD	FLAT:?EnsureStdObj@CWnd@@UAEJXZ
	DD	FLAT:?get_accParent@CWnd@@UAEJPAPAUIDispatch@@@Z
	DD	FLAT:?get_accChildCount@CWnd@@UAEJPAJ@Z
	DD	FLAT:?get_accChild@CWnd@@UAEJUtagVARIANT@@PAPAUIDispatch@@@Z
	DD	FLAT:?get_accName@CWnd@@UAEJUtagVARIANT@@PAPA_W@Z
	DD	FLAT:?get_accValue@CWnd@@UAEJUtagVARIANT@@PAPA_W@Z
	DD	FLAT:?get_accDescription@CWnd@@UAEJUtagVARIANT@@PAPA_W@Z
	DD	FLAT:?get_accRole@CWnd@@UAEJUtagVARIANT@@PAU2@@Z
	DD	FLAT:?get_accState@CWnd@@UAEJUtagVARIANT@@PAU2@@Z
	DD	FLAT:?get_accHelp@CWnd@@UAEJUtagVARIANT@@PAPA_W@Z
	DD	FLAT:?get_accHelpTopic@CWnd@@UAEJPAPA_WUtagVARIANT@@PAJ@Z
	DD	FLAT:?get_accKeyboardShortcut@CWnd@@UAEJUtagVARIANT@@PAPA_W@Z
	DD	FLAT:?get_accFocus@CWnd@@UAEJPAUtagVARIANT@@@Z
	DD	FLAT:?get_accSelection@CWnd@@UAEJPAUtagVARIANT@@@Z
	DD	FLAT:?get_accDefaultAction@CWnd@@UAEJUtagVARIANT@@PAPA_W@Z
	DD	FLAT:?accSelect@CWnd@@UAEJJUtagVARIANT@@@Z
	DD	FLAT:?accLocation@CWnd@@UAEJPAJ000UtagVARIANT@@@Z
	DD	FLAT:?accNavigate@CWnd@@UAEJJUtagVARIANT@@PAU2@@Z
	DD	FLAT:?accHitTest@CWnd@@UAEJJJPAUtagVARIANT@@@Z
	DD	FLAT:?accDoDefaultAction@CWnd@@UAEJUtagVARIANT@@@Z
	DD	FLAT:?put_accName@CWnd@@UAEJUtagVARIANT@@PA_W@Z
	DD	FLAT:?put_accValue@CWnd@@UAEJUtagVARIANT@@PA_W@Z
	DD	FLAT:?SetProxy@CWnd@@UAEJPAUIAccessibleProxy@@@Z
	DD	FLAT:?CreateAccessibleProxy@CWnd@@UAEJIJPAJ@Z
	DD	FLAT:?OnCommand@CWnd@@MAEHIJ@Z
	DD	FLAT:?OnNotify@CWnd@@MAEHIJPAJ@Z
	DD	FLAT:?GetSuperWndProcAddr@CWnd@@MAEPAP6GJPAUHWND__@@IIJ@ZXZ
	DD	FLAT:?DoDataExchange@CWnd@@MAEXPAVCDataExchange@@@Z
	DD	FLAT:?BeginModalState@CWnd@@UAEXXZ
	DD	FLAT:?EndModalState@CWnd@@UAEXXZ
	DD	FLAT:?PreTranslateMessage@CWnd@@UAEHPAUtagMSG@@@Z
	DD	FLAT:?OnAmbientProperty@CWnd@@UAEHPAVCOleControlSite@@JPAUtagVARIANT@@@Z
	DD	FLAT:?WindowProc@CWnd@@MAEJIIJ@Z
	DD	FLAT:?OnWndMsg@CWnd@@MAEHIIJPAJ@Z
	DD	FLAT:?DefWindowProcA@CWnd@@MAEJIIJ@Z
	DD	FLAT:?PostNcDestroy@CWnd@@MAEXXZ
	DD	FLAT:?OnChildNotify@CComboBox@@MAEHIIJPAJ@Z
	DD	FLAT:?OnTouchInputs@CWnd@@MAEHIPAUtagTOUCHINPUT@@@Z
	DD	FLAT:?OnTouchInput@CWnd@@MAEHVCPoint@@HHPAUtagTOUCHINPUT@@@Z
	DD	FLAT:?GetGestureStatus@CWnd@@MAEKVCPoint@@@Z
	DD	FLAT:?OnGestureZoom@CWnd@@MAEHVCPoint@@J@Z
	DD	FLAT:?OnGesturePan@CWnd@@MAEHVCPoint@@0@Z
	DD	FLAT:?OnGestureRotate@CWnd@@MAEHVCPoint@@N@Z
	DD	FLAT:?OnGestureTwoFingerTap@CWnd@@MAEHVCPoint@@@Z
	DD	FLAT:?OnGesturePressAndTap@CWnd@@MAEHVCPoint@@J@Z
	DD	FLAT:?ResizeDynamicLayout@CWnd@@MAEXXZ
	DD	FLAT:?CheckAutoCenter@CWnd@@UAEHXZ
	DD	FLAT:?IsFrameWnd@CWnd@@UBEHXZ
	DD	FLAT:?CreateControlContainer@CWnd@@MAEHPAPAVCOleControlContainer@@@Z
	DD	FLAT:?CreateControlSite@CWnd@@MAEHPAVCOleControlContainer@@PAPAVCOleControlSite@@IABU_GUID@@@Z
	DD	FLAT:?SetOccDialogInfo@CWnd@@MAEHPAU_AFX_OCC_DIALOG_INFO@@@Z
	DD	FLAT:?GetOccDialogInfo@CWnd@@MAEPAU_AFX_OCC_DIALOG_INFO@@XZ
	DD	FLAT:?Create@CComboBox@@UAEHKABUtagRECT@@PAVCWnd@@I@Z
	DD	FLAT:?DrawItem@CComboBox@@UAEXPAUtagDRAWITEMSTRUCT@@@Z
	DD	FLAT:?MeasureItem@CComboBox@@UAEXPAUtagMEASUREITEMSTRUCT@@@Z
	DD	FLAT:?CompareItem@CComboBox@@UAEHPAUtagCOMPAREITEMSTRUCT@@@Z
	DD	FLAT:?DeleteItem@CComboBox@@UAEXPAUtagDELETEITEMSTRUCT@@@Z
CONST	ENDS
;	COMDAT ??_7CListBox@@6B@
CONST	SEGMENT
??_7CListBox@@6B@ DD FLAT:??_R4CListBox@@6B@		; CListBox::`vftable'
	DD	FLAT:?GetRuntimeClass@CListBox@@UBEPAUCRuntimeClass@@XZ
	DD	FLAT:??_ECListBox@@UAEPAXI@Z
	DD	FLAT:?Serialize@CObject@@UAEXAAVCArchive@@@Z
	DD	FLAT:?AssertValid@CObject@@UBEXXZ
	DD	FLAT:?Dump@CObject@@UBEXAAVCDumpContext@@@Z
	DD	FLAT:?OnCmdMsg@CCmdTarget@@UAEHIHPAXPAUAFX_CMDHANDLERINFO@@@Z
	DD	FLAT:?OnFinalRelease@CWnd@@UAEXXZ
	DD	FLAT:?IsInvokeAllowed@CCmdTarget@@UAEHJ@Z
	DD	FLAT:?GetDispatchIID@CCmdTarget@@UAEHPAU_GUID@@@Z
	DD	FLAT:?GetTypeInfoCount@CCmdTarget@@UAEIXZ
	DD	FLAT:?GetTypeLibCache@CCmdTarget@@UAEPAVCTypeLibCache@@XZ
	DD	FLAT:?GetTypeLib@CCmdTarget@@UAEJKPAPAUITypeLib@@@Z
	DD	FLAT:?GetMessageMap@CWnd@@MBEPBUAFX_MSGMAP@@XZ
	DD	FLAT:?GetCommandMap@CCmdTarget@@MBEPBUAFX_OLECMDMAP@@XZ
	DD	FLAT:?GetDispatchMap@CCmdTarget@@MBEPBUAFX_DISPMAP@@XZ
	DD	FLAT:?GetConnectionMap@CCmdTarget@@MBEPBUAFX_CONNECTIONMAP@@XZ
	DD	FLAT:?GetInterfaceMap@CWnd@@MBEPBUAFX_INTERFACEMAP@@XZ
	DD	FLAT:?GetEventSinkMap@CCmdTarget@@MBEPBUAFX_EVENTSINKMAP@@XZ
	DD	FLAT:?OnCreateAggregates@CCmdTarget@@UAEHXZ
	DD	FLAT:?GetInterfaceHook@CCmdTarget@@UAEPAUIUnknown@@PBX@Z
	DD	FLAT:?GetExtraConnectionPoints@CCmdTarget@@MAEHPAVCPtrArray@@@Z
	DD	FLAT:?GetConnectionHook@CCmdTarget@@MAEPAUIConnectionPoint@@ABU_GUID@@@Z
	DD	FLAT:?PreSubclassWindow@CWnd@@UAEXXZ
	DD	FLAT:?Create@CWnd@@UAEHPBD0KABUtagRECT@@PAV1@IPAUCCreateContext@@@Z
	DD	FLAT:?CreateEx@CWnd@@UAEHKPBD0KABUtagRECT@@PAV1@IPAX@Z
	DD	FLAT:?CreateEx@CWnd@@UAEHKPBD0KHHHHPAUHWND__@@PAUHMENU__@@PAX@Z
	DD	FLAT:?DestroyWindow@CWnd@@UAEHXZ
	DD	FLAT:?PreCreateWindow@CWnd@@UAEHAAUtagCREATESTRUCTA@@@Z
	DD	FLAT:?CalcWindowRect@CWnd@@UAEXPAUtagRECT@@I@Z
	DD	FLAT:?GetMenu@CWnd@@UBEPAVCMenu@@XZ
	DD	FLAT:?SetMenu@CWnd@@UAEHPAVCMenu@@@Z
	DD	FLAT:?OnToolHitTest@CWnd@@UBEHVCPoint@@PAUtagTOOLINFOA@@@Z
	DD	FLAT:?GetScrollBarCtrl@CWnd@@UBEPAVCScrollBar@@H@Z
	DD	FLAT:?WinHelpA@CWnd@@UAEXKI@Z
	DD	FLAT:?HtmlHelpA@CWnd@@UAEXKI@Z
	DD	FLAT:?WinHelpInternal@CWnd@@UAEXKI@Z
	DD	FLAT:?ContinueModal@CWnd@@UAEHXZ
	DD	FLAT:?EndModalLoop@CWnd@@UAEXH@Z
	DD	FLAT:?OnDrawIconicThumbnailOrLivePreview@CWnd@@UAEXAAVCDC@@VCRect@@VCSize@@HAAH@Z
	DD	FLAT:?EnsureStdObj@CWnd@@UAEJXZ
	DD	FLAT:?get_accParent@CWnd@@UAEJPAPAUIDispatch@@@Z
	DD	FLAT:?get_accChildCount@CWnd@@UAEJPAJ@Z
	DD	FLAT:?get_accChild@CWnd@@UAEJUtagVARIANT@@PAPAUIDispatch@@@Z
	DD	FLAT:?get_accName@CWnd@@UAEJUtagVARIANT@@PAPA_W@Z
	DD	FLAT:?get_accValue@CWnd@@UAEJUtagVARIANT@@PAPA_W@Z
	DD	FLAT:?get_accDescription@CWnd@@UAEJUtagVARIANT@@PAPA_W@Z
	DD	FLAT:?get_accRole@CWnd@@UAEJUtagVARIANT@@PAU2@@Z
	DD	FLAT:?get_accState@CWnd@@UAEJUtagVARIANT@@PAU2@@Z
	DD	FLAT:?get_accHelp@CWnd@@UAEJUtagVARIANT@@PAPA_W@Z
	DD	FLAT:?get_accHelpTopic@CWnd@@UAEJPAPA_WUtagVARIANT@@PAJ@Z
	DD	FLAT:?get_accKeyboardShortcut@CWnd@@UAEJUtagVARIANT@@PAPA_W@Z
	DD	FLAT:?get_accFocus@CWnd@@UAEJPAUtagVARIANT@@@Z
	DD	FLAT:?get_accSelection@CWnd@@UAEJPAUtagVARIANT@@@Z
	DD	FLAT:?get_accDefaultAction@CWnd@@UAEJUtagVARIANT@@PAPA_W@Z
	DD	FLAT:?accSelect@CWnd@@UAEJJUtagVARIANT@@@Z
	DD	FLAT:?accLocation@CWnd@@UAEJPAJ000UtagVARIANT@@@Z
	DD	FLAT:?accNavigate@CWnd@@UAEJJUtagVARIANT@@PAU2@@Z
	DD	FLAT:?accHitTest@CWnd@@UAEJJJPAUtagVARIANT@@@Z
	DD	FLAT:?accDoDefaultAction@CWnd@@UAEJUtagVARIANT@@@Z
	DD	FLAT:?put_accName@CWnd@@UAEJUtagVARIANT@@PA_W@Z
	DD	FLAT:?put_accValue@CWnd@@UAEJUtagVARIANT@@PA_W@Z
	DD	FLAT:?SetProxy@CWnd@@UAEJPAUIAccessibleProxy@@@Z
	DD	FLAT:?CreateAccessibleProxy@CWnd@@UAEJIJPAJ@Z
	DD	FLAT:?OnCommand@CWnd@@MAEHIJ@Z
	DD	FLAT:?OnNotify@CWnd@@MAEHIJPAJ@Z
	DD	FLAT:?GetSuperWndProcAddr@CWnd@@MAEPAP6GJPAUHWND__@@IIJ@ZXZ
	DD	FLAT:?DoDataExchange@CWnd@@MAEXPAVCDataExchange@@@Z
	DD	FLAT:?BeginModalState@CWnd@@UAEXXZ
	DD	FLAT:?EndModalState@CWnd@@UAEXXZ
	DD	FLAT:?PreTranslateMessage@CWnd@@UAEHPAUtagMSG@@@Z
	DD	FLAT:?OnAmbientProperty@CWnd@@UAEHPAVCOleControlSite@@JPAUtagVARIANT@@@Z
	DD	FLAT:?WindowProc@CWnd@@MAEJIIJ@Z
	DD	FLAT:?OnWndMsg@CWnd@@MAEHIIJPAJ@Z
	DD	FLAT:?DefWindowProcA@CWnd@@MAEJIIJ@Z
	DD	FLAT:?PostNcDestroy@CWnd@@MAEXXZ
	DD	FLAT:?OnChildNotify@CListBox@@MAEHIIJPAJ@Z
	DD	FLAT:?OnTouchInputs@CWnd@@MAEHIPAUtagTOUCHINPUT@@@Z
	DD	FLAT:?OnTouchInput@CWnd@@MAEHVCPoint@@HHPAUtagTOUCHINPUT@@@Z
	DD	FLAT:?GetGestureStatus@CWnd@@MAEKVCPoint@@@Z
	DD	FLAT:?OnGestureZoom@CWnd@@MAEHVCPoint@@J@Z
	DD	FLAT:?OnGesturePan@CWnd@@MAEHVCPoint@@0@Z
	DD	FLAT:?OnGestureRotate@CWnd@@MAEHVCPoint@@N@Z
	DD	FLAT:?OnGestureTwoFingerTap@CWnd@@MAEHVCPoint@@@Z
	DD	FLAT:?OnGesturePressAndTap@CWnd@@MAEHVCPoint@@J@Z
	DD	FLAT:?ResizeDynamicLayout@CWnd@@MAEXXZ
	DD	FLAT:?CheckAutoCenter@CWnd@@UAEHXZ
	DD	FLAT:?IsFrameWnd@CWnd@@UBEHXZ
	DD	FLAT:?CreateControlContainer@CWnd@@MAEHPAPAVCOleControlContainer@@@Z
	DD	FLAT:?CreateControlSite@CWnd@@MAEHPAVCOleControlContainer@@PAPAVCOleControlSite@@IABU_GUID@@@Z
	DD	FLAT:?SetOccDialogInfo@CWnd@@MAEHPAU_AFX_OCC_DIALOG_INFO@@@Z
	DD	FLAT:?GetOccDialogInfo@CWnd@@MAEPAU_AFX_OCC_DIALOG_INFO@@XZ
	DD	FLAT:?Create@CListBox@@UAEHKABUtagRECT@@PAVCWnd@@I@Z
	DD	FLAT:?DrawItem@CListBox@@UAEXPAUtagDRAWITEMSTRUCT@@@Z
	DD	FLAT:?MeasureItem@CListBox@@UAEXPAUtagMEASUREITEMSTRUCT@@@Z
	DD	FLAT:?CompareItem@CListBox@@UAEHPAUtagCOMPAREITEMSTRUCT@@@Z
	DD	FLAT:?DeleteItem@CListBox@@UAEXPAUtagDELETEITEMSTRUCT@@@Z
	DD	FLAT:?VKeyToItem@CListBox@@UAEHII@Z
	DD	FLAT:?CharToItem@CListBox@@UAEHII@Z
CONST	ENDS
;	COMDAT ??_C@_00CNPNBAHC@@
CONST	SEGMENT
??_C@_00CNPNBAHC@@ DB 00H				; `string'
CONST	ENDS
;	COMDAT xdata$x
xdata$x	SEGMENT
__unwindtable$??_GCDlgCompSetup@@UAEPAXI@Z DD 0ffffffffH
	DD	FLAT:___std_terminate
	DD	00H
	DD	FLAT:___std_terminate
	DD	0ffffffffH
	DD	FLAT:___std_terminate
__ehfuncinfo$??_GCDlgCompSetup@@UAEPAXI@Z DD 019930522H
	DD	03H
	DD	FLAT:__unwindtable$??_GCDlgCompSetup@@UAEPAXI@Z
	DD	2 DUP(00H)
	DD	2 DUP(00H)
	DD	00H
	DD	05H
xdata$x	ENDS
;	COMDAT xdata$x
xdata$x	SEGMENT
__unwindtable$??1CDlgCompSetup@@UAE@XZ DD 0ffffffffH
	DD	FLAT:___std_terminate
	DD	00H
	DD	FLAT:___std_terminate
	DD	0ffffffffH
	DD	FLAT:___std_terminate
__ehfuncinfo$??1CDlgCompSetup@@UAE@XZ DD 019930522H
	DD	03H
	DD	FLAT:__unwindtable$??1CDlgCompSetup@@UAE@XZ
	DD	2 DUP(00H)
	DD	2 DUP(00H)
	DD	00H
	DD	05H
xdata$x	ENDS
;	COMDAT xdata$x
xdata$x	SEGMENT
__unwindtable$?DoFindEdtName@CDlgCompSetup@@IAEXPBD@Z DD 0ffffffffH
	DD	FLAT:__unwindfunclet$?DoFindEdtName@CDlgCompSetup@@IAEXPBD@Z$0
	DD	00H
	DD	FLAT:__unwindfunclet$?DoFindEdtName@CDlgCompSetup@@IAEXPBD@Z$1
	DD	01H
	DD	FLAT:__unwindfunclet$?DoFindEdtName@CDlgCompSetup@@IAEXPBD@Z$2
__ehfuncinfo$?DoFindEdtName@CDlgCompSetup@@IAEXPBD@Z DD 019930522H
	DD	03H
	DD	FLAT:__unwindtable$?DoFindEdtName@CDlgCompSetup@@IAEXPBD@Z
	DD	2 DUP(00H)
	DD	2 DUP(00H)
	DD	00H
	DD	01H
xdata$x	ENDS
;	COMDAT xdata$x
xdata$x	SEGMENT
__unwindtable$?DoFindEdtCode@CDlgCompSetup@@IAEXXZ DD 0ffffffffH
	DD	FLAT:__unwindfunclet$?DoFindEdtCode@CDlgCompSetup@@IAEXXZ$0
	DD	00H
	DD	FLAT:__unwindfunclet$?DoFindEdtCode@CDlgCompSetup@@IAEXXZ$1
	DD	01H
	DD	FLAT:__unwindfunclet$?DoFindEdtCode@CDlgCompSetup@@IAEXXZ$2
__ehfuncinfo$?DoFindEdtCode@CDlgCompSetup@@IAEXXZ DD 019930522H
	DD	03H
	DD	FLAT:__unwindtable$?DoFindEdtCode@CDlgCompSetup@@IAEXXZ
	DD	2 DUP(00H)
	DD	2 DUP(00H)
	DD	00H
	DD	01H
xdata$x	ENDS
;	COMDAT xdata$x
xdata$x	SEGMENT
__unwindtable$?InsertGridData@CDlgCompSetup@@IAEXXZ DD 0ffffffffH
	DD	FLAT:__unwindfunclet$?InsertGridData@CDlgCompSetup@@IAEXXZ$0
	DD	00H
	DD	FLAT:__unwindfunclet$?InsertGridData@CDlgCompSetup@@IAEXXZ$1
__ehfuncinfo$?InsertGridData@CDlgCompSetup@@IAEXXZ DD 019930522H
	DD	02H
	DD	FLAT:__unwindtable$?InsertGridData@CDlgCompSetup@@IAEXXZ
	DD	2 DUP(00H)
	DD	2 DUP(00H)
	DD	00H
	DD	01H
xdata$x	ENDS
;	COMDAT xdata$x
xdata$x	SEGMENT
__catchsym$?InitGridRowCol@CDlgCompSetup@@IAEXH@Z$2 DD 00H
	DD	FLAT:??_R0PAVCMemoryException@@@8
	DD	0ffffffecH
	DD	FLAT:__catch$?InitGridRowCol@CDlgCompSetup@@IAEXH@Z$0
__unwindtable$?InitGridRowCol@CDlgCompSetup@@IAEXH@Z DD 0ffffffffH
	DD	00H
	DD	0ffffffffH
	DD	00H
__tryblocktable$?InitGridRowCol@CDlgCompSetup@@IAEXH@Z DD 00H
	DD	00H
	DD	01H
	DD	01H
	DD	FLAT:__catchsym$?InitGridRowCol@CDlgCompSetup@@IAEXH@Z$2
__ehfuncinfo$?InitGridRowCol@CDlgCompSetup@@IAEXH@Z DD 019930522H
	DD	02H
	DD	FLAT:__unwindtable$?InitGridRowCol@CDlgCompSetup@@IAEXH@Z
	DD	01H
	DD	FLAT:__tryblocktable$?InitGridRowCol@CDlgCompSetup@@IAEXH@Z
	DD	2 DUP(00H)
	DD	00H
	DD	01H
xdata$x	ENDS
;	COMDAT xdata$x
xdata$x	SEGMENT
__unwindtable$?InitGrid@CDlgCompSetup@@IAEXXZ DD 0ffffffffH
	DD	FLAT:__unwindfunclet$?InitGrid@CDlgCompSetup@@IAEXXZ$0
	DD	00H
	DD	FLAT:__unwindfunclet$?InitGrid@CDlgCompSetup@@IAEXXZ$1
	DD	00H
	DD	FLAT:__unwindfunclet$?InitGrid@CDlgCompSetup@@IAEXXZ$3
	DD	02H
	DD	FLAT:__unwindfunclet$?InitGrid@CDlgCompSetup@@IAEXXZ$4
__ehfuncinfo$?InitGrid@CDlgCompSetup@@IAEXXZ DD 019930522H
	DD	04H
	DD	FLAT:__unwindtable$?InitGrid@CDlgCompSetup@@IAEXXZ
	DD	2 DUP(00H)
	DD	2 DUP(00H)
	DD	00H
	DD	01H
xdata$x	ENDS
;	COMDAT xdata$x
xdata$x	SEGMENT
__unwindtable$?SetMasterData@CDlgCompSetup@@IAEXPAV?$CList@VCCodeTypeA@@V1@@@@Z DD 0ffffffffH
	DD	FLAT:__unwindfunclet$?SetMasterData@CDlgCompSetup@@IAEXPAV?$CList@VCCodeTypeA@@V1@@@@Z$0
	DD	00H
	DD	FLAT:__unwindfunclet$?SetMasterData@CDlgCompSetup@@IAEXPAV?$CList@VCCodeTypeA@@V1@@@@Z$1
	DD	01H
	DD	FLAT:__unwindfunclet$?SetMasterData@CDlgCompSetup@@IAEXPAV?$CList@VCCodeTypeA@@V1@@@@Z$2
	DD	02H
	DD	FLAT:__unwindfunclet$?SetMasterData@CDlgCompSetup@@IAEXPAV?$CList@VCCodeTypeA@@V1@@@@Z$3
__ehfuncinfo$?SetMasterData@CDlgCompSetup@@IAEXPAV?$CList@VCCodeTypeA@@V1@@@@Z DD 019930522H
	DD	04H
	DD	FLAT:__unwindtable$?SetMasterData@CDlgCompSetup@@IAEXPAV?$CList@VCCodeTypeA@@V1@@@@Z
	DD	2 DUP(00H)
	DD	2 DUP(00H)
	DD	00H
	DD	01H
xdata$x	ENDS
;	COMDAT xdata$x
xdata$x	SEGMENT
__unwindtable$?ChangeListOrGridCtrl@CDlgCompSetup@@IAEXV?$CStringT@DV?$StrTraitMFC_DLL@DV?$ChTraitsCRT@D@ATL@@@@@ATL@@@Z DD 0ffffffffH
	DD	FLAT:__unwindfunclet$?ChangeListOrGridCtrl@CDlgCompSetup@@IAEXV?$CStringT@DV?$StrTraitMFC_DLL@DV?$ChTraitsCRT@D@ATL@@@@@ATL@@@Z$0
__ehfuncinfo$?ChangeListOrGridCtrl@CDlgCompSetup@@IAEXV?$CStringT@DV?$StrTraitMFC_DLL@DV?$ChTraitsCRT@D@ATL@@@@@ATL@@@Z DD 019930522H
	DD	01H
	DD	FLAT:__unwindtable$?ChangeListOrGridCtrl@CDlgCompSetup@@IAEXV?$CStringT@DV?$StrTraitMFC_DLL@DV?$ChTraitsCRT@D@ATL@@@@@ATL@@@Z
	DD	2 DUP(00H)
	DD	2 DUP(00H)
	DD	00H
	DD	01H
xdata$x	ENDS
;	COMDAT xdata$x
xdata$x	SEGMENT
__unwindtable$?fnInitSelctGroup@CDlgCompSetup@@IAEXPBD@Z DD 0ffffffffH
	DD	FLAT:__unwindfunclet$?fnInitSelctGroup@CDlgCompSetup@@IAEXPBD@Z$0
__ehfuncinfo$?fnInitSelctGroup@CDlgCompSetup@@IAEXPBD@Z DD 019930522H
	DD	01H
	DD	FLAT:__unwindtable$?fnInitSelctGroup@CDlgCompSetup@@IAEXPBD@Z
	DD	2 DUP(00H)
	DD	2 DUP(00H)
	DD	00H
	DD	01H
xdata$x	ENDS
;	COMDAT xdata$x
xdata$x	SEGMENT
__unwindtable$?DoGridAddToItem@CDlgCompSetup@@IAEXPBD0@Z DD 0ffffffffH
	DD	FLAT:__unwindfunclet$?DoGridAddToItem@CDlgCompSetup@@IAEXPBD0@Z$0
	DD	0ffffffffH
	DD	FLAT:__unwindfunclet$?DoGridAddToItem@CDlgCompSetup@@IAEXPBD0@Z$1
	DD	01H
	DD	FLAT:__unwindfunclet$?DoGridAddToItem@CDlgCompSetup@@IAEXPBD0@Z$2
__ehfuncinfo$?DoGridAddToItem@CDlgCompSetup@@IAEXPBD0@Z DD 019930522H
	DD	03H
	DD	FLAT:__unwindtable$?DoGridAddToItem@CDlgCompSetup@@IAEXPBD0@Z
	DD	2 DUP(00H)
	DD	2 DUP(00H)
	DD	00H
	DD	01H
xdata$x	ENDS
;	COMDAT xdata$x
xdata$x	SEGMENT
__ehfuncinfo$?DoAddToItem@CDlgCompSetup@@IAEXH@Z DD 019930522H
	DD	05H
	DD	FLAT:__unwindtable$?DoAddToItem@CDlgCompSetup@@IAEXH@Z
	DD	2 DUP(00H)
	DD	2 DUP(00H)
	DD	00H
	DD	01H
__unwindtable$?DoAddToItem@CDlgCompSetup@@IAEXH@Z DD 0ffffffffH
	DD	FLAT:__unwindfunclet$?DoAddToItem@CDlgCompSetup@@IAEXH@Z$0
	DD	00H
	DD	FLAT:__unwindfunclet$?DoAddToItem@CDlgCompSetup@@IAEXH@Z$1
	DD	01H
	DD	FLAT:__unwindfunclet$?DoAddToItem@CDlgCompSetup@@IAEXH@Z$2
	DD	01H
	DD	FLAT:__unwindfunclet$?DoAddToItem@CDlgCompSetup@@IAEXH@Z$3
	DD	01H
	DD	FLAT:__unwindfunclet$?DoAddToItem@CDlgCompSetup@@IAEXH@Z$4
xdata$x	ENDS
;	COMDAT xdata$x
xdata$x	SEGMENT
__unwindtable$?fnTreeLoad@CDlgCompSetup@@IAEXXZ DD 0ffffffffH
	DD	FLAT:__unwindfunclet$?fnTreeLoad@CDlgCompSetup@@IAEXXZ$2
	DD	00H
	DD	FLAT:__unwindfunclet$?fnTreeLoad@CDlgCompSetup@@IAEXXZ$3
	DD	0ffffffffH
	DD	FLAT:__unwindfunclet$?fnTreeLoad@CDlgCompSetup@@IAEXXZ$0
__ehfuncinfo$?fnTreeLoad@CDlgCompSetup@@IAEXXZ DD 019930522H
	DD	03H
	DD	FLAT:__unwindtable$?fnTreeLoad@CDlgCompSetup@@IAEXXZ
	DD	2 DUP(00H)
	DD	2 DUP(00H)
	DD	00H
	DD	01H
xdata$x	ENDS
;	COMDAT xdata$x
xdata$x	SEGMENT
__unwindtable$?fnCheckNoGroup@CDlgCompSetup@@IAEXXZ DD 0ffffffffH
	DD	FLAT:__unwindfunclet$?fnCheckNoGroup@CDlgCompSetup@@IAEXXZ$0
__ehfuncinfo$?fnCheckNoGroup@CDlgCompSetup@@IAEXXZ DD 019930522H
	DD	01H
	DD	FLAT:__unwindtable$?fnCheckNoGroup@CDlgCompSetup@@IAEXXZ
	DD	2 DUP(00H)
	DD	2 DUP(00H)
	DD	00H
	DD	01H
xdata$x	ENDS
;	COMDAT xdata$x
xdata$x	SEGMENT
__unwindtable$?OnSelchangeCmbsel@CDlgCompSetup@@IAEXXZ DD 0ffffffffH
	DD	FLAT:__unwindfunclet$?OnSelchangeCmbsel@CDlgCompSetup@@IAEXXZ$0
__ehfuncinfo$?OnSelchangeCmbsel@CDlgCompSetup@@IAEXXZ DD 019930522H
	DD	01H
	DD	FLAT:__unwindtable$?OnSelchangeCmbsel@CDlgCompSetup@@IAEXXZ
	DD	2 DUP(00H)
	DD	2 DUP(00H)
	DD	00H
	DD	01H
xdata$x	ENDS
;	COMDAT xdata$x
xdata$x	SEGMENT
__unwindtable$?OnBtnright@CDlgCompSetup@@IAEXXZ DD 0ffffffffH
	DD	FLAT:__unwindfunclet$?OnBtnright@CDlgCompSetup@@IAEXXZ$0
__ehfuncinfo$?OnBtnright@CDlgCompSetup@@IAEXXZ DD 019930522H
	DD	01H
	DD	FLAT:__unwindtable$?OnBtnright@CDlgCompSetup@@IAEXXZ
	DD	2 DUP(00H)
	DD	2 DUP(00H)
	DD	00H
	DD	01H
xdata$x	ENDS
;	COMDAT xdata$x
xdata$x	SEGMENT
__unwindtable$?OnBtnleft@CDlgCompSetup@@IAEXXZ DD 0ffffffffH
	DD	FLAT:__unwindfunclet$?OnBtnleft@CDlgCompSetup@@IAEXXZ$0
__ehfuncinfo$?OnBtnleft@CDlgCompSetup@@IAEXXZ DD 019930522H
	DD	01H
	DD	FLAT:__unwindtable$?OnBtnleft@CDlgCompSetup@@IAEXXZ
	DD	2 DUP(00H)
	DD	2 DUP(00H)
	DD	00H
	DD	01H
xdata$x	ENDS
;	COMDAT xdata$x
xdata$x	SEGMENT
__unwindtable$?OnBtngrpchange@CDlgCompSetup@@IAEXXZ DD 0ffffffffH
	DD	FLAT:__unwindfunclet$?OnBtngrpchange@CDlgCompSetup@@IAEXXZ$0
	DD	00H
	DD	FLAT:__unwindfunclet$?OnBtngrpchange@CDlgCompSetup@@IAEXXZ$1
__ehfuncinfo$?OnBtngrpchange@CDlgCompSetup@@IAEXXZ DD 019930522H
	DD	02H
	DD	FLAT:__unwindtable$?OnBtngrpchange@CDlgCompSetup@@IAEXXZ
	DD	2 DUP(00H)
	DD	2 DUP(00H)
	DD	00H
	DD	01H
xdata$x	ENDS
;	COMDAT xdata$x
xdata$x	SEGMENT
__unwindtable$?OnBtngrpdel@CDlgCompSetup@@IAEXXZ DD 0ffffffffH
	DD	FLAT:__unwindfunclet$?OnBtngrpdel@CDlgCompSetup@@IAEXXZ$0
	DD	00H
	DD	FLAT:__unwindfunclet$?OnBtngrpdel@CDlgCompSetup@@IAEXXZ$1
__ehfuncinfo$?OnBtngrpdel@CDlgCompSetup@@IAEXXZ DD 019930522H
	DD	02H
	DD	FLAT:__unwindtable$?OnBtngrpdel@CDlgCompSetup@@IAEXXZ
	DD	2 DUP(00H)
	DD	2 DUP(00H)
	DD	00H
	DD	01H
xdata$x	ENDS
;	COMDAT xdata$x
xdata$x	SEGMENT
__unwindtable$?OnBtngrpnew@CDlgCompSetup@@IAEXXZ DD 0ffffffffH
	DD	FLAT:__unwindfunclet$?OnBtngrpnew@CDlgCompSetup@@IAEXXZ$0
	DD	00H
	DD	FLAT:__unwindfunclet$?OnBtngrpnew@CDlgCompSetup@@IAEXXZ$1
__ehfuncinfo$?OnBtngrpnew@CDlgCompSetup@@IAEXXZ DD 019930522H
	DD	02H
	DD	FLAT:__unwindtable$?OnBtngrpnew@CDlgCompSetup@@IAEXXZ
	DD	2 DUP(00H)
	DD	2 DUP(00H)
	DD	00H
	DD	01H
xdata$x	ENDS
;	COMDAT xdata$x
xdata$x	SEGMENT
__ehfuncinfo$?OnInitDialog@CDlgCompSetup@@MAEHXZ DD 019930522H
	DD	05H
	DD	FLAT:__unwindtable$?OnInitDialog@CDlgCompSetup@@MAEHXZ
	DD	2 DUP(00H)
	DD	2 DUP(00H)
	DD	00H
	DD	01H
__unwindtable$?OnInitDialog@CDlgCompSetup@@MAEHXZ DD 0ffffffffH
	DD	FLAT:__unwindfunclet$?OnInitDialog@CDlgCompSetup@@MAEHXZ$2
	DD	00H
	DD	FLAT:__unwindfunclet$?OnInitDialog@CDlgCompSetup@@MAEHXZ$3
	DD	0ffffffffH
	DD	FLAT:__unwindfunclet$?OnInitDialog@CDlgCompSetup@@MAEHXZ$0
	DD	0ffffffffH
	DD	FLAT:__unwindfunclet$?OnInitDialog@CDlgCompSetup@@MAEHXZ$6
	DD	0ffffffffH
	DD	FLAT:__unwindfunclet$?OnInitDialog@CDlgCompSetup@@MAEHXZ$8
xdata$x	ENDS
;	COMDAT xdata$x
xdata$x	SEGMENT
__unwindtable$?fnCheckCode@CDlgCompSetup@@IAEHPBD0@Z DD 0ffffffffH
	DD	FLAT:__unwindfunclet$?fnCheckCode@CDlgCompSetup@@IAEHPBD0@Z$0
	DD	00H
	DD	FLAT:__unwindfunclet$?fnCheckCode@CDlgCompSetup@@IAEHPBD0@Z$1
__ehfuncinfo$?fnCheckCode@CDlgCompSetup@@IAEHPBD0@Z DD 019930522H
	DD	02H
	DD	FLAT:__unwindtable$?fnCheckCode@CDlgCompSetup@@IAEHPBD0@Z
	DD	2 DUP(00H)
	DD	2 DUP(00H)
	DD	00H
	DD	01H
xdata$x	ENDS
;	COMDAT xdata$x
xdata$x	SEGMENT
__unwindtable$?PreTranslateMessage@CDlgCompSetup@@MAEHPAUtagMSG@@@Z DD 0ffffffffH
	DD	FLAT:__unwindfunclet$?PreTranslateMessage@CDlgCompSetup@@MAEHPAUtagMSG@@@Z$0
	DD	00H
	DD	FLAT:__unwindfunclet$?PreTranslateMessage@CDlgCompSetup@@MAEHPAUtagMSG@@@Z$1
	DD	01H
	DD	FLAT:__unwindfunclet$?PreTranslateMessage@CDlgCompSetup@@MAEHPAUtagMSG@@@Z$2
__ehfuncinfo$?PreTranslateMessage@CDlgCompSetup@@MAEHPAUtagMSG@@@Z DD 019930522H
	DD	03H
	DD	FLAT:__unwindtable$?PreTranslateMessage@CDlgCompSetup@@MAEHPAUtagMSG@@@Z
	DD	2 DUP(00H)
	DD	2 DUP(00H)
	DD	00H
	DD	01H
xdata$x	ENDS
;	COMDAT xdata$x
xdata$x	SEGMENT
__ehfuncinfo$?WindowProc@CDlgCompSetup@@MAEJIIJ@Z DD 019930522H
	DD	06H
	DD	FLAT:__unwindtable$?WindowProc@CDlgCompSetup@@MAEJIIJ@Z
	DD	2 DUP(00H)
	DD	2 DUP(00H)
	DD	00H
	DD	01H
__unwindtable$?WindowProc@CDlgCompSetup@@MAEJIIJ@Z DD 0ffffffffH
	DD	FLAT:__unwindfunclet$?WindowProc@CDlgCompSetup@@MAEJIIJ@Z$0
	DD	00H
	DD	FLAT:__unwindfunclet$?WindowProc@CDlgCompSetup@@MAEJIIJ@Z$1
	DD	00H
	DD	FLAT:__unwindfunclet$?WindowProc@CDlgCompSetup@@MAEJIIJ@Z$2
	DD	0ffffffffH
	DD	FLAT:__unwindfunclet$?WindowProc@CDlgCompSetup@@MAEJIIJ@Z$3
	DD	03H
	DD	FLAT:__unwindfunclet$?WindowProc@CDlgCompSetup@@MAEJIIJ@Z$4
	DD	03H
	DD	FLAT:__unwindfunclet$?WindowProc@CDlgCompSetup@@MAEJIIJ@Z$5
xdata$x	ENDS
;	COMDAT xdata$x
xdata$x	SEGMENT
__ehfuncinfo$??0CDlgCompSetup@@QAE@PAVCWnd@@@Z DD 019930522H
	DD	0cH
	DD	FLAT:__unwindtable$??0CDlgCompSetup@@QAE@PAVCWnd@@@Z
	DD	2 DUP(00H)
	DD	2 DUP(00H)
	DD	00H
	DD	01H
__unwindtable$??0CDlgCompSetup@@QAE@PAVCWnd@@@Z DD 0ffffffffH
	DD	FLAT:__unwindfunclet$??0CDlgCompSetup@@QAE@PAVCWnd@@@Z$0
	DD	00H
	DD	FLAT:__unwindfunclet$??0CDlgCompSetup@@QAE@PAVCWnd@@@Z$1
	DD	01H
	DD	FLAT:__unwindfunclet$??0CDlgCompSetup@@QAE@PAVCWnd@@@Z$2
	DD	02H
	DD	FLAT:__unwindfunclet$??0CDlgCompSetup@@QAE@PAVCWnd@@@Z$3
	DD	03H
	DD	FLAT:__unwindfunclet$??0CDlgCompSetup@@QAE@PAVCWnd@@@Z$4
	DD	04H
	DD	FLAT:__unwindfunclet$??0CDlgCompSetup@@QAE@PAVCWnd@@@Z$5
	DD	05H
	DD	FLAT:__unwindfunclet$??0CDlgCompSetup@@QAE@PAVCWnd@@@Z$6
	DD	06H
	DD	FLAT:__unwindfunclet$??0CDlgCompSetup@@QAE@PAVCWnd@@@Z$7
	DD	07H
	DD	FLAT:__unwindfunclet$??0CDlgCompSetup@@QAE@PAVCWnd@@@Z$8
	DD	08H
	DD	FLAT:__unwindfunclet$??0CDlgCompSetup@@QAE@PAVCWnd@@@Z$9
	DD	09H
	DD	FLAT:__unwindfunclet$??0CDlgCompSetup@@QAE@PAVCWnd@@@Z$10
	DD	0aH
	DD	FLAT:__unwindfunclet$??0CDlgCompSetup@@QAE@PAVCWnd@@@Z$11
xdata$x	ENDS
;	COMDAT xdata$x
xdata$x	SEGMENT
__unwindtable$??1CCallPutIHelper@@QAE@XZ DD 0ffffffffH
	DD	FLAT:___std_terminate
__ehfuncinfo$??1CCallPutIHelper@@QAE@XZ DD 019930522H
	DD	01H
	DD	FLAT:__unwindtable$??1CCallPutIHelper@@QAE@XZ
	DD	2 DUP(00H)
	DD	2 DUP(00H)
	DD	00H
	DD	05H
xdata$x	ENDS
;	COMDAT xdata$x
xdata$x	SEGMENT
__unwindtable$?ClearList@CCallPutIHelper@@QAEXXZ DD 0ffffffffH
	DD	FLAT:___std_terminate
	DD	00H
	DD	FLAT:___std_terminate
__ehfuncinfo$?ClearList@CCallPutIHelper@@QAEXXZ DD 019930522H
	DD	02H
	DD	FLAT:__unwindtable$?ClearList@CCallPutIHelper@@QAEXXZ
	DD	2 DUP(00H)
	DD	2 DUP(00H)
	DD	00H
	DD	01H
xdata$x	ENDS
;	COMDAT xdata$x
xdata$x	SEGMENT
__unwindtable$?Parsing@CCallPutIHelper@@QAEXPAV?$CList@VCCodeTypeA@@V1@@@H@Z DD 0ffffffffH
	DD	FLAT:__unwindfunclet$?Parsing@CCallPutIHelper@@QAEXPAV?$CList@VCCodeTypeA@@V1@@@H@Z$0
	DD	00H
	DD	FLAT:__unwindfunclet$?Parsing@CCallPutIHelper@@QAEXPAV?$CList@VCCodeTypeA@@V1@@@H@Z$1
	DD	01H
	DD	FLAT:__unwindfunclet$?Parsing@CCallPutIHelper@@QAEXPAV?$CList@VCCodeTypeA@@V1@@@H@Z$2
	DD	02H
	DD	FLAT:__unwindfunclet$?Parsing@CCallPutIHelper@@QAEXPAV?$CList@VCCodeTypeA@@V1@@@H@Z$3
__ehfuncinfo$?Parsing@CCallPutIHelper@@QAEXPAV?$CList@VCCodeTypeA@@V1@@@H@Z DD 019930522H
	DD	04H
	DD	FLAT:__unwindtable$?Parsing@CCallPutIHelper@@QAEXPAV?$CList@VCCodeTypeA@@V1@@@H@Z
	DD	2 DUP(00H)
	DD	2 DUP(00H)
	DD	00H
	DD	01H
xdata$x	ENDS
;	COMDAT xdata$x
xdata$x	SEGMENT
__unwindtable$??_G?$CList@PAVCCallPutIMonthData@@PAV1@@@UAEPAXI@Z DD 0ffffffffH
	DD	FLAT:___std_terminate
__ehfuncinfo$??_G?$CList@PAVCCallPutIMonthData@@PAV1@@@UAEPAXI@Z DD 019930522H
	DD	01H
	DD	FLAT:__unwindtable$??_G?$CList@PAVCCallPutIMonthData@@PAV1@@@UAEPAXI@Z
	DD	2 DUP(00H)
	DD	2 DUP(00H)
	DD	00H
	DD	05H
xdata$x	ENDS
;	COMDAT xdata$x
xdata$x	SEGMENT
__ehfuncinfo$??1?$CList@PAVCCallPutIMonthData@@PAV1@@@UAE@XZ DD 019930522H
	DD	00H
	DD	00H
	DD	2 DUP(00H)
	DD	2 DUP(00H)
	DD	00H
	DD	05H
xdata$x	ENDS
;	COMDAT xdata$x
xdata$x	SEGMENT
__unwindtable$??_GCCallPutIMonthData@@QAEPAXI@Z DD 0ffffffffH
	DD	FLAT:___std_terminate
	DD	00H
	DD	FLAT:___std_terminate
__ehfuncinfo$??_GCCallPutIMonthData@@QAEPAXI@Z DD 019930522H
	DD	02H
	DD	FLAT:__unwindtable$??_GCCallPutIMonthData@@QAEPAXI@Z
	DD	2 DUP(00H)
	DD	2 DUP(00H)
	DD	00H
	DD	05H
xdata$x	ENDS
;	COMDAT xdata$x
xdata$x	SEGMENT
__unwindtable$??1CCallPutIMonthData@@QAE@XZ DD 0ffffffffH
	DD	FLAT:___std_terminate
__ehfuncinfo$??1CCallPutIMonthData@@QAE@XZ DD 019930522H
	DD	01H
	DD	FLAT:__unwindtable$??1CCallPutIMonthData@@QAE@XZ
	DD	2 DUP(00H)
	DD	2 DUP(00H)
	DD	00H
	DD	05H
xdata$x	ENDS
;	COMDAT xdata$x
xdata$x	SEGMENT
__unwindtable$??_G?$CList@PAVCCallPutItemData@@PAV1@@@UAEPAXI@Z DD 0ffffffffH
	DD	FLAT:___std_terminate
__ehfuncinfo$??_G?$CList@PAVCCallPutItemData@@PAV1@@@UAEPAXI@Z DD 019930522H
	DD	01H
	DD	FLAT:__unwindtable$??_G?$CList@PAVCCallPutItemData@@PAV1@@@UAEPAXI@Z
	DD	2 DUP(00H)
	DD	2 DUP(00H)
	DD	00H
	DD	05H
xdata$x	ENDS
;	COMDAT xdata$x
xdata$x	SEGMENT
__ehfuncinfo$??1?$CList@PAVCCallPutItemData@@PAV1@@@UAE@XZ DD 019930522H
	DD	00H
	DD	00H
	DD	2 DUP(00H)
	DD	2 DUP(00H)
	DD	00H
	DD	05H
xdata$x	ENDS
;	COMDAT xdata$x
xdata$x	SEGMENT
__unwindtable$??0CCodeTypeA@@QAE@ABV0@@Z DD 0ffffffffH
	DD	FLAT:__unwindfunclet$??0CCodeTypeA@@QAE@ABV0@@Z$1
__ehfuncinfo$??0CCodeTypeA@@QAE@ABV0@@Z DD 019930522H
	DD	01H
	DD	FLAT:__unwindtable$??0CCodeTypeA@@QAE@ABV0@@Z
	DD	2 DUP(00H)
	DD	2 DUP(00H)
	DD	00H
	DD	01H
xdata$x	ENDS
;	COMDAT xdata$x
xdata$x	SEGMENT
__unwindtable$??0CCodeTypeBase@@QAE@ABV0@@Z DD 0ffffffffH
	DD	FLAT:__unwindfunclet$??0CCodeTypeBase@@QAE@ABV0@@Z$0
__ehfuncinfo$??0CCodeTypeBase@@QAE@ABV0@@Z DD 019930522H
	DD	01H
	DD	FLAT:__unwindtable$??0CCodeTypeBase@@QAE@ABV0@@Z
	DD	2 DUP(00H)
	DD	2 DUP(00H)
	DD	00H
	DD	01H
xdata$x	ENDS
;	COMDAT xdata$x
xdata$x	SEGMENT
__unwindtable$?CheckeNameType@CCodeTypeBase@@SAHPAD@Z DD 0ffffffffH
	DD	FLAT:__unwindfunclet$?CheckeNameType@CCodeTypeBase@@SAHPAD@Z$0
__ehfuncinfo$?CheckeNameType@CCodeTypeBase@@SAHPAD@Z DD 019930522H
	DD	01H
	DD	FLAT:__unwindtable$?CheckeNameType@CCodeTypeBase@@SAHPAD@Z
	DD	2 DUP(00H)
	DD	2 DUP(00H)
	DD	00H
	DD	01H
xdata$x	ENDS
;	COMDAT xdata$x
xdata$x	SEGMENT
__unwindtable$?ConvertOneClickData@CCodeTypeBase@@UAEXPAD@Z DD 0ffffffffH
	DD	FLAT:__unwindfunclet$?ConvertOneClickData@CCodeTypeBase@@UAEXPAD@Z$0
__ehfuncinfo$?ConvertOneClickData@CCodeTypeBase@@UAEXPAD@Z DD 019930522H
	DD	01H
	DD	FLAT:__unwindtable$?ConvertOneClickData@CCodeTypeBase@@UAEXPAD@Z
	DD	2 DUP(00H)
	DD	2 DUP(00H)
	DD	00H
	DD	01H
xdata$x	ENDS
;	COMDAT xdata$x
xdata$x	SEGMENT
__unwindtable$??0CInputCodeListEx@@QAE@XZ DD 0ffffffffH
	DD	FLAT:__unwindfunclet$??0CInputCodeListEx@@QAE@XZ$1
	DD	00H
	DD	FLAT:__unwindfunclet$??0CInputCodeListEx@@QAE@XZ$2
__ehfuncinfo$??0CInputCodeListEx@@QAE@XZ DD 019930522H
	DD	02H
	DD	FLAT:__unwindtable$??0CInputCodeListEx@@QAE@XZ
	DD	2 DUP(00H)
	DD	2 DUP(00H)
	DD	00H
	DD	01H
xdata$x	ENDS
;	COMDAT xdata$x
xdata$x	SEGMENT
__unwindtable$??0CInputCodeList@@QAE@XZ DD 0ffffffffH
	DD	FLAT:__unwindfunclet$??0CInputCodeList@@QAE@XZ$0
	DD	00H
	DD	FLAT:__unwindfunclet$??0CInputCodeList@@QAE@XZ$1
__ehfuncinfo$??0CInputCodeList@@QAE@XZ DD 019930522H
	DD	02H
	DD	FLAT:__unwindtable$??0CInputCodeList@@QAE@XZ
	DD	2 DUP(00H)
	DD	2 DUP(00H)
	DD	00H
	DD	01H
xdata$x	ENDS
;	COMDAT xdata$x
xdata$x	SEGMENT
__unwindtable$?AfxGetPctrInterface@@YGJH@Z DD 0ffffffffH
	DD	FLAT:__unwindfunclet$?AfxGetPctrInterface@@YGJH@Z$0
__ehfuncinfo$?AfxGetPctrInterface@@YGJH@Z DD 019930522H
	DD	01H
	DD	FLAT:__unwindtable$?AfxGetPctrInterface@@YGJH@Z
	DD	2 DUP(00H)
	DD	2 DUP(00H)
	DD	00H
	DD	01H
xdata$x	ENDS
;	COMDAT xdata$x
xdata$x	SEGMENT
__unwindtable$??_G?$CList@PAVCDlgCompGroupData@@PAV1@@@UAEPAXI@Z DD 0ffffffffH
	DD	FLAT:___std_terminate
__ehfuncinfo$??_G?$CList@PAVCDlgCompGroupData@@PAV1@@@UAEPAXI@Z DD 019930522H
	DD	01H
	DD	FLAT:__unwindtable$??_G?$CList@PAVCDlgCompGroupData@@PAV1@@@UAEPAXI@Z
	DD	2 DUP(00H)
	DD	2 DUP(00H)
	DD	00H
	DD	05H
xdata$x	ENDS
;	COMDAT xdata$x
xdata$x	SEGMENT
__ehfuncinfo$??1?$CList@PAVCDlgCompGroupData@@PAV1@@@UAE@XZ DD 019930522H
	DD	00H
	DD	00H
	DD	2 DUP(00H)
	DD	2 DUP(00H)
	DD	00H
	DD	05H
xdata$x	ENDS
;	COMDAT xdata$x
xdata$x	SEGMENT
__unwindtable$??_G?$CList@PAVCDlgCompSubItem@@PAV1@@@UAEPAXI@Z DD 0ffffffffH
	DD	FLAT:___std_terminate
__ehfuncinfo$??_G?$CList@PAVCDlgCompSubItem@@PAV1@@@UAEPAXI@Z DD 019930522H
	DD	01H
	DD	FLAT:__unwindtable$??_G?$CList@PAVCDlgCompSubItem@@PAV1@@@UAEPAXI@Z
	DD	2 DUP(00H)
	DD	2 DUP(00H)
	DD	00H
	DD	05H
xdata$x	ENDS
;	COMDAT xdata$x
xdata$x	SEGMENT
__ehfuncinfo$??1?$CList@PAVCDlgCompSubItem@@PAV1@@@UAE@XZ DD 019930522H
	DD	00H
	DD	00H
	DD	2 DUP(00H)
	DD	2 DUP(00H)
	DD	00H
	DD	05H
xdata$x	ENDS
CRT$XCU	SEGMENT
?RMSG_GETPCTRDATA$initializer$@@3P6AXXZA DD FLAT:??__ERMSG_GETPCTRDATA@@YAXXZ ; RMSG_GETPCTRDATA$initializer$
CRT$XCU	ENDS
CRT$XCU	SEGMENT
?RMSG_SETPCTRDATA$initializer$@@3P6AXXZA DD FLAT:??__ERMSG_SETPCTRDATA@@YAXXZ ; RMSG_SETPCTRDATA$initializer$
CRT$XCU	ENDS
; Function compile flags: /Ogtp
; File C:\Program Files (x86)\Microsoft Visual Studio\2019\Community\VC\Tools\MSVC\14.29.30133\include\xmemory
;	COMDAT ??$_Allocate_manually_vector_aligned@U_Default_allocate_traits@std@@@std@@YAPAXI@Z
_TEXT	SEGMENT
__Bytes$ = 8						; size = 4
??$_Allocate_manually_vector_aligned@U_Default_allocate_traits@std@@@std@@YAPAXI@Z PROC ; std::_Allocate_manually_vector_aligned<std::_Default_allocate_traits>, COMDAT

; 127  : __declspec(allocator) void* _Allocate_manually_vector_aligned(const size_t _Bytes) {

  00000	55		 push	 ebp
  00001	8b ec		 mov	 ebp, esp

; 128  :     // allocate _Bytes manually aligned to at least _Big_allocation_alignment
; 129  :     const size_t _Block_size = _Non_user_size + _Bytes;

  00003	8b 45 08	 mov	 eax, DWORD PTR __Bytes$[ebp]
  00006	8d 48 23	 lea	 ecx, DWORD PTR [eax+35]

; 130  :     if (_Block_size <= _Bytes) {

  00009	3b c8		 cmp	 ecx, eax
  0000b	0f 86 00 00 00
	00		 jbe	 ?_Throw_bad_array_new_length@std@@YAXXZ ; std::_Throw_bad_array_new_length

; 79   :         return ::operator new(_Bytes);

  00011	51		 push	 ecx
  00012	e8 00 00 00 00	 call	 ??2@YAPAXI@Z		; operator new

; 131  :         _Throw_bad_array_new_length(); // add overflow
; 132  :     }
; 133  : 
; 134  :     const uintptr_t _Ptr_container = reinterpret_cast<uintptr_t>(_Traits::_Allocate(_Block_size));

  00017	8b c8		 mov	 ecx, eax

; 79   :         return ::operator new(_Bytes);

  00019	83 c4 04	 add	 esp, 4

; 135  :     _STL_VERIFY(_Ptr_container != 0, "invalid argument"); // validate even in release since we're doing p[-1]

  0001c	85 c9		 test	 ecx, ecx
  0001e	74 0b		 je	 SHORT $LN7@Allocate_m

; 136  :     void* const _Ptr = reinterpret_cast<void*>((_Ptr_container + _Non_user_size) & ~(_Big_allocation_alignment - 1));

  00020	8d 41 23	 lea	 eax, DWORD PTR [ecx+35]
  00023	83 e0 e0	 and	 eax, -32		; ffffffe0H

; 137  :     static_cast<uintptr_t*>(_Ptr)[-1] = _Ptr_container;

  00026	89 48 fc	 mov	 DWORD PTR [eax-4], ecx

; 138  : 
; 139  : #ifdef _DEBUG
; 140  :     static_cast<uintptr_t*>(_Ptr)[-2] = _Big_allocation_sentinel;
; 141  : #endif // _DEBUG
; 142  :     return _Ptr;
; 143  : }

  00029	5d		 pop	 ebp
  0002a	c3		 ret	 0
$LN7@Allocate_m:

; 135  :     _STL_VERIFY(_Ptr_container != 0, "invalid argument"); // validate even in release since we're doing p[-1]

  0002b	ff 25 00 00 00
	00		 jmp	 DWORD PTR __imp___invalid_parameter_noinfo_noreturn
??$_Allocate_manually_vector_aligned@U_Default_allocate_traits@std@@@std@@YAPAXI@Z ENDP ; std::_Allocate_manually_vector_aligned<std::_Default_allocate_traits>
_TEXT	ENDS
; Function compile flags: /Ogtp
; File C:\Program Files (x86)\Microsoft Visual Studio\2019\Community\VC\Tools\MSVC\14.29.30133\include\xutility
;	COMDAT ??$_Copy_memmove@PAHPAH@std@@YAPAHPAH00@Z
_TEXT	SEGMENT
__First$ = 8						; size = 4
__Last$ = 12						; size = 4
__Dest$ = 16						; size = 4
??$_Copy_memmove@PAHPAH@std@@YAPAHPAH00@Z PROC		; std::_Copy_memmove<int *,int *>, COMDAT

; 4058 : _OutCtgIt _Copy_memmove(_CtgIt _First, _CtgIt _Last, _OutCtgIt _Dest) {

  00000	55		 push	 ebp
  00001	8b ec		 mov	 ebp, esp

; 4059 :     auto _FirstPtr              = _To_address(_First);
; 4060 :     auto _LastPtr               = _To_address(_Last);
; 4061 :     auto _DestPtr               = _To_address(_Dest);
; 4062 :     const char* const _First_ch = const_cast<const char*>(reinterpret_cast<const volatile char*>(_FirstPtr));
; 4063 :     const char* const _Last_ch  = const_cast<const char*>(reinterpret_cast<const volatile char*>(_LastPtr));
; 4064 :     char* const _Dest_ch        = const_cast<char*>(reinterpret_cast<const volatile char*>(_DestPtr));
; 4065 :     const auto _Count           = static_cast<size_t>(_Last_ch - _First_ch);

  00003	8b 45 08	 mov	 eax, DWORD PTR __First$[ebp]
  00006	56		 push	 esi

; 4066 :     _CSTD memmove(_Dest_ch, _First_ch, _Count);

  00007	8b 75 10	 mov	 esi, DWORD PTR __Dest$[ebp]
  0000a	57		 push	 edi
  0000b	8b 7d 0c	 mov	 edi, DWORD PTR __Last$[ebp]
  0000e	2b f8		 sub	 edi, eax
  00010	57		 push	 edi
  00011	50		 push	 eax
  00012	56		 push	 esi
  00013	e8 00 00 00 00	 call	 _memmove
  00018	83 c4 0c	 add	 esp, 12			; 0000000cH

; 4067 :     if constexpr (is_pointer_v<_OutCtgIt>) {
; 4068 :         return reinterpret_cast<_OutCtgIt>(_Dest_ch + _Count);

  0001b	8d 04 37	 lea	 eax, DWORD PTR [edi+esi]
  0001e	5f		 pop	 edi
  0001f	5e		 pop	 esi

; 4069 :     } else {
; 4070 :         return _Dest + (_LastPtr - _FirstPtr);
; 4071 :     }
; 4072 : }

  00020	5d		 pop	 ebp
  00021	c3		 ret	 0
??$_Copy_memmove@PAHPAH@std@@YAPAHPAH00@Z ENDP		; std::_Copy_memmove<int *,int *>
_TEXT	ENDS
; Function compile flags: /Ogtp
; File C:\Program Files (x86)\Microsoft Visual Studio\2019\Community\VC\Tools\MSVC\14.29.30133\atlmfc\include\afxtempl.h
; File C:\Program Files (x86)\Microsoft Visual Studio\2019\Community\VC\Tools\MSVC\14.29.30133\atlmfc\include\afx.inl
; File C:\Program Files (x86)\Microsoft Visual Studio\2019\Community\VC\Tools\MSVC\14.29.30133\atlmfc\include\afxtempl.h
; File C:\Program Files (x86)\Microsoft Visual Studio\2019\Community\VC\Tools\MSVC\14.29.30133\atlmfc\include\afx.inl
; File C:\Program Files (x86)\Microsoft Visual Studio\2019\Community\VC\Tools\MSVC\14.29.30133\atlmfc\include\afxtempl.h
; File C:\Program Files (x86)\Microsoft Visual Studio\2019\Community\VC\Tools\MSVC\14.29.30133\atlmfc\include\afx.inl
; File C:\Program Files (x86)\Microsoft Visual Studio\2019\Community\VC\Tools\MSVC\14.29.30133\atlmfc\include\afxtempl.h
;	COMDAT ??$SerializeElements@PAVCCallPutIMonthData@@@@YGXAAVCArchive@@PAPAVCCallPutIMonthData@@H@Z
_TEXT	SEGMENT
_ar$ = 8						; size = 4
_pElements$ = 12					; size = 4
_nCount$ = 16						; size = 4
??$SerializeElements@PAVCCallPutIMonthData@@@@YGXAAVCArchive@@PAPAVCCallPutIMonthData@@H@Z PROC ; SerializeElements<CCallPutIMonthData *>, COMDAT

; 67   : {

  00000	55		 push	 ebp
  00001	8b ec		 mov	 ebp, esp

; 68   : 	ENSURE(nCount == 0 || pElements != NULL);

  00003	8b 4d 0c	 mov	 ecx, DWORD PTR _pElements$[ebp]
  00006	53		 push	 ebx
  00007	56		 push	 esi
  00008	8b 75 10	 mov	 esi, DWORD PTR _nCount$[ebp]
  0000b	57		 push	 edi
  0000c	85 f6		 test	 esi, esi
  0000e	74 08		 je	 SHORT $LN2@SerializeE
  00010	85 c9		 test	 ecx, ecx
  00012	0f 84 89 00 00
	00		 je	 $LN34@SerializeE
$LN2@SerializeE:
; File C:\Program Files (x86)\Microsoft Visual Studio\2019\Community\VC\Tools\MSVC\14.29.30133\atlmfc\include\afx.inl

; 212  : 	{ return (m_nMode & CArchive::load) == 0; }

  00018	8b 55 08	 mov	 edx, DWORD PTR _ar$[ebp]
  0001b	8b 42 18	 mov	 eax, DWORD PTR [edx+24]
  0001e	f7 d0		 not	 eax
  00020	a8 01		 test	 al, 1
; File C:\Program Files (x86)\Microsoft Visual Studio\2019\Community\VC\Tools\MSVC\14.29.30133\atlmfc\include\afxtempl.h

; 73   : 	if (ar.IsStoring())

  00022	74 3c		 je	 SHORT $LN10@SerializeE

; 74   : 	{
; 75   : 		TYPE* pData;
; 76   : 		UINT_PTR nElementsLeft;
; 77   : 
; 78   : 		nElementsLeft = nCount;
; 79   : 		pData = pElements;
; 80   : 		while( nElementsLeft > 0 )

  00024	85 f6		 test	 esi, esi
  00026	74 31		 je	 SHORT $LN8@SerializeE
  00028	0f 1f 84 00 00
	00 00 00	 npad	 8
$LL5@SerializeE:

; 81   : 		{
; 82   : 			UINT nElementsToWrite;
; 83   : 
; 84   : 			nElementsToWrite = UINT(__min(nElementsLeft, INT_MAX/sizeof(TYPE)));

  00030	bb ff ff ff 1f	 mov	 ebx, 536870911		; 1fffffffH
  00035	3b f3		 cmp	 esi, ebx
  00037	0f 42 de	 cmovb	 ebx, esi

; 85   : 			ar.Write(pData, nElementsToWrite*sizeof(TYPE));

  0003a	8d 3c 9d 00 00
	00 00		 lea	 edi, DWORD PTR [ebx*4]
  00041	57		 push	 edi
  00042	51		 push	 ecx
  00043	8b ca		 mov	 ecx, edx
  00045	e8 00 00 00 00	 call	 ?Write@CArchive@@QAEXPBXI@Z ; CArchive::Write

; 86   : 			nElementsLeft -= nElementsToWrite;
; 87   : 			pData += nElementsToWrite;

  0004a	8b 4d 0c	 mov	 ecx, DWORD PTR _pElements$[ebp]
  0004d	8b 55 08	 mov	 edx, DWORD PTR _ar$[ebp]
  00050	03 cf		 add	 ecx, edi
  00052	89 4d 0c	 mov	 DWORD PTR _pElements$[ebp], ecx
  00055	2b f3		 sub	 esi, ebx
  00057	75 d7		 jne	 SHORT $LL5@SerializeE
$LN8@SerializeE:
  00059	5f		 pop	 edi

; 105  : 		}
; 106  : 	}
; 107  : }

  0005a	5e		 pop	 esi
  0005b	5b		 pop	 ebx
  0005c	5d		 pop	 ebp
  0005d	c2 0c 00	 ret	 12			; 0000000cH
$LN10@SerializeE:

; 97   : 		while( nElementsLeft > 0 )

  00060	85 f6		 test	 esi, esi
  00062	74 f5		 je	 SHORT $LN8@SerializeE
$LL7@SerializeE:

; 98   : 		{
; 99   : 			UINT nElementsToRead;
; 100  : 
; 101  : 			nElementsToRead = UINT(__min(nElementsLeft, INT_MAX/sizeof(TYPE)));

  00064	bf ff ff ff 1f	 mov	 edi, 536870911		; 1fffffffH
  00069	3b f7		 cmp	 esi, edi
  0006b	0f 42 fe	 cmovb	 edi, esi

; 102  : 			ar.EnsureRead(pData, nElementsToRead*sizeof(TYPE));

  0006e	8d 1c bd 00 00
	00 00		 lea	 ebx, DWORD PTR [edi*4]
; File C:\Program Files (x86)\Microsoft Visual Studio\2019\Community\VC\Tools\MSVC\14.29.30133\atlmfc\include\afx.inl

; 399  : 	UINT nRead=Read(lpBuf, nCount);

  00075	53		 push	 ebx
  00076	51		 push	 ecx
  00077	8b ca		 mov	 ecx, edx
  00079	e8 00 00 00 00	 call	 ?Read@CArchive@@QAEIPAXI@Z ; CArchive::Read

; 400  : 	if(nRead!=nCount)

  0007e	3b c3		 cmp	 eax, ebx
  00080	75 16		 jne	 SHORT $LN23@SerializeE
; File C:\Program Files (x86)\Microsoft Visual Studio\2019\Community\VC\Tools\MSVC\14.29.30133\atlmfc\include\afxtempl.h

; 97   : 		while( nElementsLeft > 0 )

  00082	8b 4d 0c	 mov	 ecx, DWORD PTR _pElements$[ebp]
  00085	8b 55 08	 mov	 edx, DWORD PTR _ar$[ebp]

; 103  : 			nElementsLeft -= nElementsToRead;
; 104  : 			pData += nElementsToRead;

  00088	03 cb		 add	 ecx, ebx
  0008a	89 4d 0c	 mov	 DWORD PTR _pElements$[ebp], ecx
  0008d	2b f7		 sub	 esi, edi
  0008f	75 d3		 jne	 SHORT $LL7@SerializeE

; 105  : 		}
; 106  : 	}
; 107  : }

  00091	5f		 pop	 edi
  00092	5e		 pop	 esi
  00093	5b		 pop	 ebx
  00094	5d		 pop	 ebp
  00095	c2 0c 00	 ret	 12			; 0000000cH
$LN23@SerializeE:
; File C:\Program Files (x86)\Microsoft Visual Studio\2019\Community\VC\Tools\MSVC\14.29.30133\atlmfc\include\afx.inl

; 402  : 		AfxThrowArchiveException(CArchiveException::endOfFile);

  00098	6a 00		 push	 0
  0009a	6a 03		 push	 3
  0009c	e8 00 00 00 00	 call	 ?AfxThrowArchiveException@@YGXHPBD@Z ; AfxThrowArchiveException
$LN34@SerializeE:
; File C:\Program Files (x86)\Microsoft Visual Studio\2019\Community\VC\Tools\MSVC\14.29.30133\atlmfc\include\afxtempl.h

; 68   : 	ENSURE(nCount == 0 || pElements != NULL);

  000a1	e8 00 00 00 00	 call	 ?AfxThrowInvalidArgException@@YGXXZ ; AfxThrowInvalidArgException
$LN32@SerializeE:
  000a6	cc		 int	 3
??$SerializeElements@PAVCCallPutIMonthData@@@@YGXAAVCArchive@@PAPAVCCallPutIMonthData@@H@Z ENDP ; SerializeElements<CCallPutIMonthData *>
_TEXT	ENDS
; Function compile flags: /Ogtp
; File C:\Program Files (x86)\Microsoft Visual Studio\2019\Community\VC\Tools\MSVC\14.29.30133\atlmfc\include\afxtempl.h
; File C:\Program Files (x86)\Microsoft Visual Studio\2019\Community\VC\Tools\MSVC\14.29.30133\atlmfc\include\afx.inl
; File C:\Program Files (x86)\Microsoft Visual Studio\2019\Community\VC\Tools\MSVC\14.29.30133\atlmfc\include\afxtempl.h
; File C:\Program Files (x86)\Microsoft Visual Studio\2019\Community\VC\Tools\MSVC\14.29.30133\atlmfc\include\afx.inl
; File C:\Program Files (x86)\Microsoft Visual Studio\2019\Community\VC\Tools\MSVC\14.29.30133\atlmfc\include\afxtempl.h
; File C:\Program Files (x86)\Microsoft Visual Studio\2019\Community\VC\Tools\MSVC\14.29.30133\atlmfc\include\afx.inl
; File C:\Program Files (x86)\Microsoft Visual Studio\2019\Community\VC\Tools\MSVC\14.29.30133\atlmfc\include\afxtempl.h
;	COMDAT ??$SerializeElements@PAVCCallPutItemData@@@@YGXAAVCArchive@@PAPAVCCallPutItemData@@H@Z
_TEXT	SEGMENT
_ar$ = 8						; size = 4
_pElements$ = 12					; size = 4
_nCount$ = 16						; size = 4
??$SerializeElements@PAVCCallPutItemData@@@@YGXAAVCArchive@@PAPAVCCallPutItemData@@H@Z PROC ; SerializeElements<CCallPutItemData *>, COMDAT

; 67   : {

  00000	55		 push	 ebp
  00001	8b ec		 mov	 ebp, esp

; 68   : 	ENSURE(nCount == 0 || pElements != NULL);

  00003	8b 4d 0c	 mov	 ecx, DWORD PTR _pElements$[ebp]
  00006	53		 push	 ebx
  00007	56		 push	 esi
  00008	8b 75 10	 mov	 esi, DWORD PTR _nCount$[ebp]
  0000b	57		 push	 edi
  0000c	85 f6		 test	 esi, esi
  0000e	74 08		 je	 SHORT $LN2@SerializeE
  00010	85 c9		 test	 ecx, ecx
  00012	0f 84 89 00 00
	00		 je	 $LN34@SerializeE
$LN2@SerializeE:
; File C:\Program Files (x86)\Microsoft Visual Studio\2019\Community\VC\Tools\MSVC\14.29.30133\atlmfc\include\afx.inl

; 212  : 	{ return (m_nMode & CArchive::load) == 0; }

  00018	8b 55 08	 mov	 edx, DWORD PTR _ar$[ebp]
  0001b	8b 42 18	 mov	 eax, DWORD PTR [edx+24]
  0001e	f7 d0		 not	 eax
  00020	a8 01		 test	 al, 1
; File C:\Program Files (x86)\Microsoft Visual Studio\2019\Community\VC\Tools\MSVC\14.29.30133\atlmfc\include\afxtempl.h

; 73   : 	if (ar.IsStoring())

  00022	74 3c		 je	 SHORT $LN10@SerializeE

; 74   : 	{
; 75   : 		TYPE* pData;
; 76   : 		UINT_PTR nElementsLeft;
; 77   : 
; 78   : 		nElementsLeft = nCount;
; 79   : 		pData = pElements;
; 80   : 		while( nElementsLeft > 0 )

  00024	85 f6		 test	 esi, esi
  00026	74 31		 je	 SHORT $LN8@SerializeE
  00028	0f 1f 84 00 00
	00 00 00	 npad	 8
$LL5@SerializeE:

; 81   : 		{
; 82   : 			UINT nElementsToWrite;
; 83   : 
; 84   : 			nElementsToWrite = UINT(__min(nElementsLeft, INT_MAX/sizeof(TYPE)));

  00030	bb ff ff ff 1f	 mov	 ebx, 536870911		; 1fffffffH
  00035	3b f3		 cmp	 esi, ebx
  00037	0f 42 de	 cmovb	 ebx, esi

; 85   : 			ar.Write(pData, nElementsToWrite*sizeof(TYPE));

  0003a	8d 3c 9d 00 00
	00 00		 lea	 edi, DWORD PTR [ebx*4]
  00041	57		 push	 edi
  00042	51		 push	 ecx
  00043	8b ca		 mov	 ecx, edx
  00045	e8 00 00 00 00	 call	 ?Write@CArchive@@QAEXPBXI@Z ; CArchive::Write

; 86   : 			nElementsLeft -= nElementsToWrite;
; 87   : 			pData += nElementsToWrite;

  0004a	8b 4d 0c	 mov	 ecx, DWORD PTR _pElements$[ebp]
  0004d	8b 55 08	 mov	 edx, DWORD PTR _ar$[ebp]
  00050	03 cf		 add	 ecx, edi
  00052	89 4d 0c	 mov	 DWORD PTR _pElements$[ebp], ecx
  00055	2b f3		 sub	 esi, ebx
  00057	75 d7		 jne	 SHORT $LL5@SerializeE
$LN8@SerializeE:
  00059	5f		 pop	 edi

; 105  : 		}
; 106  : 	}
; 107  : }

  0005a	5e		 pop	 esi
  0005b	5b		 pop	 ebx
  0005c	5d		 pop	 ebp
  0005d	c2 0c 00	 ret	 12			; 0000000cH
$LN10@SerializeE:

; 97   : 		while( nElementsLeft > 0 )

  00060	85 f6		 test	 esi, esi
  00062	74 f5		 je	 SHORT $LN8@SerializeE
$LL7@SerializeE:

; 98   : 		{
; 99   : 			UINT nElementsToRead;
; 100  : 
; 101  : 			nElementsToRead = UINT(__min(nElementsLeft, INT_MAX/sizeof(TYPE)));

  00064	bf ff ff ff 1f	 mov	 edi, 536870911		; 1fffffffH
  00069	3b f7		 cmp	 esi, edi
  0006b	0f 42 fe	 cmovb	 edi, esi

; 102  : 			ar.EnsureRead(pData, nElementsToRead*sizeof(TYPE));

  0006e	8d 1c bd 00 00
	00 00		 lea	 ebx, DWORD PTR [edi*4]
; File C:\Program Files (x86)\Microsoft Visual Studio\2019\Community\VC\Tools\MSVC\14.29.30133\atlmfc\include\afx.inl

; 399  : 	UINT nRead=Read(lpBuf, nCount);

  00075	53		 push	 ebx
  00076	51		 push	 ecx
  00077	8b ca		 mov	 ecx, edx
  00079	e8 00 00 00 00	 call	 ?Read@CArchive@@QAEIPAXI@Z ; CArchive::Read

; 400  : 	if(nRead!=nCount)

  0007e	3b c3		 cmp	 eax, ebx
  00080	75 16		 jne	 SHORT $LN23@SerializeE
; File C:\Program Files (x86)\Microsoft Visual Studio\2019\Community\VC\Tools\MSVC\14.29.30133\atlmfc\include\afxtempl.h

; 97   : 		while( nElementsLeft > 0 )

  00082	8b 4d 0c	 mov	 ecx, DWORD PTR _pElements$[ebp]
  00085	8b 55 08	 mov	 edx, DWORD PTR _ar$[ebp]

; 103  : 			nElementsLeft -= nElementsToRead;
; 104  : 			pData += nElementsToRead;

  00088	03 cb		 add	 ecx, ebx
  0008a	89 4d 0c	 mov	 DWORD PTR _pElements$[ebp], ecx
  0008d	2b f7		 sub	 esi, edi
  0008f	75 d3		 jne	 SHORT $LL7@SerializeE

; 105  : 		}
; 106  : 	}
; 107  : }

  00091	5f		 pop	 edi
  00092	5e		 pop	 esi
  00093	5b		 pop	 ebx
  00094	5d		 pop	 ebp
  00095	c2 0c 00	 ret	 12			; 0000000cH
$LN23@SerializeE:
; File C:\Program Files (x86)\Microsoft Visual Studio\2019\Community\VC\Tools\MSVC\14.29.30133\atlmfc\include\afx.inl

; 402  : 		AfxThrowArchiveException(CArchiveException::endOfFile);

  00098	6a 00		 push	 0
  0009a	6a 03		 push	 3
  0009c	e8 00 00 00 00	 call	 ?AfxThrowArchiveException@@YGXHPBD@Z ; AfxThrowArchiveException
$LN34@SerializeE:
; File C:\Program Files (x86)\Microsoft Visual Studio\2019\Community\VC\Tools\MSVC\14.29.30133\atlmfc\include\afxtempl.h

; 68   : 	ENSURE(nCount == 0 || pElements != NULL);

  000a1	e8 00 00 00 00	 call	 ?AfxThrowInvalidArgException@@YGXXZ ; AfxThrowInvalidArgException
$LN32@SerializeE:
  000a6	cc		 int	 3
??$SerializeElements@PAVCCallPutItemData@@@@YGXAAVCArchive@@PAPAVCCallPutItemData@@H@Z ENDP ; SerializeElements<CCallPutItemData *>
_TEXT	ENDS
; Function compile flags: /Ogtp
; File C:\Program Files (x86)\Microsoft Visual Studio\2019\Community\VC\Tools\MSVC\14.29.30133\atlmfc\include\afxtempl.h
; File C:\Program Files (x86)\Microsoft Visual Studio\2019\Community\VC\Tools\MSVC\14.29.30133\atlmfc\include\afx.inl
; File C:\Program Files (x86)\Microsoft Visual Studio\2019\Community\VC\Tools\MSVC\14.29.30133\atlmfc\include\afxtempl.h
; File C:\Program Files (x86)\Microsoft Visual Studio\2019\Community\VC\Tools\MSVC\14.29.30133\atlmfc\include\afx.inl
; File C:\Program Files (x86)\Microsoft Visual Studio\2019\Community\VC\Tools\MSVC\14.29.30133\atlmfc\include\afxtempl.h
; File C:\Program Files (x86)\Microsoft Visual Studio\2019\Community\VC\Tools\MSVC\14.29.30133\atlmfc\include\afx.inl
; File C:\Program Files (x86)\Microsoft Visual Studio\2019\Community\VC\Tools\MSVC\14.29.30133\atlmfc\include\afxtempl.h
;	COMDAT ??$SerializeElements@PAVCDlgCompGroupData@@@@YGXAAVCArchive@@PAPAVCDlgCompGroupData@@H@Z
_TEXT	SEGMENT
_ar$ = 8						; size = 4
_pElements$ = 12					; size = 4
_nCount$ = 16						; size = 4
??$SerializeElements@PAVCDlgCompGroupData@@@@YGXAAVCArchive@@PAPAVCDlgCompGroupData@@H@Z PROC ; SerializeElements<CDlgCompGroupData *>, COMDAT

; 67   : {

  00000	55		 push	 ebp
  00001	8b ec		 mov	 ebp, esp

; 68   : 	ENSURE(nCount == 0 || pElements != NULL);

  00003	8b 4d 0c	 mov	 ecx, DWORD PTR _pElements$[ebp]
  00006	53		 push	 ebx
  00007	56		 push	 esi
  00008	8b 75 10	 mov	 esi, DWORD PTR _nCount$[ebp]
  0000b	57		 push	 edi
  0000c	85 f6		 test	 esi, esi
  0000e	74 08		 je	 SHORT $LN2@SerializeE
  00010	85 c9		 test	 ecx, ecx
  00012	0f 84 89 00 00
	00		 je	 $LN34@SerializeE
$LN2@SerializeE:
; File C:\Program Files (x86)\Microsoft Visual Studio\2019\Community\VC\Tools\MSVC\14.29.30133\atlmfc\include\afx.inl

; 212  : 	{ return (m_nMode & CArchive::load) == 0; }

  00018	8b 55 08	 mov	 edx, DWORD PTR _ar$[ebp]
  0001b	8b 42 18	 mov	 eax, DWORD PTR [edx+24]
  0001e	f7 d0		 not	 eax
  00020	a8 01		 test	 al, 1
; File C:\Program Files (x86)\Microsoft Visual Studio\2019\Community\VC\Tools\MSVC\14.29.30133\atlmfc\include\afxtempl.h

; 73   : 	if (ar.IsStoring())

  00022	74 3c		 je	 SHORT $LN10@SerializeE

; 74   : 	{
; 75   : 		TYPE* pData;
; 76   : 		UINT_PTR nElementsLeft;
; 77   : 
; 78   : 		nElementsLeft = nCount;
; 79   : 		pData = pElements;
; 80   : 		while( nElementsLeft > 0 )

  00024	85 f6		 test	 esi, esi
  00026	74 31		 je	 SHORT $LN8@SerializeE
  00028	0f 1f 84 00 00
	00 00 00	 npad	 8
$LL5@SerializeE:

; 81   : 		{
; 82   : 			UINT nElementsToWrite;
; 83   : 
; 84   : 			nElementsToWrite = UINT(__min(nElementsLeft, INT_MAX/sizeof(TYPE)));

  00030	bb ff ff ff 1f	 mov	 ebx, 536870911		; 1fffffffH
  00035	3b f3		 cmp	 esi, ebx
  00037	0f 42 de	 cmovb	 ebx, esi

; 85   : 			ar.Write(pData, nElementsToWrite*sizeof(TYPE));

  0003a	8d 3c 9d 00 00
	00 00		 lea	 edi, DWORD PTR [ebx*4]
  00041	57		 push	 edi
  00042	51		 push	 ecx
  00043	8b ca		 mov	 ecx, edx
  00045	e8 00 00 00 00	 call	 ?Write@CArchive@@QAEXPBXI@Z ; CArchive::Write

; 86   : 			nElementsLeft -= nElementsToWrite;
; 87   : 			pData += nElementsToWrite;

  0004a	8b 4d 0c	 mov	 ecx, DWORD PTR _pElements$[ebp]
  0004d	8b 55 08	 mov	 edx, DWORD PTR _ar$[ebp]
  00050	03 cf		 add	 ecx, edi
  00052	89 4d 0c	 mov	 DWORD PTR _pElements$[ebp], ecx
  00055	2b f3		 sub	 esi, ebx
  00057	75 d7		 jne	 SHORT $LL5@SerializeE
$LN8@SerializeE:
  00059	5f		 pop	 edi

; 105  : 		}
; 106  : 	}
; 107  : }

  0005a	5e		 pop	 esi
  0005b	5b		 pop	 ebx
  0005c	5d		 pop	 ebp
  0005d	c2 0c 00	 ret	 12			; 0000000cH
$LN10@SerializeE:

; 97   : 		while( nElementsLeft > 0 )

  00060	85 f6		 test	 esi, esi
  00062	74 f5		 je	 SHORT $LN8@SerializeE
$LL7@SerializeE:

; 98   : 		{
; 99   : 			UINT nElementsToRead;
; 100  : 
; 101  : 			nElementsToRead = UINT(__min(nElementsLeft, INT_MAX/sizeof(TYPE)));

  00064	bf ff ff ff 1f	 mov	 edi, 536870911		; 1fffffffH
  00069	3b f7		 cmp	 esi, edi
  0006b	0f 42 fe	 cmovb	 edi, esi

; 102  : 			ar.EnsureRead(pData, nElementsToRead*sizeof(TYPE));

  0006e	8d 1c bd 00 00
	00 00		 lea	 ebx, DWORD PTR [edi*4]
; File C:\Program Files (x86)\Microsoft Visual Studio\2019\Community\VC\Tools\MSVC\14.29.30133\atlmfc\include\afx.inl

; 399  : 	UINT nRead=Read(lpBuf, nCount);

  00075	53		 push	 ebx
  00076	51		 push	 ecx
  00077	8b ca		 mov	 ecx, edx
  00079	e8 00 00 00 00	 call	 ?Read@CArchive@@QAEIPAXI@Z ; CArchive::Read

; 400  : 	if(nRead!=nCount)

  0007e	3b c3		 cmp	 eax, ebx
  00080	75 16		 jne	 SHORT $LN23@SerializeE
; File C:\Program Files (x86)\Microsoft Visual Studio\2019\Community\VC\Tools\MSVC\14.29.30133\atlmfc\include\afxtempl.h

; 97   : 		while( nElementsLeft > 0 )

  00082	8b 4d 0c	 mov	 ecx, DWORD PTR _pElements$[ebp]
  00085	8b 55 08	 mov	 edx, DWORD PTR _ar$[ebp]

; 103  : 			nElementsLeft -= nElementsToRead;
; 104  : 			pData += nElementsToRead;

  00088	03 cb		 add	 ecx, ebx
  0008a	89 4d 0c	 mov	 DWORD PTR _pElements$[ebp], ecx
  0008d	2b f7		 sub	 esi, edi
  0008f	75 d3		 jne	 SHORT $LL7@SerializeE

; 105  : 		}
; 106  : 	}
; 107  : }

  00091	5f		 pop	 edi
  00092	5e		 pop	 esi
  00093	5b		 pop	 ebx
  00094	5d		 pop	 ebp
  00095	c2 0c 00	 ret	 12			; 0000000cH
$LN23@SerializeE:
; File C:\Program Files (x86)\Microsoft Visual Studio\2019\Community\VC\Tools\MSVC\14.29.30133\atlmfc\include\afx.inl

; 402  : 		AfxThrowArchiveException(CArchiveException::endOfFile);

  00098	6a 00		 push	 0
  0009a	6a 03		 push	 3
  0009c	e8 00 00 00 00	 call	 ?AfxThrowArchiveException@@YGXHPBD@Z ; AfxThrowArchiveException
$LN34@SerializeE:
; File C:\Program Files (x86)\Microsoft Visual Studio\2019\Community\VC\Tools\MSVC\14.29.30133\atlmfc\include\afxtempl.h

; 68   : 	ENSURE(nCount == 0 || pElements != NULL);

  000a1	e8 00 00 00 00	 call	 ?AfxThrowInvalidArgException@@YGXXZ ; AfxThrowInvalidArgException
$LN32@SerializeE:
  000a6	cc		 int	 3
??$SerializeElements@PAVCDlgCompGroupData@@@@YGXAAVCArchive@@PAPAVCDlgCompGroupData@@H@Z ENDP ; SerializeElements<CDlgCompGroupData *>
_TEXT	ENDS
; Function compile flags: /Ogtp
; File C:\Program Files (x86)\Microsoft Visual Studio\2019\Community\VC\Tools\MSVC\14.29.30133\atlmfc\include\afxtempl.h
; File C:\Program Files (x86)\Microsoft Visual Studio\2019\Community\VC\Tools\MSVC\14.29.30133\atlmfc\include\afx.inl
; File C:\Program Files (x86)\Microsoft Visual Studio\2019\Community\VC\Tools\MSVC\14.29.30133\atlmfc\include\afxtempl.h
; File C:\Program Files (x86)\Microsoft Visual Studio\2019\Community\VC\Tools\MSVC\14.29.30133\atlmfc\include\afx.inl
; File C:\Program Files (x86)\Microsoft Visual Studio\2019\Community\VC\Tools\MSVC\14.29.30133\atlmfc\include\afxtempl.h
; File C:\Program Files (x86)\Microsoft Visual Studio\2019\Community\VC\Tools\MSVC\14.29.30133\atlmfc\include\afx.inl
; File C:\Program Files (x86)\Microsoft Visual Studio\2019\Community\VC\Tools\MSVC\14.29.30133\atlmfc\include\afxtempl.h
;	COMDAT ??$SerializeElements@PAVCDlgCompSubItem@@@@YGXAAVCArchive@@PAPAVCDlgCompSubItem@@H@Z
_TEXT	SEGMENT
_ar$ = 8						; size = 4
_pElements$ = 12					; size = 4
_nCount$ = 16						; size = 4
??$SerializeElements@PAVCDlgCompSubItem@@@@YGXAAVCArchive@@PAPAVCDlgCompSubItem@@H@Z PROC ; SerializeElements<CDlgCompSubItem *>, COMDAT

; 67   : {

  00000	55		 push	 ebp
  00001	8b ec		 mov	 ebp, esp

; 68   : 	ENSURE(nCount == 0 || pElements != NULL);

  00003	8b 4d 0c	 mov	 ecx, DWORD PTR _pElements$[ebp]
  00006	53		 push	 ebx
  00007	56		 push	 esi
  00008	8b 75 10	 mov	 esi, DWORD PTR _nCount$[ebp]
  0000b	57		 push	 edi
  0000c	85 f6		 test	 esi, esi
  0000e	74 08		 je	 SHORT $LN2@SerializeE
  00010	85 c9		 test	 ecx, ecx
  00012	0f 84 89 00 00
	00		 je	 $LN34@SerializeE
$LN2@SerializeE:
; File C:\Program Files (x86)\Microsoft Visual Studio\2019\Community\VC\Tools\MSVC\14.29.30133\atlmfc\include\afx.inl

; 212  : 	{ return (m_nMode & CArchive::load) == 0; }

  00018	8b 55 08	 mov	 edx, DWORD PTR _ar$[ebp]
  0001b	8b 42 18	 mov	 eax, DWORD PTR [edx+24]
  0001e	f7 d0		 not	 eax
  00020	a8 01		 test	 al, 1
; File C:\Program Files (x86)\Microsoft Visual Studio\2019\Community\VC\Tools\MSVC\14.29.30133\atlmfc\include\afxtempl.h

; 73   : 	if (ar.IsStoring())

  00022	74 3c		 je	 SHORT $LN10@SerializeE

; 74   : 	{
; 75   : 		TYPE* pData;
; 76   : 		UINT_PTR nElementsLeft;
; 77   : 
; 78   : 		nElementsLeft = nCount;
; 79   : 		pData = pElements;
; 80   : 		while( nElementsLeft > 0 )

  00024	85 f6		 test	 esi, esi
  00026	74 31		 je	 SHORT $LN8@SerializeE
  00028	0f 1f 84 00 00
	00 00 00	 npad	 8
$LL5@SerializeE:

; 81   : 		{
; 82   : 			UINT nElementsToWrite;
; 83   : 
; 84   : 			nElementsToWrite = UINT(__min(nElementsLeft, INT_MAX/sizeof(TYPE)));

  00030	bb ff ff ff 1f	 mov	 ebx, 536870911		; 1fffffffH
  00035	3b f3		 cmp	 esi, ebx
  00037	0f 42 de	 cmovb	 ebx, esi

; 85   : 			ar.Write(pData, nElementsToWrite*sizeof(TYPE));

  0003a	8d 3c 9d 00 00
	00 00		 lea	 edi, DWORD PTR [ebx*4]
  00041	57		 push	 edi
  00042	51		 push	 ecx
  00043	8b ca		 mov	 ecx, edx
  00045	e8 00 00 00 00	 call	 ?Write@CArchive@@QAEXPBXI@Z ; CArchive::Write

; 86   : 			nElementsLeft -= nElementsToWrite;
; 87   : 			pData += nElementsToWrite;

  0004a	8b 4d 0c	 mov	 ecx, DWORD PTR _pElements$[ebp]
  0004d	8b 55 08	 mov	 edx, DWORD PTR _ar$[ebp]
  00050	03 cf		 add	 ecx, edi
  00052	89 4d 0c	 mov	 DWORD PTR _pElements$[ebp], ecx
  00055	2b f3		 sub	 esi, ebx
  00057	75 d7		 jne	 SHORT $LL5@SerializeE
$LN8@SerializeE:
  00059	5f		 pop	 edi

; 105  : 		}
; 106  : 	}
; 107  : }

  0005a	5e		 pop	 esi
  0005b	5b		 pop	 ebx
  0005c	5d		 pop	 ebp
  0005d	c2 0c 00	 ret	 12			; 0000000cH
$LN10@SerializeE:

; 97   : 		while( nElementsLeft > 0 )

  00060	85 f6		 test	 esi, esi
  00062	74 f5		 je	 SHORT $LN8@SerializeE
$LL7@SerializeE:

; 98   : 		{
; 99   : 			UINT nElementsToRead;
; 100  : 
; 101  : 			nElementsToRead = UINT(__min(nElementsLeft, INT_MAX/sizeof(TYPE)));

  00064	bf ff ff ff 1f	 mov	 edi, 536870911		; 1fffffffH
  00069	3b f7		 cmp	 esi, edi
  0006b	0f 42 fe	 cmovb	 edi, esi

; 102  : 			ar.EnsureRead(pData, nElementsToRead*sizeof(TYPE));

  0006e	8d 1c bd 00 00
	00 00		 lea	 ebx, DWORD PTR [edi*4]
; File C:\Program Files (x86)\Microsoft Visual Studio\2019\Community\VC\Tools\MSVC\14.29.30133\atlmfc\include\afx.inl

; 399  : 	UINT nRead=Read(lpBuf, nCount);

  00075	53		 push	 ebx
  00076	51		 push	 ecx
  00077	8b ca		 mov	 ecx, edx
  00079	e8 00 00 00 00	 call	 ?Read@CArchive@@QAEIPAXI@Z ; CArchive::Read

; 400  : 	if(nRead!=nCount)

  0007e	3b c3		 cmp	 eax, ebx
  00080	75 16		 jne	 SHORT $LN23@SerializeE
; File C:\Program Files (x86)\Microsoft Visual Studio\2019\Community\VC\Tools\MSVC\14.29.30133\atlmfc\include\afxtempl.h

; 97   : 		while( nElementsLeft > 0 )

  00082	8b 4d 0c	 mov	 ecx, DWORD PTR _pElements$[ebp]
  00085	8b 55 08	 mov	 edx, DWORD PTR _ar$[ebp]

; 103  : 			nElementsLeft -= nElementsToRead;
; 104  : 			pData += nElementsToRead;

  00088	03 cb		 add	 ecx, ebx
  0008a	89 4d 0c	 mov	 DWORD PTR _pElements$[ebp], ecx
  0008d	2b f7		 sub	 esi, edi
  0008f	75 d3		 jne	 SHORT $LL7@SerializeE

; 105  : 		}
; 106  : 	}
; 107  : }

  00091	5f		 pop	 edi
  00092	5e		 pop	 esi
  00093	5b		 pop	 ebx
  00094	5d		 pop	 ebp
  00095	c2 0c 00	 ret	 12			; 0000000cH
$LN23@SerializeE:
; File C:\Program Files (x86)\Microsoft Visual Studio\2019\Community\VC\Tools\MSVC\14.29.30133\atlmfc\include\afx.inl

; 402  : 		AfxThrowArchiveException(CArchiveException::endOfFile);

  00098	6a 00		 push	 0
  0009a	6a 03		 push	 3
  0009c	e8 00 00 00 00	 call	 ?AfxThrowArchiveException@@YGXHPBD@Z ; AfxThrowArchiveException
$LN34@SerializeE:
; File C:\Program Files (x86)\Microsoft Visual Studio\2019\Community\VC\Tools\MSVC\14.29.30133\atlmfc\include\afxtempl.h

; 68   : 	ENSURE(nCount == 0 || pElements != NULL);

  000a1	e8 00 00 00 00	 call	 ?AfxThrowInvalidArgException@@YGXXZ ; AfxThrowInvalidArgException
$LN32@SerializeE:
  000a6	cc		 int	 3
??$SerializeElements@PAVCDlgCompSubItem@@@@YGXAAVCArchive@@PAPAVCDlgCompSubItem@@H@Z ENDP ; SerializeElements<CDlgCompSubItem *>
_TEXT	ENDS
; Function compile flags: /Ogtp
; File C:\Program Files (x86)\Microsoft Visual Studio\2019\Community\VC\Tools\MSVC\14.29.30133\include\vector
; File C:\Program Files (x86)\Microsoft Visual Studio\2019\Community\VC\Tools\MSVC\14.29.30133\include\xmemory
; File C:\Program Files (x86)\Microsoft Visual Studio\2019\Community\VC\Tools\MSVC\14.29.30133\include\vector
; File C:\Program Files (x86)\Microsoft Visual Studio\2019\Community\VC\Tools\MSVC\14.29.30133\include\xutility
; File C:\Program Files (x86)\Microsoft Visual Studio\2019\Community\VC\Tools\MSVC\14.29.30133\include\vector
; File C:\Program Files (x86)\Microsoft Visual Studio\2019\Community\VC\Tools\MSVC\14.29.30133\include\xutility
; File C:\Program Files (x86)\Microsoft Visual Studio\2019\Community\VC\Tools\MSVC\14.29.30133\include\vector
; File C:\Program Files (x86)\Microsoft Visual Studio\2019\Community\VC\Tools\MSVC\14.29.30133\include\xutility
; File C:\Program Files (x86)\Microsoft Visual Studio\2019\Community\VC\Tools\MSVC\14.29.30133\include\vector
; File C:\Program Files (x86)\Microsoft Visual Studio\2019\Community\VC\Tools\MSVC\14.29.30133\include\xutility
; File C:\Program Files (x86)\Microsoft Visual Studio\2019\Community\VC\Tools\MSVC\14.29.30133\include\vector
; File C:\Program Files (x86)\Microsoft Visual Studio\2019\Community\VC\Tools\MSVC\14.29.30133\include\xmemory
; File C:\Program Files (x86)\Microsoft Visual Studio\2019\Community\VC\Tools\MSVC\14.29.30133\include\vector
; File C:\Program Files (x86)\Microsoft Visual Studio\2019\Community\VC\Tools\MSVC\14.29.30133\include\xmemory
; File C:\Program Files (x86)\Microsoft Visual Studio\2019\Community\VC\Tools\MSVC\14.29.30133\include\vector
;	COMDAT ??$_Emplace_reallocate@ABH@?$vector@HV?$allocator@H@std@@@std@@QAEPAHQAHABH@Z
_TEXT	SEGMENT
__Newsize$1$ = -8					; size = 4
tv710 = -4						; size = 4
__Whereoff$1$ = -4					; size = 4
__Whereptr$ = 8						; size = 4
_<_Val_0>$ = 12						; size = 4
??$_Emplace_reallocate@ABH@?$vector@HV?$allocator@H@std@@@std@@QAEPAHQAHABH@Z PROC ; std::vector<int,std::allocator<int> >::_Emplace_reallocate<int const &>, COMDAT
; _this$ = ecx

; 752  :     _CONSTEXPR20_CONTAINER pointer _Emplace_reallocate(const pointer _Whereptr, _Valty&&... _Val) {

  00000	55		 push	 ebp
  00001	8b ec		 mov	 ebp, esp
  00003	83 ec 08	 sub	 esp, 8

; 753  :         // reallocate and insert by perfectly forwarding _Val at _Whereptr
; 754  :         _Alty& _Al        = _Getal();
; 755  :         auto& _My_data    = _Mypair._Myval2;
; 756  :         pointer& _Myfirst = _My_data._Myfirst;
; 757  :         pointer& _Mylast  = _My_data._Mylast;
; 758  : 
; 759  :         _STL_INTERNAL_CHECK(_Mylast == _My_data._Myend); // check that we have no unused capacity
; 760  : 
; 761  :         const auto _Whereoff = static_cast<size_type>(_Whereptr - _Myfirst);

  00006	8b 45 08	 mov	 eax, DWORD PTR __Whereptr$[ebp]
  00009	53		 push	 ebx
  0000a	56		 push	 esi
  0000b	57		 push	 edi
  0000c	8b f9		 mov	 edi, ecx
  0000e	8b 0f		 mov	 ecx, DWORD PTR [edi]
  00010	2b c1		 sub	 eax, ecx
  00012	c1 f8 02	 sar	 eax, 2
  00015	89 45 fc	 mov	 DWORD PTR __Whereoff$1$[ebp], eax

; 762  :         const auto _Oldsize  = static_cast<size_type>(_Mylast - _Myfirst);

  00018	8b 47 04	 mov	 eax, DWORD PTR [edi+4]
  0001b	2b c1		 sub	 eax, ecx
  0001d	c1 f8 02	 sar	 eax, 2

; 763  : 
; 764  :         if (_Oldsize == max_size()) {

  00020	3d ff ff ff 3f	 cmp	 eax, 1073741823		; 3fffffffH
  00025	0f 84 24 01 00
	00		 je	 $LN117@Emplace_re

; 1546 :         return static_cast<size_type>(_My_data._Myend - _My_data._Myfirst);

  0002b	8b 57 08	 mov	 edx, DWORD PTR [edi+8]

; 766  :         }
; 767  : 
; 768  :         const size_type _Newsize     = _Oldsize + 1;

  0002e	8d 70 01	 lea	 esi, DWORD PTR [eax+1]

; 1546 :         return static_cast<size_type>(_My_data._Myend - _My_data._Myfirst);

  00031	2b d1		 sub	 edx, ecx

; 766  :         }
; 767  : 
; 768  :         const size_type _Newsize     = _Oldsize + 1;

  00033	89 75 f8	 mov	 DWORD PTR __Newsize$1$[ebp], esi

; 1546 :         return static_cast<size_type>(_My_data._Myend - _My_data._Myfirst);

  00036	c1 fa 02	 sar	 edx, 2

; 1675 :         if (_Oldcapacity > _Max - _Oldcapacity / 2) {

  00039	b8 ff ff ff 3f	 mov	 eax, 1073741823		; 3fffffffH
  0003e	8b ca		 mov	 ecx, edx
  00040	d1 e9		 shr	 ecx, 1
  00042	2b c1		 sub	 eax, ecx
  00044	3b d0		 cmp	 edx, eax
  00046	0f 87 fe 00 00
	00		 ja	 $LN114@Emplace_re

; 1676 :             return _Max; // geometric growth would overflow
; 1677 :         }
; 1678 : 
; 1679 :         const size_type _Geometric = _Oldcapacity + _Oldcapacity / 2;

  0004c	8d 04 11	 lea	 eax, DWORD PTR [ecx+edx]
; File C:\Program Files (x86)\Microsoft Visual Studio\2019\Community\VC\Tools\MSVC\14.29.30133\include\xmemory

; 60   :         if (_Count > _Max_possible) {

  0004f	8b de		 mov	 ebx, esi
  00051	3b c6		 cmp	 eax, esi
  00053	0f 43 d8	 cmovae	 ebx, eax
  00056	81 fb ff ff ff
	3f		 cmp	 ebx, 1073741823		; 3fffffffH
  0005c	0f 87 e8 00 00
	00		 ja	 $LN114@Emplace_re

; 61   :             _Throw_bad_array_new_length(); // multiply overflow
; 62   :         }
; 63   :     }
; 64   : 
; 65   :     return _Count * _Ty_size;

  00062	c1 e3 02	 shl	 ebx, 2

; 228  :         if (_Bytes >= _Big_allocation_threshold) { // boost the alignment of big allocations to help autovectorization

  00065	81 fb 00 10 00
	00		 cmp	 ebx, 4096		; 00001000H
  0006b	72 27		 jb	 SHORT $LN24@Emplace_re

; 129  :     const size_t _Block_size = _Non_user_size + _Bytes;

  0006d	8d 43 23	 lea	 eax, DWORD PTR [ebx+35]

; 130  :     if (_Block_size <= _Bytes) {

  00070	3b c3		 cmp	 eax, ebx
  00072	0f 86 d2 00 00
	00		 jbe	 $LN114@Emplace_re

; 79   :         return ::operator new(_Bytes);

  00078	50		 push	 eax
  00079	e8 00 00 00 00	 call	 ??2@YAPAXI@Z		; operator new
  0007e	83 c4 04	 add	 esp, 4

; 135  :     _STL_VERIFY(_Ptr_container != 0, "invalid argument"); // validate even in release since we're doing p[-1]

  00081	85 c0		 test	 eax, eax
  00083	0f 84 bb 00 00
	00		 je	 $LN105@Emplace_re

; 136  :     void* const _Ptr = reinterpret_cast<void*>((_Ptr_container + _Non_user_size) & ~(_Big_allocation_alignment - 1));

  00089	8d 70 23	 lea	 esi, DWORD PTR [eax+35]
  0008c	83 e6 e0	 and	 esi, -32		; ffffffe0H

; 137  :     static_cast<uintptr_t*>(_Ptr)[-1] = _Ptr_container;

  0008f	89 46 fc	 mov	 DWORD PTR [esi-4], eax

; 229  :             return _Allocate_manually_vector_aligned<_Traits>(_Bytes);

  00092	eb 13		 jmp	 SHORT $LN23@Emplace_re
$LN24@Emplace_re:

; 230  :         }
; 231  :     }
; 232  : #endif // defined(_M_IX86) || defined(_M_X64)
; 233  : 
; 234  :     if (_Bytes != 0) {

  00094	85 db		 test	 ebx, ebx
  00096	74 0d		 je	 SHORT $LN25@Emplace_re

; 79   :         return ::operator new(_Bytes);

  00098	53		 push	 ebx
  00099	e8 00 00 00 00	 call	 ??2@YAPAXI@Z		; operator new
  0009e	83 c4 04	 add	 esp, 4

; 235  :         return _Traits::_Allocate(_Bytes);

  000a1	8b f0		 mov	 esi, eax
  000a3	eb 02		 jmp	 SHORT $LN23@Emplace_re
$LN25@Emplace_re:

; 236  :     }
; 237  : 
; 238  :     return nullptr;

  000a5	33 f6		 xor	 esi, esi
$LN23@Emplace_re:
; File C:\Program Files (x86)\Microsoft Visual Studio\2019\Community\VC\Tools\MSVC\14.29.30133\include\vector

; 776  :         _Alty_traits::construct(_Al, _Unfancy(_Newvec + _Whereoff), _STD forward<_Valty>(_Val)...);

  000a7	8b 45 fc	 mov	 eax, DWORD PTR __Whereoff$1$[ebp]

; 777  :         _Constructed_first = _Newvec + _Whereoff;
; 778  : 
; 779  :         if (_Whereptr == _Mylast) { // at back, provide strong guarantee

  000aa	8b 55 08	 mov	 edx, DWORD PTR __Whereptr$[ebp]
  000ad	8d 0c 86	 lea	 ecx, DWORD PTR [esi+eax*4]
  000b0	8b 45 0c	 mov	 eax, DWORD PTR _<_Val_0>$[ebp]
  000b3	89 4d fc	 mov	 DWORD PTR tv710[ebp], ecx
  000b6	8b 00		 mov	 eax, DWORD PTR [eax]
  000b8	89 01		 mov	 DWORD PTR [ecx], eax
  000ba	8b 47 04	 mov	 eax, DWORD PTR [edi+4]
  000bd	8b 0f		 mov	 ecx, DWORD PTR [edi]
  000bf	3b d0		 cmp	 edx, eax
  000c1	75 0f		 jne	 SHORT $LN4@Emplace_re
; File C:\Program Files (x86)\Microsoft Visual Studio\2019\Community\VC\Tools\MSVC\14.29.30133\include\xutility

; 4065 :     const auto _Count           = static_cast<size_t>(_Last_ch - _First_ch);

  000c3	2b c1		 sub	 eax, ecx

; 4066 :     _CSTD memmove(_Dest_ch, _First_ch, _Count);

  000c5	50		 push	 eax
  000c6	51		 push	 ecx
  000c7	56		 push	 esi
  000c8	e8 00 00 00 00	 call	 _memmove
  000cd	83 c4 0c	 add	 esp, 12			; 0000000cH
; File C:\Program Files (x86)\Microsoft Visual Studio\2019\Community\VC\Tools\MSVC\14.29.30133\include\vector

; 781  :         } else { // provide basic guarantee

  000d0	eb 23		 jmp	 SHORT $LN78@Emplace_re
$LN4@Emplace_re:
; File C:\Program Files (x86)\Microsoft Visual Studio\2019\Community\VC\Tools\MSVC\14.29.30133\include\xutility

; 4065 :     const auto _Count           = static_cast<size_t>(_Last_ch - _First_ch);

  000d2	2b d1		 sub	 edx, ecx

; 4066 :     _CSTD memmove(_Dest_ch, _First_ch, _Count);

  000d4	52		 push	 edx
  000d5	51		 push	 ecx
  000d6	56		 push	 esi
  000d7	e8 00 00 00 00	 call	 _memmove

; 4065 :     const auto _Count           = static_cast<size_t>(_Last_ch - _First_ch);

  000dc	8b 47 04	 mov	 eax, DWORD PTR [edi+4]
  000df	8b 4d 08	 mov	 ecx, DWORD PTR __Whereptr$[ebp]
  000e2	2b c1		 sub	 eax, ecx

; 4066 :     _CSTD memmove(_Dest_ch, _First_ch, _Count);

  000e4	50		 push	 eax
; File C:\Program Files (x86)\Microsoft Visual Studio\2019\Community\VC\Tools\MSVC\14.29.30133\include\vector

; 784  :             _Umove(_Whereptr, _Mylast, _Newvec + _Whereoff + 1);

  000e5	8b 45 fc	 mov	 eax, DWORD PTR tv710[ebp]
; File C:\Program Files (x86)\Microsoft Visual Studio\2019\Community\VC\Tools\MSVC\14.29.30133\include\xutility

; 4066 :     _CSTD memmove(_Dest_ch, _First_ch, _Count);

  000e8	51		 push	 ecx
; File C:\Program Files (x86)\Microsoft Visual Studio\2019\Community\VC\Tools\MSVC\14.29.30133\include\vector

; 784  :             _Umove(_Whereptr, _Mylast, _Newvec + _Whereoff + 1);

  000e9	83 c0 04	 add	 eax, 4
; File C:\Program Files (x86)\Microsoft Visual Studio\2019\Community\VC\Tools\MSVC\14.29.30133\include\xutility

; 4066 :     _CSTD memmove(_Dest_ch, _First_ch, _Count);

  000ec	50		 push	 eax
  000ed	e8 00 00 00 00	 call	 _memmove
  000f2	83 c4 18	 add	 esp, 24			; 00000018H
$LN78@Emplace_re:
; File C:\Program Files (x86)\Microsoft Visual Studio\2019\Community\VC\Tools\MSVC\14.29.30133\include\vector

; 1732 :         if (_Myfirst) { // destroy and deallocate old array

  000f5	8b 07		 mov	 eax, DWORD PTR [edi]
  000f7	85 c0		 test	 eax, eax
  000f9	74 2c		 je	 SHORT $LN98@Emplace_re

; 1733 :             _Destroy(_Myfirst, _Mylast);
; 1734 :             _Getal().deallocate(_Myfirst, static_cast<size_type>(_Myend - _Myfirst));

  000fb	8b 4f 08	 mov	 ecx, DWORD PTR [edi+8]
  000fe	2b c8		 sub	 ecx, eax
; File C:\Program Files (x86)\Microsoft Visual Studio\2019\Community\VC\Tools\MSVC\14.29.30133\include\xmemory

; 797  :         _Deallocate<_New_alignof<_Ty>>(_Ptr, sizeof(_Ty) * _Count);

  00100	83 e1 fc	 and	 ecx, -4			; fffffffcH

; 251  :         if (_Bytes >= _Big_allocation_threshold) { // boost the alignment of big allocations to help autovectorization

  00103	81 f9 00 10 00
	00		 cmp	 ecx, 4096		; 00001000H
  00109	72 12		 jb	 SHORT $LN108@Emplace_re

; 150  :     const uintptr_t _Ptr_container   = _Ptr_user[-1];

  0010b	8b 50 fc	 mov	 edx, DWORD PTR [eax-4]
  0010e	83 c1 23	 add	 ecx, 35			; 00000023H

; 151  : 
; 152  :     // If the following asserts, it likely means that we are performing
; 153  :     // an aligned delete on memory coming from an unaligned allocation.
; 154  :     _STL_ASSERT(_Ptr_user[-2] == _Big_allocation_sentinel, "invalid argument");
; 155  : 
; 156  :     // Extra paranoia on aligned allocation/deallocation; ensure _Ptr_container is
; 157  :     // in range [_Min_back_shift, _Non_user_size]
; 158  : #ifdef _DEBUG
; 159  :     constexpr uintptr_t _Min_back_shift = 2 * sizeof(void*);
; 160  : #else // ^^^ _DEBUG ^^^ // vvv !_DEBUG vvv
; 161  :     constexpr uintptr_t _Min_back_shift = sizeof(void*);
; 162  : #endif // _DEBUG
; 163  :     const uintptr_t _Back_shift = reinterpret_cast<uintptr_t>(_Ptr) - _Ptr_container;

  00111	2b c2		 sub	 eax, edx

; 164  :     _STL_VERIFY(_Back_shift >= _Min_back_shift && _Back_shift <= _Non_user_size, "invalid argument");

  00113	83 c0 fc	 add	 eax, -4			; fffffffcH
  00116	83 f8 1f	 cmp	 eax, 31			; 0000001fH
  00119	77 29		 ja	 SHORT $LN105@Emplace_re

; 165  :     _Ptr = reinterpret_cast<void*>(_Ptr_container);

  0011b	8b c2		 mov	 eax, edx
$LN108@Emplace_re:

; 255  :         ::operator delete(_Ptr, _Bytes);

  0011d	51		 push	 ecx
  0011e	50		 push	 eax
  0011f	e8 00 00 00 00	 call	 ??3@YAXPAXI@Z		; operator delete
  00124	83 c4 08	 add	 esp, 8
$LN98@Emplace_re:
; File C:\Program Files (x86)\Microsoft Visual Studio\2019\Community\VC\Tools\MSVC\14.29.30133\include\vector

; 1738 :         _Mylast  = _Newvec + _Newsize;

  00127	8b 45 f8	 mov	 eax, DWORD PTR __Newsize$1$[ebp]
  0012a	89 37		 mov	 DWORD PTR [edi], esi
  0012c	8d 0c 86	 lea	 ecx, DWORD PTR [esi+eax*4]

; 785  :         }
; 786  :         _CATCH_ALL
; 787  :         _Destroy(_Constructed_first, _Constructed_last);
; 788  :         _Al.deallocate(_Newvec, _Newcapacity);
; 789  :         _RERAISE;
; 790  :         _CATCH_END
; 791  : 
; 792  :         _Change_array(_Newvec, _Newsize, _Newcapacity);
; 793  :         return _Newvec + _Whereoff;

  0012f	8b 45 fc	 mov	 eax, DWORD PTR tv710[ebp]

; 1738 :         _Mylast  = _Newvec + _Newsize;

  00132	89 4f 04	 mov	 DWORD PTR [edi+4], ecx

; 1739 :         _Myend   = _Newvec + _Newcapacity;

  00135	8d 0c 33	 lea	 ecx, DWORD PTR [ebx+esi]
  00138	89 4f 08	 mov	 DWORD PTR [edi+8], ecx

; 785  :         }
; 786  :         _CATCH_ALL
; 787  :         _Destroy(_Constructed_first, _Constructed_last);
; 788  :         _Al.deallocate(_Newvec, _Newcapacity);
; 789  :         _RERAISE;
; 790  :         _CATCH_END
; 791  : 
; 792  :         _Change_array(_Newvec, _Newsize, _Newcapacity);
; 793  :         return _Newvec + _Whereoff;

  0013b	5f		 pop	 edi
  0013c	5e		 pop	 esi
  0013d	5b		 pop	 ebx

; 794  :     }

  0013e	8b e5		 mov	 esp, ebp
  00140	5d		 pop	 ebp
  00141	c2 08 00	 ret	 8
$LN105@Emplace_re:
; File C:\Program Files (x86)\Microsoft Visual Studio\2019\Community\VC\Tools\MSVC\14.29.30133\include\xmemory

; 164  :     _STL_VERIFY(_Back_shift >= _Min_back_shift && _Back_shift <= _Non_user_size, "invalid argument");

  00144	ff 15 00 00 00
	00		 call	 DWORD PTR __imp___invalid_parameter_noinfo_noreturn
$LN114@Emplace_re:

; 131  :         _Throw_bad_array_new_length(); // add overflow

  0014a	e8 00 00 00 00	 call	 ?_Throw_bad_array_new_length@std@@YAXXZ ; std::_Throw_bad_array_new_length
$LN117@Emplace_re:
; File C:\Program Files (x86)\Microsoft Visual Studio\2019\Community\VC\Tools\MSVC\14.29.30133\include\vector

; 765  :             _Xlength();

  0014f	e8 00 00 00 00	 call	 ?_Xlength@?$vector@HV?$allocator@H@std@@@std@@CAXXZ ; std::vector<int,std::allocator<int> >::_Xlength
$LN115@Emplace_re:
  00154	cc		 int	 3
??$_Emplace_reallocate@ABH@?$vector@HV?$allocator@H@std@@@std@@QAEPAHQAHABH@Z ENDP ; std::vector<int,std::allocator<int> >::_Emplace_reallocate<int const &>
_TEXT	ENDS
; Function compile flags: /Ogtp
; File C:\Program Files (x86)\Microsoft Visual Studio\2019\Community\VC\Tools\MSVC\14.29.30133\include\vector
;	COMDAT ?_Xrange@?$vector@HV?$allocator@H@std@@@std@@CAXXZ
_TEXT	SEGMENT
?_Xrange@?$vector@HV?$allocator@H@std@@@std@@CAXXZ PROC	; std::vector<int,std::allocator<int> >::_Xrange, COMDAT

; 1765 :         _Xout_of_range("invalid vector subscript");

  00000	68 00 00 00 00	 push	 OFFSET ??_C@_0BJ@DHFDPMIM@invalid?5vector?5subscript@
  00005	e8 00 00 00 00	 call	 ?_Xout_of_range@std@@YAXPBD@Z ; std::_Xout_of_range
$LN3@Xrange:
  0000a	cc		 int	 3
?_Xrange@?$vector@HV?$allocator@H@std@@@std@@CAXXZ ENDP	; std::vector<int,std::allocator<int> >::_Xrange
_TEXT	ENDS
; Function compile flags: /Ogtp
; File C:\Program Files (x86)\Microsoft Visual Studio\2019\Community\VC\Tools\MSVC\14.29.30133\include\vector
;	COMDAT ?_Xlength@?$vector@HV?$allocator@H@std@@@std@@CAXXZ
_TEXT	SEGMENT
?_Xlength@?$vector@HV?$allocator@H@std@@@std@@CAXXZ PROC ; std::vector<int,std::allocator<int> >::_Xlength, COMDAT

; 1761 :         _Xlength_error("vector too long");

  00000	68 00 00 00 00	 push	 OFFSET ??_C@_0BA@FOIKENOD@vector?5too?5long@
  00005	e8 00 00 00 00	 call	 ?_Xlength_error@std@@YAXPBD@Z ; std::_Xlength_error
$LN3@Xlength:
  0000a	cc		 int	 3
?_Xlength@?$vector@HV?$allocator@H@std@@@std@@CAXXZ ENDP ; std::vector<int,std::allocator<int> >::_Xlength
_TEXT	ENDS
; Function compile flags: /Ogtp
; File C:\Program Files (x86)\Microsoft Visual Studio\2019\Community\VC\Tools\MSVC\14.29.30133\include\vector
; File C:\Program Files (x86)\Microsoft Visual Studio\2019\Community\VC\Tools\MSVC\14.29.30133\include\xmemory
; File C:\Program Files (x86)\Microsoft Visual Studio\2019\Community\VC\Tools\MSVC\14.29.30133\include\vector
; File C:\Program Files (x86)\Microsoft Visual Studio\2019\Community\VC\Tools\MSVC\14.29.30133\include\xmemory
; File C:\Program Files (x86)\Microsoft Visual Studio\2019\Community\VC\Tools\MSVC\14.29.30133\include\vector
; File C:\Program Files (x86)\Microsoft Visual Studio\2019\Community\VC\Tools\MSVC\14.29.30133\include\xmemory
; File C:\Program Files (x86)\Microsoft Visual Studio\2019\Community\VC\Tools\MSVC\14.29.30133\include\vector
;	COMDAT ??1?$vector@HV?$allocator@H@std@@@std@@QAE@XZ
_TEXT	SEGMENT
??1?$vector@HV?$allocator@H@std@@@std@@QAE@XZ PROC	; std::vector<int,std::allocator<int> >::~vector<int,std::allocator<int> >, COMDAT
; _this$ = ecx

; 698  :     _CONSTEXPR20_CONTAINER ~vector() noexcept {

  00000	56		 push	 esi
  00001	8b f1		 mov	 esi, ecx

; 1750 :         if (_Myfirst) { // destroy and deallocate old array

  00003	8b 06		 mov	 eax, DWORD PTR [esi]
  00005	85 c0		 test	 eax, eax
  00007	74 40		 je	 SHORT $LN4@vector

; 1751 :             _Destroy(_Myfirst, _Mylast);
; 1752 :             _Getal().deallocate(_Myfirst, static_cast<size_type>(_Myend - _Myfirst));

  00009	8b 4e 08	 mov	 ecx, DWORD PTR [esi+8]
  0000c	2b c8		 sub	 ecx, eax
; File C:\Program Files (x86)\Microsoft Visual Studio\2019\Community\VC\Tools\MSVC\14.29.30133\include\xmemory

; 797  :         _Deallocate<_New_alignof<_Ty>>(_Ptr, sizeof(_Ty) * _Count);

  0000e	83 e1 fc	 and	 ecx, -4			; fffffffcH

; 251  :         if (_Bytes >= _Big_allocation_threshold) { // boost the alignment of big allocations to help autovectorization

  00011	81 f9 00 10 00
	00		 cmp	 ecx, 4096		; 00001000H
  00017	72 12		 jb	 SHORT $LN20@vector

; 150  :     const uintptr_t _Ptr_container   = _Ptr_user[-1];

  00019	8b 50 fc	 mov	 edx, DWORD PTR [eax-4]
  0001c	83 c1 23	 add	 ecx, 35			; 00000023H

; 151  : 
; 152  :     // If the following asserts, it likely means that we are performing
; 153  :     // an aligned delete on memory coming from an unaligned allocation.
; 154  :     _STL_ASSERT(_Ptr_user[-2] == _Big_allocation_sentinel, "invalid argument");
; 155  : 
; 156  :     // Extra paranoia on aligned allocation/deallocation; ensure _Ptr_container is
; 157  :     // in range [_Min_back_shift, _Non_user_size]
; 158  : #ifdef _DEBUG
; 159  :     constexpr uintptr_t _Min_back_shift = 2 * sizeof(void*);
; 160  : #else // ^^^ _DEBUG ^^^ // vvv !_DEBUG vvv
; 161  :     constexpr uintptr_t _Min_back_shift = sizeof(void*);
; 162  : #endif // _DEBUG
; 163  :     const uintptr_t _Back_shift = reinterpret_cast<uintptr_t>(_Ptr) - _Ptr_container;

  0001f	2b c2		 sub	 eax, edx

; 164  :     _STL_VERIFY(_Back_shift >= _Min_back_shift && _Back_shift <= _Non_user_size, "invalid argument");

  00021	83 c0 fc	 add	 eax, -4			; fffffffcH
  00024	83 f8 1f	 cmp	 eax, 31			; 0000001fH
  00027	77 22		 ja	 SHORT $LN17@vector

; 165  :     _Ptr = reinterpret_cast<void*>(_Ptr_container);

  00029	8b c2		 mov	 eax, edx
$LN20@vector:

; 255  :         ::operator delete(_Ptr, _Bytes);

  0002b	51		 push	 ecx
  0002c	50		 push	 eax
  0002d	e8 00 00 00 00	 call	 ??3@YAXPAXI@Z		; operator delete
; File C:\Program Files (x86)\Microsoft Visual Studio\2019\Community\VC\Tools\MSVC\14.29.30133\include\vector

; 1754 :             _Myfirst = nullptr;

  00032	c7 06 00 00 00
	00		 mov	 DWORD PTR [esi], 0
; File C:\Program Files (x86)\Microsoft Visual Studio\2019\Community\VC\Tools\MSVC\14.29.30133\include\xmemory

; 255  :         ::operator delete(_Ptr, _Bytes);

  00038	83 c4 08	 add	 esp, 8
; File C:\Program Files (x86)\Microsoft Visual Studio\2019\Community\VC\Tools\MSVC\14.29.30133\include\vector

; 1755 :             _Mylast  = nullptr;

  0003b	c7 46 04 00 00
	00 00		 mov	 DWORD PTR [esi+4], 0

; 1756 :             _Myend   = nullptr;

  00042	c7 46 08 00 00
	00 00		 mov	 DWORD PTR [esi+8], 0
$LN4@vector:
  00049	5e		 pop	 esi

; 704  :     }

  0004a	c3		 ret	 0
$LN17@vector:
; File C:\Program Files (x86)\Microsoft Visual Studio\2019\Community\VC\Tools\MSVC\14.29.30133\include\xmemory

; 164  :     _STL_VERIFY(_Back_shift >= _Min_back_shift && _Back_shift <= _Non_user_size, "invalid argument");

  0004b	ff 15 00 00 00
	00		 call	 DWORD PTR __imp___invalid_parameter_noinfo_noreturn
$LN25@vector:
  00051	cc		 int	 3
??1?$vector@HV?$allocator@H@std@@@std@@QAE@XZ ENDP	; std::vector<int,std::allocator<int> >::~vector<int,std::allocator<int> >
_TEXT	ENDS
; Function compile flags: /Ogtp
;	COMDAT ??1CDlgGroupName@@UAE@XZ
_TEXT	SEGMENT
??1CDlgGroupName@@UAE@XZ PROC				; CDlgGroupName::~CDlgGroupName, COMDAT
; _this$ = ecx
  00000	56		 push	 esi
  00001	8b f1		 mov	 esi, ecx
  00003	8d 8e a8 00 00
	00		 lea	 ecx, DWORD PTR [esi+168]
  00009	ff 15 00 00 00
	00		 call	 DWORD PTR __imp_??1?$CStringT@DV?$StrTraitMFC_DLL@DV?$ChTraitsCRT@D@ATL@@@@@ATL@@QAE@XZ
  0000f	8b ce		 mov	 ecx, esi
  00011	5e		 pop	 esi
  00012	e9 00 00 00 00	 jmp	 ??1CDialog@@UAE@XZ	; CDialog::~CDialog
??1CDlgGroupName@@UAE@XZ ENDP				; CDlgGroupName::~CDlgGroupName
_TEXT	ENDS
; Function compile flags: /Ogtp
; File C:\Program Files (x86)\Microsoft Visual Studio\2019\Community\VC\Tools\MSVC\14.29.30133\include\exception
;	COMDAT ?_Throw_bad_array_new_length@std@@YAXXZ
_TEXT	SEGMENT
$T1 = -12						; size = 12
?_Throw_bad_array_new_length@std@@YAXXZ PROC		; std::_Throw_bad_array_new_length, COMDAT

; 315  : [[noreturn]] inline void _Throw_bad_array_new_length() {

  00000	55		 push	 ebp
  00001	8b ec		 mov	 ebp, esp
  00003	83 ec 0c	 sub	 esp, 12			; 0000000cH

; 316  :     _THROW(bad_array_new_length{});

  00006	8d 4d f4	 lea	 ecx, DWORD PTR $T1[ebp]
  00009	e8 00 00 00 00	 call	 ??0bad_array_new_length@std@@QAE@XZ ; std::bad_array_new_length::bad_array_new_length
  0000e	68 00 00 00 00	 push	 OFFSET __TI3?AVbad_array_new_length@std@@
  00013	8d 45 f4	 lea	 eax, DWORD PTR $T1[ebp]
  00016	50		 push	 eax
  00017	e8 00 00 00 00	 call	 __CxxThrowException@8
$LN3@Throw_bad_:
  0001c	cc		 int	 3
?_Throw_bad_array_new_length@std@@YAXXZ ENDP		; std::_Throw_bad_array_new_length
_TEXT	ENDS
; Function compile flags: /Ogtp
; File C:\Program Files (x86)\Microsoft Visual Studio\2019\Community\VC\Tools\MSVC\14.29.30133\include\vcruntime_exception.h
;	COMDAT ??_Gbad_array_new_length@std@@UAEPAXI@Z
_TEXT	SEGMENT
___flags$ = 8						; size = 4
??_Gbad_array_new_length@std@@UAEPAXI@Z PROC		; std::bad_array_new_length::`scalar deleting destructor', COMDAT
; _this$ = ecx
  00000	55		 push	 ebp
  00001	8b ec		 mov	 ebp, esp

; 89   :     {

  00003	56		 push	 esi
  00004	8b f1		 mov	 esi, ecx

; 90   :         __std_exception_destroy(&_Data);

  00006	8d 46 04	 lea	 eax, DWORD PTR [esi+4]
  00009	c7 06 00 00 00
	00		 mov	 DWORD PTR [esi], OFFSET ??_7exception@std@@6B@
  0000f	50		 push	 eax
  00010	e8 00 00 00 00	 call	 ___std_exception_destroy
  00015	83 c4 04	 add	 esp, 4
  00018	f6 45 08 01	 test	 BYTE PTR ___flags$[ebp], 1
  0001c	74 0b		 je	 SHORT $LN12@scalar
  0001e	6a 0c		 push	 12			; 0000000cH
  00020	56		 push	 esi
  00021	e8 00 00 00 00	 call	 ??3@YAXPAXI@Z		; operator delete
  00026	83 c4 08	 add	 esp, 8
$LN12@scalar:
  00029	8b c6		 mov	 eax, esi
  0002b	5e		 pop	 esi
  0002c	5d		 pop	 ebp
  0002d	c2 04 00	 ret	 4
??_Gbad_array_new_length@std@@UAEPAXI@Z ENDP		; std::bad_array_new_length::`scalar deleting destructor'
_TEXT	ENDS
; Function compile flags: /Ogtp
; File C:\Program Files (x86)\Microsoft Visual Studio\2019\Community\VC\Tools\MSVC\14.29.30133\include\vcruntime_exception.h
;	COMDAT ??0bad_array_new_length@std@@QAE@ABV01@@Z
_TEXT	SEGMENT
___that$ = 8						; size = 4
??0bad_array_new_length@std@@QAE@ABV01@@Z PROC		; std::bad_array_new_length::bad_array_new_length, COMDAT
; _this$ = ecx
  00000	55		 push	 ebp
  00001	8b ec		 mov	 ebp, esp

; 72   :     {

  00003	56		 push	 esi
  00004	8b f1		 mov	 esi, ecx
  00006	0f 57 c0	 xorps	 xmm0, xmm0

; 71   :         : _Data()

  00009	8d 46 04	 lea	 eax, DWORD PTR [esi+4]

; 73   :         __std_exception_copy(&_Other._Data, &_Data);

  0000c	50		 push	 eax
  0000d	c7 06 00 00 00
	00		 mov	 DWORD PTR [esi], OFFSET ??_7exception@std@@6B@
  00013	66 0f d6 00	 movq	 QWORD PTR [eax], xmm0
  00017	8b 45 08	 mov	 eax, DWORD PTR ___that$[ebp]
  0001a	83 c0 04	 add	 eax, 4
  0001d	50		 push	 eax
  0001e	e8 00 00 00 00	 call	 ___std_exception_copy
  00023	83 c4 08	 add	 esp, 8
  00026	c7 06 00 00 00
	00		 mov	 DWORD PTR [esi], OFFSET ??_7bad_array_new_length@std@@6B@
  0002c	8b c6		 mov	 eax, esi
  0002e	5e		 pop	 esi
  0002f	5d		 pop	 ebp
  00030	c2 04 00	 ret	 4
??0bad_array_new_length@std@@QAE@ABV01@@Z ENDP		; std::bad_array_new_length::bad_array_new_length
_TEXT	ENDS
; Function compile flags: /Ogtp
; File C:\Program Files (x86)\Microsoft Visual Studio\2019\Community\VC\Tools\MSVC\14.29.30133\include\vcruntime_exception.h
;	COMDAT ??1bad_array_new_length@std@@UAE@XZ
_TEXT	SEGMENT
??1bad_array_new_length@std@@UAE@XZ PROC		; std::bad_array_new_length::~bad_array_new_length, COMDAT
; _this$ = ecx

; 90   :         __std_exception_destroy(&_Data);

  00000	8d 41 04	 lea	 eax, DWORD PTR [ecx+4]
  00003	c7 01 00 00 00
	00		 mov	 DWORD PTR [ecx], OFFSET ??_7exception@std@@6B@
  00009	50		 push	 eax
  0000a	e8 00 00 00 00	 call	 ___std_exception_destroy
  0000f	59		 pop	 ecx
  00010	c3		 ret	 0
??1bad_array_new_length@std@@UAE@XZ ENDP		; std::bad_array_new_length::~bad_array_new_length
_TEXT	ENDS
; Function compile flags: /Ogtp
; File C:\Program Files (x86)\Microsoft Visual Studio\2019\Community\VC\Tools\MSVC\14.29.30133\include\vcruntime_exception.h
;	COMDAT ??0bad_array_new_length@std@@QAE@XZ
_TEXT	SEGMENT
??0bad_array_new_length@std@@QAE@XZ PROC		; std::bad_array_new_length::bad_array_new_length, COMDAT
; _this$ = ecx

; 141  :     {

  00000	0f 57 c0	 xorps	 xmm0, xmm0

; 142  :     }

  00003	8b c1		 mov	 eax, ecx

; 65   :         : _Data()

  00005	66 0f d6 41 04	 movq	 QWORD PTR [ecx+4], xmm0

; 66   :     {
; 67   :         _Data._What = _Message;

  0000a	c7 41 04 00 00
	00 00		 mov	 DWORD PTR [ecx+4], OFFSET ??_C@_0BF@KINCDENJ@bad?5array?5new?5length@

; 141  :     {

  00011	c7 01 00 00 00
	00		 mov	 DWORD PTR [ecx], OFFSET ??_7bad_array_new_length@std@@6B@

; 142  :     }

  00017	c3		 ret	 0
??0bad_array_new_length@std@@QAE@XZ ENDP		; std::bad_array_new_length::bad_array_new_length
_TEXT	ENDS
; Function compile flags: /Ogtp
; File C:\Program Files (x86)\Microsoft Visual Studio\2019\Community\VC\Tools\MSVC\14.29.30133\include\vcruntime_exception.h
;	COMDAT ??_Gbad_alloc@std@@UAEPAXI@Z
_TEXT	SEGMENT
___flags$ = 8						; size = 4
??_Gbad_alloc@std@@UAEPAXI@Z PROC			; std::bad_alloc::`scalar deleting destructor', COMDAT
; _this$ = ecx
  00000	55		 push	 ebp
  00001	8b ec		 mov	 ebp, esp

; 89   :     {

  00003	56		 push	 esi
  00004	8b f1		 mov	 esi, ecx

; 90   :         __std_exception_destroy(&_Data);

  00006	8d 46 04	 lea	 eax, DWORD PTR [esi+4]
  00009	c7 06 00 00 00
	00		 mov	 DWORD PTR [esi], OFFSET ??_7exception@std@@6B@
  0000f	50		 push	 eax
  00010	e8 00 00 00 00	 call	 ___std_exception_destroy
  00015	83 c4 04	 add	 esp, 4
  00018	f6 45 08 01	 test	 BYTE PTR ___flags$[ebp], 1
  0001c	74 0b		 je	 SHORT $LN9@scalar
  0001e	6a 0c		 push	 12			; 0000000cH
  00020	56		 push	 esi
  00021	e8 00 00 00 00	 call	 ??3@YAXPAXI@Z		; operator delete
  00026	83 c4 08	 add	 esp, 8
$LN9@scalar:
  00029	8b c6		 mov	 eax, esi
  0002b	5e		 pop	 esi
  0002c	5d		 pop	 ebp
  0002d	c2 04 00	 ret	 4
??_Gbad_alloc@std@@UAEPAXI@Z ENDP			; std::bad_alloc::`scalar deleting destructor'
_TEXT	ENDS
; Function compile flags: /Ogtp
; File C:\Program Files (x86)\Microsoft Visual Studio\2019\Community\VC\Tools\MSVC\14.29.30133\include\vcruntime_exception.h
;	COMDAT ??0bad_alloc@std@@QAE@ABV01@@Z
_TEXT	SEGMENT
___that$ = 8						; size = 4
??0bad_alloc@std@@QAE@ABV01@@Z PROC			; std::bad_alloc::bad_alloc, COMDAT
; _this$ = ecx
  00000	55		 push	 ebp
  00001	8b ec		 mov	 ebp, esp

; 72   :     {

  00003	56		 push	 esi
  00004	8b f1		 mov	 esi, ecx
  00006	0f 57 c0	 xorps	 xmm0, xmm0

; 71   :         : _Data()

  00009	8d 46 04	 lea	 eax, DWORD PTR [esi+4]

; 73   :         __std_exception_copy(&_Other._Data, &_Data);

  0000c	50		 push	 eax
  0000d	c7 06 00 00 00
	00		 mov	 DWORD PTR [esi], OFFSET ??_7exception@std@@6B@
  00013	66 0f d6 00	 movq	 QWORD PTR [eax], xmm0
  00017	8b 45 08	 mov	 eax, DWORD PTR ___that$[ebp]
  0001a	83 c0 04	 add	 eax, 4
  0001d	50		 push	 eax
  0001e	e8 00 00 00 00	 call	 ___std_exception_copy
  00023	83 c4 08	 add	 esp, 8
  00026	c7 06 00 00 00
	00		 mov	 DWORD PTR [esi], OFFSET ??_7bad_alloc@std@@6B@
  0002c	8b c6		 mov	 eax, esi
  0002e	5e		 pop	 esi
  0002f	5d		 pop	 ebp
  00030	c2 04 00	 ret	 4
??0bad_alloc@std@@QAE@ABV01@@Z ENDP			; std::bad_alloc::bad_alloc
_TEXT	ENDS
; Function compile flags: /Ogtp
; File C:\Program Files (x86)\Microsoft Visual Studio\2019\Community\VC\Tools\MSVC\14.29.30133\include\vcruntime_exception.h
;	COMDAT ??_Gexception@std@@UAEPAXI@Z
_TEXT	SEGMENT
___flags$ = 8						; size = 4
??_Gexception@std@@UAEPAXI@Z PROC			; std::exception::`scalar deleting destructor', COMDAT
; _this$ = ecx
  00000	55		 push	 ebp
  00001	8b ec		 mov	 ebp, esp

; 89   :     {

  00003	56		 push	 esi
  00004	8b f1		 mov	 esi, ecx

; 90   :         __std_exception_destroy(&_Data);

  00006	8d 46 04	 lea	 eax, DWORD PTR [esi+4]
  00009	c7 06 00 00 00
	00		 mov	 DWORD PTR [esi], OFFSET ??_7exception@std@@6B@
  0000f	50		 push	 eax
  00010	e8 00 00 00 00	 call	 ___std_exception_destroy
  00015	83 c4 04	 add	 esp, 4
  00018	f6 45 08 01	 test	 BYTE PTR ___flags$[ebp], 1
  0001c	74 0b		 je	 SHORT $LN6@scalar
  0001e	6a 0c		 push	 12			; 0000000cH
  00020	56		 push	 esi
  00021	e8 00 00 00 00	 call	 ??3@YAXPAXI@Z		; operator delete
  00026	83 c4 08	 add	 esp, 8
$LN6@scalar:
  00029	8b c6		 mov	 eax, esi
  0002b	5e		 pop	 esi
  0002c	5d		 pop	 ebp
  0002d	c2 04 00	 ret	 4
??_Gexception@std@@UAEPAXI@Z ENDP			; std::exception::`scalar deleting destructor'
_TEXT	ENDS
; Function compile flags: /Ogtp
; File C:\Program Files (x86)\Microsoft Visual Studio\2019\Community\VC\Tools\MSVC\14.29.30133\include\vcruntime_exception.h
;	COMDAT ?what@exception@std@@UBEPBDXZ
_TEXT	SEGMENT
?what@exception@std@@UBEPBDXZ PROC			; std::exception::what, COMDAT
; _this$ = ecx

; 95   :         return _Data._What ? _Data._What : "Unknown exception";

  00000	8b 49 04	 mov	 ecx, DWORD PTR [ecx+4]
  00003	b8 00 00 00 00	 mov	 eax, OFFSET ??_C@_0BC@EOODALEL@Unknown?5exception@
  00008	85 c9		 test	 ecx, ecx
  0000a	0f 45 c1	 cmovne	 eax, ecx

; 96   :     }

  0000d	c3		 ret	 0
?what@exception@std@@UBEPBDXZ ENDP			; std::exception::what
_TEXT	ENDS
; Function compile flags: /Ogtp
; File C:\Program Files (x86)\Microsoft Visual Studio\2019\Community\VC\Tools\MSVC\14.29.30133\include\vcruntime_exception.h
;	COMDAT ??1exception@std@@UAE@XZ
_TEXT	SEGMENT
??1exception@std@@UAE@XZ PROC				; std::exception::~exception, COMDAT
; _this$ = ecx

; 90   :         __std_exception_destroy(&_Data);

  00000	8d 41 04	 lea	 eax, DWORD PTR [ecx+4]
  00003	c7 01 00 00 00
	00		 mov	 DWORD PTR [ecx], OFFSET ??_7exception@std@@6B@
  00009	50		 push	 eax
  0000a	e8 00 00 00 00	 call	 ___std_exception_destroy
  0000f	59		 pop	 ecx

; 91   :     }

  00010	c3		 ret	 0
??1exception@std@@UAE@XZ ENDP				; std::exception::~exception
_TEXT	ENDS
; Function compile flags: /Ogtp
; File C:\Program Files (x86)\Microsoft Visual Studio\2019\Community\VC\Tools\MSVC\14.29.30133\include\vcruntime_exception.h
;	COMDAT ??0exception@std@@QAE@ABV01@@Z
_TEXT	SEGMENT
__Other$ = 8						; size = 4
??0exception@std@@QAE@ABV01@@Z PROC			; std::exception::exception, COMDAT
; _this$ = ecx

; 72   :     {

  00000	55		 push	 ebp
  00001	8b ec		 mov	 ebp, esp
  00003	56		 push	 esi
  00004	8b f1		 mov	 esi, ecx
  00006	0f 57 c0	 xorps	 xmm0, xmm0
  00009	8d 46 04	 lea	 eax, DWORD PTR [esi+4]

; 73   :         __std_exception_copy(&_Other._Data, &_Data);

  0000c	50		 push	 eax
  0000d	c7 06 00 00 00
	00		 mov	 DWORD PTR [esi], OFFSET ??_7exception@std@@6B@
  00013	66 0f d6 00	 movq	 QWORD PTR [eax], xmm0
  00017	8b 45 08	 mov	 eax, DWORD PTR __Other$[ebp]
  0001a	83 c0 04	 add	 eax, 4
  0001d	50		 push	 eax
  0001e	e8 00 00 00 00	 call	 ___std_exception_copy
  00023	83 c4 08	 add	 esp, 8

; 74   :     }

  00026	8b c6		 mov	 eax, esi
  00028	5e		 pop	 esi
  00029	5d		 pop	 ebp
  0002a	c2 04 00	 ret	 4
??0exception@std@@QAE@ABV01@@Z ENDP			; std::exception::exception
_TEXT	ENDS
; Function compile flags: /Ogtp
; File D:\git\src\IBK\IBK_DRFN\ProjSrc\SrcDrfn\Chart\Chart_Common\CallPutHelper.h
; File C:\Program Files (x86)\Microsoft Visual Studio\2019\Community\VC\Tools\MSVC\14.29.30133\atlmfc\include\afxtempl.h
; File C:\Program Files (x86)\Microsoft Visual Studio\2019\Community\VC\Tools\MSVC\14.29.30133\atlmfc\include\afx.inl
;	COMDAT ??_GCDlgCompSetup@@UAEPAXI@Z
_TEXT	SEGMENT
__$EHRec$ = -12						; size = 12
___flags$ = 8						; size = 4
??_GCDlgCompSetup@@UAEPAXI@Z PROC			; CDlgCompSetup::`scalar deleting destructor', COMDAT
; _this$ = ecx
  00000	55		 push	 ebp
  00001	8b ec		 mov	 ebp, esp
  00003	6a ff		 push	 -1
  00005	68 00 00 00 00	 push	 __ehhandler$??_GCDlgCompSetup@@UAEPAXI@Z
  0000a	64 a1 00 00 00
	00		 mov	 eax, DWORD PTR fs:0
  00010	50		 push	 eax
  00011	56		 push	 esi
  00012	57		 push	 edi
  00013	a1 00 00 00 00	 mov	 eax, DWORD PTR ___security_cookie
  00018	33 c5		 xor	 eax, ebp
  0001a	50		 push	 eax
  0001b	8d 45 f4	 lea	 eax, DWORD PTR __$EHRec$[ebp]
  0001e	64 a3 00 00 00
	00		 mov	 DWORD PTR fs:0, eax
  00024	8b f9		 mov	 edi, ecx
  00026	8d 8f 14 07 00
	00		 lea	 ecx, DWORD PTR [edi+1812]
  0002c	ff 15 00 00 00
	00		 call	 DWORD PTR __imp_??1?$CStringT@DV?$StrTraitMFC_DLL@DV?$ChTraitsCRT@D@ATL@@@@@ATL@@QAE@XZ
  00032	8d 8f 10 07 00
	00		 lea	 ecx, DWORD PTR [edi+1808]
  00038	ff 15 00 00 00
	00		 call	 DWORD PTR __imp_??1?$CStringT@DV?$StrTraitMFC_DLL@DV?$ChTraitsCRT@D@ATL@@@@@ATL@@QAE@XZ
  0003e	8d b7 e0 06 00
	00		 lea	 esi, DWORD PTR [edi+1760]
; File D:\git\src\IBK\IBK_DRFN\ProjSrc\SrcDrfn\Chart\Chart_Common\CallPutHelper.h

; 150  : 		ClearList();

  00044	8b ce		 mov	 ecx, esi
  00046	c7 45 fc 00 00
	00 00		 mov	 DWORD PTR __$EHRec$[ebp+8], 0
  0004d	e8 00 00 00 00	 call	 ?ClearList@CCallPutIHelper@@QAEXXZ ; CCallPutIHelper::ClearList
; File C:\Program Files (x86)\Microsoft Visual Studio\2019\Community\VC\Tools\MSVC\14.29.30133\atlmfc\include\afxtempl.h

; 872  : 	m_pBlocks->FreeDataChain();

  00052	8b 4e 14	 mov	 ecx, DWORD PTR [esi+20]

; 878  : {

  00055	c6 45 fc 01	 mov	 BYTE PTR __$EHRec$[ebp+8], 1
  00059	c7 06 00 00 00
	00		 mov	 DWORD PTR [esi], OFFSET ??_7?$CList@PAVCCallPutIMonthData@@PAV1@@@6B@

; 870  : 	m_nCount = 0;

  0005f	c7 46 0c 00 00
	00 00		 mov	 DWORD PTR [esi+12], 0

; 871  : 	m_pNodeHead = m_pNodeTail = m_pNodeFree = NULL;

  00066	c7 46 10 00 00
	00 00		 mov	 DWORD PTR [esi+16], 0
  0006d	c7 46 08 00 00
	00 00		 mov	 DWORD PTR [esi+8], 0
  00074	c7 46 04 00 00
	00 00		 mov	 DWORD PTR [esi+4], 0

; 872  : 	m_pBlocks->FreeDataChain();

  0007b	e8 00 00 00 00	 call	 ?FreeDataChain@CPlex@@QAEXXZ ; CPlex::FreeDataChain
  00080	8d 8f 48 06 00
	00		 lea	 ecx, DWORD PTR [edi+1608]

; 873  : 	m_pBlocks = NULL;

  00086	c7 46 14 00 00
	00 00		 mov	 DWORD PTR [esi+20], 0
  0008d	e8 00 00 00 00	 call	 ??1CComboBox@@UAE@XZ	; CComboBox::~CComboBox
  00092	8d 8f c0 05 00
	00		 lea	 ecx, DWORD PTR [edi+1472]
  00098	e8 00 00 00 00	 call	 ??1CBitmapItemComboBox@@UAE@XZ ; CBitmapItemComboBox::~CBitmapItemComboBox
  0009d	8d 8f 38 05 00
	00		 lea	 ecx, DWORD PTR [edi+1336]
  000a3	e8 00 00 00 00	 call	 ??1CBitmapItemComboBox@@UAE@XZ ; CBitmapItemComboBox::~CBitmapItemComboBox
  000a8	8d 8f a0 04 00
	00		 lea	 ecx, DWORD PTR [edi+1184]
  000ae	e8 00 00 00 00	 call	 ??1CXEditPrompt@@UAE@XZ	; CXEditPrompt::~CXEditPrompt
  000b3	8d 8f 08 04 00
	00		 lea	 ecx, DWORD PTR [edi+1032]
  000b9	e8 00 00 00 00	 call	 ??1CXEditPrompt@@UAE@XZ	; CXEditPrompt::~CXEditPrompt
  000be	8d 8f 18 03 00
	00		 lea	 ecx, DWORD PTR [edi+792]
  000c4	e8 00 00 00 00	 call	 ??1CXColourPicker@@UAE@XZ ; CXColourPicker::~CXColourPicker
  000c9	8d 8f 98 02 00
	00		 lea	 ecx, DWORD PTR [edi+664]
  000cf	e8 00 00 00 00	 call	 ??1CTreeCtrl@@UAE@XZ	; CTreeCtrl::~CTreeCtrl
  000d4	8d 8f 18 02 00
	00		 lea	 ecx, DWORD PTR [edi+536]
  000da	e8 00 00 00 00	 call	 ??1CListBox@@UAE@XZ	; CListBox::~CListBox
  000df	8d 8f 98 01 00
	00		 lea	 ecx, DWORD PTR [edi+408]
  000e5	e8 00 00 00 00	 call	 ??1CListCtrl@@UAE@XZ	; CListCtrl::~CListCtrl
  000ea	8d 8f e8 00 00
	00		 lea	 ecx, DWORD PTR [edi+232]
  000f0	e8 00 00 00 00	 call	 ??1CVirtualListCtrl@@UAE@XZ ; CVirtualListCtrl::~CVirtualListCtrl
  000f5	8d 8f e0 00 00
	00		 lea	 ecx, DWORD PTR [edi+224]
  000fb	ff 15 00 00 00
	00		 call	 DWORD PTR __imp_??1?$CStringT@DV?$StrTraitMFC_DLL@DV?$ChTraitsCRT@D@ATL@@@@@ATL@@QAE@XZ

; 872  : 	m_pBlocks->FreeDataChain();

  00101	8b 8f c4 00 00
	00		 mov	 ecx, DWORD PTR [edi+196]

; 878  : {

  00107	c7 45 fc 02 00
	00 00		 mov	 DWORD PTR __$EHRec$[ebp+8], 2
  0010e	c7 87 b0 00 00
	00 00 00 00 00	 mov	 DWORD PTR [edi+176], OFFSET ??_7?$CList@PAVCDlgCompGroupData@@PAV1@@@6B@

; 870  : 	m_nCount = 0;

  00118	c7 87 bc 00 00
	00 00 00 00 00	 mov	 DWORD PTR [edi+188], 0

; 871  : 	m_pNodeHead = m_pNodeTail = m_pNodeFree = NULL;

  00122	c7 87 c0 00 00
	00 00 00 00 00	 mov	 DWORD PTR [edi+192], 0
  0012c	c7 87 b8 00 00
	00 00 00 00 00	 mov	 DWORD PTR [edi+184], 0
  00136	c7 87 b4 00 00
	00 00 00 00 00	 mov	 DWORD PTR [edi+180], 0

; 872  : 	m_pBlocks->FreeDataChain();

  00140	e8 00 00 00 00	 call	 ?FreeDataChain@CPlex@@QAEXXZ ; CPlex::FreeDataChain
  00145	8b cf		 mov	 ecx, edi

; 873  : 	m_pBlocks = NULL;

  00147	c7 87 c4 00 00
	00 00 00 00 00	 mov	 DWORD PTR [edi+196], 0
  00151	e8 00 00 00 00	 call	 ??1CDialog@@UAE@XZ	; CDialog::~CDialog
  00156	8b 45 08	 mov	 eax, DWORD PTR ___flags$[ebp]
  00159	a8 01		 test	 al, 1
  0015b	74 1d		 je	 SHORT $LN41@scalar
  0015d	a8 04		 test	 al, 4
  0015f	75 0b		 jne	 SHORT $LN3@scalar
; File C:\Program Files (x86)\Microsoft Visual Studio\2019\Community\VC\Tools\MSVC\14.29.30133\atlmfc\include\afx.inl

; 112  : 	{ ::operator delete(p); }

  00161	57		 push	 edi
  00162	e8 00 00 00 00	 call	 ??3@YAXPAX@Z		; operator delete
  00167	83 c4 04	 add	 esp, 4
  0016a	eb 0e		 jmp	 SHORT $LN41@scalar
$LN3@scalar:
  0016c	68 20 07 00 00	 push	 1824			; 00000720H
  00171	57		 push	 edi
  00172	e8 00 00 00 00	 call	 ?__global_delete@@YAXPAXI@Z ; __global_delete
  00177	83 c4 08	 add	 esp, 8
$LN41@scalar:
  0017a	8b c7		 mov	 eax, edi
  0017c	8b 4d f4	 mov	 ecx, DWORD PTR __$EHRec$[ebp]
  0017f	64 89 0d 00 00
	00 00		 mov	 DWORD PTR fs:0, ecx
  00186	59		 pop	 ecx
  00187	5f		 pop	 edi
  00188	5e		 pop	 esi
  00189	8b e5		 mov	 esp, ebp
  0018b	5d		 pop	 ebp
  0018c	c2 04 00	 ret	 4
  0018f	cc		 int	 3
  00190	cc		 int	 3
  00191	cc		 int	 3
  00192	cc		 int	 3
  00193	cc		 int	 3
_TEXT	ENDS
;	COMDAT text$x
text$x	SEGMENT
__ehhandler$??_GCDlgCompSetup@@UAEPAXI@Z:
  00000	90		 npad	 1
  00001	90		 npad	 1
  00002	8b 54 24 08	 mov	 edx, DWORD PTR [esp+8]
  00006	8d 42 0c	 lea	 eax, DWORD PTR [edx+12]
  00009	8b 4a f4	 mov	 ecx, DWORD PTR [edx-12]
  0000c	33 c8		 xor	 ecx, eax
  0000e	e8 00 00 00 00	 call	 @__security_check_cookie@4
  00013	b8 00 00 00 00	 mov	 eax, OFFSET __ehfuncinfo$??_GCDlgCompSetup@@UAEPAXI@Z
  00018	e9 00 00 00 00	 jmp	 ___CxxFrameHandler3
text$x	ENDS
??_GCDlgCompSetup@@UAEPAXI@Z ENDP			; CDlgCompSetup::`scalar deleting destructor'
; Function compile flags: /Ogtp
; File D:\git\src\IBK\IBK_DRFN\ProjSrc\SrcDrfn\Chart\ChartUtil\DlgCompSetup.cpp
; File C:\Program Files (x86)\Microsoft Visual Studio\2019\Community\VC\Tools\MSVC\14.29.30133\atlmfc\include\afxcmn.inl
; File D:\git\src\IBK\IBK_DRFN\ProjSrc\SrcDrfn\Chart\ChartUtil\DlgCompSetup.cpp
; File C:\Program Files (x86)\Microsoft Visual Studio\2019\Community\VC\Tools\MSVC\14.29.30133\atlmfc\include\afxcmn.inl
; File D:\git\src\IBK\IBK_DRFN\ProjSrc\SrcDrfn\Chart\ChartUtil\DlgCompSetup.cpp
; File C:\Program Files (x86)\Microsoft Visual Studio\2019\Community\VC\Tools\MSVC\14.29.30133\atlmfc\include\afxcmn.inl
; File D:\git\src\IBK\IBK_DRFN\ProjSrc\SrcDrfn\Chart\ChartUtil\DlgCompSetup.cpp
; File C:\Program Files (x86)\Microsoft Visual Studio\2019\Community\VC\Tools\MSVC\14.29.30133\atlmfc\include\afxcmn.inl
; File D:\git\src\IBK\IBK_DRFN\ProjSrc\SrcDrfn\Chart\ChartUtil\DlgCompSetup.cpp
; File C:\Program Files (x86)\Microsoft Visual Studio\2019\Community\VC\Tools\MSVC\14.29.30133\atlmfc\include\afxcmn.inl
; File D:\git\src\IBK\IBK_DRFN\ProjSrc\SrcDrfn\Chart\ChartUtil\DlgCompSetup.cpp
; File C:\Program Files (x86)\Microsoft Visual Studio\2019\Community\VC\Tools\MSVC\14.29.30133\atlmfc\include\afxcmn.inl
; File D:\git\src\IBK\IBK_DRFN\ProjSrc\SrcDrfn\Chart\ChartUtil\DlgCompSetup.cpp
;	COMDAT ?DoSelectionClear@CDlgCompSetup@@IAEXXZ
_TEXT	SEGMENT
?DoSelectionClear@CDlgCompSetup@@IAEXXZ PROC		; CDlgCompSetup::DoSelectionClear, COMDAT
; _this$ = ecx

; 1458 : {

  00000	53		 push	 ebx
  00001	56		 push	 esi
; File C:\Program Files (x86)\Microsoft Visual Studio\2019\Community\VC\Tools\MSVC\14.29.30133\atlmfc\include\afxcmn.inl

; 245  : 	{ ASSERT(::IsWindow(m_hWnd)); return (UINT) ::SendMessage(m_hWnd, LVM_GETSELECTEDCOUNT, 0, 0L); }

  00002	8b 35 00 00 00
	00		 mov	 esi, DWORD PTR __imp__SendMessageA@16
; File D:\git\src\IBK\IBK_DRFN\ProjSrc\SrcDrfn\Chart\ChartUtil\DlgCompSetup.cpp

; 1458 : {

  00008	8b d9		 mov	 ebx, ecx
; File C:\Program Files (x86)\Microsoft Visual Studio\2019\Community\VC\Tools\MSVC\14.29.30133\atlmfc\include\afxcmn.inl

; 245  : 	{ ASSERT(::IsWindow(m_hWnd)); return (UINT) ::SendMessage(m_hWnd, LVM_GETSELECTEDCOUNT, 0, 0L); }

  0000a	6a 00		 push	 0
  0000c	6a 00		 push	 0
  0000e	68 32 10 00 00	 push	 4146			; 00001032H
  00013	ff b3 08 01 00
	00		 push	 DWORD PTR [ebx+264]
  00019	ff d6		 call	 esi
; File D:\git\src\IBK\IBK_DRFN\ProjSrc\SrcDrfn\Chart\ChartUtil\DlgCompSetup.cpp

; 1459 : 	if(m_ListCodes.GetSelectedCount()==0) return;

  0001b	85 c0		 test	 eax, eax
  0001d	74 48		 je	 SHORT $LN3@DoSelectio
; File C:\Program Files (x86)\Microsoft Visual Studio\2019\Community\VC\Tools\MSVC\14.29.30133\atlmfc\include\afxcmn.inl

; 177  : 	{ ASSERT(::IsWindow(m_hWnd)); return (int) ::SendMessage(m_hWnd, LVM_GETNEXTITEM, nItem, MAKELPARAM(nFlags, 0)); }

  0001f	57		 push	 edi
  00020	6a 02		 push	 2
  00022	6a ff		 push	 -1
  00024	68 0c 10 00 00	 push	 4108			; 0000100cH
  00029	ff b3 08 01 00
	00		 push	 DWORD PTR [ebx+264]
  0002f	ff d6		 call	 esi
  00031	8b f8		 mov	 edi, eax

; 179  : 	{ ASSERT(::IsWindow(m_hWnd)); return (POSITION)(DWORD_PTR)(1+GetNextItem(-1, LVIS_SELECTED)); }

  00033	83 c7 01	 add	 edi, 1
; File D:\git\src\IBK\IBK_DRFN\ProjSrc\SrcDrfn\Chart\ChartUtil\DlgCompSetup.cpp

; 1462 : 	if (pos == NULL)

  00036	74 2e		 je	 SHORT $LN22@DoSelectio
$LL2@DoSelectio:
; File C:\Program Files (x86)\Microsoft Visual Studio\2019\Community\VC\Tools\MSVC\14.29.30133\atlmfc\include\afxcmn.inl

; 177  : 	{ ASSERT(::IsWindow(m_hWnd)); return (int) ::SendMessage(m_hWnd, LVM_GETNEXTITEM, nItem, MAKELPARAM(nFlags, 0)); }

  00038	6a 02		 push	 2

; 181  : 	{ ASSERT(::IsWindow(m_hWnd)); DWORD_PTR nOldPos = (DWORD_PTR)pos-1; pos = (POSITION)(DWORD_PTR)(1+GetNextItem((UINT)nOldPos, LVIS_SELECTED)); return (UINT)nOldPos; }

  0003a	8d 77 ff	 lea	 esi, DWORD PTR [edi-1]

; 177  : 	{ ASSERT(::IsWindow(m_hWnd)); return (int) ::SendMessage(m_hWnd, LVM_GETNEXTITEM, nItem, MAKELPARAM(nFlags, 0)); }

  0003d	56		 push	 esi
  0003e	68 0c 10 00 00	 push	 4108			; 0000100cH
  00043	ff b3 08 01 00
	00		 push	 DWORD PTR [ebx+264]
  00049	ff 15 00 00 00
	00		 call	 DWORD PTR __imp__SendMessageA@16
; File D:\git\src\IBK\IBK_DRFN\ProjSrc\SrcDrfn\Chart\ChartUtil\DlgCompSetup.cpp

; 1470 : 			m_ListCodes.SetItemState(nItem, 0, flag);

  0004f	6a 02		 push	 2
  00051	6a 00		 push	 0
  00053	56		 push	 esi
  00054	8d 8b e8 00 00
	00		 lea	 ecx, DWORD PTR [ebx+232]
; File C:\Program Files (x86)\Microsoft Visual Studio\2019\Community\VC\Tools\MSVC\14.29.30133\atlmfc\include\afxcmn.inl

; 177  : 	{ ASSERT(::IsWindow(m_hWnd)); return (int) ::SendMessage(m_hWnd, LVM_GETNEXTITEM, nItem, MAKELPARAM(nFlags, 0)); }

  0005a	8b f8		 mov	 edi, eax
; File D:\git\src\IBK\IBK_DRFN\ProjSrc\SrcDrfn\Chart\ChartUtil\DlgCompSetup.cpp

; 1470 : 			m_ListCodes.SetItemState(nItem, 0, flag);

  0005c	e8 00 00 00 00	 call	 ?SetItemState@CListCtrl@@QAEHHII@Z ; CListCtrl::SetItemState
; File C:\Program Files (x86)\Microsoft Visual Studio\2019\Community\VC\Tools\MSVC\14.29.30133\atlmfc\include\afxcmn.inl

; 181  : 	{ ASSERT(::IsWindow(m_hWnd)); DWORD_PTR nOldPos = (DWORD_PTR)pos-1; pos = (POSITION)(DWORD_PTR)(1+GetNextItem((UINT)nOldPos, LVIS_SELECTED)); return (UINT)nOldPos; }

  00061	83 c7 01	 add	 edi, 1
; File D:\git\src\IBK\IBK_DRFN\ProjSrc\SrcDrfn\Chart\ChartUtil\DlgCompSetup.cpp

; 1466 : 		while (pos)

  00064	75 d2		 jne	 SHORT $LL2@DoSelectio
$LN22@DoSelectio:
  00066	5f		 pop	 edi
$LN3@DoSelectio:
  00067	5e		 pop	 esi

; 1471 : 		}
; 1472 : 	}
; 1473 : }

  00068	5b		 pop	 ebx
  00069	c3		 ret	 0
?DoSelectionClear@CDlgCompSetup@@IAEXXZ ENDP		; CDlgCompSetup::DoSelectionClear
_TEXT	ENDS
; Function compile flags: /Ogtp
; File D:\git\src\IBK\IBK_DRFN\ProjSrc\SrcDrfn\Chart\ChartUtil\DlgCompSetup.cpp
; File C:\Program Files (x86)\Microsoft Visual Studio\2019\Community\VC\Tools\MSVC\14.29.30133\atlmfc\include\atlsimpstr.h
; File D:\git\src\IBK\IBK_DRFN\ProjSrc\SrcDrfn\Chart\ChartUtil\DlgCompSetup.cpp
; File C:\Program Files (x86)\Microsoft Visual Studio\2019\Community\VC\Tools\MSVC\14.29.30133\atlmfc\include\afxcmn.inl
; File D:\git\src\IBK\IBK_DRFN\ProjSrc\SrcDrfn\Chart\ChartUtil\DlgCompSetup.cpp
; File C:\Program Files (x86)\Microsoft Visual Studio\2019\Community\VC\Tools\MSVC\14.29.30133\atlmfc\include\afxcmn.inl
; File D:\git\src\IBK\IBK_DRFN\ProjSrc\SrcDrfn\Chart\ChartUtil\DlgCompSetup.cpp
;	COMDAT ?DoFindEdtName@CDlgCompSetup@@IAEXPBD@Z
_TEXT	SEGMENT
$T2 = -20						; size = 4
_rString$ = -16						; size = 4
__$EHRec$ = -12						; size = 12
_szIn$ = 8						; size = 4
_szInput$ = 8						; size = 4
?DoFindEdtName@CDlgCompSetup@@IAEXPBD@Z PROC		; CDlgCompSetup::DoFindEdtName, COMDAT
; _this$ = ecx

; 1423 : {

  00000	55		 push	 ebp
  00001	8b ec		 mov	 ebp, esp
  00003	6a ff		 push	 -1
  00005	68 00 00 00 00	 push	 __ehhandler$?DoFindEdtName@CDlgCompSetup@@IAEXPBD@Z
  0000a	64 a1 00 00 00
	00		 mov	 eax, DWORD PTR fs:0
  00010	50		 push	 eax
  00011	83 ec 08	 sub	 esp, 8
  00014	53		 push	 ebx
  00015	56		 push	 esi
  00016	57		 push	 edi
  00017	a1 00 00 00 00	 mov	 eax, DWORD PTR ___security_cookie
  0001c	33 c5		 xor	 eax, ebp
  0001e	50		 push	 eax
  0001f	8d 45 f4	 lea	 eax, DWORD PTR __$EHRec$[ebp]
  00022	64 a3 00 00 00
	00		 mov	 DWORD PTR fs:0, eax
  00028	8b d9		 mov	 ebx, ecx

; 1424 : 	CString szIn = szInput;

  0002a	ff 75 08	 push	 DWORD PTR _szInput$[ebp]
  0002d	8d 4d 08	 lea	 ecx, DWORD PTR _szIn$[ebp]
  00030	ff 15 00 00 00
	00		 call	 DWORD PTR __imp_??0?$CStringT@DV?$StrTraitMFC_DLL@DV?$ChTraitsCRT@D@ATL@@@@@ATL@@QAE@PBD@Z
; File C:\Program Files (x86)\Microsoft Visual Studio\2019\Community\VC\Tools\MSVC\14.29.30133\atlmfc\include\atlsimpstr.h

; 519  : 		return( GetData()->nDataLength );

  00036	8b 45 08	 mov	 eax, DWORD PTR _szIn$[ebp]
; File D:\git\src\IBK\IBK_DRFN\ProjSrc\SrcDrfn\Chart\ChartUtil\DlgCompSetup.cpp

; 1424 : 	CString szIn = szInput;

  00039	c7 45 fc 00 00
	00 00		 mov	 DWORD PTR __$EHRec$[ebp+8], 0

; 1425 : 	if(szIn.GetLength()==0)

  00040	83 78 f4 00	 cmp	 DWORD PTR [eax-12], 0
  00044	75 1c		 jne	 SHORT $LN34@DoFindEdtN

; 1426 : 		m_edtCodeName.GetWindowText(szIn);

  00046	8d 45 08	 lea	 eax, DWORD PTR _szIn$[ebp]
  00049	50		 push	 eax
  0004a	8d 8b a0 04 00
	00		 lea	 ecx, DWORD PTR [ebx+1184]
  00050	e8 00 00 00 00	 call	 ?GetWindowTextA@CXEditPrompt@@QBEXAAV?$CStringT@DV?$StrTraitMFC_DLL@DV?$ChTraitsCRT@D@ATL@@@@@ATL@@@Z ; CXEditPrompt::GetWindowTextA
  00055	8b 45 08	 mov	 eax, DWORD PTR _szIn$[ebp]

; 1427 : 
; 1428 : 	if(szIn.GetLength()==0) return;

  00058	83 78 f4 00	 cmp	 DWORD PTR [eax-12], 0
  0005c	0f 84 ba 00 00
	00		 je	 $LN12@DoFindEdtN
$LN34@DoFindEdtN:

; 1429 : 
; 1430 : 	// TODO: Add your control notification handler code here
; 1431 : //	LVFINDINFO info;
; 1432 : //	info.flags = LVFI_PARTIAL|LVFI_STRING;
; 1433 : //	info.psz = szIn;
; 1434 : //	int nIndex = m_ListCodes.FindItem(&info, -1);
; 1435 : //	if(nIndex>=0)
; 1436 : //	{
; 1437 : //		m_ListCodes.EnsureVisible(nIndex, FALSE);
; 1438 : //	}
; 1439 : 	szIn.MakeUpper();

  00062	8d 4d 08	 lea	 ecx, DWORD PTR _szIn$[ebp]
  00065	ff 15 00 00 00
	00		 call	 DWORD PTR __imp_?MakeUpper@?$CStringT@DV?$StrTraitMFC_DLL@DV?$ChTraitsCRT@D@ATL@@@@@ATL@@QAEAAV12@XZ
; File C:\Program Files (x86)\Microsoft Visual Studio\2019\Community\VC\Tools\MSVC\14.29.30133\atlmfc\include\afxcmn.inl

; 155  : 	{ ASSERT(::IsWindow(m_hWnd)); return (int) ::SendMessage(m_hWnd, LVM_GETITEMCOUNT, 0, 0L); }

  0006b	6a 00		 push	 0
  0006d	6a 00		 push	 0
  0006f	68 04 10 00 00	 push	 4100			; 00001004H
  00074	ff b3 08 01 00
	00		 push	 DWORD PTR [ebx+264]
  0007a	ff 15 00 00 00
	00		 call	 DWORD PTR __imp__SendMessageA@16
; File D:\git\src\IBK\IBK_DRFN\ProjSrc\SrcDrfn\Chart\ChartUtil\DlgCompSetup.cpp

; 1442 : 	CString rString;

  00080	8d 4d f0	 lea	 ecx, DWORD PTR _rString$[ebp]
  00083	8b f8		 mov	 edi, eax
  00085	ff 15 00 00 00
	00		 call	 DWORD PTR __imp_??0?$CStringT@DV?$StrTraitMFC_DLL@DV?$ChTraitsCRT@D@ATL@@@@@ATL@@QAE@XZ

; 1443 : 	for(int i=0; i<nCnt; i++)

  0008b	33 f6		 xor	 esi, esi
  0008d	c6 45 fc 01	 mov	 BYTE PTR __$EHRec$[ebp+8], 1
  00091	85 ff		 test	 edi, edi
  00093	7e 7e		 jle	 SHORT $LN3@DoFindEdtN
  00095	8d 83 e8 00 00
	00		 lea	 eax, DWORD PTR [ebx+232]
  0009b	0f 1f 44 00 00	 npad	 5
$LL4@DoFindEdtN:

; 1444 : 	{
; 1445 : 		rString = m_ListCodes.GetItemText(i, 0);

  000a0	6a 00		 push	 0
  000a2	56		 push	 esi
  000a3	8d 4d ec	 lea	 ecx, DWORD PTR $T2[ebp]
  000a6	51		 push	 ecx
  000a7	8b c8		 mov	 ecx, eax
  000a9	e8 00 00 00 00	 call	 ?GetItemText@CListCtrl@@QBE?AV?$CStringT@DV?$StrTraitMFC_DLL@DV?$ChTraitsCRT@D@ATL@@@@@ATL@@HH@Z ; CListCtrl::GetItemText
  000ae	50		 push	 eax
  000af	8d 4d f0	 lea	 ecx, DWORD PTR _rString$[ebp]
  000b2	c6 45 fc 02	 mov	 BYTE PTR __$EHRec$[ebp+8], 2
  000b6	ff 15 00 00 00
	00		 call	 DWORD PTR __imp_??4?$CStringT@DV?$StrTraitMFC_DLL@DV?$ChTraitsCRT@D@ATL@@@@@ATL@@QAEAAV01@ABV01@@Z
  000bc	8d 4d ec	 lea	 ecx, DWORD PTR $T2[ebp]
  000bf	c6 45 fc 01	 mov	 BYTE PTR __$EHRec$[ebp+8], 1
  000c3	ff 15 00 00 00
	00		 call	 DWORD PTR __imp_??1?$CStringT@DV?$StrTraitMFC_DLL@DV?$ChTraitsCRT@D@ATL@@@@@ATL@@QAE@XZ

; 1446 : 		if(rString.Find(szIn)==0)

  000c9	6a 00		 push	 0
  000cb	ff 75 08	 push	 DWORD PTR _szIn$[ebp]
  000ce	8d 4d f0	 lea	 ecx, DWORD PTR _rString$[ebp]
  000d1	ff 15 00 00 00
	00		 call	 DWORD PTR __imp_?Find@?$CStringT@DV?$StrTraitMFC_DLL@DV?$ChTraitsCRT@D@ATL@@@@@ATL@@QBEHPBDH@Z
  000d7	85 c0		 test	 eax, eax
  000d9	74 0d		 je	 SHORT $LN28@DoFindEdtN

; 1443 : 	for(int i=0; i<nCnt; i++)

  000db	46		 inc	 esi
  000dc	8d 83 e8 00 00
	00		 lea	 eax, DWORD PTR [ebx+232]
  000e2	3b f7		 cmp	 esi, edi
  000e4	7c ba		 jl	 SHORT $LL4@DoFindEdtN

; 1446 : 		if(rString.Find(szIn)==0)

  000e6	eb 2b		 jmp	 SHORT $LN3@DoFindEdtN
$LN28@DoFindEdtN:
; File C:\Program Files (x86)\Microsoft Visual Studio\2019\Community\VC\Tools\MSVC\14.29.30133\atlmfc\include\afxcmn.inl

; 193  : 	{ ASSERT(::IsWindow(m_hWnd)); return (BOOL) ::SendMessage(m_hWnd, LVM_ENSUREVISIBLE, nItem, MAKELPARAM(bPartialOK, 0)); }

  000e8	6a 00		 push	 0
  000ea	56		 push	 esi
  000eb	68 13 10 00 00	 push	 4115			; 00001013H
  000f0	ff b3 08 01 00
	00		 push	 DWORD PTR [ebx+264]
  000f6	ff 15 00 00 00
	00		 call	 DWORD PTR __imp__SendMessageA@16
; File D:\git\src\IBK\IBK_DRFN\ProjSrc\SrcDrfn\Chart\ChartUtil\DlgCompSetup.cpp

; 1450 : 			DoSelectionClear();

  000fc	8b cb		 mov	 ecx, ebx
  000fe	e8 00 00 00 00	 call	 ?DoSelectionClear@CDlgCompSetup@@IAEXXZ ; CDlgCompSetup::DoSelectionClear

; 1451 : 			m_ListCodes.SetItemState(i, flag, flag);

  00103	6a 03		 push	 3
  00105	6a 03		 push	 3
  00107	56		 push	 esi
  00108	8d 8b e8 00 00
	00		 lea	 ecx, DWORD PTR [ebx+232]
  0010e	e8 00 00 00 00	 call	 ?SetItemState@CListCtrl@@QAEHHII@Z ; CListCtrl::SetItemState
$LN3@DoFindEdtN:

; 1452 : 			break;
; 1453 : 		}
; 1454 : 	}	
; 1455 : }

  00113	8d 4d f0	 lea	 ecx, DWORD PTR _rString$[ebp]
  00116	ff 15 00 00 00
	00		 call	 DWORD PTR __imp_??1?$CStringT@DV?$StrTraitMFC_DLL@DV?$ChTraitsCRT@D@ATL@@@@@ATL@@QAE@XZ
$LN12@DoFindEdtN:
  0011c	8d 4d 08	 lea	 ecx, DWORD PTR _szIn$[ebp]
  0011f	ff 15 00 00 00
	00		 call	 DWORD PTR __imp_??1?$CStringT@DV?$StrTraitMFC_DLL@DV?$ChTraitsCRT@D@ATL@@@@@ATL@@QAE@XZ
  00125	8b 4d f4	 mov	 ecx, DWORD PTR __$EHRec$[ebp]
  00128	64 89 0d 00 00
	00 00		 mov	 DWORD PTR fs:0, ecx
  0012f	59		 pop	 ecx
  00130	5f		 pop	 edi
  00131	5e		 pop	 esi
  00132	5b		 pop	 ebx
  00133	8b e5		 mov	 esp, ebp
  00135	5d		 pop	 ebp
  00136	c2 04 00	 ret	 4
_TEXT	ENDS
;	COMDAT text$x
text$x	SEGMENT
__unwindfunclet$?DoFindEdtName@CDlgCompSetup@@IAEXPBD@Z$0:
  00000	8d 4d 08	 lea	 ecx, DWORD PTR _szIn$[ebp]
  00003	ff 25 00 00 00
	00		 jmp	 DWORD PTR __imp_??1?$CStringT@DV?$StrTraitMFC_DLL@DV?$ChTraitsCRT@D@ATL@@@@@ATL@@QAE@XZ
__unwindfunclet$?DoFindEdtName@CDlgCompSetup@@IAEXPBD@Z$1:
  00009	8d 4d f0	 lea	 ecx, DWORD PTR _rString$[ebp]
  0000c	ff 25 00 00 00
	00		 jmp	 DWORD PTR __imp_??1?$CStringT@DV?$StrTraitMFC_DLL@DV?$ChTraitsCRT@D@ATL@@@@@ATL@@QAE@XZ
__unwindfunclet$?DoFindEdtName@CDlgCompSetup@@IAEXPBD@Z$2:
  00012	8d 4d ec	 lea	 ecx, DWORD PTR $T2[ebp]
  00015	ff 25 00 00 00
	00		 jmp	 DWORD PTR __imp_??1?$CStringT@DV?$StrTraitMFC_DLL@DV?$ChTraitsCRT@D@ATL@@@@@ATL@@QAE@XZ
  0001b	cc		 int	 3
  0001c	cc		 int	 3
  0001d	cc		 int	 3
  0001e	cc		 int	 3
  0001f	cc		 int	 3
__ehhandler$?DoFindEdtName@CDlgCompSetup@@IAEXPBD@Z:
  00020	90		 npad	 1
  00021	90		 npad	 1
  00022	8b 54 24 08	 mov	 edx, DWORD PTR [esp+8]
  00026	8d 42 0c	 lea	 eax, DWORD PTR [edx+12]
  00029	8b 4a e8	 mov	 ecx, DWORD PTR [edx-24]
  0002c	33 c8		 xor	 ecx, eax
  0002e	e8 00 00 00 00	 call	 @__security_check_cookie@4
  00033	b8 00 00 00 00	 mov	 eax, OFFSET __ehfuncinfo$?DoFindEdtName@CDlgCompSetup@@IAEXPBD@Z
  00038	e9 00 00 00 00	 jmp	 ___CxxFrameHandler3
text$x	ENDS
?DoFindEdtName@CDlgCompSetup@@IAEXPBD@Z ENDP		; CDlgCompSetup::DoFindEdtName
; Function compile flags: /Ogtp
; File D:\git\src\IBK\IBK_DRFN\ProjSrc\SrcDrfn\Chart\ChartUtil\DlgCompSetup.cpp
; File C:\Program Files (x86)\Microsoft Visual Studio\2019\Community\VC\Tools\MSVC\14.29.30133\atlmfc\include\atlsimpstr.h
; File D:\git\src\IBK\IBK_DRFN\ProjSrc\SrcDrfn\Chart\ChartUtil\DlgCompSetup.cpp
; File C:\Program Files (x86)\Microsoft Visual Studio\2019\Community\VC\Tools\MSVC\14.29.30133\atlmfc\include\afxcmn.inl
; File D:\git\src\IBK\IBK_DRFN\ProjSrc\SrcDrfn\Chart\ChartUtil\DlgCompSetup.cpp
; File C:\Program Files (x86)\Microsoft Visual Studio\2019\Community\VC\Tools\MSVC\14.29.30133\atlmfc\include\afxcmn.inl
; File D:\git\src\IBK\IBK_DRFN\ProjSrc\SrcDrfn\Chart\ChartUtil\DlgCompSetup.cpp
;	COMDAT ?DoFindEdtCode@CDlgCompSetup@@IAEXXZ
_TEXT	SEGMENT
$T2 = -24						; size = 4
_rString$ = -20						; size = 4
_szIn$ = -16						; size = 4
__$EHRec$ = -12						; size = 12
?DoFindEdtCode@CDlgCompSetup@@IAEXXZ PROC		; CDlgCompSetup::DoFindEdtCode, COMDAT
; _this$ = ecx

; 1398 : {

  00000	55		 push	 ebp
  00001	8b ec		 mov	 ebp, esp
  00003	6a ff		 push	 -1
  00005	68 00 00 00 00	 push	 __ehhandler$?DoFindEdtCode@CDlgCompSetup@@IAEXXZ
  0000a	64 a1 00 00 00
	00		 mov	 eax, DWORD PTR fs:0
  00010	50		 push	 eax
  00011	83 ec 0c	 sub	 esp, 12			; 0000000cH
  00014	53		 push	 ebx
  00015	56		 push	 esi
  00016	57		 push	 edi
  00017	a1 00 00 00 00	 mov	 eax, DWORD PTR ___security_cookie
  0001c	33 c5		 xor	 eax, ebp
  0001e	50		 push	 eax
  0001f	8d 45 f4	 lea	 eax, DWORD PTR __$EHRec$[ebp]
  00022	64 a3 00 00 00
	00		 mov	 DWORD PTR fs:0, eax
  00028	8b d9		 mov	 ebx, ecx

; 1399 : 	CString szIn;

  0002a	8d 4d f0	 lea	 ecx, DWORD PTR _szIn$[ebp]
  0002d	ff 15 00 00 00
	00		 call	 DWORD PTR __imp_??0?$CStringT@DV?$StrTraitMFC_DLL@DV?$ChTraitsCRT@D@ATL@@@@@ATL@@QAE@XZ

; 1400 : 	m_edtCode.GetWindowText(szIn);

  00033	8d 45 f0	 lea	 eax, DWORD PTR _szIn$[ebp]
  00036	c7 45 fc 00 00
	00 00		 mov	 DWORD PTR __$EHRec$[ebp+8], 0
  0003d	50		 push	 eax
  0003e	8d 8b 08 04 00
	00		 lea	 ecx, DWORD PTR [ebx+1032]
  00044	e8 00 00 00 00	 call	 ?GetWindowTextA@CXEditPrompt@@QBEXAAV?$CStringT@DV?$StrTraitMFC_DLL@DV?$ChTraitsCRT@D@ATL@@@@@ATL@@@Z ; CXEditPrompt::GetWindowTextA
; File C:\Program Files (x86)\Microsoft Visual Studio\2019\Community\VC\Tools\MSVC\14.29.30133\atlmfc\include\atlsimpstr.h

; 519  : 		return( GetData()->nDataLength );

  00049	8b 45 f0	 mov	 eax, DWORD PTR _szIn$[ebp]
; File D:\git\src\IBK\IBK_DRFN\ProjSrc\SrcDrfn\Chart\ChartUtil\DlgCompSetup.cpp

; 1402 : 	if(szIn.GetLength()==0) return;

  0004c	83 78 f4 00	 cmp	 DWORD PTR [eax-12], 0
  00050	0f 84 ac 00 00
	00		 je	 $LN11@DoFindEdtC
; File C:\Program Files (x86)\Microsoft Visual Studio\2019\Community\VC\Tools\MSVC\14.29.30133\atlmfc\include\afxcmn.inl

; 155  : 	{ ASSERT(::IsWindow(m_hWnd)); return (int) ::SendMessage(m_hWnd, LVM_GETITEMCOUNT, 0, 0L); }

  00056	6a 00		 push	 0
  00058	6a 00		 push	 0
  0005a	68 04 10 00 00	 push	 4100			; 00001004H
  0005f	ff b3 08 01 00
	00		 push	 DWORD PTR [ebx+264]
  00065	ff 15 00 00 00
	00		 call	 DWORD PTR __imp__SendMessageA@16
; File D:\git\src\IBK\IBK_DRFN\ProjSrc\SrcDrfn\Chart\ChartUtil\DlgCompSetup.cpp

; 1406 : 	CString rString;

  0006b	8d 4d ec	 lea	 ecx, DWORD PTR _rString$[ebp]
  0006e	8b f8		 mov	 edi, eax
  00070	ff 15 00 00 00
	00		 call	 DWORD PTR __imp_??0?$CStringT@DV?$StrTraitMFC_DLL@DV?$ChTraitsCRT@D@ATL@@@@@ATL@@QAE@XZ

; 1407 : 	for(int i=0; i<nCnt; i++)

  00076	33 f6		 xor	 esi, esi
  00078	c6 45 fc 01	 mov	 BYTE PTR __$EHRec$[ebp+8], 1
  0007c	85 ff		 test	 edi, edi
  0007e	7e 79		 jle	 SHORT $LN3@DoFindEdtC
  00080	8d 83 e8 00 00
	00		 lea	 eax, DWORD PTR [ebx+232]
$LL4@DoFindEdtC:

; 1408 : 	{
; 1409 : 		rString = m_ListCodes.GetItemText(i, 1);

  00086	6a 01		 push	 1
  00088	56		 push	 esi
  00089	8d 4d e8	 lea	 ecx, DWORD PTR $T2[ebp]
  0008c	51		 push	 ecx
  0008d	8b c8		 mov	 ecx, eax
  0008f	e8 00 00 00 00	 call	 ?GetItemText@CListCtrl@@QBE?AV?$CStringT@DV?$StrTraitMFC_DLL@DV?$ChTraitsCRT@D@ATL@@@@@ATL@@HH@Z ; CListCtrl::GetItemText
  00094	50		 push	 eax
  00095	8d 4d ec	 lea	 ecx, DWORD PTR _rString$[ebp]
  00098	c6 45 fc 02	 mov	 BYTE PTR __$EHRec$[ebp+8], 2
  0009c	ff 15 00 00 00
	00		 call	 DWORD PTR __imp_??4?$CStringT@DV?$StrTraitMFC_DLL@DV?$ChTraitsCRT@D@ATL@@@@@ATL@@QAEAAV01@ABV01@@Z
  000a2	8d 4d e8	 lea	 ecx, DWORD PTR $T2[ebp]
  000a5	c6 45 fc 01	 mov	 BYTE PTR __$EHRec$[ebp+8], 1
  000a9	ff 15 00 00 00
	00		 call	 DWORD PTR __imp_??1?$CStringT@DV?$StrTraitMFC_DLL@DV?$ChTraitsCRT@D@ATL@@@@@ATL@@QAE@XZ

; 1410 : 		if(rString.Find(szIn)==0)

  000af	6a 00		 push	 0
  000b1	ff 75 f0	 push	 DWORD PTR _szIn$[ebp]
  000b4	8d 4d ec	 lea	 ecx, DWORD PTR _rString$[ebp]
  000b7	ff 15 00 00 00
	00		 call	 DWORD PTR __imp_?Find@?$CStringT@DV?$StrTraitMFC_DLL@DV?$ChTraitsCRT@D@ATL@@@@@ATL@@QBEHPBDH@Z
  000bd	85 c0		 test	 eax, eax
  000bf	74 0d		 je	 SHORT $LN23@DoFindEdtC

; 1407 : 	for(int i=0; i<nCnt; i++)

  000c1	46		 inc	 esi
  000c2	8d 83 e8 00 00
	00		 lea	 eax, DWORD PTR [ebx+232]
  000c8	3b f7		 cmp	 esi, edi
  000ca	7c ba		 jl	 SHORT $LL4@DoFindEdtC

; 1410 : 		if(rString.Find(szIn)==0)

  000cc	eb 2b		 jmp	 SHORT $LN3@DoFindEdtC
$LN23@DoFindEdtC:
; File C:\Program Files (x86)\Microsoft Visual Studio\2019\Community\VC\Tools\MSVC\14.29.30133\atlmfc\include\afxcmn.inl

; 193  : 	{ ASSERT(::IsWindow(m_hWnd)); return (BOOL) ::SendMessage(m_hWnd, LVM_ENSUREVISIBLE, nItem, MAKELPARAM(bPartialOK, 0)); }

  000ce	6a 00		 push	 0
  000d0	56		 push	 esi
  000d1	68 13 10 00 00	 push	 4115			; 00001013H
  000d6	ff b3 08 01 00
	00		 push	 DWORD PTR [ebx+264]
  000dc	ff 15 00 00 00
	00		 call	 DWORD PTR __imp__SendMessageA@16
; File D:\git\src\IBK\IBK_DRFN\ProjSrc\SrcDrfn\Chart\ChartUtil\DlgCompSetup.cpp

; 1414 : 			DoSelectionClear();

  000e2	8b cb		 mov	 ecx, ebx
  000e4	e8 00 00 00 00	 call	 ?DoSelectionClear@CDlgCompSetup@@IAEXXZ ; CDlgCompSetup::DoSelectionClear

; 1415 : 			m_ListCodes.SetItemState(i, flag, flag);

  000e9	6a 03		 push	 3
  000eb	6a 03		 push	 3
  000ed	56		 push	 esi
  000ee	8d 8b e8 00 00
	00		 lea	 ecx, DWORD PTR [ebx+232]
  000f4	e8 00 00 00 00	 call	 ?SetItemState@CListCtrl@@QAEHHII@Z ; CListCtrl::SetItemState
$LN3@DoFindEdtC:

; 1416 : 			break;
; 1417 : 		}
; 1418 : 	}
; 1419 : }

  000f9	8d 4d ec	 lea	 ecx, DWORD PTR _rString$[ebp]
  000fc	ff 15 00 00 00
	00		 call	 DWORD PTR __imp_??1?$CStringT@DV?$StrTraitMFC_DLL@DV?$ChTraitsCRT@D@ATL@@@@@ATL@@QAE@XZ
$LN11@DoFindEdtC:
  00102	8d 4d f0	 lea	 ecx, DWORD PTR _szIn$[ebp]
  00105	ff 15 00 00 00
	00		 call	 DWORD PTR __imp_??1?$CStringT@DV?$StrTraitMFC_DLL@DV?$ChTraitsCRT@D@ATL@@@@@ATL@@QAE@XZ
  0010b	8b 4d f4	 mov	 ecx, DWORD PTR __$EHRec$[ebp]
  0010e	64 89 0d 00 00
	00 00		 mov	 DWORD PTR fs:0, ecx
  00115	59		 pop	 ecx
  00116	5f		 pop	 edi
  00117	5e		 pop	 esi
  00118	5b		 pop	 ebx
  00119	8b e5		 mov	 esp, ebp
  0011b	5d		 pop	 ebp
  0011c	c3		 ret	 0
_TEXT	ENDS
;	COMDAT text$x
text$x	SEGMENT
__unwindfunclet$?DoFindEdtCode@CDlgCompSetup@@IAEXXZ$0:
  00000	8d 4d f0	 lea	 ecx, DWORD PTR _szIn$[ebp]
  00003	ff 25 00 00 00
	00		 jmp	 DWORD PTR __imp_??1?$CStringT@DV?$StrTraitMFC_DLL@DV?$ChTraitsCRT@D@ATL@@@@@ATL@@QAE@XZ
__unwindfunclet$?DoFindEdtCode@CDlgCompSetup@@IAEXXZ$1:
  00009	8d 4d ec	 lea	 ecx, DWORD PTR _rString$[ebp]
  0000c	ff 25 00 00 00
	00		 jmp	 DWORD PTR __imp_??1?$CStringT@DV?$StrTraitMFC_DLL@DV?$ChTraitsCRT@D@ATL@@@@@ATL@@QAE@XZ
__unwindfunclet$?DoFindEdtCode@CDlgCompSetup@@IAEXXZ$2:
  00012	8d 4d e8	 lea	 ecx, DWORD PTR $T2[ebp]
  00015	ff 25 00 00 00
	00		 jmp	 DWORD PTR __imp_??1?$CStringT@DV?$StrTraitMFC_DLL@DV?$ChTraitsCRT@D@ATL@@@@@ATL@@QAE@XZ
  0001b	cc		 int	 3
  0001c	cc		 int	 3
  0001d	cc		 int	 3
  0001e	cc		 int	 3
  0001f	cc		 int	 3
__ehhandler$?DoFindEdtCode@CDlgCompSetup@@IAEXXZ:
  00020	90		 npad	 1
  00021	90		 npad	 1
  00022	8b 54 24 08	 mov	 edx, DWORD PTR [esp+8]
  00026	8d 42 0c	 lea	 eax, DWORD PTR [edx+12]
  00029	8b 4a e4	 mov	 ecx, DWORD PTR [edx-28]
  0002c	33 c8		 xor	 ecx, eax
  0002e	e8 00 00 00 00	 call	 @__security_check_cookie@4
  00033	b8 00 00 00 00	 mov	 eax, OFFSET __ehfuncinfo$?DoFindEdtCode@CDlgCompSetup@@IAEXXZ
  00038	e9 00 00 00 00	 jmp	 ___CxxFrameHandler3
text$x	ENDS
?DoFindEdtCode@CDlgCompSetup@@IAEXXZ ENDP		; CDlgCompSetup::DoFindEdtCode
; Function compile flags: /Ogtp
; File D:\git\src\IBK\IBK_DRFN\ProjSrc\SrcDrfn\Chart\ChartUtil\DlgCompSetup.cpp
;	COMDAT ?GetCodeInfo@CDlgCompSetup@@IAEHHAAH0AAV?$CStringT@DV?$StrTraitMFC_DLL@DV?$ChTraitsCRT@D@ATL@@@@@ATL@@@Z
_TEXT	SEGMENT
_nType$ = 8						; size = 4
_row$ = 12						; size = 4
_col$ = 16						; size = 4
_strCode$ = 20						; size = 4
?GetCodeInfo@CDlgCompSetup@@IAEHHAAH0AAV?$CStringT@DV?$StrTraitMFC_DLL@DV?$ChTraitsCRT@D@ATL@@@@@ATL@@@Z PROC ; CDlgCompSetup::GetCodeInfo, COMDAT
; _this$ = ecx

; 1211 : {

  00000	55		 push	 ebp
  00001	8b ec		 mov	 ebp, esp
  00003	56		 push	 esi
  00004	8b f1		 mov	 esi, ecx

; 1212 : 	int nRowTotal = m_pGridCtrl->GetRowCount();

  00006	8b 8e dc 06 00
	00		 mov	 ecx, DWORD PTR [esi+1756]
  0000c	e8 00 00 00 00	 call	 ?GetRowCount@CExGridCtrl@@QAEHXZ ; CExGridCtrl::GetRowCount

; 1213 : 	if (row < TITLE_ROW || row > nRowTotal || col == COL_CENTER)

  00011	8b 55 0c	 mov	 edx, DWORD PTR _row$[ebp]
  00014	8b 12		 mov	 edx, DWORD PTR [edx]
  00016	83 fa 01	 cmp	 edx, 1
  00019	7c 2f		 jl	 SHORT $LN3@GetCodeInf
  0001b	3b d0		 cmp	 edx, eax
  0001d	7f 2b		 jg	 SHORT $LN3@GetCodeInf
  0001f	8b 45 10	 mov	 eax, DWORD PTR _col$[ebp]
  00022	8b 00		 mov	 eax, DWORD PTR [eax]
  00024	83 f8 01	 cmp	 eax, 1
  00027	74 21		 je	 SHORT $LN3@GetCodeInf

; 1215 : 
; 1216 : 	strCode = (LPCSTR)m_pGridCtrl->GetItemData(row, col);

  00029	8b 8e dc 06 00
	00		 mov	 ecx, DWORD PTR [esi+1756]
  0002f	50		 push	 eax
  00030	52		 push	 edx
  00031	e8 00 00 00 00	 call	 ?GetItemData@CExGridCtrl@@QAEJHH@Z ; CExGridCtrl::GetItemData
  00036	8b 4d 14	 mov	 ecx, DWORD PTR _strCode$[ebp]
  00039	50		 push	 eax
  0003a	ff 15 00 00 00
	00		 call	 DWORD PTR __imp_??4?$CStringT@DV?$StrTraitMFC_DLL@DV?$ChTraitsCRT@D@ATL@@@@@ATL@@QAEAAV01@PBD@Z

; 1217 : 	return TRUE;

  00040	b8 01 00 00 00	 mov	 eax, 1
  00045	5e		 pop	 esi

; 1218 : }

  00046	5d		 pop	 ebp
  00047	c2 10 00	 ret	 16			; 00000010H
$LN3@GetCodeInf:

; 1214 : 		return FALSE;

  0004a	33 c0		 xor	 eax, eax
  0004c	5e		 pop	 esi

; 1218 : }

  0004d	5d		 pop	 ebp
  0004e	c2 10 00	 ret	 16			; 00000010H
?GetCodeInfo@CDlgCompSetup@@IAEHHAAH0AAV?$CStringT@DV?$StrTraitMFC_DLL@DV?$ChTraitsCRT@D@ATL@@@@@ATL@@@Z ENDP ; CDlgCompSetup::GetCodeInfo
_TEXT	ENDS
; Function compile flags: /Ogtp
; File D:\git\src\IBK\IBK_DRFN\ProjSrc\SrcDrfn\Chart\ChartUtil\DlgCompSetup.cpp
;	COMDAT ?GetInsertGridDataText@CDlgCompSetup@@IAE?AV?$CStringT@DV?$StrTraitMFC_DLL@DV?$ChTraitsCRT@D@ATL@@@@@ATL@@HH@Z
_TEXT	SEGMENT
___$ReturnUdt$ = 8					; size = 4
_row$ = 12						; size = 4
_col$ = 16						; size = 4
?GetInsertGridDataText@CDlgCompSetup@@IAE?AV?$CStringT@DV?$StrTraitMFC_DLL@DV?$ChTraitsCRT@D@ATL@@@@@ATL@@HH@Z PROC ; CDlgCompSetup::GetInsertGridDataText, COMDAT
; _this$ = ecx

; 1200 : {

  00000	55		 push	 ebp
  00001	8b ec		 mov	 ebp, esp

; 1201 : 	if (row != 0 )		return "";

  00003	83 7d 0c 00	 cmp	 DWORD PTR _row$[ebp], 0
  00007	56		 push	 esi
  00008	75 4c		 jne	 SHORT $LN7@GetInsertG

; 1202 : 
; 1203 : 	if (col == COL_CENTER)	return "";

  0000a	83 7d 10 01	 cmp	 DWORD PTR _col$[ebp], 1
  0000e	75 16		 jne	 SHORT $LN3@GetInsertG

; 1206 : 
; 1207 : 	return "";
; 1208 : }

  00010	8b 4d 08	 mov	 ecx, DWORD PTR ___$ReturnUdt$[ebp]
  00013	68 00 00 00 00	 push	 OFFSET ??_C@_06CDJAKJDK@?G?$OA?$LL?g?$LA?$KB@
  00018	ff 15 00 00 00
	00		 call	 DWORD PTR __imp_??0?$CStringT@DV?$StrTraitMFC_DLL@DV?$ChTraitsCRT@D@ATL@@@@@ATL@@QAE@PBD@Z
  0001e	8b 45 08	 mov	 eax, DWORD PTR ___$ReturnUdt$[ebp]
  00021	5e		 pop	 esi
  00022	5d		 pop	 ebp
  00023	c2 0c 00	 ret	 12			; 0000000cH
$LN3@GetInsertG:

; 1204 : 	else if (col < COL_CENTER)	return "";

  00026	7d 16		 jge	 SHORT $LN5@GetInsertG

; 1206 : 
; 1207 : 	return "";
; 1208 : }

  00028	8b 4d 08	 mov	 ecx, DWORD PTR ___$ReturnUdt$[ebp]
  0002b	68 00 00 00 00	 push	 OFFSET ??_C@_02KCIOKDCD@?D?$NN@
  00030	ff 15 00 00 00
	00		 call	 DWORD PTR __imp_??0?$CStringT@DV?$StrTraitMFC_DLL@DV?$ChTraitsCRT@D@ATL@@@@@ATL@@QAE@PBD@Z
  00036	8b 45 08	 mov	 eax, DWORD PTR ___$ReturnUdt$[ebp]
  00039	5e		 pop	 esi
  0003a	5d		 pop	 ebp
  0003b	c2 0c 00	 ret	 12			; 0000000cH
$LN5@GetInsertG:

; 1205 : 	else if (col > COL_CENTER)	return "";

  0003e	7e 16		 jle	 SHORT $LN7@GetInsertG

; 1206 : 
; 1207 : 	return "";
; 1208 : }

  00040	8b 4d 08	 mov	 ecx, DWORD PTR ___$ReturnUdt$[ebp]
  00043	68 00 00 00 00	 push	 OFFSET ??_C@_02ECKNGKBC@?G?$LC@
  00048	ff 15 00 00 00
	00		 call	 DWORD PTR __imp_??0?$CStringT@DV?$StrTraitMFC_DLL@DV?$ChTraitsCRT@D@ATL@@@@@ATL@@QAE@PBD@Z
  0004e	8b 45 08	 mov	 eax, DWORD PTR ___$ReturnUdt$[ebp]
  00051	5e		 pop	 esi
  00052	5d		 pop	 ebp
  00053	c2 0c 00	 ret	 12			; 0000000cH
$LN7@GetInsertG:
  00056	8b 4d 08	 mov	 ecx, DWORD PTR ___$ReturnUdt$[ebp]
  00059	68 00 00 00 00	 push	 OFFSET ??_C@_00CNPNBAHC@@
  0005e	ff 15 00 00 00
	00		 call	 DWORD PTR __imp_??0?$CStringT@DV?$StrTraitMFC_DLL@DV?$ChTraitsCRT@D@ATL@@@@@ATL@@QAE@PBD@Z
  00064	8b 45 08	 mov	 eax, DWORD PTR ___$ReturnUdt$[ebp]
  00067	5e		 pop	 esi
  00068	5d		 pop	 ebp
  00069	c2 0c 00	 ret	 12			; 0000000cH
?GetInsertGridDataText@CDlgCompSetup@@IAE?AV?$CStringT@DV?$StrTraitMFC_DLL@DV?$ChTraitsCRT@D@ATL@@@@@ATL@@HH@Z ENDP ; CDlgCompSetup::GetInsertGridDataText
_TEXT	ENDS
; Function compile flags: /Ogtp
; File D:\git\src\IBK\IBK_DRFN\ProjSrc\SrcDrfn\Chart\ChartUtil\DlgCompSetup.cpp
;	COMDAT ?InsertGridData@CDlgCompSetup@@IAEXXZ
_TEXT	SEGMENT
_nRow$1$ = -132						; size = 4
_this$GSCopy$1$ = -128					; size = 4
$T2 = -124						; size = 4
_Item$3 = -120						; size = 104
__$ArrayPad$ = -16					; size = 4
__$EHRec$ = -12						; size = 12
?InsertGridData@CDlgCompSetup@@IAEXXZ PROC		; CDlgCompSetup::InsertGridData, COMDAT
; _this$ = ecx

; 1169 : {

  00000	55		 push	 ebp
  00001	8b ec		 mov	 ebp, esp
  00003	6a ff		 push	 -1
  00005	68 00 00 00 00	 push	 __ehhandler$?InsertGridData@CDlgCompSetup@@IAEXXZ
  0000a	64 a1 00 00 00
	00		 mov	 eax, DWORD PTR fs:0
  00010	50		 push	 eax
  00011	83 ec 78	 sub	 esp, 120		; 00000078H
  00014	a1 00 00 00 00	 mov	 eax, DWORD PTR ___security_cookie
  00019	33 c5		 xor	 eax, ebp
  0001b	89 45 f0	 mov	 DWORD PTR __$ArrayPad$[ebp], eax
  0001e	53		 push	 ebx
  0001f	56		 push	 esi
  00020	57		 push	 edi
  00021	50		 push	 eax
  00022	8d 45 f4	 lea	 eax, DWORD PTR __$EHRec$[ebp]
  00025	64 a3 00 00 00
	00		 mov	 DWORD PTR fs:0, eax
  0002b	8b f1		 mov	 esi, ecx
  0002d	89 75 80	 mov	 DWORD PTR _this$GSCopy$1$[ebp], esi

; 1170 : 	int nCol = m_pGridCtrl->GetColumnCount();

  00030	8b 8e dc 06 00
	00		 mov	 ecx, DWORD PTR [esi+1756]
  00036	e8 00 00 00 00	 call	 ?GetColumnCount@CExGridCtrl@@QAEHXZ ; CExGridCtrl::GetColumnCount

; 1171 : 	int nRow = m_pGridCtrl->GetRowCount();

  0003b	8b 8e dc 06 00
	00		 mov	 ecx, DWORD PTR [esi+1756]
  00041	8b d8		 mov	 ebx, eax
  00043	e8 00 00 00 00	 call	 ?GetRowCount@CExGridCtrl@@QAEHXZ ; CExGridCtrl::GetRowCount

; 1172 : 	
; 1173 : 	// fill rows/cols with text
; 1174 : 	int row, col;	
; 1175 : 	for (row = 0; row < nRow; row++)

  00048	33 ff		 xor	 edi, edi
  0004a	89 85 7c ff ff
	ff		 mov	 DWORD PTR _nRow$1$[ebp], eax
  00050	85 c0		 test	 eax, eax
  00052	0f 8e f7 00 00
	00		 jle	 $LN3@InsertGrid
  00058	0f 1f 84 00 00
	00 00 00	 npad	 8
$LL4@InsertGrid:

; 1176 : 	{
; 1177 : 		for (col = 0; col < nCol; col++)

  00060	33 f6		 xor	 esi, esi
  00062	85 db		 test	 ebx, ebx
  00064	0f 8e dc 00 00
	00		 jle	 $LN2@InsertGrid
  0006a	66 0f 1f 44 00
	00		 npad	 6
$LL7@InsertGrid:
  00070	8d 4d ec	 lea	 ecx, DWORD PTR _Item$3[ebp+100]
  00073	ff 15 00 00 00
	00		 call	 DWORD PTR __imp_??0?$CStringT@DV?$StrTraitMFC_DLL@DV?$ChTraitsCRT@D@ATL@@@@@ATL@@QAE@XZ

; 1178 : 		{ 
; 1179 : 
; 1180 : 			GV_ITEM Item;

  00079	c7 45 fc 00 00
	00 00		 mov	 DWORD PTR __$EHRec$[ebp+8], 0

; 1181 : 			Item.mask = GVIF_TEXT|GVIF_FORMAT|GVIF_FGCLR|GVIF_BKCLR|GVIF_STATE|GVIF_PARAM;

  00080	c7 45 90 7d 00
	00 00		 mov	 DWORD PTR _Item$3[ebp+8], 125 ; 0000007dH

; 1182 : 			Item.nState = GVIS_READONLY | GVIS_MODIFIED ;//| GVIS_DROPHILITED;

  00087	c7 45 94 88 00
	00 00		 mov	 DWORD PTR _Item$3[ebp+12], 136 ; 00000088H

; 1183 : 			Item.row = row;

  0008e	89 7d 88	 mov	 DWORD PTR _Item$3[ebp], edi

; 1184 : 			Item.col = col;

  00091	89 75 8c	 mov	 DWORD PTR _Item$3[ebp+4], esi

; 1185 : 			
; 1186 : 			Item.nFormat = DT_VCENTER|DT_SINGLELINE|DT_END_ELLIPSIS|DT_NOPREFIX|DT_CENTER;

  00094	c7 45 98 25 88
	00 00		 mov	 DWORD PTR _Item$3[ebp+16], 34853 ; 00008825H

; 1201 : 	if (row != 0 )		return "";

  0009b	85 ff		 test	 edi, edi
  0009d	75 1e		 jne	 SHORT $LN23@InsertGrid

; 1202 : 
; 1203 : 	if (col == COL_CENTER)	return "";

  0009f	83 fe 01	 cmp	 esi, 1
  000a2	75 07		 jne	 SHORT $LN19@InsertGrid
  000a4	68 00 00 00 00	 push	 OFFSET ??_C@_06CDJAKJDK@?G?$OA?$LL?g?$LA?$KB@
  000a9	eb 17		 jmp	 SHORT $LN40@InsertGrid
$LN19@InsertGrid:

; 1204 : 	else if (col < COL_CENTER)	return "";

  000ab	73 07		 jae	 SHORT $LN21@InsertGrid
  000ad	68 00 00 00 00	 push	 OFFSET ??_C@_02KCIOKDCD@?D?$NN@
  000b2	eb 0e		 jmp	 SHORT $LN40@InsertGrid
$LN21@InsertGrid:

; 1205 : 	else if (col > COL_CENTER)	return "";

  000b4	76 07		 jbe	 SHORT $LN23@InsertGrid
  000b6	68 00 00 00 00	 push	 OFFSET ??_C@_02ECKNGKBC@?G?$LC@
  000bb	eb 05		 jmp	 SHORT $LN40@InsertGrid
$LN23@InsertGrid:

; 1206 : 
; 1207 : 	return "";

  000bd	68 00 00 00 00	 push	 OFFSET ??_C@_00CNPNBAHC@@
$LN40@InsertGrid:

; 1187 : 
; 1188 : 			Item.strText = GetInsertGridDataText(row, col);

  000c2	8d 4d 84	 lea	 ecx, DWORD PTR $T2[ebp]
  000c5	ff 15 00 00 00
	00		 call	 DWORD PTR __imp_??0?$CStringT@DV?$StrTraitMFC_DLL@DV?$ChTraitsCRT@D@ATL@@@@@ATL@@QAE@PBD@Z
  000cb	8d 45 84	 lea	 eax, DWORD PTR $T2[ebp]
  000ce	c6 45 fc 01	 mov	 BYTE PTR __$EHRec$[ebp+8], 1
  000d2	50		 push	 eax
  000d3	8d 4d ec	 lea	 ecx, DWORD PTR _Item$3[ebp+100]
  000d6	ff 15 00 00 00
	00		 call	 DWORD PTR __imp_??4?$CStringT@DV?$StrTraitMFC_DLL@DV?$ChTraitsCRT@D@ATL@@@@@ATL@@QAEAAV01@ABV01@@Z
  000dc	8d 4d 84	 lea	 ecx, DWORD PTR $T2[ebp]
  000df	c6 45 fc 00	 mov	 BYTE PTR __$EHRec$[ebp+8], 0
  000e3	ff 15 00 00 00
	00		 call	 DWORD PTR __imp_??1?$CStringT@DV?$StrTraitMFC_DLL@DV?$ChTraitsCRT@D@ATL@@@@@ATL@@QAE@XZ

; 1189 : 			Item.crBkClr = RGB(238,239,243);

  000e9	b8 ee ef f3 00	 mov	 eax, 15986670		; 00f3efeeH
  000ee	89 45 a0	 mov	 DWORD PTR _Item$3[ebp+24], eax

; 1190 : 			if(row == 0 && col < COL_CENTER)			Item.crBkClr = RGB(244, 180, 180);

  000f1	85 ff		 test	 edi, edi
  000f3	75 19		 jne	 SHORT $LN10@InsertGrid
  000f5	83 fe 01	 cmp	 esi, 1
  000f8	73 09		 jae	 SHORT $LN38@InsertGrid
  000fa	c7 45 a0 f4 b4
	b4 00		 mov	 DWORD PTR _Item$3[ebp+24], 11842804 ; 00b4b4f4H
  00101	eb 0b		 jmp	 SHORT $LN10@InsertGrid
$LN38@InsertGrid:

; 1191 : 			else if(row == 0 && col > COL_CENTER)		Item.crBkClr = RGB(180, 207, 244);

  00103	b9 b4 cf f4 00	 mov	 ecx, 16043956		; 00f4cfb4H
  00108	0f 47 c1	 cmova	 eax, ecx
  0010b	89 45 a0	 mov	 DWORD PTR _Item$3[ebp+24], eax
$LN10@InsertGrid:

; 1192 : 			Item.crFgClr = COLOR_BLACK;
; 1193 : 			
; 1194 : 			m_pGridCtrl->SetItem(&Item);

  0010e	8d 45 88	 lea	 eax, DWORD PTR _Item$3[ebp]
  00111	c7 45 a4 00 00
	00 00		 mov	 DWORD PTR _Item$3[ebp+28], 0
  00118	50		 push	 eax
  00119	8b 45 80	 mov	 eax, DWORD PTR _this$GSCopy$1$[ebp]
  0011c	8b 88 dc 06 00
	00		 mov	 ecx, DWORD PTR [eax+1756]
  00122	e8 00 00 00 00	 call	 ?SetItem@CExGridCtrl@@QAEHPAU_GV_ITEM@@@Z ; CExGridCtrl::SetItem
  00127	8d 4d ec	 lea	 ecx, DWORD PTR _Item$3[ebp+100]

; 1195 : 		}

  0012a	c7 45 fc ff ff
	ff ff		 mov	 DWORD PTR __$EHRec$[ebp+8], -1
  00131	ff 15 00 00 00
	00		 call	 DWORD PTR __imp_??1?$CStringT@DV?$StrTraitMFC_DLL@DV?$ChTraitsCRT@D@ATL@@@@@ATL@@QAE@XZ
  00137	46		 inc	 esi
  00138	3b f3		 cmp	 esi, ebx
  0013a	0f 8c 30 ff ff
	ff		 jl	 $LL7@InsertGrid
  00140	8b 85 7c ff ff
	ff		 mov	 eax, DWORD PTR _nRow$1$[ebp]
$LN2@InsertGrid:

; 1172 : 	
; 1173 : 	// fill rows/cols with text
; 1174 : 	int row, col;	
; 1175 : 	for (row = 0; row < nRow; row++)

  00146	47		 inc	 edi
  00147	3b f8		 cmp	 edi, eax
  00149	0f 8c 11 ff ff
	ff		 jl	 $LL4@InsertGrid
$LN3@InsertGrid:

; 1196 : 	}	
; 1197 : }

  0014f	8b 4d f4	 mov	 ecx, DWORD PTR __$EHRec$[ebp]
  00152	64 89 0d 00 00
	00 00		 mov	 DWORD PTR fs:0, ecx
  00159	59		 pop	 ecx
  0015a	5f		 pop	 edi
  0015b	5e		 pop	 esi
  0015c	5b		 pop	 ebx
  0015d	8b 4d f0	 mov	 ecx, DWORD PTR __$ArrayPad$[ebp]
  00160	33 cd		 xor	 ecx, ebp
  00162	e8 00 00 00 00	 call	 @__security_check_cookie@4
  00167	8b e5		 mov	 esp, ebp
  00169	5d		 pop	 ebp
  0016a	c3		 ret	 0
_TEXT	ENDS
;	COMDAT text$x
text$x	SEGMENT
__unwindfunclet$?InsertGridData@CDlgCompSetup@@IAEXXZ$0:
  00000	8d 4d 88	 lea	 ecx, DWORD PTR _Item$3[ebp]
  00003	e9 00 00 00 00	 jmp	 ??1_GV_ITEM@@QAE@XZ
__unwindfunclet$?InsertGridData@CDlgCompSetup@@IAEXXZ$1:
  00008	8d 4d 84	 lea	 ecx, DWORD PTR $T2[ebp]
  0000b	ff 25 00 00 00
	00		 jmp	 DWORD PTR __imp_??1?$CStringT@DV?$StrTraitMFC_DLL@DV?$ChTraitsCRT@D@ATL@@@@@ATL@@QAE@XZ
  00011	cc		 int	 3
  00012	cc		 int	 3
  00013	cc		 int	 3
  00014	cc		 int	 3
  00015	cc		 int	 3
__ehhandler$?InsertGridData@CDlgCompSetup@@IAEXXZ:
  00016	90		 npad	 1
  00017	90		 npad	 1
  00018	8b 54 24 08	 mov	 edx, DWORD PTR [esp+8]
  0001c	8d 42 0c	 lea	 eax, DWORD PTR [edx+12]
  0001f	8b 8a 78 ff ff
	ff		 mov	 ecx, DWORD PTR [edx-136]
  00025	33 c8		 xor	 ecx, eax
  00027	e8 00 00 00 00	 call	 @__security_check_cookie@4
  0002c	8b 4a fc	 mov	 ecx, DWORD PTR [edx-4]
  0002f	33 c8		 xor	 ecx, eax
  00031	e8 00 00 00 00	 call	 @__security_check_cookie@4
  00036	b8 00 00 00 00	 mov	 eax, OFFSET __ehfuncinfo$?InsertGridData@CDlgCompSetup@@IAEXXZ
  0003b	e9 00 00 00 00	 jmp	 ___CxxFrameHandler3
text$x	ENDS
?InsertGridData@CDlgCompSetup@@IAEXXZ ENDP		; CDlgCompSetup::InsertGridData
; Function compile flags: /Ogtp
; File D:\git\src\IBK\IBK_DRFN\ProjSrc\SrcDrfn\Chart\ChartUtil\DlgCompSetup.cpp
;	COMDAT ?ChangeGridRowCol@CDlgCompSetup@@IAEXXZ
_TEXT	SEGMENT
_nCol$1$ = -8						; size = 4
?ChangeGridRowCol@CDlgCompSetup@@IAEXXZ PROC		; CDlgCompSetup::ChangeGridRowCol, COMDAT
; _this$ = ecx

; 1128 : {

  00000	55		 push	 ebp
  00001	8b ec		 mov	 ebp, esp
  00003	83 ec 08	 sub	 esp, 8
  00006	53		 push	 ebx
  00007	56		 push	 esi
  00008	57		 push	 edi
  00009	8b f9		 mov	 edi, ecx

; 1129 : 	int nCol = m_pGridCtrl->GetColumnCount();		// Column Count 

  0000b	8b 8f dc 06 00
	00		 mov	 ecx, DWORD PTR [edi+1756]
  00011	e8 00 00 00 00	 call	 ?GetColumnCount@CExGridCtrl@@QAEHXZ ; CExGridCtrl::GetColumnCount

; 1130 : 	int nRow = m_pGridCtrl->GetRowCount();			// Row Count 

  00016	8b 8f dc 06 00
	00		 mov	 ecx, DWORD PTR [edi+1756]
  0001c	8b d8		 mov	 ebx, eax
  0001e	89 5d f8	 mov	 DWORD PTR _nCol$1$[ebp], ebx
  00021	e8 00 00 00 00	 call	 ?GetRowCount@CExGridCtrl@@QAEHXZ ; CExGridCtrl::GetRowCount
  00026	33 f6		 xor	 esi, esi

; 1131 : 
; 1132 : 	// fill rows/cols with text
; 1133 : 	for (int row = 0; row < nRow; row++)

  00028	85 c0		 test	 eax, eax
  0002a	7e 1a		 jle	 SHORT $LN3@ChangeGrid
  0002c	8b d8		 mov	 ebx, eax
  0002e	66 90		 npad	 2
$LL4@ChangeGrid:

; 1134 : 		m_pGridCtrl->SetRowHeight(row, ROW_HEIGHT);

  00030	8b 8f dc 06 00
	00		 mov	 ecx, DWORD PTR [edi+1756]
  00036	6a 0f		 push	 15			; 0000000fH
  00038	56		 push	 esi
  00039	e8 00 00 00 00	 call	 ?SetRowHeight@CExGridCtrl@@QAEHHH@Z ; CExGridCtrl::SetRowHeight
  0003e	46		 inc	 esi
  0003f	3b f3		 cmp	 esi, ebx
  00041	7c ed		 jl	 SHORT $LL4@ChangeGrid
  00043	8b 5d f8	 mov	 ebx, DWORD PTR _nCol$1$[ebp]
$LN3@ChangeGrid:

; 1135 : 	
; 1136 : 	for (int col = 0; col < nCol; col++)

  00046	33 f6		 xor	 esi, esi
  00048	85 db		 test	 ebx, ebx
  0004a	7e 17		 jle	 SHORT $LN6@ChangeGrid
  0004c	0f 1f 40 00	 npad	 4
$LL7@ChangeGrid:

; 1137 : 		m_pGridCtrl->SetColumnWidth(col, GRID_CALLPUT_WIDTH);

  00050	8b 8f dc 06 00
	00		 mov	 ecx, DWORD PTR [edi+1756]
  00056	6a 21		 push	 33			; 00000021H
  00058	56		 push	 esi
  00059	e8 00 00 00 00	 call	 ?SetColumnWidth@CExGridCtrl@@QAEHHH@Z ; CExGridCtrl::SetColumnWidth
  0005e	46		 inc	 esi
  0005f	3b f3		 cmp	 esi, ebx
  00061	7c ed		 jl	 SHORT $LL7@ChangeGrid
$LN6@ChangeGrid:

; 1138 : 
; 1139 : 	m_pGridCtrl->SetColumnWidth(COL_CENTER, GRID_CENTER_WIDTH);		

  00063	8b 8f dc 06 00
	00		 mov	 ecx, DWORD PTR [edi+1756]
  00069	6a 64		 push	 100			; 00000064H
  0006b	6a 01		 push	 1
  0006d	e8 00 00 00 00	 call	 ?SetColumnWidth@CExGridCtrl@@QAEHHH@Z ; CExGridCtrl::SetColumnWidth

; 1140 : 	m_pGridCtrl->Refresh();

  00072	8b 8f dc 06 00
	00		 mov	 ecx, DWORD PTR [edi+1756]
  00078	e8 00 00 00 00	 call	 ?Refresh@CExGridCtrl@@QAEXXZ ; CExGridCtrl::Refresh
  0007d	5f		 pop	 edi
  0007e	5e		 pop	 esi
  0007f	5b		 pop	 ebx

; 1141 : }

  00080	8b e5		 mov	 esp, ebp
  00082	5d		 pop	 ebp
  00083	c3		 ret	 0
?ChangeGridRowCol@CDlgCompSetup@@IAEXXZ ENDP		; CDlgCompSetup::ChangeGridRowCol
_TEXT	ENDS
; Function compile flags: /Ogtp
; File D:\git\src\IBK\IBK_DRFN\ProjSrc\SrcDrfn\Chart\ChartUtil\DlgCompSetup.cpp
;	COMDAT ?InitGridRowCol@CDlgCompSetup@@IAEXH@Z
_TEXT	SEGMENT
_e$2 = -20						; size = 4
__$EHRec$ = -16						; size = 16
_nRowCount$ = 8						; size = 4
?InitGridRowCol@CDlgCompSetup@@IAEXH@Z PROC		; CDlgCompSetup::InitGridRowCol, COMDAT
; _this$ = ecx

; 1108 : {	

  00000	55		 push	 ebp
  00001	8b ec		 mov	 ebp, esp
  00003	6a ff		 push	 -1
  00005	68 00 00 00 00	 push	 __ehhandler$?InitGridRowCol@CDlgCompSetup@@IAEXH@Z
  0000a	64 a1 00 00 00
	00		 mov	 eax, DWORD PTR fs:0
  00010	50		 push	 eax
  00011	83 ec 08	 sub	 esp, 8
  00014	53		 push	 ebx
  00015	56		 push	 esi
  00016	57		 push	 edi
  00017	a1 00 00 00 00	 mov	 eax, DWORD PTR ___security_cookie
  0001c	33 c5		 xor	 eax, ebp
  0001e	50		 push	 eax
  0001f	8d 45 f4	 lea	 eax, DWORD PTR __$EHRec$[ebp+4]
  00022	64 a3 00 00 00
	00		 mov	 DWORD PTR fs:0, eax
  00028	89 65 f0	 mov	 DWORD PTR __$EHRec$[ebp], esp
  0002b	8b f1		 mov	 esi, ecx

; 1109 : 	try {
; 1110 : 		int nRow, nCol;
; 1111 : 
; 1112 : 		nRow = nRowCount + TITLE_ROW;

  0002d	8b 45 08	 mov	 eax, DWORD PTR _nRowCount$[ebp]

; 1113 : 		nCol = 3;
; 1114 : 		
; 1115 : 		m_pGridCtrl->SetRowCount(nRow);				// Row A

  00030	8b 8e dc 06 00
	00		 mov	 ecx, DWORD PTR [esi+1756]
  00036	40		 inc	 eax
  00037	50		 push	 eax
  00038	c7 45 fc 00 00
	00 00		 mov	 DWORD PTR __$EHRec$[ebp+12], 0
  0003f	e8 00 00 00 00	 call	 ?SetRowCount@CExGridCtrl@@QAEHH@Z ; CExGridCtrl::SetRowCount

; 1116 : 		m_pGridCtrl->SetColumnCount(nCol);			// Column A

  00044	8b 8e dc 06 00
	00		 mov	 ecx, DWORD PTR [esi+1756]
  0004a	6a 03		 push	 3
  0004c	e8 00 00 00 00	 call	 ?SetColumnCount@CExGridCtrl@@QAEHH@Z ; CExGridCtrl::SetColumnCount

; 1117 : 		m_pGridCtrl->SetFixedColumnCount(0);		// Fixed Column A

  00051	8b 8e dc 06 00
	00		 mov	 ecx, DWORD PTR [esi+1756]
  00057	6a 00		 push	 0
  00059	e8 00 00 00 00	 call	 ?SetFixedColumnCount@CExGridCtrl@@QAEHH@Z ; CExGridCtrl::SetFixedColumnCount
$LN7@InitGridRo:

; 1124 : 	}
; 1125 : }

  0005e	8b 4d f4	 mov	 ecx, DWORD PTR __$EHRec$[ebp+4]
  00061	64 89 0d 00 00
	00 00		 mov	 DWORD PTR fs:0, ecx
  00068	59		 pop	 ecx
  00069	5f		 pop	 edi
  0006a	5e		 pop	 esi
  0006b	5b		 pop	 ebx
  0006c	8b e5		 mov	 esp, ebp
  0006e	5d		 pop	 ebp
  0006f	c2 04 00	 ret	 4
__catch$?InitGridRowCol@CDlgCompSetup@@IAEXH@Z$0:

; 1118 : 	}
; 1119 : 	catch (CMemoryException* e)
; 1120 : 	{
; 1121 : 		e->ReportError();

  00072	8b 75 ec	 mov	 esi, DWORD PTR _e$2[ebp]
  00075	8b ce		 mov	 ecx, esi
  00077	6a 00		 push	 0
  00079	6a 00		 push	 0
  0007b	8b 06		 mov	 eax, DWORD PTR [esi]
  0007d	ff 50 1c	 call	 DWORD PTR [eax+28]

; 1122 : 		e->Delete();

  00080	8b ce		 mov	 ecx, esi
  00082	e8 00 00 00 00	 call	 ?Delete@CException@@QAEXXZ ; CException::Delete

; 1123 : 		return;

  00087	b8 00 00 00 00	 mov	 eax, $LN7@InitGridRo
  0008c	c3		 ret	 0
  0008d	cc		 int	 3
  0008e	cc		 int	 3
  0008f	cc		 int	 3
  00090	cc		 int	 3
  00091	cc		 int	 3
_TEXT	ENDS
;	COMDAT text$x
text$x	SEGMENT
__ehhandler$?InitGridRowCol@CDlgCompSetup@@IAEXH@Z:
  00000	90		 npad	 1
  00001	90		 npad	 1
  00002	8b 54 24 08	 mov	 edx, DWORD PTR [esp+8]
  00006	8d 42 0c	 lea	 eax, DWORD PTR [edx+12]
  00009	8b 4a e8	 mov	 ecx, DWORD PTR [edx-24]
  0000c	33 c8		 xor	 ecx, eax
  0000e	e8 00 00 00 00	 call	 @__security_check_cookie@4
  00013	b8 00 00 00 00	 mov	 eax, OFFSET __ehfuncinfo$?InitGridRowCol@CDlgCompSetup@@IAEXH@Z
  00018	e9 00 00 00 00	 jmp	 ___CxxFrameHandler3
text$x	ENDS
?InitGridRowCol@CDlgCompSetup@@IAEXH@Z ENDP		; CDlgCompSetup::InitGridRowCol
; Function compile flags: /Ogtp
; File D:\git\src\IBK\IBK_DRFN\ProjSrc\SrcDrfn\Chart\ChartUtil\DlgCompSetup.cpp
; File C:\Program Files (x86)\Microsoft Visual Studio\2019\Community\VC\Tools\MSVC\14.29.30133\atlmfc\include\afx.inl
; File D:\git\src\IBK\IBK_DRFN\ProjSrc\SrcDrfn\Chart\ChartUtil\DlgCompSetup.cpp
; File C:\Program Files (x86)\Microsoft Visual Studio\2019\Community\VC\Tools\MSVC\14.29.30133\atlmfc\include\afx.inl
; File D:\git\src\IBK\IBK_DRFN\ProjSrc\SrcDrfn\Chart\ChartUtil\DlgCompSetup.cpp
; File C:\Program Files (x86)\Microsoft Visual Studio\2019\Community\VC\Tools\MSVC\14.29.30133\atlmfc\include\atltypes.h
; File D:\git\src\IBK\IBK_DRFN\ProjSrc\SrcDrfn\Chart\ChartUtil\DlgCompSetup.cpp
; File C:\Program Files (x86)\Microsoft Visual Studio\2019\Community\VC\Tools\MSVC\14.29.30133\atlmfc\include\afxwin2.inl
; File C:\Program Files (x86)\Microsoft Visual Studio\2019\Community\VC\Tools\MSVC\14.29.30133\atlmfc\include\atltypes.h
; File C:\Program Files (x86)\Microsoft Visual Studio\2019\Community\VC\Tools\MSVC\14.29.30133\atlmfc\include\afxwin2.inl
; File D:\git\src\IBK\IBK_DRFN\ProjSrc\SrcDrfn\Chart\ChartUtil\DlgCompSetup.cpp
; File C:\Program Files (x86)\Microsoft Visual Studio\2019\Community\VC\Tools\MSVC\14.29.30133\atlmfc\include\afxwin2.inl
; File D:\git\src\IBK\IBK_DRFN\ProjSrc\SrcDrfn\Chart\ChartUtil\DlgCompSetup.cpp
;	COMDAT ?InitGrid@CDlgCompSetup@@IAEXXZ
_TEXT	SEGMENT
__ctlState$2 = -156					; size = 8
_nCol$1$ = -148						; size = 4
_nCol$1$ = -148						; size = 4
$T3 = -144						; size = 4
_nRow$1$ = -140						; size = 4
_nRow$1$ = -140						; size = 4
$T4 = -140						; size = 4
_Item$5 = -136						; size = 104
_rect$6 = -32						; size = 16
$T7 = -32						; size = 16
__$ArrayPad$ = -16					; size = 4
__$EHRec$ = -12						; size = 12
?InitGrid@CDlgCompSetup@@IAEXXZ PROC			; CDlgCompSetup::InitGrid, COMDAT
; _this$ = ecx

; 1060 : {

  00000	55		 push	 ebp
  00001	8b ec		 mov	 ebp, esp
  00003	6a ff		 push	 -1
  00005	68 00 00 00 00	 push	 __ehhandler$?InitGrid@CDlgCompSetup@@IAEXXZ
  0000a	64 a1 00 00 00
	00		 mov	 eax, DWORD PTR fs:0
  00010	50		 push	 eax
  00011	81 ec 90 00 00
	00		 sub	 esp, 144		; 00000090H
  00017	a1 00 00 00 00	 mov	 eax, DWORD PTR ___security_cookie
  0001c	33 c5		 xor	 eax, ebp
  0001e	89 45 f0	 mov	 DWORD PTR __$ArrayPad$[ebp], eax
  00021	53		 push	 ebx
  00022	56		 push	 esi
  00023	57		 push	 edi
  00024	50		 push	 eax
  00025	8d 45 f4	 lea	 eax, DWORD PTR __$EHRec$[ebp]
  00028	64 a3 00 00 00
	00		 mov	 DWORD PTR fs:0, eax
  0002e	8b d9		 mov	 ebx, ecx

; 1061 : 	if (m_pGridCtrl == NULL)

  00030	83 bb dc 06 00
	00 00		 cmp	 DWORD PTR [ebx+1756], 0
  00037	0f 85 01 03 00
	00		 jne	 $LN2@InitGrid

; 1064 : 		AFX_MANAGE_STATE(AfxGetStaticModuleState());

  0003d	e8 00 00 00 00	 call	 ?AfxGetStaticModuleState@@YGPAVAFX_MODULE_STATE@@XZ ; AfxGetStaticModuleState
  00042	50		 push	 eax
  00043	8d 8d 64 ff ff
	ff		 lea	 ecx, DWORD PTR __ctlState$2[ebp]
  00049	e8 00 00 00 00	 call	 ??0AFX_MAINTAIN_STATE2@@QAE@PAVAFX_MODULE_STATE@@@Z ; AFX_MAINTAIN_STATE2::AFX_MAINTAIN_STATE2
; File C:\Program Files (x86)\Microsoft Visual Studio\2019\Community\VC\Tools\MSVC\14.29.30133\atlmfc\include\afx.inl

; 116  : 	{ return ::operator new(nSize); }

  0004e	68 88 00 00 00	 push	 136			; 00000088H
; File D:\git\src\IBK\IBK_DRFN\ProjSrc\SrcDrfn\Chart\ChartUtil\DlgCompSetup.cpp

; 1064 : 		AFX_MANAGE_STATE(AfxGetStaticModuleState());

  00053	c7 45 fc 00 00
	00 00		 mov	 DWORD PTR __$EHRec$[ebp+8], 0
; File C:\Program Files (x86)\Microsoft Visual Studio\2019\Community\VC\Tools\MSVC\14.29.30133\atlmfc\include\afx.inl

; 116  : 	{ return ::operator new(nSize); }

  0005a	e8 00 00 00 00	 call	 ??2@YAPAXI@Z		; operator new
  0005f	83 c4 04	 add	 esp, 4
; File D:\git\src\IBK\IBK_DRFN\ProjSrc\SrcDrfn\Chart\ChartUtil\DlgCompSetup.cpp

; 1065 : 		m_pGridCtrl = new CExGridCtrl;

  00062	89 85 74 ff ff
	ff		 mov	 DWORD PTR $T4[ebp], eax
  00068	c6 45 fc 01	 mov	 BYTE PTR __$EHRec$[ebp+8], 1
  0006c	85 c0		 test	 eax, eax
  0006e	74 11		 je	 SHORT $LN5@InitGrid
  00070	6a 00		 push	 0
  00072	6a 00		 push	 0
  00074	6a 00		 push	 0
  00076	6a 00		 push	 0
  00078	8b c8		 mov	 ecx, eax
  0007a	e8 00 00 00 00	 call	 ??0CExGridCtrl@@QAE@HHHH@Z ; CExGridCtrl::CExGridCtrl
  0007f	eb 02		 jmp	 SHORT $LN6@InitGrid
$LN5@InitGrid:
  00081	33 c0		 xor	 eax, eax
$LN6@InitGrid:
  00083	c6 45 fc 00	 mov	 BYTE PTR __$EHRec$[ebp+8], 0
  00087	89 83 dc 06 00
	00		 mov	 DWORD PTR [ebx+1756], eax

; 1066 : 		if (!m_pGridCtrl) return;

  0008d	85 c0		 test	 eax, eax
  0008f	0f 84 9e 02 00
	00		 je	 $LN94@InitGrid

; 1068 : 		m_pGridCtrl->Create(CRect(0,0,0,0), this, ID_GRIDCTRL);

  00095	68 00 00 81 50	 push	 1350631424		; 50810000H
  0009a	68 8e 17 00 00	 push	 6030			; 0000178eH
  0009f	53		 push	 ebx
  000a0	8d 4d e0	 lea	 ecx, DWORD PTR $T7[ebp]
  000a3	0f 57 c0	 xorps	 xmm0, xmm0
  000a6	51		 push	 ecx
  000a7	8b c8		 mov	 ecx, eax
; File C:\Program Files (x86)\Microsoft Visual Studio\2019\Community\VC\Tools\MSVC\14.29.30133\atlmfc\include\atltypes.h

; 540  : 	left = l;

  000a9	0f 11 45 e0	 movups	 XMMWORD PTR $T7[ebp], xmm0
; File D:\git\src\IBK\IBK_DRFN\ProjSrc\SrcDrfn\Chart\ChartUtil\DlgCompSetup.cpp

; 1068 : 		m_pGridCtrl->Create(CRect(0,0,0,0), this, ID_GRIDCTRL);

  000ad	e8 00 00 00 00	 call	 ?Create@CExGridCtrl@@QAEHAAUtagRECT@@PAVCWnd@@IK@Z ; CExGridCtrl::Create

; 1069 : 		HWND hGrid = m_pGridCtrl->GetSafeHwnd();
; 1070 : 		TRACE("Grid Hanle=%08X\n", hGrid);
; 1071 : 
; 1072 : 		///////////////////////////////////////////////////
; 1073 : 		//  
; 1074 : 		m_pGridCtrl->SetEditable(FALSE);				// CInplaceEdit 

  000b2	8b 8b dc 06 00
	00		 mov	 ecx, DWORD PTR [ebx+1756]
  000b8	6a 00		 push	 0
  000ba	e8 00 00 00 00	 call	 ?SetEditable@CExGridCtrl@@QAEXH@Z ; CExGridCtrl::SetEditable

; 1075 : //		m_pGridCtrl->SetFont(GetParent()->GetFont());
; 1076 : 		m_pGridCtrl->SetGridColor(COLOR_GRIDHEADER);		// Grid Color 

  000bf	8b 8b dc 06 00
	00		 mov	 ecx, DWORD PTR [ebx+1756]
  000c5	68 f2 f8 fe 00	 push	 16709874		; 00fef8f2H
  000ca	e8 00 00 00 00	 call	 ?SetGridColor@CExGridCtrl@@QAEXK@Z ; CExGridCtrl::SetGridColor

; 1077 : 		m_pGridCtrl->SetHighlightColor(COLOR_BACK_LABEL);

  000cf	8b 8b dc 06 00
	00		 mov	 ecx, DWORD PTR [ebx+1756]
  000d5	68 c6 d7 e7 00	 push	 15194054		; 00e7d7c6H
  000da	e8 00 00 00 00	 call	 ?SetHighlightColor@CExGridCtrl@@QAEXK@Z ; CExGridCtrl::SetHighlightColor

; 1078 : 		m_pGridCtrl->SetBkColor(COLOR_WHITE);			// Grid Back Color 

  000df	8b 8b dc 06 00
	00		 mov	 ecx, DWORD PTR [ebx+1756]
  000e5	68 ff ff ff 00	 push	 16777215		; 00ffffffH
  000ea	e8 00 00 00 00	 call	 ?SetBkColor@CExGridCtrl@@QAEXK@Z ; CExGridCtrl::SetBkColor

; 1079 : 		m_pGridCtrl->EnableColumnHide();				// Column    

  000ef	8b 8b dc 06 00
	00		 mov	 ecx, DWORD PTR [ebx+1756]
  000f5	6a 01		 push	 1
  000f7	e8 00 00 00 00	 call	 ?EnableColumnHide@CExGridCtrl@@QAEXH@Z ; CExGridCtrl::EnableColumnHide

; 1080 : 		m_pGridCtrl->EnableRowHide();					// Row    

  000fc	8b 8b dc 06 00
	00		 mov	 ecx, DWORD PTR [ebx+1756]
  00102	6a 01		 push	 1
  00104	e8 00 00 00 00	 call	 ?EnableRowHide@CExGridCtrl@@QAEXH@Z ; CExGridCtrl::EnableRowHide

; 1081 : 		m_pGridCtrl->EnableTitleTips(FALSE);			// ToolTip 

  00109	8b 8b dc 06 00
	00		 mov	 ecx, DWORD PTR [ebx+1756]
  0010f	6a 00		 push	 0
  00111	e8 00 00 00 00	 call	 ?EnableTitleTips@CExGridCtrl@@QAEXH@Z ; CExGridCtrl::EnableTitleTips

; 1082 : 		m_pGridCtrl->SetGridLineColor(COLOR_GRIDLINE);	// Grid Line color

  00116	8b 8b dc 06 00
	00		 mov	 ecx, DWORD PTR [ebx+1756]
  0011c	68 cc d2 e0 00	 push	 14734028		; 00e0d2ccH
  00121	e8 00 00 00 00	 call	 ?SetGridLineColor@CExGridCtrl@@QAEXK@Z ; CExGridCtrl::SetGridLineColor
; File C:\Program Files (x86)\Microsoft Visual Studio\2019\Community\VC\Tools\MSVC\14.29.30133\atlmfc\include\afxwin2.inl

; 84   : 	{ ASSERT(::IsWindow(m_hWnd)); ::GetWindowRect(m_hWnd, lpRect); }

  00126	8d 45 e0	 lea	 eax, DWORD PTR _rect$6[ebp]
  00129	0f 57 c0	 xorps	 xmm0, xmm0
  0012c	50		 push	 eax
  0012d	ff b3 08 01 00
	00		 push	 DWORD PTR [ebx+264]
; File C:\Program Files (x86)\Microsoft Visual Studio\2019\Community\VC\Tools\MSVC\14.29.30133\atlmfc\include\atltypes.h

; 528  : 	left = 0;

  00133	0f 11 45 e0	 movups	 XMMWORD PTR _rect$6[ebp], xmm0
; File C:\Program Files (x86)\Microsoft Visual Studio\2019\Community\VC\Tools\MSVC\14.29.30133\atlmfc\include\afxwin2.inl

; 84   : 	{ ASSERT(::IsWindow(m_hWnd)); ::GetWindowRect(m_hWnd, lpRect); }

  00137	ff 15 00 00 00
	00		 call	 DWORD PTR __imp__GetWindowRect@8
; File D:\git\src\IBK\IBK_DRFN\ProjSrc\SrcDrfn\Chart\ChartUtil\DlgCompSetup.cpp

; 1088 : 			ScreenToClient(rect);

  0013d	8d 45 e0	 lea	 eax, DWORD PTR _rect$6[ebp]
  00140	8b cb		 mov	 ecx, ebx
  00142	50		 push	 eax
  00143	e8 00 00 00 00	 call	 ?ScreenToClient@CWnd@@QBEXPAUtagRECT@@@Z ; CWnd::ScreenToClient
; File C:\Program Files (x86)\Microsoft Visual Studio\2019\Community\VC\Tools\MSVC\14.29.30133\atlmfc\include\afxwin2.inl

; 73   : 	{ MoveWindow(lpRect->left, lpRect->top, lpRect->right - lpRect->left,

  00148	8b 45 ec	 mov	 eax, DWORD PTR _rect$6[ebp+12]
  0014b	8b 55 e4	 mov	 edx, DWORD PTR _rect$6[ebp+4]
  0014e	2b c2		 sub	 eax, edx
  00150	8b 4d e0	 mov	 ecx, DWORD PTR _rect$6[ebp]
  00153	6a 01		 push	 1
  00155	50		 push	 eax
  00156	8b 45 e8	 mov	 eax, DWORD PTR _rect$6[ebp+8]
  00159	2b c1		 sub	 eax, ecx
  0015b	50		 push	 eax
  0015c	52		 push	 edx
  0015d	51		 push	 ecx
  0015e	8b 8b dc 06 00
	00		 mov	 ecx, DWORD PTR [ebx+1756]
  00164	e8 00 00 00 00	 call	 ?MoveWindow@CWnd@@QAEXHHHHH@Z ; CWnd::MoveWindow
; File D:\git\src\IBK\IBK_DRFN\ProjSrc\SrcDrfn\Chart\ChartUtil\DlgCompSetup.cpp

; 1094 : 		InitGridRowCol();

  00169	6a 00		 push	 0
  0016b	8b cb		 mov	 ecx, ebx
  0016d	e8 00 00 00 00	 call	 ?InitGridRowCol@CDlgCompSetup@@IAEXH@Z ; CDlgCompSetup::InitGridRowCol

; 1129 : 	int nCol = m_pGridCtrl->GetColumnCount();		// Column Count 

  00172	8b 8b dc 06 00
	00		 mov	 ecx, DWORD PTR [ebx+1756]
  00178	e8 00 00 00 00	 call	 ?GetColumnCount@CExGridCtrl@@QAEHXZ ; CExGridCtrl::GetColumnCount

; 1130 : 	int nRow = m_pGridCtrl->GetRowCount();			// Row Count 

  0017d	8b 8b dc 06 00
	00		 mov	 ecx, DWORD PTR [ebx+1756]
  00183	8b f8		 mov	 edi, eax
  00185	89 bd 6c ff ff
	ff		 mov	 DWORD PTR _nCol$1$[ebp], edi
  0018b	e8 00 00 00 00	 call	 ?GetRowCount@CExGridCtrl@@QAEHXZ ; CExGridCtrl::GetRowCount

; 1068 : 		m_pGridCtrl->Create(CRect(0,0,0,0), this, ID_GRIDCTRL);

  00190	33 f6		 xor	 esi, esi

; 1130 : 	int nRow = m_pGridCtrl->GetRowCount();			// Row Count 

  00192	89 85 74 ff ff
	ff		 mov	 DWORD PTR _nRow$1$[ebp], eax

; 1131 : 
; 1132 : 	// fill rows/cols with text
; 1133 : 	for (int row = 0; row < nRow; row++)

  00198	85 c0		 test	 eax, eax
  0019a	7e 1d		 jle	 SHORT $LN26@InitGrid
  0019c	8b f8		 mov	 edi, eax
  0019e	66 90		 npad	 2
$LL27@InitGrid:

; 1134 : 		m_pGridCtrl->SetRowHeight(row, ROW_HEIGHT);

  001a0	8b 8b dc 06 00
	00		 mov	 ecx, DWORD PTR [ebx+1756]
  001a6	6a 0f		 push	 15			; 0000000fH
  001a8	56		 push	 esi
  001a9	e8 00 00 00 00	 call	 ?SetRowHeight@CExGridCtrl@@QAEHHH@Z ; CExGridCtrl::SetRowHeight
  001ae	46		 inc	 esi
  001af	3b f7		 cmp	 esi, edi
  001b1	7c ed		 jl	 SHORT $LL27@InitGrid
  001b3	8b bd 6c ff ff
	ff		 mov	 edi, DWORD PTR _nCol$1$[ebp]
$LN26@InitGrid:

; 1135 : 	
; 1136 : 	for (int col = 0; col < nCol; col++)

  001b9	33 f6		 xor	 esi, esi
  001bb	85 ff		 test	 edi, edi
  001bd	7e 14		 jle	 SHORT $LN29@InitGrid
  001bf	90		 npad	 1
$LL30@InitGrid:

; 1137 : 		m_pGridCtrl->SetColumnWidth(col, GRID_CALLPUT_WIDTH);

  001c0	8b 8b dc 06 00
	00		 mov	 ecx, DWORD PTR [ebx+1756]
  001c6	6a 21		 push	 33			; 00000021H
  001c8	56		 push	 esi
  001c9	e8 00 00 00 00	 call	 ?SetColumnWidth@CExGridCtrl@@QAEHHH@Z ; CExGridCtrl::SetColumnWidth
  001ce	46		 inc	 esi
  001cf	3b f7		 cmp	 esi, edi
  001d1	7c ed		 jl	 SHORT $LL30@InitGrid
$LN29@InitGrid:

; 1138 : 
; 1139 : 	m_pGridCtrl->SetColumnWidth(COL_CENTER, GRID_CENTER_WIDTH);		

  001d3	8b 8b dc 06 00
	00		 mov	 ecx, DWORD PTR [ebx+1756]
  001d9	6a 64		 push	 100			; 00000064H
  001db	6a 01		 push	 1
  001dd	e8 00 00 00 00	 call	 ?SetColumnWidth@CExGridCtrl@@QAEHHH@Z ; CExGridCtrl::SetColumnWidth

; 1140 : 	m_pGridCtrl->Refresh();

  001e2	8b 8b dc 06 00
	00		 mov	 ecx, DWORD PTR [ebx+1756]
  001e8	e8 00 00 00 00	 call	 ?Refresh@CExGridCtrl@@QAEXXZ ; CExGridCtrl::Refresh

; 1170 : 	int nCol = m_pGridCtrl->GetColumnCount();

  001ed	8b 8b dc 06 00
	00		 mov	 ecx, DWORD PTR [ebx+1756]
  001f3	e8 00 00 00 00	 call	 ?GetColumnCount@CExGridCtrl@@QAEHXZ ; CExGridCtrl::GetColumnCount

; 1171 : 	int nRow = m_pGridCtrl->GetRowCount();

  001f8	8b 8b dc 06 00
	00		 mov	 ecx, DWORD PTR [ebx+1756]
  001fe	89 85 6c ff ff
	ff		 mov	 DWORD PTR _nCol$1$[ebp], eax
  00204	e8 00 00 00 00	 call	 ?GetRowCount@CExGridCtrl@@QAEHXZ ; CExGridCtrl::GetRowCount

; 1172 : 	
; 1173 : 	// fill rows/cols with text
; 1174 : 	int row, col;	
; 1175 : 	for (row = 0; row < nRow; row++)

  00209	33 ff		 xor	 edi, edi
  0020b	89 85 74 ff ff
	ff		 mov	 DWORD PTR _nRow$1$[ebp], eax
  00211	85 c0		 test	 eax, eax
  00213	0f 8e 05 01 00
	00		 jle	 $LN34@InitGrid
  00219	8b 85 6c ff ff
	ff		 mov	 eax, DWORD PTR _nCol$1$[ebp]
  0021f	8b 8d 74 ff ff
	ff		 mov	 ecx, DWORD PTR _nRow$1$[ebp]
$LL35@InitGrid:

; 1176 : 	{
; 1177 : 		for (col = 0; col < nCol; col++)

  00225	33 f6		 xor	 esi, esi
  00227	85 c0		 test	 eax, eax
  00229	0f 8e e6 00 00
	00		 jle	 $LN33@InitGrid
  0022f	90		 npad	 1
$LL38@InitGrid:
  00230	8d 4d dc	 lea	 ecx, DWORD PTR _Item$5[ebp+100]
  00233	ff 15 00 00 00
	00		 call	 DWORD PTR __imp_??0?$CStringT@DV?$StrTraitMFC_DLL@DV?$ChTraitsCRT@D@ATL@@@@@ATL@@QAE@XZ

; 1178 : 		{ 
; 1179 : 
; 1180 : 			GV_ITEM Item;

  00239	c6 45 fc 02	 mov	 BYTE PTR __$EHRec$[ebp+8], 2

; 1181 : 			Item.mask = GVIF_TEXT|GVIF_FORMAT|GVIF_FGCLR|GVIF_BKCLR|GVIF_STATE|GVIF_PARAM;

  0023d	c7 45 80 7d 00
	00 00		 mov	 DWORD PTR _Item$5[ebp+8], 125 ; 0000007dH

; 1182 : 			Item.nState = GVIS_READONLY | GVIS_MODIFIED ;//| GVIS_DROPHILITED;

  00244	c7 45 84 88 00
	00 00		 mov	 DWORD PTR _Item$5[ebp+12], 136 ; 00000088H

; 1183 : 			Item.row = row;

  0024b	89 bd 78 ff ff
	ff		 mov	 DWORD PTR _Item$5[ebp], edi

; 1184 : 			Item.col = col;

  00251	89 b5 7c ff ff
	ff		 mov	 DWORD PTR _Item$5[ebp+4], esi

; 1185 : 			
; 1186 : 			Item.nFormat = DT_VCENTER|DT_SINGLELINE|DT_END_ELLIPSIS|DT_NOPREFIX|DT_CENTER;

  00257	c7 45 88 25 88
	00 00		 mov	 DWORD PTR _Item$5[ebp+16], 34853 ; 00008825H

; 1201 : 	if (row != 0 )		return "";

  0025e	85 ff		 test	 edi, edi
  00260	75 1e		 jne	 SHORT $LN54@InitGrid

; 1202 : 
; 1203 : 	if (col == COL_CENTER)	return "";

  00262	83 fe 01	 cmp	 esi, 1
  00265	75 07		 jne	 SHORT $LN50@InitGrid
  00267	68 00 00 00 00	 push	 OFFSET ??_C@_06CDJAKJDK@?G?$OA?$LL?g?$LA?$KB@
  0026c	eb 17		 jmp	 SHORT $LN95@InitGrid
$LN50@InitGrid:

; 1204 : 	else if (col < COL_CENTER)	return "";

  0026e	73 07		 jae	 SHORT $LN52@InitGrid
  00270	68 00 00 00 00	 push	 OFFSET ??_C@_02KCIOKDCD@?D?$NN@
  00275	eb 0e		 jmp	 SHORT $LN95@InitGrid
$LN52@InitGrid:

; 1205 : 	else if (col > COL_CENTER)	return "";

  00277	76 07		 jbe	 SHORT $LN54@InitGrid
  00279	68 00 00 00 00	 push	 OFFSET ??_C@_02ECKNGKBC@?G?$LC@
  0027e	eb 05		 jmp	 SHORT $LN95@InitGrid
$LN54@InitGrid:

; 1206 : 
; 1207 : 	return "";

  00280	68 00 00 00 00	 push	 OFFSET ??_C@_00CNPNBAHC@@
$LN95@InitGrid:

; 1188 : 			Item.strText = GetInsertGridDataText(row, col);

  00285	8d 8d 70 ff ff
	ff		 lea	 ecx, DWORD PTR $T3[ebp]
  0028b	ff 15 00 00 00
	00		 call	 DWORD PTR __imp_??0?$CStringT@DV?$StrTraitMFC_DLL@DV?$ChTraitsCRT@D@ATL@@@@@ATL@@QAE@PBD@Z
  00291	8d 85 70 ff ff
	ff		 lea	 eax, DWORD PTR $T3[ebp]
  00297	c6 45 fc 03	 mov	 BYTE PTR __$EHRec$[ebp+8], 3
  0029b	50		 push	 eax
  0029c	8d 4d dc	 lea	 ecx, DWORD PTR _Item$5[ebp+100]
  0029f	ff 15 00 00 00
	00		 call	 DWORD PTR __imp_??4?$CStringT@DV?$StrTraitMFC_DLL@DV?$ChTraitsCRT@D@ATL@@@@@ATL@@QAEAAV01@ABV01@@Z
  002a5	8d 8d 70 ff ff
	ff		 lea	 ecx, DWORD PTR $T3[ebp]
  002ab	c6 45 fc 02	 mov	 BYTE PTR __$EHRec$[ebp+8], 2
  002af	ff 15 00 00 00
	00		 call	 DWORD PTR __imp_??1?$CStringT@DV?$StrTraitMFC_DLL@DV?$ChTraitsCRT@D@ATL@@@@@ATL@@QAE@XZ

; 1189 : 			Item.crBkClr = RGB(238,239,243);

  002b5	b8 ee ef f3 00	 mov	 eax, 15986670		; 00f3efeeH
  002ba	89 45 90	 mov	 DWORD PTR _Item$5[ebp+24], eax

; 1190 : 			if(row == 0 && col < COL_CENTER)			Item.crBkClr = RGB(244, 180, 180);

  002bd	85 ff		 test	 edi, edi
  002bf	75 19		 jne	 SHORT $LN41@InitGrid
  002c1	83 fe 01	 cmp	 esi, 1
  002c4	73 09		 jae	 SHORT $LN92@InitGrid
  002c6	c7 45 90 f4 b4
	b4 00		 mov	 DWORD PTR _Item$5[ebp+24], 11842804 ; 00b4b4f4H
  002cd	eb 0b		 jmp	 SHORT $LN41@InitGrid
$LN92@InitGrid:

; 1191 : 			else if(row == 0 && col > COL_CENTER)		Item.crBkClr = RGB(180, 207, 244);

  002cf	b9 b4 cf f4 00	 mov	 ecx, 16043956		; 00f4cfb4H
  002d4	0f 47 c1	 cmova	 eax, ecx
  002d7	89 45 90	 mov	 DWORD PTR _Item$5[ebp+24], eax
$LN41@InitGrid:

; 1192 : 			Item.crFgClr = COLOR_BLACK;
; 1193 : 			
; 1194 : 			m_pGridCtrl->SetItem(&Item);

  002da	8b 8b dc 06 00
	00		 mov	 ecx, DWORD PTR [ebx+1756]
  002e0	8d 85 78 ff ff
	ff		 lea	 eax, DWORD PTR _Item$5[ebp]
  002e6	50		 push	 eax
  002e7	c7 45 94 00 00
	00 00		 mov	 DWORD PTR _Item$5[ebp+28], 0
  002ee	e8 00 00 00 00	 call	 ?SetItem@CExGridCtrl@@QAEHPAU_GV_ITEM@@@Z ; CExGridCtrl::SetItem
  002f3	8d 4d dc	 lea	 ecx, DWORD PTR _Item$5[ebp+100]

; 1195 : 		}

  002f6	c6 45 fc 00	 mov	 BYTE PTR __$EHRec$[ebp+8], 0
  002fa	ff 15 00 00 00
	00		 call	 DWORD PTR __imp_??1?$CStringT@DV?$StrTraitMFC_DLL@DV?$ChTraitsCRT@D@ATL@@@@@ATL@@QAE@XZ

; 1176 : 	{
; 1177 : 		for (col = 0; col < nCol; col++)

  00300	8b 85 6c ff ff
	ff		 mov	 eax, DWORD PTR _nCol$1$[ebp]
  00306	46		 inc	 esi
  00307	3b f0		 cmp	 esi, eax
  00309	0f 8c 21 ff ff
	ff		 jl	 $LL38@InitGrid
  0030f	8b 8d 74 ff ff
	ff		 mov	 ecx, DWORD PTR _nRow$1$[ebp]
$LN33@InitGrid:

; 1172 : 	
; 1173 : 	// fill rows/cols with text
; 1174 : 	int row, col;	
; 1175 : 	for (row = 0; row < nRow; row++)

  00315	47		 inc	 edi
  00316	3b f9		 cmp	 edi, ecx
  00318	0f 8c 07 ff ff
	ff		 jl	 $LL35@InitGrid
$LN34@InitGrid:

; 1095 : 	
; 1096 : 		//   
; 1097 : 		ChangeGridRowCol();
; 1098 : 
; 1099 : 		//   .
; 1100 : 		InsertGridData();
; 1101 : 
; 1102 : 		ChangeListOrGridCtrl("");

  0031e	51		 push	 ecx
  0031f	8b cc		 mov	 ecx, esp
  00321	68 00 00 00 00	 push	 OFFSET ??_C@_00CNPNBAHC@@
  00326	ff 15 00 00 00
	00		 call	 DWORD PTR __imp_??0?$CStringT@DV?$StrTraitMFC_DLL@DV?$ChTraitsCRT@D@ATL@@@@@ATL@@QAE@PBD@Z
  0032c	8b cb		 mov	 ecx, ebx
  0032e	e8 00 00 00 00	 call	 ?ChangeListOrGridCtrl@CDlgCompSetup@@IAEXV?$CStringT@DV?$StrTraitMFC_DLL@DV?$ChTraitsCRT@D@ATL@@@@@ATL@@@Z ; CDlgCompSetup::ChangeListOrGridCtrl
$LN94@InitGrid:

; 1103 : 	}
; 1104 : }

  00333	8d 8d 64 ff ff
	ff		 lea	 ecx, DWORD PTR __ctlState$2[ebp]
  00339	e8 00 00 00 00	 call	 ??1AFX_MAINTAIN_STATE2@@QAE@XZ ; AFX_MAINTAIN_STATE2::~AFX_MAINTAIN_STATE2
$LN2@InitGrid:
  0033e	8b 4d f4	 mov	 ecx, DWORD PTR __$EHRec$[ebp]
  00341	64 89 0d 00 00
	00 00		 mov	 DWORD PTR fs:0, ecx
  00348	59		 pop	 ecx
  00349	5f		 pop	 edi
  0034a	5e		 pop	 esi
  0034b	5b		 pop	 ebx
  0034c	8b 4d f0	 mov	 ecx, DWORD PTR __$ArrayPad$[ebp]
  0034f	33 cd		 xor	 ecx, ebp
  00351	e8 00 00 00 00	 call	 @__security_check_cookie@4
  00356	8b e5		 mov	 esp, ebp
  00358	5d		 pop	 ebp
  00359	c3		 ret	 0
_TEXT	ENDS
;	COMDAT text$x
text$x	SEGMENT
__unwindfunclet$?InitGrid@CDlgCompSetup@@IAEXXZ$0:
  00000	8d 8d 64 ff ff
	ff		 lea	 ecx, DWORD PTR __ctlState$2[ebp]
  00006	e9 00 00 00 00	 jmp	 ??1AFX_MAINTAIN_STATE2@@QAE@XZ ; AFX_MAINTAIN_STATE2::~AFX_MAINTAIN_STATE2
__unwindfunclet$?InitGrid@CDlgCompSetup@@IAEXXZ$1:
  0000b	8b 85 74 ff ff
	ff		 mov	 eax, DWORD PTR $T4[ebp]
  00011	50		 push	 eax
  00012	e8 00 00 00 00	 call	 ??3CObject@@SGXPAX@Z	; CObject::operator delete
  00017	c3		 ret	 0
__unwindfunclet$?InitGrid@CDlgCompSetup@@IAEXXZ$3:
  00018	8d 8d 78 ff ff
	ff		 lea	 ecx, DWORD PTR _Item$5[ebp]
  0001e	e9 00 00 00 00	 jmp	 ??1_GV_ITEM@@QAE@XZ
__unwindfunclet$?InitGrid@CDlgCompSetup@@IAEXXZ$4:
  00023	8d 8d 70 ff ff
	ff		 lea	 ecx, DWORD PTR $T3[ebp]
  00029	ff 25 00 00 00
	00		 jmp	 DWORD PTR __imp_??1?$CStringT@DV?$StrTraitMFC_DLL@DV?$ChTraitsCRT@D@ATL@@@@@ATL@@QAE@XZ
  0002f	cc		 int	 3
  00030	cc		 int	 3
  00031	cc		 int	 3
  00032	cc		 int	 3
  00033	cc		 int	 3
__ehhandler$?InitGrid@CDlgCompSetup@@IAEXXZ:
  00034	90		 npad	 1
  00035	90		 npad	 1
  00036	8b 54 24 08	 mov	 edx, DWORD PTR [esp+8]
  0003a	8d 42 0c	 lea	 eax, DWORD PTR [edx+12]
  0003d	8b 8a 60 ff ff
	ff		 mov	 ecx, DWORD PTR [edx-160]
  00043	33 c8		 xor	 ecx, eax
  00045	e8 00 00 00 00	 call	 @__security_check_cookie@4
  0004a	8b 4a fc	 mov	 ecx, DWORD PTR [edx-4]
  0004d	33 c8		 xor	 ecx, eax
  0004f	e8 00 00 00 00	 call	 @__security_check_cookie@4
  00054	b8 00 00 00 00	 mov	 eax, OFFSET __ehfuncinfo$?InitGrid@CDlgCompSetup@@IAEXXZ
  00059	e9 00 00 00 00	 jmp	 ___CxxFrameHandler3
text$x	ENDS
?InitGrid@CDlgCompSetup@@IAEXXZ ENDP			; CDlgCompSetup::InitGrid
; Function compile flags: /Ogtp
; File D:\git\src\IBK\IBK_DRFN\ProjSrc\SrcDrfn\Chart\ChartUtil\DlgCompSetup.cpp
; File C:\Program Files (x86)\Microsoft Visual Studio\2019\Community\VC\Tools\MSVC\14.29.30133\atlmfc\include\afxtempl.h
; File D:\git\src\IBK\IBK_DRFN\ProjSrc\SrcDrfn\Chart\ChartUtil\DlgCompSetup.cpp
; File C:\Program Files (x86)\Microsoft Visual Studio\2019\Community\VC\Tools\MSVC\14.29.30133\atlmfc\include\afxtempl.h
; File D:\git\src\IBK\IBK_DRFN\ProjSrc\SrcDrfn\Chart\ChartUtil\DlgCompSetup.cpp
; File C:\Program Files (x86)\Microsoft Visual Studio\2019\Community\VC\Tools\MSVC\14.29.30133\atlmfc\include\afxtempl.h
; File D:\git\src\IBK\IBK_DRFN\ProjSrc\SrcDrfn\Chart\ChartUtil\DlgCompSetup.cpp
; File C:\Program Files (x86)\Microsoft Visual Studio\2019\Community\VC\Tools\MSVC\14.29.30133\atlmfc\include\afxtempl.h
; File D:\git\src\IBK\IBK_DRFN\ProjSrc\SrcDrfn\Chart\ChartUtil\DlgCompSetup.cpp
; File C:\Program Files (x86)\Microsoft Visual Studio\2019\Community\VC\Tools\MSVC\14.29.30133\atlmfc\include\afxtempl.h
; File D:\git\src\IBK\IBK_DRFN\ProjSrc\SrcDrfn\Chart\ChartUtil\DlgCompSetup.cpp
; File C:\Program Files (x86)\Microsoft Visual Studio\2019\Community\VC\Tools\MSVC\14.29.30133\atlmfc\include\cstringt.h
; File D:\git\src\IBK\IBK_DRFN\ProjSrc\SrcDrfn\Chart\ChartUtil\DlgCompSetup.cpp
;	COMDAT ?SetMasterData@CDlgCompSetup@@IAEXPAV?$CList@VCCodeTypeA@@V1@@@@Z
_TEXT	SEGMENT
_jp$1$ = -144						; size = 4
_pos$1$ = -140						; size = 4
$T2 = -136						; size = 4
_pMonthData$1$ = -132					; size = 4
_strPath$ = -128					; size = 4
_strATM$ = -124						; size = 4
_strCenter$ = -120					; size = 4
_szAtm$ = -116						; size = 100
__$ArrayPad$ = -16					; size = 4
__$EHRec$ = -12						; size = 12
_pCodeType$ = 8						; size = 4
?SetMasterData@CDlgCompSetup@@IAEXPAV?$CList@VCCodeTypeA@@V1@@@@Z PROC ; CDlgCompSetup::SetMasterData, COMDAT
; _this$ = ecx

; 1221 : {

  00000	55		 push	 ebp
  00001	8b ec		 mov	 ebp, esp
  00003	6a ff		 push	 -1
  00005	68 00 00 00 00	 push	 __ehhandler$?SetMasterData@CDlgCompSetup@@IAEXPAV?$CList@VCCodeTypeA@@V1@@@@Z
  0000a	64 a1 00 00 00
	00		 mov	 eax, DWORD PTR fs:0
  00010	50		 push	 eax
  00011	81 ec 84 00 00
	00		 sub	 esp, 132		; 00000084H
  00017	a1 00 00 00 00	 mov	 eax, DWORD PTR ___security_cookie
  0001c	33 c5		 xor	 eax, ebp
  0001e	89 45 f0	 mov	 DWORD PTR __$ArrayPad$[ebp], eax
  00021	53		 push	 ebx
  00022	56		 push	 esi
  00023	57		 push	 edi
  00024	50		 push	 eax
  00025	8d 45 f4	 lea	 eax, DWORD PTR __$EHRec$[ebp]
  00028	64 a3 00 00 00
	00		 mov	 DWORD PTR fs:0, eax
  0002e	8b d9		 mov	 ebx, ecx
  00030	8b 7d 08	 mov	 edi, DWORD PTR _pCodeType$[ebp]

; 1222 : 	m_cpHelper.ClearList();

  00033	8d 8b e0 06 00
	00		 lea	 ecx, DWORD PTR [ebx+1760]
  00039	e8 00 00 00 00	 call	 ?ClearList@CCallPutIHelper@@QAEXXZ ; CCallPutIHelper::ClearList

; 1223 : 	m_cpHelper.Parsing(pCodeType, m_nCtrlType);

  0003e	ff b3 18 07 00
	00		 push	 DWORD PTR [ebx+1816]
  00044	8d 8b e0 06 00
	00		 lea	 ecx, DWORD PTR [ebx+1760]
  0004a	57		 push	 edi
  0004b	e8 00 00 00 00	 call	 ?Parsing@CCallPutIHelper@@QAEXPAV?$CList@VCCodeTypeA@@V1@@@H@Z ; CCallPutIHelper::Parsing

; 1224 : 
; 1225 : 	//CCallPutIMonthData* pMonthData = m_cpHelper.FindItemData("200806");
; 1226 : 	int nCount = 0;
; 1227 : 	for(POSITION jp=m_cpHelper.m_ListData.GetHeadPosition(); jp;)

  00050	8b 93 e4 06 00
	00		 mov	 edx, DWORD PTR [ebx+1764]
  00056	33 c9		 xor	 ecx, ecx
  00058	85 d2		 test	 edx, edx
  0005a	74 1f		 je	 SHORT $LN3@SetMasterD
  0005c	0f 1f 40 00	 npad	 4
$LL2@SetMasterD:

; 1228 : 	{
; 1229 : 		CCallPutIMonthData* pMonthData = m_cpHelper.m_ListData.GetNext(jp);

  00060	8b 42 08	 mov	 eax, DWORD PTR [edx+8]
; File C:\Program Files (x86)\Microsoft Visual Studio\2019\Community\VC\Tools\MSVC\14.29.30133\atlmfc\include\afxtempl.h

; 813  : 		rPosition = (POSITION) pNode->pNext;

  00063	8b 12		 mov	 edx, DWORD PTR [edx]
; File D:\git\src\IBK\IBK_DRFN\ProjSrc\SrcDrfn\Chart\ChartUtil\DlgCompSetup.cpp

; 1231 : 		if(pMonthData)

  00065	85 c0		 test	 eax, eax
  00067	74 0e		 je	 SHORT $LN6@SetMasterD

; 1232 : 		{
; 1233 : 			for(POSITION pos=pMonthData->m_ListData.GetHeadPosition(); pos;)

  00069	8b 40 08	 mov	 eax, DWORD PTR [eax+8]
  0006c	85 c0		 test	 eax, eax
  0006e	74 07		 je	 SHORT $LN6@SetMasterD
$LL5@SetMasterD:
; File C:\Program Files (x86)\Microsoft Visual Studio\2019\Community\VC\Tools\MSVC\14.29.30133\atlmfc\include\afxtempl.h

; 813  : 		rPosition = (POSITION) pNode->pNext;

  00070	8b 00		 mov	 eax, DWORD PTR [eax]
; File D:\git\src\IBK\IBK_DRFN\ProjSrc\SrcDrfn\Chart\ChartUtil\DlgCompSetup.cpp

; 1237 : 				nCount++;

  00072	41		 inc	 ecx
  00073	85 c0		 test	 eax, eax
  00075	75 f9		 jne	 SHORT $LL5@SetMasterD
$LN6@SetMasterD:

; 1224 : 
; 1225 : 	//CCallPutIMonthData* pMonthData = m_cpHelper.FindItemData("200806");
; 1226 : 	int nCount = 0;
; 1227 : 	for(POSITION jp=m_cpHelper.m_ListData.GetHeadPosition(); jp;)

  00077	85 d2		 test	 edx, edx
  00079	75 e5		 jne	 SHORT $LL2@SetMasterD
$LN3@SetMasterD:

; 1238 : 			}
; 1239 : 		}
; 1240 : 	}
; 1241 : 
; 1242 : 	InitGridRowCol(nCount);

  0007b	51		 push	 ecx
  0007c	8b cb		 mov	 ecx, ebx
  0007e	e8 00 00 00 00	 call	 ?InitGridRowCol@CDlgCompSetup@@IAEXH@Z ; CDlgCompSetup::InitGridRowCol

; 1243 : 
; 1244 : 	// ATM
; 1245 : 	CString strPath, strATM;

  00083	8d 4d 80	 lea	 ecx, DWORD PTR _strPath$[ebp]
  00086	ff 15 00 00 00
	00		 call	 DWORD PTR __imp_??0?$CStringT@DV?$StrTraitMFC_DLL@DV?$ChTraitsCRT@D@ATL@@@@@ATL@@QAE@XZ
  0008c	8d 4d 84	 lea	 ecx, DWORD PTR _strATM$[ebp]
  0008f	c7 45 fc 00 00
	00 00		 mov	 DWORD PTR __$EHRec$[ebp+8], 0
  00096	ff 15 00 00 00
	00		 call	 DWORD PTR __imp_??0?$CStringT@DV?$StrTraitMFC_DLL@DV?$ChTraitsCRT@D@ATL@@@@@ATL@@QAE@XZ

; 1246 : 	strPath.Format("%s\\%s\\%s",  m_szRootPath, "mst", "master\\atm.dat");

  0009c	68 00 00 00 00	 push	 OFFSET ??_C@_0P@JIBKHGJJ@master?2atm?4dat@
  000a1	68 00 00 00 00	 push	 OFFSET ??_C@_03KBDGFMG@mst@
  000a6	ff b3 e0 00 00
	00		 push	 DWORD PTR [ebx+224]
  000ac	8d 45 80	 lea	 eax, DWORD PTR _strPath$[ebp]
  000af	c6 45 fc 01	 mov	 BYTE PTR __$EHRec$[ebp+8], 1
  000b3	68 00 00 00 00	 push	 OFFSET ??_C@_08EFGGCJLD@?$CFs?2?$CFs?2?$CFs@
  000b8	50		 push	 eax
  000b9	ff 15 00 00 00
	00		 call	 DWORD PTR __imp_?Format@?$CStringT@DV?$StrTraitMFC_DLL@DV?$ChTraitsCRT@D@ATL@@@@@ATL@@QAAXPBDZZ

; 1247 : 	char szAtm[100]; memset(szAtm,0x00,sizeof(szAtm));

  000bf	6a 64		 push	 100			; 00000064H
  000c1	8d 45 8c	 lea	 eax, DWORD PTR _szAtm$[ebp]
  000c4	6a 00		 push	 0
  000c6	50		 push	 eax
  000c7	e8 00 00 00 00	 call	 _memset
  000cc	83 c4 20	 add	 esp, 32			; 00000020H

; 1248 : 	::GetPrivateProfileString("ATM", "PRICE", "", szAtm, 100, strPath);

  000cf	8d 45 8c	 lea	 eax, DWORD PTR _szAtm$[ebp]
  000d2	ff 75 80	 push	 DWORD PTR _strPath$[ebp]
  000d5	6a 64		 push	 100			; 00000064H
  000d7	50		 push	 eax
  000d8	68 00 00 00 00	 push	 OFFSET ??_C@_00CNPNBAHC@@
  000dd	68 00 00 00 00	 push	 OFFSET ??_C@_05BJKOFFGO@PRICE@
  000e2	68 00 00 00 00	 push	 OFFSET ??_C@_03NDHBKIJP@ATM@
  000e7	ff 15 00 00 00
	00		 call	 DWORD PTR __imp__GetPrivateProfileStringA@24

; 1249 : 	strATM = (LPCSTR)(LPSTR)szAtm;

  000ed	8d 45 8c	 lea	 eax, DWORD PTR _szAtm$[ebp]
  000f0	50		 push	 eax
  000f1	8d 4d 84	 lea	 ecx, DWORD PTR _strATM$[ebp]
  000f4	ff 15 00 00 00
	00		 call	 DWORD PTR __imp_??4?$CStringT@DV?$StrTraitMFC_DLL@DV?$ChTraitsCRT@D@ATL@@@@@ATL@@QAEAAV01@PBD@Z

; 1250 : 
; 1251 : 	int nRow = 1;
; 1252 : 	CString strCenter;

  000fa	8d 4d 88	 lea	 ecx, DWORD PTR _strCenter$[ebp]
  000fd	bf 01 00 00 00	 mov	 edi, 1
  00102	ff 15 00 00 00
	00		 call	 DWORD PTR __imp_??0?$CStringT@DV?$StrTraitMFC_DLL@DV?$ChTraitsCRT@D@ATL@@@@@ATL@@QAE@XZ

; 1253 : 	for(POSITION jp=m_cpHelper.m_ListData.GetHeadPosition(); jp;)

  00108	8b 8b e4 06 00
	00		 mov	 ecx, DWORD PTR [ebx+1764]
  0010e	c6 45 fc 02	 mov	 BYTE PTR __$EHRec$[ebp+8], 2
  00112	85 c9		 test	 ecx, ecx
  00114	0f 84 a8 01 00
	00		 je	 $LN9@SetMasterD
  0011a	66 0f 1f 44 00
	00		 npad	 6
$LL8@SetMasterD:

; 1255 : 		CCallPutIMonthData* pMonthData = m_cpHelper.m_ListData.GetNext(jp);

  00120	8b 41 08	 mov	 eax, DWORD PTR [ecx+8]
; File C:\Program Files (x86)\Microsoft Visual Studio\2019\Community\VC\Tools\MSVC\14.29.30133\atlmfc\include\afxtempl.h

; 813  : 		rPosition = (POSITION) pNode->pNext;

  00123	8b 09		 mov	 ecx, DWORD PTR [ecx]
  00125	89 8d 70 ff ff
	ff		 mov	 DWORD PTR _jp$1$[ebp], ecx
; File D:\git\src\IBK\IBK_DRFN\ProjSrc\SrcDrfn\Chart\ChartUtil\DlgCompSetup.cpp

; 1255 : 		CCallPutIMonthData* pMonthData = m_cpHelper.m_ListData.GetNext(jp);

  0012b	89 85 7c ff ff
	ff		 mov	 DWORD PTR _pMonthData$1$[ebp], eax

; 1256 : 		TRACE("\n\n=%s\n", pMonthData->m_szKey);
; 1257 : 		if(pMonthData)

  00131	85 c0		 test	 eax, eax
  00133	0f 84 81 01 00
	00		 je	 $LN12@SetMasterD

; 1258 : 		{
; 1259 : 			for(POSITION pos=pMonthData->m_ListData.GetHeadPosition(); pos;)

  00139	8b 50 08	 mov	 edx, DWORD PTR [eax+8]
  0013c	85 d2		 test	 edx, edx
  0013e	0f 84 76 01 00
	00		 je	 $LN12@SetMasterD
$LL11@SetMasterD:

; 1260 : 			{
; 1261 : 				CCallPutItemData* pItem = pMonthData->m_ListData.GetNext(pos);

  00144	8b 72 08	 mov	 esi, DWORD PTR [edx+8]

; 1264 : 				pItem->m_szPrice.Remove(' ');

  00147	8b ce		 mov	 ecx, esi
; File C:\Program Files (x86)\Microsoft Visual Studio\2019\Community\VC\Tools\MSVC\14.29.30133\atlmfc\include\afxtempl.h

; 813  : 		rPosition = (POSITION) pNode->pNext;

  00149	8b 12		 mov	 edx, DWORD PTR [edx]
; File D:\git\src\IBK\IBK_DRFN\ProjSrc\SrcDrfn\Chart\ChartUtil\DlgCompSetup.cpp

; 1264 : 				pItem->m_szPrice.Remove(' ');

  0014b	6a 20		 push	 32			; 00000020H
; File C:\Program Files (x86)\Microsoft Visual Studio\2019\Community\VC\Tools\MSVC\14.29.30133\atlmfc\include\afxtempl.h

; 813  : 		rPosition = (POSITION) pNode->pNext;

  0014d	89 95 74 ff ff
	ff		 mov	 DWORD PTR _pos$1$[ebp], edx
; File D:\git\src\IBK\IBK_DRFN\ProjSrc\SrcDrfn\Chart\ChartUtil\DlgCompSetup.cpp

; 1264 : 				pItem->m_szPrice.Remove(' ');

  00153	ff 15 00 00 00
	00		 call	 DWORD PTR __imp_?Remove@?$CStringT@DV?$StrTraitMFC_DLL@DV?$ChTraitsCRT@D@ATL@@@@@ATL@@QAEHD@Z

; 1265 : 				strCenter.Format("%s %s", pMonthData->m_szKey.Mid(2, 4), pItem->m_szPrice);

  00159	8b 8d 7c ff ff
	ff		 mov	 ecx, DWORD PTR _pMonthData$1$[ebp]
  0015f	8d 85 78 ff ff
	ff		 lea	 eax, DWORD PTR $T2[ebp]
  00165	6a 04		 push	 4
  00167	6a 02		 push	 2
  00169	50		 push	 eax
  0016a	ff 15 00 00 00
	00		 call	 DWORD PTR __imp_?Mid@?$CStringT@DV?$StrTraitMFC_DLL@DV?$ChTraitsCRT@D@ATL@@@@@ATL@@QBE?AV12@HH@Z
  00170	ff 36		 push	 DWORD PTR [esi]
  00172	c6 45 fc 03	 mov	 BYTE PTR __$EHRec$[ebp+8], 3
  00176	ff 30		 push	 DWORD PTR [eax]
  00178	8d 45 88	 lea	 eax, DWORD PTR _strCenter$[ebp]
  0017b	68 00 00 00 00	 push	 OFFSET ??_C@_05DNIIFBMG@?$CFs?5?$CFs@
  00180	50		 push	 eax
  00181	ff 15 00 00 00
	00		 call	 DWORD PTR __imp_?Format@?$CStringT@DV?$StrTraitMFC_DLL@DV?$ChTraitsCRT@D@ATL@@@@@ATL@@QAAXPBDZZ
  00187	83 c4 10	 add	 esp, 16			; 00000010H
  0018a	c6 45 fc 02	 mov	 BYTE PTR __$EHRec$[ebp+8], 2
  0018e	8d 8d 78 ff ff
	ff		 lea	 ecx, DWORD PTR $T2[ebp]
  00194	ff 15 00 00 00
	00		 call	 DWORD PTR __imp_??1?$CStringT@DV?$StrTraitMFC_DLL@DV?$ChTraitsCRT@D@ATL@@@@@ATL@@QAE@XZ

; 1266 : 				m_pGridCtrl->SetItemFormat(nRow, 0, DT_VCENTER|DT_SINGLELINE|DT_END_ELLIPSIS|DT_NOPREFIX|DT_CENTER);

  0019a	8b 8b dc 06 00
	00		 mov	 ecx, DWORD PTR [ebx+1756]
  001a0	68 25 88 00 00	 push	 34853			; 00008825H
  001a5	6a 00		 push	 0
  001a7	57		 push	 edi
  001a8	e8 00 00 00 00	 call	 ?SetItemFormat@CExGridCtrl@@QAEHHHI@Z ; CExGridCtrl::SetItemFormat

; 1267 : 				m_pGridCtrl->SetItemText(nRow, 0, pItem->m_isCall ? "O" : "X");

  001ad	83 7e 04 00	 cmp	 DWORD PTR [esi+4], 0
  001b1	b9 00 00 00 00	 mov	 ecx, OFFSET ??_C@_01MMEEDKFM@X@
  001b6	b8 00 00 00 00	 mov	 eax, OFFSET ??_C@_01MJMHLOMK@O@
  001bb	0f 44 c1	 cmove	 eax, ecx
  001be	8b 8b dc 06 00
	00		 mov	 ecx, DWORD PTR [ebx+1756]
  001c4	50		 push	 eax
  001c5	6a 00		 push	 0
  001c7	57		 push	 edi
  001c8	e8 00 00 00 00	 call	 ?SetItemText@CExGridCtrl@@QAEHHHPBD@Z ; CExGridCtrl::SetItemText

; 1268 : 				m_pGridCtrl->SetItemData(nRow, 0, (LPARAM)(LPCSTR)pItem->m_strCallCode);

  001cd	ff 76 0c	 push	 DWORD PTR [esi+12]
  001d0	8b 8b dc 06 00
	00		 mov	 ecx, DWORD PTR [ebx+1756]
  001d6	6a 00		 push	 0
  001d8	57		 push	 edi
  001d9	e8 00 00 00 00	 call	 ?SetItemData@CExGridCtrl@@QAEHHHJ@Z ; CExGridCtrl::SetItemData

; 1269 : 				m_pGridCtrl->SetItemBkColour(nRow, 0, COLOR_WHITE);

  001de	8b 8b dc 06 00
	00		 mov	 ecx, DWORD PTR [ebx+1756]
  001e4	68 ff ff ff 00	 push	 16777215		; 00ffffffH
  001e9	6a 00		 push	 0
  001eb	57		 push	 edi
  001ec	e8 00 00 00 00	 call	 ?SetItemBkColour@CExGridCtrl@@QAEHHHK@Z ; CExGridCtrl::SetItemBkColour

; 1270 : 				m_pGridCtrl->SetItemFormat(nRow, 1, DT_VCENTER|DT_SINGLELINE|DT_END_ELLIPSIS|DT_NOPREFIX|DT_CENTER);

  001f1	8b 8b dc 06 00
	00		 mov	 ecx, DWORD PTR [ebx+1756]
  001f7	68 25 88 00 00	 push	 34853			; 00008825H
  001fc	6a 01		 push	 1
  001fe	57		 push	 edi
  001ff	e8 00 00 00 00	 call	 ?SetItemFormat@CExGridCtrl@@QAEHHHI@Z ; CExGridCtrl::SetItemFormat
; File C:\Program Files (x86)\Microsoft Visual Studio\2019\Community\VC\Tools\MSVC\14.29.30133\atlmfc\include\cstringt.h

; 2479 : 		return(str1.Compare(str2) == 0);

  00204	ff 36		 push	 DWORD PTR [esi]
  00206	8d 4d 84	 lea	 ecx, DWORD PTR _strATM$[ebp]
  00209	ff 15 00 00 00
	00		 call	 DWORD PTR __imp_?Compare@?$CStringT@DV?$StrTraitMFC_DLL@DV?$ChTraitsCRT@D@ATL@@@@@ATL@@QBEHPBD@Z
; File D:\git\src\IBK\IBK_DRFN\ProjSrc\SrcDrfn\Chart\ChartUtil\DlgCompSetup.cpp

; 1271 : 				m_pGridCtrl->SetItemFgColour(nRow, 1, (strATM == pItem->m_szPrice) ? COLOR_RED : COLOR_BLACK);

  0020f	33 c9		 xor	 ecx, ecx
  00211	85 c0		 test	 eax, eax
  00213	b8 ff 00 00 00	 mov	 eax, 255		; 000000ffH
  00218	0f 44 c8	 cmove	 ecx, eax
  0021b	51		 push	 ecx
  0021c	8b 8b dc 06 00
	00		 mov	 ecx, DWORD PTR [ebx+1756]
  00222	6a 01		 push	 1
  00224	57		 push	 edi
  00225	e8 00 00 00 00	 call	 ?SetItemFgColour@CExGridCtrl@@QAEHHHK@Z ; CExGridCtrl::SetItemFgColour

; 1272 : 				m_pGridCtrl->SetItemText(nRow, 1, strCenter);

  0022a	ff 75 88	 push	 DWORD PTR _strCenter$[ebp]
  0022d	8b 8b dc 06 00
	00		 mov	 ecx, DWORD PTR [ebx+1756]
  00233	6a 01		 push	 1
  00235	57		 push	 edi
  00236	e8 00 00 00 00	 call	 ?SetItemText@CExGridCtrl@@QAEHHHPBD@Z ; CExGridCtrl::SetItemText

; 1273 : 				m_pGridCtrl->SetItemBkColour(nRow, 1, COLOR_WHITE);

  0023b	8b 8b dc 06 00
	00		 mov	 ecx, DWORD PTR [ebx+1756]
  00241	68 ff ff ff 00	 push	 16777215		; 00ffffffH
  00246	6a 01		 push	 1
  00248	57		 push	 edi
  00249	e8 00 00 00 00	 call	 ?SetItemBkColour@CExGridCtrl@@QAEHHHK@Z ; CExGridCtrl::SetItemBkColour

; 1274 : 				m_pGridCtrl->SetItemFormat(nRow, 2, DT_VCENTER|DT_SINGLELINE|DT_END_ELLIPSIS|DT_NOPREFIX|DT_CENTER);

  0024e	8b 8b dc 06 00
	00		 mov	 ecx, DWORD PTR [ebx+1756]
  00254	68 25 88 00 00	 push	 34853			; 00008825H
  00259	6a 02		 push	 2
  0025b	57		 push	 edi
  0025c	e8 00 00 00 00	 call	 ?SetItemFormat@CExGridCtrl@@QAEHHHI@Z ; CExGridCtrl::SetItemFormat

; 1275 : 				m_pGridCtrl->SetItemText(nRow, 2, pItem->m_isPut ? "O" : "X");

  00261	b8 00 00 00 00	 mov	 eax, OFFSET ??_C@_01MJMHLOMK@O@
  00266	83 7e 08 00	 cmp	 DWORD PTR [esi+8], 0
  0026a	b9 00 00 00 00	 mov	 ecx, OFFSET ??_C@_01MMEEDKFM@X@
  0026f	0f 44 c1	 cmove	 eax, ecx
  00272	8b 8b dc 06 00
	00		 mov	 ecx, DWORD PTR [ebx+1756]
  00278	50		 push	 eax
  00279	6a 02		 push	 2
  0027b	57		 push	 edi
  0027c	e8 00 00 00 00	 call	 ?SetItemText@CExGridCtrl@@QAEHHHPBD@Z ; CExGridCtrl::SetItemText

; 1276 : 				m_pGridCtrl->SetItemData(nRow, 2, (LPARAM)(LPCSTR)pItem->m_strPutCode);

  00281	ff 76 10	 push	 DWORD PTR [esi+16]
  00284	8b 8b dc 06 00
	00		 mov	 ecx, DWORD PTR [ebx+1756]
  0028a	6a 02		 push	 2
  0028c	57		 push	 edi
  0028d	e8 00 00 00 00	 call	 ?SetItemData@CExGridCtrl@@QAEHHHJ@Z ; CExGridCtrl::SetItemData

; 1277 : 				m_pGridCtrl->SetItemBkColour(nRow, 2, COLOR_WHITE);

  00292	8b 8b dc 06 00
	00		 mov	 ecx, DWORD PTR [ebx+1756]
  00298	68 ff ff ff 00	 push	 16777215		; 00ffffffH
  0029d	6a 02		 push	 2
  0029f	57		 push	 edi
  002a0	e8 00 00 00 00	 call	 ?SetItemBkColour@CExGridCtrl@@QAEHHHK@Z ; CExGridCtrl::SetItemBkColour
  002a5	8b 95 74 ff ff
	ff		 mov	 edx, DWORD PTR _pos$1$[ebp]

; 1278 : 				nRow++;

  002ab	47		 inc	 edi
  002ac	85 d2		 test	 edx, edx
  002ae	0f 85 90 fe ff
	ff		 jne	 $LL11@SetMasterD
  002b4	8b 8d 70 ff ff
	ff		 mov	 ecx, DWORD PTR _jp$1$[ebp]
$LN12@SetMasterD:

; 1253 : 	for(POSITION jp=m_cpHelper.m_ListData.GetHeadPosition(); jp;)

  002ba	85 c9		 test	 ecx, ecx
  002bc	0f 85 5e fe ff
	ff		 jne	 $LL8@SetMasterD
$LN9@SetMasterD:

; 1279 : 			}
; 1280 : 		}
; 1281 : 	}
; 1282 : 
; 1283 : 	m_pGridCtrl->Refresh();

  002c2	8b 8b dc 06 00
	00		 mov	 ecx, DWORD PTR [ebx+1756]
  002c8	e8 00 00 00 00	 call	 ?Refresh@CExGridCtrl@@QAEXXZ ; CExGridCtrl::Refresh

; 1284 : }

  002cd	8d 4d 88	 lea	 ecx, DWORD PTR _strCenter$[ebp]
  002d0	ff 15 00 00 00
	00		 call	 DWORD PTR __imp_??1?$CStringT@DV?$StrTraitMFC_DLL@DV?$ChTraitsCRT@D@ATL@@@@@ATL@@QAE@XZ
  002d6	8d 4d 84	 lea	 ecx, DWORD PTR _strATM$[ebp]
  002d9	ff 15 00 00 00
	00		 call	 DWORD PTR __imp_??1?$CStringT@DV?$StrTraitMFC_DLL@DV?$ChTraitsCRT@D@ATL@@@@@ATL@@QAE@XZ
  002df	8d 4d 80	 lea	 ecx, DWORD PTR _strPath$[ebp]
  002e2	ff 15 00 00 00
	00		 call	 DWORD PTR __imp_??1?$CStringT@DV?$StrTraitMFC_DLL@DV?$ChTraitsCRT@D@ATL@@@@@ATL@@QAE@XZ
  002e8	8b 4d f4	 mov	 ecx, DWORD PTR __$EHRec$[ebp]
  002eb	64 89 0d 00 00
	00 00		 mov	 DWORD PTR fs:0, ecx
  002f2	59		 pop	 ecx
  002f3	5f		 pop	 edi
  002f4	5e		 pop	 esi
  002f5	5b		 pop	 ebx
  002f6	8b 4d f0	 mov	 ecx, DWORD PTR __$ArrayPad$[ebp]
  002f9	33 cd		 xor	 ecx, ebp
  002fb	e8 00 00 00 00	 call	 @__security_check_cookie@4
  00300	8b e5		 mov	 esp, ebp
  00302	5d		 pop	 ebp
  00303	c2 04 00	 ret	 4
_TEXT	ENDS
;	COMDAT text$x
text$x	SEGMENT
__unwindfunclet$?SetMasterData@CDlgCompSetup@@IAEXPAV?$CList@VCCodeTypeA@@V1@@@@Z$0:
  00000	8d 4d 80	 lea	 ecx, DWORD PTR _strPath$[ebp]
  00003	ff 25 00 00 00
	00		 jmp	 DWORD PTR __imp_??1?$CStringT@DV?$StrTraitMFC_DLL@DV?$ChTraitsCRT@D@ATL@@@@@ATL@@QAE@XZ
__unwindfunclet$?SetMasterData@CDlgCompSetup@@IAEXPAV?$CList@VCCodeTypeA@@V1@@@@Z$1:
  00009	8d 4d 84	 lea	 ecx, DWORD PTR _strATM$[ebp]
  0000c	ff 25 00 00 00
	00		 jmp	 DWORD PTR __imp_??1?$CStringT@DV?$StrTraitMFC_DLL@DV?$ChTraitsCRT@D@ATL@@@@@ATL@@QAE@XZ
__unwindfunclet$?SetMasterData@CDlgCompSetup@@IAEXPAV?$CList@VCCodeTypeA@@V1@@@@Z$2:
  00012	8d 4d 88	 lea	 ecx, DWORD PTR _strCenter$[ebp]
  00015	ff 25 00 00 00
	00		 jmp	 DWORD PTR __imp_??1?$CStringT@DV?$StrTraitMFC_DLL@DV?$ChTraitsCRT@D@ATL@@@@@ATL@@QAE@XZ
__unwindfunclet$?SetMasterData@CDlgCompSetup@@IAEXPAV?$CList@VCCodeTypeA@@V1@@@@Z$3:
  0001b	8d 8d 78 ff ff
	ff		 lea	 ecx, DWORD PTR $T2[ebp]
  00021	ff 25 00 00 00
	00		 jmp	 DWORD PTR __imp_??1?$CStringT@DV?$StrTraitMFC_DLL@DV?$ChTraitsCRT@D@ATL@@@@@ATL@@QAE@XZ
  00027	cc		 int	 3
  00028	cc		 int	 3
  00029	cc		 int	 3
  0002a	cc		 int	 3
  0002b	cc		 int	 3
__ehhandler$?SetMasterData@CDlgCompSetup@@IAEXPAV?$CList@VCCodeTypeA@@V1@@@@Z:
  0002c	90		 npad	 1
  0002d	90		 npad	 1
  0002e	8b 54 24 08	 mov	 edx, DWORD PTR [esp+8]
  00032	8d 42 0c	 lea	 eax, DWORD PTR [edx+12]
  00035	8b 8a 6c ff ff
	ff		 mov	 ecx, DWORD PTR [edx-148]
  0003b	33 c8		 xor	 ecx, eax
  0003d	e8 00 00 00 00	 call	 @__security_check_cookie@4
  00042	8b 4a fc	 mov	 ecx, DWORD PTR [edx-4]
  00045	33 c8		 xor	 ecx, eax
  00047	e8 00 00 00 00	 call	 @__security_check_cookie@4
  0004c	b8 00 00 00 00	 mov	 eax, OFFSET __ehfuncinfo$?SetMasterData@CDlgCompSetup@@IAEXPAV?$CList@VCCodeTypeA@@V1@@@@Z
  00051	e9 00 00 00 00	 jmp	 ___CxxFrameHandler3
text$x	ENDS
?SetMasterData@CDlgCompSetup@@IAEXPAV?$CList@VCCodeTypeA@@V1@@@@Z ENDP ; CDlgCompSetup::SetMasterData
; Function compile flags: /Ogtp
; File D:\git\src\IBK\IBK_DRFN\ProjSrc\SrcDrfn\Chart\ChartUtil\DlgCompSetup.cpp
; File C:\Program Files (x86)\Microsoft Visual Studio\2019\Community\VC\Tools\MSVC\14.29.30133\atlmfc\include\cstringt.h
; File D:\git\src\IBK\IBK_DRFN\ProjSrc\SrcDrfn\Chart\ChartUtil\DlgCompSetup.cpp
; File C:\Program Files (x86)\Microsoft Visual Studio\2019\Community\VC\Tools\MSVC\14.29.30133\atlmfc\include\cstringt.h
; File D:\git\src\IBK\IBK_DRFN\ProjSrc\SrcDrfn\Chart\ChartUtil\DlgCompSetup.cpp
; File C:\Program Files (x86)\Microsoft Visual Studio\2019\Community\VC\Tools\MSVC\14.29.30133\atlmfc\include\cstringt.h
; File D:\git\src\IBK\IBK_DRFN\ProjSrc\SrcDrfn\Chart\ChartUtil\DlgCompSetup.cpp
; File C:\Program Files (x86)\Microsoft Visual Studio\2019\Community\VC\Tools\MSVC\14.29.30133\atlmfc\include\cstringt.h
; File D:\git\src\IBK\IBK_DRFN\ProjSrc\SrcDrfn\Chart\ChartUtil\DlgCompSetup.cpp
;	COMDAT ?ChangeListOrGridCtrl@CDlgCompSetup@@IAEXV?$CStringT@DV?$StrTraitMFC_DLL@DV?$ChTraitsCRT@D@ATL@@@@@ATL@@@Z
_TEXT	SEGMENT
__$EHRec$ = -12						; size = 12
_szSection$ = 8						; size = 4
?ChangeListOrGridCtrl@CDlgCompSetup@@IAEXV?$CStringT@DV?$StrTraitMFC_DLL@DV?$ChTraitsCRT@D@ATL@@@@@ATL@@@Z PROC ; CDlgCompSetup::ChangeListOrGridCtrl, COMDAT
; _this$ = ecx

; 1144 : {

  00000	55		 push	 ebp
  00001	8b ec		 mov	 ebp, esp
  00003	6a ff		 push	 -1
  00005	68 00 00 00 00	 push	 __ehhandler$?ChangeListOrGridCtrl@CDlgCompSetup@@IAEXV?$CStringT@DV?$StrTraitMFC_DLL@DV?$ChTraitsCRT@D@ATL@@@@@ATL@@@Z
  0000a	64 a1 00 00 00
	00		 mov	 eax, DWORD PTR fs:0
  00010	50		 push	 eax
  00011	56		 push	 esi
  00012	57		 push	 edi
  00013	a1 00 00 00 00	 mov	 eax, DWORD PTR ___security_cookie
  00018	33 c5		 xor	 eax, ebp
  0001a	50		 push	 eax
  0001b	8d 45 f4	 lea	 eax, DWORD PTR __$EHRec$[ebp]
  0001e	64 a3 00 00 00
	00		 mov	 DWORD PTR fs:0, eax
  00024	8b f1		 mov	 esi, ecx
; File C:\Program Files (x86)\Microsoft Visual Studio\2019\Community\VC\Tools\MSVC\14.29.30133\atlmfc\include\cstringt.h

; 2486 : 		return(str1.Compare(psz2) == 0);

  00026	68 00 00 00 00	 push	 OFFSET ??_C@_07OLCDEDDD@PMASTER@
  0002b	8d 4d 08	 lea	 ecx, DWORD PTR _szSection$[ebp]
; File D:\git\src\IBK\IBK_DRFN\ProjSrc\SrcDrfn\Chart\ChartUtil\DlgCompSetup.cpp

; 1144 : {

  0002e	c7 45 fc 00 00
	00 00		 mov	 DWORD PTR __$EHRec$[ebp+8], 0
; File C:\Program Files (x86)\Microsoft Visual Studio\2019\Community\VC\Tools\MSVC\14.29.30133\atlmfc\include\cstringt.h

; 2486 : 		return(str1.Compare(psz2) == 0);

  00035	ff 15 00 00 00
	00		 call	 DWORD PTR __imp_?Compare@?$CStringT@DV?$StrTraitMFC_DLL@DV?$ChTraitsCRT@D@ATL@@@@@ATL@@QBEHPBD@Z
  0003b	85 c0		 test	 eax, eax
; File D:\git\src\IBK\IBK_DRFN\ProjSrc\SrcDrfn\Chart\ChartUtil\DlgCompSetup.cpp

; 1145 : 	if(szSection == "PMASTER")			// Kospi200

  0003d	75 2b		 jne	 SHORT $LN2@ChangeList

; 1146 : 	{
; 1147 : 		m_nCtrlType = 1;

  0003f	c7 86 18 07 00
	00 01 00 00 00	 mov	 DWORD PTR [esi+1816], 1

; 1148 : 		m_ListCodes.ShowWindow(SW_HIDE);

  00049	8d 8e e8 00 00
	00		 lea	 ecx, DWORD PTR [esi+232]
$LN30@ChangeList:

; 1165 : 	}
; 1166 : }

  0004f	6a 00		 push	 0
  00051	e8 00 00 00 00	 call	 ?ShowWindow@CWnd@@QAEHH@Z ; CWnd::ShowWindow
  00056	8b 8e dc 06 00
	00		 mov	 ecx, DWORD PTR [esi+1756]
  0005c	85 c9		 test	 ecx, ecx
  0005e	74 56		 je	 SHORT $LN8@ChangeList
  00060	83 79 20 00	 cmp	 DWORD PTR [ecx+32], 0
  00064	74 50		 je	 SHORT $LN8@ChangeList
  00066	6a 05		 push	 5
  00068	eb 47		 jmp	 SHORT $LN28@ChangeList
$LN2@ChangeList:
; File C:\Program Files (x86)\Microsoft Visual Studio\2019\Community\VC\Tools\MSVC\14.29.30133\atlmfc\include\cstringt.h

; 2486 : 		return(str1.Compare(psz2) == 0);

  0006a	68 00 00 00 00	 push	 OFFSET ??_C@_08CDLEABGN@JPMASTER@
  0006f	8d 4d 08	 lea	 ecx, DWORD PTR _szSection$[ebp]
  00072	ff 15 00 00 00
	00		 call	 DWORD PTR __imp_?Compare@?$CStringT@DV?$StrTraitMFC_DLL@DV?$ChTraitsCRT@D@ATL@@@@@ATL@@QBEHPBD@Z
; File D:\git\src\IBK\IBK_DRFN\ProjSrc\SrcDrfn\Chart\ChartUtil\DlgCompSetup.cpp

; 1152 : 	else if(szSection == "JPMASTER")	// 

  00078	8d 8e e8 00 00
	00		 lea	 ecx, DWORD PTR [esi+232]
; File C:\Program Files (x86)\Microsoft Visual Studio\2019\Community\VC\Tools\MSVC\14.29.30133\atlmfc\include\cstringt.h

; 2486 : 		return(str1.Compare(psz2) == 0);

  0007e	85 c0		 test	 eax, eax
; File D:\git\src\IBK\IBK_DRFN\ProjSrc\SrcDrfn\Chart\ChartUtil\DlgCompSetup.cpp

; 1152 : 	else if(szSection == "JPMASTER")	// 

  00080	75 0c		 jne	 SHORT $LN5@ChangeList

; 1153 : 	{
; 1154 : 		m_nCtrlType = 2;

  00082	c7 86 18 07 00
	00 02 00 00 00	 mov	 DWORD PTR [esi+1816], 2

; 1155 : 		m_ListCodes.ShowWindow(SW_HIDE);
; 1156 : 		if(m_pGridCtrl && m_pGridCtrl->GetSafeHwnd())
; 1157 : 			m_pGridCtrl->ShowWindow(SW_SHOW);
; 1158 : 	}

  0008c	eb c1		 jmp	 SHORT $LN30@ChangeList
$LN5@ChangeList:

; 1159 : 	else								// 
; 1160 : 	{
; 1161 : 		m_nCtrlType = 0;
; 1162 : 		m_ListCodes.ShowWindow(SW_SHOW);

  0008e	6a 05		 push	 5
  00090	c7 86 18 07 00
	00 00 00 00 00	 mov	 DWORD PTR [esi+1816], 0
  0009a	e8 00 00 00 00	 call	 ?ShowWindow@CWnd@@QAEHH@Z ; CWnd::ShowWindow

; 1163 : 		if(m_pGridCtrl && m_pGridCtrl->GetSafeHwnd())

  0009f	8b 8e dc 06 00
	00		 mov	 ecx, DWORD PTR [esi+1756]
  000a5	85 c9		 test	 ecx, ecx
  000a7	74 0d		 je	 SHORT $LN8@ChangeList
  000a9	83 79 20 00	 cmp	 DWORD PTR [ecx+32], 0
  000ad	74 07		 je	 SHORT $LN8@ChangeList

; 1164 : 			m_pGridCtrl->ShowWindow(SW_HIDE);

  000af	6a 00		 push	 0
$LN28@ChangeList:

; 1165 : 	}
; 1166 : }

  000b1	e8 00 00 00 00	 call	 ?ShowWindow@CWnd@@QAEHH@Z ; CWnd::ShowWindow
$LN8@ChangeList:
  000b6	8d 4d 08	 lea	 ecx, DWORD PTR _szSection$[ebp]
  000b9	ff 15 00 00 00
	00		 call	 DWORD PTR __imp_??1?$CStringT@DV?$StrTraitMFC_DLL@DV?$ChTraitsCRT@D@ATL@@@@@ATL@@QAE@XZ
  000bf	8b 4d f4	 mov	 ecx, DWORD PTR __$EHRec$[ebp]
  000c2	64 89 0d 00 00
	00 00		 mov	 DWORD PTR fs:0, ecx
  000c9	59		 pop	 ecx
  000ca	5f		 pop	 edi
  000cb	5e		 pop	 esi
  000cc	8b e5		 mov	 esp, ebp
  000ce	5d		 pop	 ebp
  000cf	c2 04 00	 ret	 4
_TEXT	ENDS
;	COMDAT text$x
text$x	SEGMENT
__unwindfunclet$?ChangeListOrGridCtrl@CDlgCompSetup@@IAEXV?$CStringT@DV?$StrTraitMFC_DLL@DV?$ChTraitsCRT@D@ATL@@@@@ATL@@@Z$0:
  00000	8d 4d 08	 lea	 ecx, DWORD PTR _szSection$[ebp]
  00003	ff 25 00 00 00
	00		 jmp	 DWORD PTR __imp_??1?$CStringT@DV?$StrTraitMFC_DLL@DV?$ChTraitsCRT@D@ATL@@@@@ATL@@QAE@XZ
  00009	cc		 int	 3
  0000a	cc		 int	 3
  0000b	cc		 int	 3
  0000c	cc		 int	 3
  0000d	cc		 int	 3
__ehhandler$?ChangeListOrGridCtrl@CDlgCompSetup@@IAEXV?$CStringT@DV?$StrTraitMFC_DLL@DV?$ChTraitsCRT@D@ATL@@@@@ATL@@@Z:
  0000e	90		 npad	 1
  0000f	90		 npad	 1
  00010	8b 54 24 08	 mov	 edx, DWORD PTR [esp+8]
  00014	8d 42 0c	 lea	 eax, DWORD PTR [edx+12]
  00017	8b 4a f4	 mov	 ecx, DWORD PTR [edx-12]
  0001a	33 c8		 xor	 ecx, eax
  0001c	e8 00 00 00 00	 call	 @__security_check_cookie@4
  00021	b8 00 00 00 00	 mov	 eax, OFFSET __ehfuncinfo$?ChangeListOrGridCtrl@CDlgCompSetup@@IAEXV?$CStringT@DV?$StrTraitMFC_DLL@DV?$ChTraitsCRT@D@ATL@@@@@ATL@@@Z
  00026	e9 00 00 00 00	 jmp	 ___CxxFrameHandler3
text$x	ENDS
?ChangeListOrGridCtrl@CDlgCompSetup@@IAEXV?$CStringT@DV?$StrTraitMFC_DLL@DV?$ChTraitsCRT@D@ATL@@@@@ATL@@@Z ENDP ; CDlgCompSetup::ChangeListOrGridCtrl
; Function compile flags: /Ogtp
; File D:\git\src\IBK\IBK_DRFN\ProjSrc\SrcDrfn\Chart\ChartUtil\DlgCompSetup.cpp
; File C:\Program Files (x86)\Microsoft Visual Studio\2019\Community\VC\Tools\MSVC\14.29.30133\atlmfc\include\afxwin2.inl
; File D:\git\src\IBK\IBK_DRFN\ProjSrc\SrcDrfn\Chart\ChartUtil\DlgCompSetup.cpp
; File C:\Program Files (x86)\Microsoft Visual Studio\2019\Community\VC\Tools\MSVC\14.29.30133\atlmfc\include\afxwin2.inl
; File D:\git\src\IBK\IBK_DRFN\ProjSrc\SrcDrfn\Chart\ChartUtil\DlgCompSetup.cpp
; File C:\Program Files (x86)\Microsoft Visual Studio\2019\Community\VC\Tools\MSVC\14.29.30133\atlmfc\include\afxwin2.inl
; File D:\git\src\IBK\IBK_DRFN\ProjSrc\SrcDrfn\Chart\ChartUtil\DlgCompSetup.cpp
; File C:\Program Files (x86)\Microsoft Visual Studio\2019\Community\VC\Tools\MSVC\14.29.30133\atlmfc\include\afxtempl.h
; File D:\git\src\IBK\IBK_DRFN\ProjSrc\SrcDrfn\Chart\ChartUtil\DlgCompSetup.cpp
; File C:\Program Files (x86)\Microsoft Visual Studio\2019\Community\VC\Tools\MSVC\14.29.30133\atlmfc\include\afxtempl.h
; File D:\git\src\IBK\IBK_DRFN\ProjSrc\SrcDrfn\Chart\ChartUtil\DlgCompSetup.cpp
; File C:\Program Files (x86)\Microsoft Visual Studio\2019\Community\VC\Tools\MSVC\14.29.30133\atlmfc\include\afxwin2.inl
; File D:\git\src\IBK\IBK_DRFN\ProjSrc\SrcDrfn\Chart\ChartUtil\DlgCompSetup.cpp
;	COMDAT ?fnInitSelctGroup@CDlgCompSetup@@IAEXPBD@Z
_TEXT	SEGMENT
_rString$ = -16						; size = 4
__$EHRec$ = -12						; size = 12
_szGroupName$ = 8					; size = 4
?fnInitSelctGroup@CDlgCompSetup@@IAEXPBD@Z PROC		; CDlgCompSetup::fnInitSelctGroup, COMDAT
; _this$ = ecx

; 1025 : {

  00000	55		 push	 ebp
  00001	8b ec		 mov	 ebp, esp
  00003	6a ff		 push	 -1
  00005	68 00 00 00 00	 push	 __ehhandler$?fnInitSelctGroup@CDlgCompSetup@@IAEXPBD@Z
  0000a	64 a1 00 00 00
	00		 mov	 eax, DWORD PTR fs:0
  00010	50		 push	 eax
  00011	51		 push	 ecx
  00012	53		 push	 ebx
  00013	56		 push	 esi
  00014	57		 push	 edi
  00015	a1 00 00 00 00	 mov	 eax, DWORD PTR ___security_cookie
  0001a	33 c5		 xor	 eax, ebp
  0001c	50		 push	 eax
  0001d	8d 45 f4	 lea	 eax, DWORD PTR __$EHRec$[ebp]
  00020	64 a3 00 00 00
	00		 mov	 DWORD PTR fs:0, eax
  00026	8b f9		 mov	 edi, ecx
; File C:\Program Files (x86)\Microsoft Visual Studio\2019\Community\VC\Tools\MSVC\14.29.30133\atlmfc\include\afxwin2.inl

; 664  : 	{ ASSERT(::IsWindow(m_hWnd)); return (int)::SendMessage(m_hWnd, LB_GETCOUNT, 0, 0); }

  00028	6a 00		 push	 0
  0002a	6a 00		 push	 0
  0002c	68 8b 01 00 00	 push	 395			; 0000018bH
  00031	ff b7 38 02 00
	00		 push	 DWORD PTR [edi+568]
  00037	ff 15 00 00 00
	00		 call	 DWORD PTR __imp__SendMessageA@16
; File D:\git\src\IBK\IBK_DRFN\ProjSrc\SrcDrfn\Chart\ChartUtil\DlgCompSetup.cpp

; 1027 : 	CString rString;

  0003d	8d 4d f0	 lea	 ecx, DWORD PTR _rString$[ebp]
  00040	8b d8		 mov	 ebx, eax
  00042	ff 15 00 00 00
	00		 call	 DWORD PTR __imp_??0?$CStringT@DV?$StrTraitMFC_DLL@DV?$ChTraitsCRT@D@ATL@@@@@ATL@@QAE@XZ

; 1028 : 	for(int i=0; i<nCnt; i++)

  00048	33 f6		 xor	 esi, esi
  0004a	c7 45 fc 00 00
	00 00		 mov	 DWORD PTR __$EHRec$[ebp+8], 0
  00051	85 db		 test	 ebx, ebx
  00053	0f 8e f4 00 00
	00		 jle	 $LN33@fnInitSelc
  00059	8d 87 18 02 00
	00		 lea	 eax, DWORD PTR [edi+536]
  0005f	90		 npad	 1
$LL4@fnInitSelc:

; 1029 : 	{
; 1030 : 		m_ListRP.GetText(i, rString);

  00060	8d 4d f0	 lea	 ecx, DWORD PTR _rString$[ebp]
  00063	51		 push	 ecx
  00064	56		 push	 esi
  00065	8b c8		 mov	 ecx, eax
  00067	e8 00 00 00 00	 call	 ?GetText@CListBox@@QBEXHAAV?$CStringT@DV?$StrTraitMFC_DLL@DV?$ChTraitsCRT@D@ATL@@@@@ATL@@@Z ; CListBox::GetText

; 1031 : 		if(rString.Compare(szGroupName)==0)

  0006c	ff 75 08	 push	 DWORD PTR _szGroupName$[ebp]
  0006f	8d 4d f0	 lea	 ecx, DWORD PTR _rString$[ebp]
  00072	ff 15 00 00 00
	00		 call	 DWORD PTR __imp_?Compare@?$CStringT@DV?$StrTraitMFC_DLL@DV?$ChTraitsCRT@D@ATL@@@@@ATL@@QBEHPBD@Z
  00078	85 c0		 test	 eax, eax
  0007a	74 10		 je	 SHORT $LN47@fnInitSelc

; 1028 : 	for(int i=0; i<nCnt; i++)

  0007c	46		 inc	 esi
  0007d	8d 87 18 02 00
	00		 lea	 eax, DWORD PTR [edi+536]
  00083	3b f3		 cmp	 esi, ebx
  00085	7c d9		 jl	 SHORT $LL4@fnInitSelc

; 1031 : 		if(rString.Compare(szGroupName)==0)

  00087	e9 c1 00 00 00	 jmp	 $LN33@fnInitSelc
$LN47@fnInitSelc:
; File C:\Program Files (x86)\Microsoft Visual Studio\2019\Community\VC\Tools\MSVC\14.29.30133\atlmfc\include\afxwin2.inl

; 668  : 	{ ASSERT(::IsWindow(m_hWnd)); return (int)::SendMessage(m_hWnd, LB_SETCURSEL, nSelect, 0); }

  0008c	8b 1d 00 00 00
	00		 mov	 ebx, DWORD PTR __imp__SendMessageA@16
  00092	6a 00		 push	 0
  00094	56		 push	 esi
  00095	68 86 01 00 00	 push	 390			; 00000186H
  0009a	ff b7 38 02 00
	00		 push	 DWORD PTR [edi+568]
  000a0	ff d3		 call	 ebx
; File D:\git\src\IBK\IBK_DRFN\ProjSrc\SrcDrfn\Chart\ChartUtil\DlgCompSetup.cpp

; 1034 : 			fnSelectGroup(i);

  000a2	56		 push	 esi
  000a3	8b cf		 mov	 ecx, edi
  000a5	e8 00 00 00 00	 call	 ?fnSelectGroup@CDlgCompSetup@@IAEXH@Z ; CDlgCompSetup::fnSelectGroup

; 1035 : 			fnSelectItem(m_pCurGroup, 0);

  000aa	8b 87 cc 00 00
	00		 mov	 eax, DWORD PTR [edi+204]

; 620  : 	if(pGroupData==NULL)

  000b0	85 c0		 test	 eax, eax
  000b2	75 3e		 jne	 SHORT $LN59@fnInitSelc
; File C:\Program Files (x86)\Microsoft Visual Studio\2019\Community\VC\Tools\MSVC\14.29.30133\atlmfc\include\afxwin2.inl

; 666  : 	{ ASSERT(::IsWindow(m_hWnd)); return (int)::SendMessage(m_hWnd, LB_GETCURSEL, 0, 0); }

  000b4	50		 push	 eax
  000b5	50		 push	 eax
  000b6	68 88 01 00 00	 push	 392			; 00000188H
  000bb	ff b7 38 02 00
	00		 push	 DWORD PTR [edi+568]
  000c1	ff d3		 call	 ebx
; File D:\git\src\IBK\IBK_DRFN\ProjSrc\SrcDrfn\Chart\ChartUtil\DlgCompSetup.cpp

; 623  : 		if(nGroup<0) return;

  000c3	85 c0		 test	 eax, eax
  000c5	0f 88 82 00 00
	00		 js	 $LN33@fnInitSelc
; File C:\Program Files (x86)\Microsoft Visual Studio\2019\Community\VC\Tools\MSVC\14.29.30133\atlmfc\include\afxtempl.h

; 1133 : 	if (nIndex >= m_nCount || nIndex < 0)

  000cb	3b 87 bc 00 00
	00		 cmp	 eax, DWORD PTR [edi+188]
  000d1	7d 16		 jge	 SHORT $LN25@fnInitSelc

; 1135 : 
; 1136 : 	CNode* pNode = m_pNodeHead;

  000d3	8b 8f b4 00 00
	00		 mov	 ecx, DWORD PTR [edi+180]

; 1137 : 	while (nIndex--)

  000d9	85 c0		 test	 eax, eax
  000db	74 0e		 je	 SHORT $LN21@fnInitSelc
  000dd	0f 1f 00	 npad	 3
$LL22@fnInitSelc:

; 1138 : 	{
; 1139 : 		ASSERT(AfxIsValidAddress(pNode, sizeof(CNode)));
; 1140 : 		pNode = pNode->pNext;

  000e0	8b 09		 mov	 ecx, DWORD PTR [ecx]
  000e2	83 e8 01	 sub	 eax, 1
  000e5	75 f9		 jne	 SHORT $LL22@fnInitSelc

; 1141 : 	}
; 1142 : 	return (POSITION) pNode;

  000e7	eb 02		 jmp	 SHORT $LN21@fnInitSelc
$LN25@fnInitSelc:

; 1134 : 		return NULL;  // went too far

  000e9	33 c9		 xor	 ecx, ecx
$LN21@fnInitSelc:
; File D:\git\src\IBK\IBK_DRFN\ProjSrc\SrcDrfn\Chart\ChartUtil\DlgCompSetup.cpp

; 626  : 		pGroupData = m_GroupList.GetAt(pos);

  000eb	8b 41 08	 mov	 eax, DWORD PTR [ecx+8]

; 627  : 	}
; 628  : 	if(pGroupData==NULL) return;

  000ee	85 c0		 test	 eax, eax
  000f0	74 5b		 je	 SHORT $LN33@fnInitSelc
$LN59@fnInitSelc:
; File C:\Program Files (x86)\Microsoft Visual Studio\2019\Community\VC\Tools\MSVC\14.29.30133\atlmfc\include\afxtempl.h

; 1133 : 	if (nIndex >= m_nCount || nIndex < 0)

  000f2	83 78 10 00	 cmp	 DWORD PTR [eax+16], 0
  000f6	7e 55		 jle	 SHORT $LN33@fnInitSelc

; 1135 : 
; 1136 : 	CNode* pNode = m_pNodeHead;

  000f8	8b 70 08	 mov	 esi, DWORD PTR [eax+8]
; File D:\git\src\IBK\IBK_DRFN\ProjSrc\SrcDrfn\Chart\ChartUtil\DlgCompSetup.cpp

; 631  : 	if(!pos) return;

  000fb	85 f6		 test	 esi, esi
  000fd	74 4e		 je	 SHORT $LN33@fnInitSelc

; 632  : 
; 633  : 	CDlgCompSubItem* pItem = pGroupData->m_ItemList.GetAt(pos);

  000ff	8b 76 08	 mov	 esi, DWORD PTR [esi+8]

; 639  : 	if(!pItem) return;

  00102	85 f6		 test	 esi, esi
  00104	74 47		 je	 SHORT $LN33@fnInitSelc

; 640  : 
; 641  : 	//    .
; 642  : 	m_pCurSubItem = pItem;

  00106	89 b7 d0 00 00
	00		 mov	 DWORD PTR [edi+208], esi

; 960  : 	SetDlgItemText(IDC_TXTTITLE, pCurSubItem->m_szCodeName);

  0010c	8b cf		 mov	 ecx, edi
  0010e	ff 76 04	 push	 DWORD PTR [esi+4]
  00111	68 79 17 00 00	 push	 6009			; 00001779H
  00116	e8 00 00 00 00	 call	 ?SetDlgItemTextA@CWnd@@QAEXHPBD@Z ; CWnd::SetDlgItemTextA

; 961  : 	m_btnTextColor.SetColor(pCurSubItem->m_clr);

  0011b	ff 76 08	 push	 DWORD PTR [esi+8]
  0011e	8d 8f 18 03 00
	00		 lea	 ecx, DWORD PTR [edi+792]
  00124	e8 00 00 00 00	 call	 ?SetColor@CXColourPicker@@QAEXK@Z ; CXColourPicker::SetColor
; File C:\Program Files (x86)\Microsoft Visual Studio\2019\Community\VC\Tools\MSVC\14.29.30133\atlmfc\include\afxwin2.inl

; 767  : 	{ ASSERT(::IsWindow(m_hWnd)); return (int)::SendMessage(m_hWnd, CB_SETCURSEL, nSelect, 0); }

  00129	6a 00		 push	 0
  0012b	ff 76 0c	 push	 DWORD PTR [esi+12]
  0012e	68 4e 01 00 00	 push	 334			; 0000014eH
  00133	ff b7 e0 05 00
	00		 push	 DWORD PTR [edi+1504]
  00139	ff d3		 call	 ebx
  0013b	6a 00		 push	 0
  0013d	ff 76 10	 push	 DWORD PTR [esi+16]
  00140	68 4e 01 00 00	 push	 334			; 0000014eH
  00145	ff b7 58 05 00
	00		 push	 DWORD PTR [edi+1368]
  0014b	ff d3		 call	 ebx
$LN33@fnInitSelc:
; File D:\git\src\IBK\IBK_DRFN\ProjSrc\SrcDrfn\Chart\ChartUtil\DlgCompSetup.cpp

; 1039 : }

  0014d	8d 4d f0	 lea	 ecx, DWORD PTR _rString$[ebp]
  00150	ff 15 00 00 00
	00		 call	 DWORD PTR __imp_??1?$CStringT@DV?$StrTraitMFC_DLL@DV?$ChTraitsCRT@D@ATL@@@@@ATL@@QAE@XZ
  00156	8b 4d f4	 mov	 ecx, DWORD PTR __$EHRec$[ebp]
  00159	64 89 0d 00 00
	00 00		 mov	 DWORD PTR fs:0, ecx
  00160	59		 pop	 ecx
  00161	5f		 pop	 edi
  00162	5e		 pop	 esi
  00163	5b		 pop	 ebx
  00164	8b e5		 mov	 esp, ebp
  00166	5d		 pop	 ebp
  00167	c2 04 00	 ret	 4
_TEXT	ENDS
;	COMDAT text$x
text$x	SEGMENT
__unwindfunclet$?fnInitSelctGroup@CDlgCompSetup@@IAEXPBD@Z$0:
  00000	8d 4d f0	 lea	 ecx, DWORD PTR _rString$[ebp]
  00003	ff 25 00 00 00
	00		 jmp	 DWORD PTR __imp_??1?$CStringT@DV?$StrTraitMFC_DLL@DV?$ChTraitsCRT@D@ATL@@@@@ATL@@QAE@XZ
  00009	cc		 int	 3
  0000a	cc		 int	 3
  0000b	cc		 int	 3
  0000c	cc		 int	 3
  0000d	cc		 int	 3
__ehhandler$?fnInitSelctGroup@CDlgCompSetup@@IAEXPBD@Z:
  0000e	90		 npad	 1
  0000f	90		 npad	 1
  00010	8b 54 24 08	 mov	 edx, DWORD PTR [esp+8]
  00014	8d 42 0c	 lea	 eax, DWORD PTR [edx+12]
  00017	8b 4a ec	 mov	 ecx, DWORD PTR [edx-20]
  0001a	33 c8		 xor	 ecx, eax
  0001c	e8 00 00 00 00	 call	 @__security_check_cookie@4
  00021	b8 00 00 00 00	 mov	 eax, OFFSET __ehfuncinfo$?fnInitSelctGroup@CDlgCompSetup@@IAEXPBD@Z
  00026	e9 00 00 00 00	 jmp	 ___CxxFrameHandler3
text$x	ENDS
?fnInitSelctGroup@CDlgCompSetup@@IAEXPBD@Z ENDP		; CDlgCompSetup::fnInitSelctGroup
; Function compile flags: /Ogtp
; File D:\git\src\IBK\IBK_DRFN\ProjSrc\SrcDrfn\Chart\ChartUtil\DlgCompSetup.cpp
; File C:\Program Files (x86)\Microsoft Visual Studio\2019\Community\VC\Tools\MSVC\14.29.30133\atlmfc\include\afxcmn.inl
; File D:\git\src\IBK\IBK_DRFN\ProjSrc\SrcDrfn\Chart\ChartUtil\DlgCompSetup.cpp
; File C:\Program Files (x86)\Microsoft Visual Studio\2019\Community\VC\Tools\MSVC\14.29.30133\atlmfc\include\afxcmn.inl
; File D:\git\src\IBK\IBK_DRFN\ProjSrc\SrcDrfn\Chart\ChartUtil\DlgCompSetup.cpp
;	COMDAT ?DoCurItemChange@CDlgCompSetup@@IAEXXZ
_TEXT	SEGMENT
?DoCurItemChange@CDlgCompSetup@@IAEXXZ PROC		; CDlgCompSetup::DoCurItemChange, COMDAT
; _this$ = ecx

; 943  : {

  00000	56		 push	 esi
; File C:\Program Files (x86)\Microsoft Visual Studio\2019\Community\VC\Tools\MSVC\14.29.30133\atlmfc\include\afxcmn.inl

; 155  : 	{ ASSERT(::IsWindow(m_hWnd)); return (int) ::SendMessage(m_hWnd, LVM_GETITEMCOUNT, 0, 0L); }

  00001	6a 00		 push	 0
; File D:\git\src\IBK\IBK_DRFN\ProjSrc\SrcDrfn\Chart\ChartUtil\DlgCompSetup.cpp

; 943  : {

  00003	8b f1		 mov	 esi, ecx
; File C:\Program Files (x86)\Microsoft Visual Studio\2019\Community\VC\Tools\MSVC\14.29.30133\atlmfc\include\afxcmn.inl

; 155  : 	{ ASSERT(::IsWindow(m_hWnd)); return (int) ::SendMessage(m_hWnd, LVM_GETITEMCOUNT, 0, 0L); }

  00005	6a 00		 push	 0
  00007	68 04 10 00 00	 push	 4100			; 00001004H
  0000c	ff b6 b8 01 00
	00		 push	 DWORD PTR [esi+440]
  00012	ff 15 00 00 00
	00		 call	 DWORD PTR __imp__SendMessageA@16
; File D:\git\src\IBK\IBK_DRFN\ProjSrc\SrcDrfn\Chart\ChartUtil\DlgCompSetup.cpp

; 945  : 	if(nCnt==0)

  00018	85 c0		 test	 eax, eax
  0001a	75 0a		 jne	 SHORT $LN2@DoCurItemC

; 946  : 	{
; 947  : 		m_nListItemSel = -1;

  0001c	c7 86 d8 00 00
	00 ff ff ff ff	 mov	 DWORD PTR [esi+216], -1
$LN2@DoCurItemC:
  00026	5e		 pop	 esi

; 948  : 		return;
; 949  : 	}
; 950  : 
; 951  : 	// 08.05.31   .
; 952  : 	if(m_nListItemSel>=0)
; 953  : 	{
; 954  : //		m_pCurSubItem = ;
; 955  : 	}
; 956  : }

  00027	c3		 ret	 0
?DoCurItemChange@CDlgCompSetup@@IAEXXZ ENDP		; CDlgCompSetup::DoCurItemChange
_TEXT	ENDS
; Function compile flags: /Ogtp
; File D:\git\src\IBK\IBK_DRFN\ProjSrc\SrcDrfn\Chart\ChartUtil\DlgCompSetup.cpp
; File C:\Program Files (x86)\Microsoft Visual Studio\2019\Community\VC\Tools\MSVC\14.29.30133\atlmfc\include\afxcmn.inl
; File D:\git\src\IBK\IBK_DRFN\ProjSrc\SrcDrfn\Chart\ChartUtil\DlgCompSetup.cpp
; File C:\Program Files (x86)\Microsoft Visual Studio\2019\Community\VC\Tools\MSVC\14.29.30133\atlmfc\include\afxcmn.inl
; File D:\git\src\IBK\IBK_DRFN\ProjSrc\SrcDrfn\Chart\ChartUtil\DlgCompSetup.cpp
; File C:\Program Files (x86)\Microsoft Visual Studio\2019\Community\VC\Tools\MSVC\14.29.30133\atlmfc\include\afxcmn.inl
; File D:\git\src\IBK\IBK_DRFN\ProjSrc\SrcDrfn\Chart\ChartUtil\DlgCompSetup.cpp
; File C:\Program Files (x86)\Microsoft Visual Studio\2019\Community\VC\Tools\MSVC\14.29.30133\atlmfc\include\afxtempl.h
; File D:\git\src\IBK\IBK_DRFN\ProjSrc\SrcDrfn\Chart\ChartUtil\DlgCompSetup.cpp
;	COMDAT ?DoDeleteItem@CDlgCompSetup@@IAEXH@Z
_TEXT	SEGMENT
_nItem$ = 8						; size = 4
?DoDeleteItem@CDlgCompSetup@@IAEXH@Z PROC		; CDlgCompSetup::DoDeleteItem, COMDAT
; _this$ = ecx

; 927  : {

  00000	55		 push	 ebp
  00001	8b ec		 mov	 ebp, esp
  00003	53		 push	 ebx
  00004	56		 push	 esi
  00005	57		 push	 edi
; File C:\Program Files (x86)\Microsoft Visual Studio\2019\Community\VC\Tools\MSVC\14.29.30133\atlmfc\include\afxcmn.inl

; 169  : 	{ ASSERT(::IsWindow(m_hWnd)); return (BOOL) ::SendMessage(m_hWnd, LVM_DELETEITEM, nItem, 0L); }

  00006	8b 7d 08	 mov	 edi, DWORD PTR _nItem$[ebp]
; File D:\git\src\IBK\IBK_DRFN\ProjSrc\SrcDrfn\Chart\ChartUtil\DlgCompSetup.cpp

; 927  : {

  00009	8b f1		 mov	 esi, ecx
; File C:\Program Files (x86)\Microsoft Visual Studio\2019\Community\VC\Tools\MSVC\14.29.30133\atlmfc\include\afxcmn.inl

; 169  : 	{ ASSERT(::IsWindow(m_hWnd)); return (BOOL) ::SendMessage(m_hWnd, LVM_DELETEITEM, nItem, 0L); }

  0000b	6a 00		 push	 0
  0000d	57		 push	 edi
  0000e	68 08 10 00 00	 push	 4104			; 00001008H
  00013	ff b6 b8 01 00
	00		 push	 DWORD PTR [esi+440]
; File D:\git\src\IBK\IBK_DRFN\ProjSrc\SrcDrfn\Chart\ChartUtil\DlgCompSetup.cpp

; 928  : 	m_bModifyFlag = TRUE;	// 

  00019	c7 86 00 07 00
	00 01 00 00 00	 mov	 DWORD PTR [esi+1792], 1
; File C:\Program Files (x86)\Microsoft Visual Studio\2019\Community\VC\Tools\MSVC\14.29.30133\atlmfc\include\afxcmn.inl

; 169  : 	{ ASSERT(::IsWindow(m_hWnd)); return (BOOL) ::SendMessage(m_hWnd, LVM_DELETEITEM, nItem, 0L); }

  00023	ff 15 00 00 00
	00		 call	 DWORD PTR __imp__SendMessageA@16
; File D:\git\src\IBK\IBK_DRFN\ProjSrc\SrcDrfn\Chart\ChartUtil\DlgCompSetup.cpp

; 579  : 	if(m_pCurGroup)

  00029	8b 9e cc 00 00
	00		 mov	 ebx, DWORD PTR [esi+204]

; 929  : 
; 930  : 	m_ListItem.DeleteItem(nItem);
; 931  : 
; 932  : 	List_CDlgCompSubItem* pSubItemList = GetCurSubItemList();
; 933  : 	if(pSubItemList)

  0002f	8d 43 04	 lea	 eax, DWORD PTR [ebx+4]
  00032	f7 db		 neg	 ebx
  00034	1b db		 sbb	 ebx, ebx
  00036	23 d8		 and	 ebx, eax
  00038	74 44		 je	 SHORT $LN2@DoDeleteIt
; File C:\Program Files (x86)\Microsoft Visual Studio\2019\Community\VC\Tools\MSVC\14.29.30133\atlmfc\include\afxtempl.h

; 1133 : 	if (nIndex >= m_nCount || nIndex < 0)

  0003a	3b 7b 0c	 cmp	 edi, DWORD PTR [ebx+12]
  0003d	7d 12		 jge	 SHORT $LN15@DoDeleteIt
  0003f	85 ff		 test	 edi, edi
  00041	78 0e		 js	 SHORT $LN15@DoDeleteIt

; 1135 : 
; 1136 : 	CNode* pNode = m_pNodeHead;

  00043	8b 73 04	 mov	 esi, DWORD PTR [ebx+4]

; 1137 : 	while (nIndex--)

  00046	74 0b		 je	 SHORT $LN11@DoDeleteIt
$LL12@DoDeleteIt:

; 1138 : 	{
; 1139 : 		ASSERT(AfxIsValidAddress(pNode, sizeof(CNode)));
; 1140 : 		pNode = pNode->pNext;

  00048	8b 36		 mov	 esi, DWORD PTR [esi]
  0004a	83 ef 01	 sub	 edi, 1
  0004d	75 f9		 jne	 SHORT $LL12@DoDeleteIt

; 1141 : 	}
; 1142 : 	return (POSITION) pNode;

  0004f	eb 02		 jmp	 SHORT $LN11@DoDeleteIt
$LN15@DoDeleteIt:

; 1134 : 		return NULL;  // went too far

  00051	33 f6		 xor	 esi, esi
$LN11@DoDeleteIt:
; File D:\git\src\IBK\IBK_DRFN\ProjSrc\SrcDrfn\Chart\ChartUtil\DlgCompSetup.cpp

; 937  : 		delete pItem;

  00053	8b 7e 08	 mov	 edi, DWORD PTR [esi+8]
  00056	85 ff		 test	 edi, edi
  00058	74 1c		 je	 SHORT $LN18@DoDeleteIt
  0005a	8d 4f 04	 lea	 ecx, DWORD PTR [edi+4]
  0005d	ff 15 00 00 00
	00		 call	 DWORD PTR __imp_??1?$CStringT@DV?$StrTraitMFC_DLL@DV?$ChTraitsCRT@D@ATL@@@@@ATL@@QAE@XZ
  00063	8b cf		 mov	 ecx, edi
  00065	ff 15 00 00 00
	00		 call	 DWORD PTR __imp_??1?$CStringT@DV?$StrTraitMFC_DLL@DV?$ChTraitsCRT@D@ATL@@@@@ATL@@QAE@XZ
  0006b	6a 14		 push	 20			; 00000014H
  0006d	57		 push	 edi
  0006e	e8 00 00 00 00	 call	 ??3@YAXPAXI@Z		; operator delete
  00073	83 c4 08	 add	 esp, 8
$LN18@DoDeleteIt:

; 938  : 		pSubItemList->RemoveAt(pos);

  00076	56		 push	 esi
  00077	8b cb		 mov	 ecx, ebx
  00079	e8 00 00 00 00	 call	 ?RemoveAt@?$CList@PAVCDlgCompSubItem@@PAV1@@@QAEXPAU__POSITION@@@Z ; CList<CDlgCompSubItem *,CDlgCompSubItem *>::RemoveAt
$LN2@DoDeleteIt:

; 939  : 	}
; 940  : }

  0007e	5f		 pop	 edi
  0007f	5e		 pop	 esi
  00080	5b		 pop	 ebx
  00081	5d		 pop	 ebp
  00082	c2 04 00	 ret	 4
?DoDeleteItem@CDlgCompSetup@@IAEXH@Z ENDP		; CDlgCompSetup::DoDeleteItem
_TEXT	ENDS
; Function compile flags: /Ogtp
; File D:\git\src\IBK\IBK_DRFN\ProjSrc\SrcDrfn\Chart\ChartUtil\DlgCompSetup.cpp
; File C:\Program Files (x86)\Microsoft Visual Studio\2019\Community\VC\Tools\MSVC\14.29.30133\atlmfc\include\afxcmn.inl
; File D:\git\src\IBK\IBK_DRFN\ProjSrc\SrcDrfn\Chart\ChartUtil\DlgCompSetup.cpp
;	COMDAT ?DoGridAddToItem@CDlgCompSetup@@IAEXPBD0@Z
_TEXT	SEGMENT
tv290 = -16						; size = 4
__$EHRec$ = -12						; size = 12
_szCodeName$ = 8					; size = 4
_szCode$ = 8						; size = 4
$T2 = 12						; size = 4
_szMsg$3 = 12						; size = 4
__szCodeName$ = 12					; size = 4
?DoGridAddToItem@CDlgCompSetup@@IAEXPBD0@Z PROC		; CDlgCompSetup::DoGridAddToItem, COMDAT
; _this$ = ecx

; 876  : {

  00000	55		 push	 ebp
  00001	8b ec		 mov	 ebp, esp
  00003	6a ff		 push	 -1
  00005	68 00 00 00 00	 push	 __ehhandler$?DoGridAddToItem@CDlgCompSetup@@IAEXPBD0@Z
  0000a	64 a1 00 00 00
	00		 mov	 eax, DWORD PTR fs:0
  00010	50		 push	 eax
  00011	51		 push	 ecx
  00012	53		 push	 ebx
  00013	56		 push	 esi
  00014	57		 push	 edi
  00015	a1 00 00 00 00	 mov	 eax, DWORD PTR ___security_cookie
  0001a	33 c5		 xor	 eax, ebp
  0001c	50		 push	 eax
  0001d	8d 45 f4	 lea	 eax, DWORD PTR __$EHRec$[ebp]
  00020	64 a3 00 00 00
	00		 mov	 DWORD PTR fs:0, eax
  00026	8b f9		 mov	 edi, ecx

; 877  : 	if(!m_pCurGroup)

  00028	8b 87 cc 00 00
	00		 mov	 eax, DWORD PTR [edi+204]
  0002e	85 c0		 test	 eax, eax
  00030	75 20		 jne	 SHORT $LN2@DoGridAddT

; 878  : 	{
; 879  : 		AfxMessageBox("  .");

  00032	50		 push	 eax
  00033	50		 push	 eax
  00034	68 00 00 00 00	 push	 OFFSET ??_C@_0BE@GEHHHPPG@?$LM?$LB?E?C?$LF?H?5?$LB?W?$LH?l?$MA?L?5?$LO?x?$MA?$LN?4@
  00039	e8 00 00 00 00	 call	 ?AfxMessageBox@@YGHPBDII@Z ; AfxMessageBox

; 923  : }

  0003e	8b 4d f4	 mov	 ecx, DWORD PTR __$EHRec$[ebp]
  00041	64 89 0d 00 00
	00 00		 mov	 DWORD PTR fs:0, ecx
  00048	59		 pop	 ecx
  00049	5f		 pop	 edi
  0004a	5e		 pop	 esi
  0004b	5b		 pop	 ebx
  0004c	8b e5		 mov	 esp, ebp
  0004e	5d		 pop	 ebp
  0004f	c2 08 00	 ret	 8
$LN2@DoGridAddT:

; 880  : 		return;
; 881  : 	}
; 882  : 
; 883  : 	List_CDlgCompSubItem* pCurSubItem = GetCurSubItemList();
; 884  : 	if(!pCurSubItem)

  00052	83 c0 04	 add	 eax, 4
  00055	89 45 f0	 mov	 DWORD PTR tv290[ebp], eax
  00058	75 22		 jne	 SHORT $LN3@DoGridAddT

; 885  : 	{
; 886  : 		AfxMessageBox("  ");

  0005a	6a 00		 push	 0
  0005c	6a 00		 push	 0
  0005e	68 00 00 00 00	 push	 OFFSET ??_C@_0BF@GGAGLMPO@?$LB?W?$LH?l?$MA?L?5?$LM?$LB?E?C?$LF?G?A?v?5?$LO?J?$MA?$LN@
  00063	e8 00 00 00 00	 call	 ?AfxMessageBox@@YGHPBDII@Z ; AfxMessageBox

; 923  : }

  00068	8b 4d f4	 mov	 ecx, DWORD PTR __$EHRec$[ebp]
  0006b	64 89 0d 00 00
	00 00		 mov	 DWORD PTR fs:0, ecx
  00072	59		 pop	 ecx
  00073	5f		 pop	 edi
  00074	5e		 pop	 esi
  00075	5b		 pop	 ebx
  00076	8b e5		 mov	 esp, ebp
  00078	5d		 pop	 ebp
  00079	c2 08 00	 ret	 8
$LN3@DoGridAddT:

; 887  : 		return;
; 888  : 	}
; 889  : 	
; 890  : 	//   .
; 891  : 	int nRet = fnCheckCode(szCode, _szCodeName);

  0007c	ff 75 0c	 push	 DWORD PTR __szCodeName$[ebp]
  0007f	8b 5d 08	 mov	 ebx, DWORD PTR _szCode$[ebp]
  00082	53		 push	 ebx
  00083	e8 00 00 00 00	 call	 ?fnCheckCode@CDlgCompSetup@@IAEHPBD0@Z ; CDlgCompSetup::fnCheckCode

; 892  : 	if(nRet==-1)

  00088	83 f8 ff	 cmp	 eax, -1
  0008b	75 22		 jne	 SHORT $LN4@DoGridAddT

; 893  : 	{
; 894  : 		AfxMessageBox("   .");

  0008d	6a 00		 push	 0
  0008f	6a 00		 push	 0
  00091	68 00 00 00 00	 push	 OFFSET ??_C@_0BP@NJDMJDP@?$MA?L?$LJ?L?5?C?$NP?$LA?$KB?$LF?G?$LO?n?5?$MA?V?$LE?B?5?A?$LO?$LI?q?$MA?T?$LE?O?$LE?Y?4@
  00096	e8 00 00 00 00	 call	 ?AfxMessageBox@@YGHPBDII@Z ; AfxMessageBox

; 923  : }

  0009b	8b 4d f4	 mov	 ecx, DWORD PTR __$EHRec$[ebp]
  0009e	64 89 0d 00 00
	00 00		 mov	 DWORD PTR fs:0, ecx
  000a5	59		 pop	 ecx
  000a6	5f		 pop	 edi
  000a7	5e		 pop	 esi
  000a8	5b		 pop	 ebx
  000a9	8b e5		 mov	 esp, ebp
  000ab	5d		 pop	 ebp
  000ac	c2 08 00	 ret	 8
$LN4@DoGridAddT:

; 895  : 		return;
; 896  : 	}
; 897  : 	else if(nRet==-2)

  000af	83 f8 fe	 cmp	 eax, -2			; fffffffeH
  000b2	75 38		 jne	 SHORT $LN6@DoGridAddT

; 898  : 	{
; 899  : 		CString szMsg;

  000b4	8d 4d 0c	 lea	 ecx, DWORD PTR _szMsg$3[ebp]
  000b7	ff 15 00 00 00
	00		 call	 DWORD PTR __imp_??0?$CStringT@DV?$StrTraitMFC_DLL@DV?$ChTraitsCRT@D@ATL@@@@@ATL@@QAE@XZ

; 900  : 		szMsg.Format(" %d  .", MAX_ITEM_CNT);

  000bd	6a 0a		 push	 10			; 0000000aH
  000bf	8d 45 0c	 lea	 eax, DWORD PTR _szMsg$3[ebp]
  000c2	c7 45 fc 00 00
	00 00		 mov	 DWORD PTR __$EHRec$[ebp+8], 0
  000c9	68 00 00 00 00	 push	 OFFSET ??_C@_0BP@BKPHIEFF@?C?V?$LE?k?5?$CFd?$LA?$LD?5?A?$LO?$LI?q?$LB?n?A?v?5?$LA?$KB?$LE?I?G?U?$LE?O?$LE?Y?4@
  000ce	50		 push	 eax
  000cf	ff 15 00 00 00
	00		 call	 DWORD PTR __imp_?Format@?$CStringT@DV?$StrTraitMFC_DLL@DV?$ChTraitsCRT@D@ATL@@@@@ATL@@QAAXPBDZZ
  000d5	83 c4 0c	 add	 esp, 12			; 0000000cH

; 901  : 		AfxMessageBox(szMsg);

  000d8	6a 00		 push	 0
  000da	6a 00		 push	 0
  000dc	ff 75 0c	 push	 DWORD PTR _szMsg$3[ebp]
  000df	e8 00 00 00 00	 call	 ?AfxMessageBox@@YGHPBDII@Z ; AfxMessageBox

; 902  : 		return;

  000e4	8d 4d 0c	 lea	 ecx, DWORD PTR _szMsg$3[ebp]
  000e7	e9 e8 00 00 00	 jmp	 $LN26@DoGridAddT
$LN6@DoGridAddT:

; 903  : 	}
; 904  : 
; 905  : 	m_bModifyFlag = TRUE;	// 
; 906  : 
; 907  : 	IMasterDataManagerLast* pMasterMng = ( IMasterDataManagerLast*)AfxGetPctrInterface(UUID_IMasterDataManager);

  000ec	6a 05		 push	 5
  000ee	c7 87 00 07 00
	00 01 00 00 00	 mov	 DWORD PTR [edi+1792], 1
  000f8	e8 00 00 00 00	 call	 ?AfxGetPctrInterface@@YGJH@Z ; AfxGetPctrInterface

; 908  : 	CString szCodeName = _szCodeName;

  000fd	ff 75 0c	 push	 DWORD PTR __szCodeName$[ebp]
  00100	8d 4d 08	 lea	 ecx, DWORD PTR _szCodeName$[ebp]
  00103	8b f0		 mov	 esi, eax
  00105	ff 15 00 00 00
	00		 call	 DWORD PTR __imp_??0?$CStringT@DV?$StrTraitMFC_DLL@DV?$ChTraitsCRT@D@ATL@@@@@ATL@@QAE@PBD@Z
  0010b	c7 45 fc 01 00
	00 00		 mov	 DWORD PTR __$EHRec$[ebp+8], 1

; 909  : 	if(pMasterMng)

  00112	85 f6		 test	 esi, esi
  00114	74 29		 je	 SHORT $LN7@DoGridAddT

; 910  : 		szCodeName = pMasterMng->GetCodeName(szCode);

  00116	8b 0e		 mov	 ecx, DWORD PTR [esi]
  00118	8d 45 0c	 lea	 eax, DWORD PTR $T2[ebp]
  0011b	53		 push	 ebx
  0011c	50		 push	 eax
  0011d	56		 push	 esi
  0011e	ff 91 bc 00 00
	00		 call	 DWORD PTR [ecx+188]
  00124	50		 push	 eax
  00125	8d 4d 08	 lea	 ecx, DWORD PTR _szCodeName$[ebp]
  00128	c6 45 fc 02	 mov	 BYTE PTR __$EHRec$[ebp+8], 2
  0012c	ff 15 00 00 00
	00		 call	 DWORD PTR __imp_??4?$CStringT@DV?$StrTraitMFC_DLL@DV?$ChTraitsCRT@D@ATL@@@@@ATL@@QAEAAV01@ABV01@@Z
  00132	8d 4d 0c	 lea	 ecx, DWORD PTR $T2[ebp]
  00135	c6 45 fc 01	 mov	 BYTE PTR __$EHRec$[ebp+8], 1
  00139	ff 15 00 00 00
	00		 call	 DWORD PTR __imp_??1?$CStringT@DV?$StrTraitMFC_DLL@DV?$ChTraitsCRT@D@ATL@@@@@ATL@@QAE@XZ
$LN7@DoGridAddT:
; File C:\Program Files (x86)\Microsoft Visual Studio\2019\Community\VC\Tools\MSVC\14.29.30133\atlmfc\include\afxcmn.inl

; 155  : 	{ ASSERT(::IsWindow(m_hWnd)); return (int) ::SendMessage(m_hWnd, LVM_GETITEMCOUNT, 0, 0L); }

  0013f	6a 00		 push	 0
  00141	6a 00		 push	 0
  00143	68 04 10 00 00	 push	 4100			; 00001004H
  00148	ff b7 b8 01 00
	00		 push	 DWORD PTR [edi+440]
  0014e	ff 15 00 00 00
	00		 call	 DWORD PTR __imp__SendMessageA@16

; 165  : 	{ ASSERT(::IsWindow(m_hWnd)); return InsertItem(LVIF_TEXT, nItem, lpszItem, 0, 0, 0, 0); }

  00154	6a 00		 push	 0
  00156	6a 00		 push	 0
  00158	6a 00		 push	 0
  0015a	6a 00		 push	 0
  0015c	ff 75 08	 push	 DWORD PTR _szCodeName$[ebp]
  0015f	8d 8f 98 01 00
	00		 lea	 ecx, DWORD PTR [edi+408]
  00165	50		 push	 eax
  00166	6a 01		 push	 1
  00168	e8 00 00 00 00	 call	 ?InsertItem@CListCtrl@@QAEHIHPBDIIHJ@Z ; CListCtrl::InsertItem
; File D:\git\src\IBK\IBK_DRFN\ProjSrc\SrcDrfn\Chart\ChartUtil\DlgCompSetup.cpp

; 914  : 	nI = m_ListItem.SetItemText(nI, 1, szCode);

  0016d	53		 push	 ebx
  0016e	6a 01		 push	 1
  00170	50		 push	 eax
  00171	8d 8f 98 01 00
	00		 lea	 ecx, DWORD PTR [edi+408]
  00177	e8 00 00 00 00	 call	 ?SetItemText@CListCtrl@@QAEHHHPBD@Z ; CListCtrl::SetItemText

; 915  : 
; 916  : 	CDlgCompSubItem* pNewItem = new CDlgCompSubItem;

  0017c	6a 14		 push	 20			; 00000014H
  0017e	e8 00 00 00 00	 call	 ??2@YAPAXI@Z		; operator new
  00183	83 c4 04	 add	 esp, 4
  00186	85 c0		 test	 eax, eax
  00188	74 0b		 je	 SHORT $LN9@DoGridAddT
  0018a	8b c8		 mov	 ecx, eax
  0018c	e8 00 00 00 00	 call	 ??0CDlgCompSubItem@@QAE@XZ
  00191	8b f0		 mov	 esi, eax
  00193	eb 02		 jmp	 SHORT $LN10@DoGridAddT
$LN9@DoGridAddT:
  00195	33 f6		 xor	 esi, esi
$LN10@DoGridAddT:

; 917  : 	INIT_CDlgCompSubItemP(pNewItem);
; 918  : 	pNewItem->m_szCode = szCode;

  00197	53		 push	 ebx
  00198	8b ce		 mov	 ecx, esi
  0019a	c7 46 08 ff 00
	00 00		 mov	 DWORD PTR [esi+8], 255	; 000000ffH
  001a1	c7 46 0c 00 00
	00 00		 mov	 DWORD PTR [esi+12], 0
  001a8	c7 46 10 00 00
	00 00		 mov	 DWORD PTR [esi+16], 0
  001af	ff 15 00 00 00
	00		 call	 DWORD PTR __imp_??4?$CStringT@DV?$StrTraitMFC_DLL@DV?$ChTraitsCRT@D@ATL@@@@@ATL@@QAEAAV01@PBD@Z

; 919  : 	pNewItem->m_szCodeName = szCodeName;

  001b5	8d 45 08	 lea	 eax, DWORD PTR _szCodeName$[ebp]
  001b8	50		 push	 eax
  001b9	8d 4e 04	 lea	 ecx, DWORD PTR [esi+4]
  001bc	ff 15 00 00 00
	00		 call	 DWORD PTR __imp_??4?$CStringT@DV?$StrTraitMFC_DLL@DV?$ChTraitsCRT@D@ATL@@@@@ATL@@QAEAAV01@ABV01@@Z

; 920  : 
; 921  : 	pCurSubItem->AddTail(pNewItem);

  001c2	8b 4d f0	 mov	 ecx, DWORD PTR tv290[ebp]
  001c5	56		 push	 esi
  001c6	e8 00 00 00 00	 call	 ?AddTail@?$CList@PAVCDlgCompSubItem@@PAV1@@@QAEPAU__POSITION@@PAVCDlgCompSubItem@@@Z ; CList<CDlgCompSubItem *,CDlgCompSubItem *>::AddTail

; 922  : 	m_pCurSubItem = pNewItem;

  001cb	89 b7 d0 00 00
	00		 mov	 DWORD PTR [edi+208], esi

; 923  : }

  001d1	8d 4d 08	 lea	 ecx, DWORD PTR _szCodeName$[ebp]
$LN26@DoGridAddT:
  001d4	ff 15 00 00 00
	00		 call	 DWORD PTR __imp_??1?$CStringT@DV?$StrTraitMFC_DLL@DV?$ChTraitsCRT@D@ATL@@@@@ATL@@QAE@XZ
  001da	8b 4d f4	 mov	 ecx, DWORD PTR __$EHRec$[ebp]
  001dd	64 89 0d 00 00
	00 00		 mov	 DWORD PTR fs:0, ecx
  001e4	59		 pop	 ecx
  001e5	5f		 pop	 edi
  001e6	5e		 pop	 esi
  001e7	5b		 pop	 ebx
  001e8	8b e5		 mov	 esp, ebp
  001ea	5d		 pop	 ebp
  001eb	c2 08 00	 ret	 8
_TEXT	ENDS
;	COMDAT text$x
text$x	SEGMENT
__unwindfunclet$?DoGridAddToItem@CDlgCompSetup@@IAEXPBD0@Z$0:
  00000	8d 4d 0c	 lea	 ecx, DWORD PTR _szMsg$3[ebp]
  00003	ff 25 00 00 00
	00		 jmp	 DWORD PTR __imp_??1?$CStringT@DV?$StrTraitMFC_DLL@DV?$ChTraitsCRT@D@ATL@@@@@ATL@@QAE@XZ
__unwindfunclet$?DoGridAddToItem@CDlgCompSetup@@IAEXPBD0@Z$1:
  00009	8d 4d 08	 lea	 ecx, DWORD PTR _szCodeName$[ebp]
  0000c	ff 25 00 00 00
	00		 jmp	 DWORD PTR __imp_??1?$CStringT@DV?$StrTraitMFC_DLL@DV?$ChTraitsCRT@D@ATL@@@@@ATL@@QAE@XZ
__unwindfunclet$?DoGridAddToItem@CDlgCompSetup@@IAEXPBD0@Z$2:
  00012	8d 4d 0c	 lea	 ecx, DWORD PTR $T2[ebp]
  00015	ff 25 00 00 00
	00		 jmp	 DWORD PTR __imp_??1?$CStringT@DV?$StrTraitMFC_DLL@DV?$ChTraitsCRT@D@ATL@@@@@ATL@@QAE@XZ
  0001b	cc		 int	 3
  0001c	cc		 int	 3
  0001d	cc		 int	 3
  0001e	cc		 int	 3
  0001f	cc		 int	 3
__ehhandler$?DoGridAddToItem@CDlgCompSetup@@IAEXPBD0@Z:
  00020	90		 npad	 1
  00021	90		 npad	 1
  00022	8b 54 24 08	 mov	 edx, DWORD PTR [esp+8]
  00026	8d 42 0c	 lea	 eax, DWORD PTR [edx+12]
  00029	8b 4a ec	 mov	 ecx, DWORD PTR [edx-20]
  0002c	33 c8		 xor	 ecx, eax
  0002e	e8 00 00 00 00	 call	 @__security_check_cookie@4
  00033	b8 00 00 00 00	 mov	 eax, OFFSET __ehfuncinfo$?DoGridAddToItem@CDlgCompSetup@@IAEXPBD0@Z
  00038	e9 00 00 00 00	 jmp	 ___CxxFrameHandler3
text$x	ENDS
?DoGridAddToItem@CDlgCompSetup@@IAEXPBD0@Z ENDP		; CDlgCompSetup::DoGridAddToItem
; Function compile flags: /Ogtp
; File D:\git\src\IBK\IBK_DRFN\ProjSrc\SrcDrfn\Chart\ChartUtil\DlgCompSetup.cpp
; File C:\Program Files (x86)\Microsoft Visual Studio\2019\Community\VC\Tools\MSVC\14.29.30133\atlmfc\include\afxcmn.inl
; File D:\git\src\IBK\IBK_DRFN\ProjSrc\SrcDrfn\Chart\ChartUtil\DlgCompSetup.cpp
;	COMDAT ?DoAddToItem@CDlgCompSetup@@IAEXH@Z
_TEXT	SEGMENT
$T2 = -24						; size = 4
_szCode$ = -20						; size = 4
_szCodeName$ = -16					; size = 4
__$EHRec$ = -12						; size = 12
_szMsg$3 = 8						; size = 4
$T4 = 8							; size = 4
_nItem$ = 8						; size = 4
?DoAddToItem@CDlgCompSetup@@IAEXH@Z PROC		; CDlgCompSetup::DoAddToItem, COMDAT
; _this$ = ecx

; 824  : {

  00000	55		 push	 ebp
  00001	8b ec		 mov	 ebp, esp
  00003	6a ff		 push	 -1
  00005	68 00 00 00 00	 push	 __ehhandler$?DoAddToItem@CDlgCompSetup@@IAEXH@Z
  0000a	64 a1 00 00 00
	00		 mov	 eax, DWORD PTR fs:0
  00010	50		 push	 eax
  00011	83 ec 0c	 sub	 esp, 12			; 0000000cH
  00014	53		 push	 ebx
  00015	56		 push	 esi
  00016	57		 push	 edi
  00017	a1 00 00 00 00	 mov	 eax, DWORD PTR ___security_cookie
  0001c	33 c5		 xor	 eax, ebp
  0001e	50		 push	 eax
  0001f	8d 45 f4	 lea	 eax, DWORD PTR __$EHRec$[ebp]
  00022	64 a3 00 00 00
	00		 mov	 DWORD PTR fs:0, eax
  00028	8b f9		 mov	 edi, ecx

; 825  : 	if(nItem<0) return;

  0002a	83 7d 08 00	 cmp	 DWORD PTR _nItem$[ebp], 0
  0002e	0f 8c d9 01 00
	00		 jl	 $LN1@DoAddToIte

; 826  : 	if(!m_pCurGroup)

  00034	8b 87 cc 00 00
	00		 mov	 eax, DWORD PTR [edi+204]
  0003a	85 c0		 test	 eax, eax
  0003c	75 20		 jne	 SHORT $LN3@DoAddToIte

; 827  : 	{
; 828  : 		AfxMessageBox("  .");

  0003e	50		 push	 eax
  0003f	50		 push	 eax
  00040	68 00 00 00 00	 push	 OFFSET ??_C@_0BE@GEHHHPPG@?$LM?$LB?E?C?$LF?H?5?$LB?W?$LH?l?$MA?L?5?$LO?x?$MA?$LN?4@
  00045	e8 00 00 00 00	 call	 ?AfxMessageBox@@YGHPBDII@Z ; AfxMessageBox

; 872  : }

  0004a	8b 4d f4	 mov	 ecx, DWORD PTR __$EHRec$[ebp]
  0004d	64 89 0d 00 00
	00 00		 mov	 DWORD PTR fs:0, ecx
  00054	59		 pop	 ecx
  00055	5f		 pop	 edi
  00056	5e		 pop	 esi
  00057	5b		 pop	 ebx
  00058	8b e5		 mov	 esp, ebp
  0005a	5d		 pop	 ebp
  0005b	c2 04 00	 ret	 4
$LN3@DoAddToIte:

; 829  : 		return;
; 830  : 	}
; 831  : 
; 832  : 	List_CDlgCompSubItem* pCurSubItem = GetCurSubItemList();
; 833  : 	if(!pCurSubItem)

  0005e	8d 58 04	 lea	 ebx, DWORD PTR [eax+4]
  00061	85 db		 test	 ebx, ebx
  00063	75 20		 jne	 SHORT $LN4@DoAddToIte

; 834  : 	{
; 835  : 		AfxMessageBox("  ");

  00065	53		 push	 ebx
  00066	53		 push	 ebx
  00067	68 00 00 00 00	 push	 OFFSET ??_C@_0BF@GGAGLMPO@?$LB?W?$LH?l?$MA?L?5?$LM?$LB?E?C?$LF?G?A?v?5?$LO?J?$MA?$LN@
  0006c	e8 00 00 00 00	 call	 ?AfxMessageBox@@YGHPBDII@Z ; AfxMessageBox

; 872  : }

  00071	8b 4d f4	 mov	 ecx, DWORD PTR __$EHRec$[ebp]
  00074	64 89 0d 00 00
	00 00		 mov	 DWORD PTR fs:0, ecx
  0007b	59		 pop	 ecx
  0007c	5f		 pop	 edi
  0007d	5e		 pop	 esi
  0007e	5b		 pop	 ebx
  0007f	8b e5		 mov	 esp, ebp
  00081	5d		 pop	 ebp
  00082	c2 04 00	 ret	 4
$LN4@DoAddToIte:

; 836  : 		return;
; 837  : 	}
; 838  : 
; 839  : 	CString szCode, szCodeName;

  00085	8d 4d ec	 lea	 ecx, DWORD PTR _szCode$[ebp]
  00088	ff 15 00 00 00
	00		 call	 DWORD PTR __imp_??0?$CStringT@DV?$StrTraitMFC_DLL@DV?$ChTraitsCRT@D@ATL@@@@@ATL@@QAE@XZ
  0008e	8d 4d f0	 lea	 ecx, DWORD PTR _szCodeName$[ebp]
  00091	c7 45 fc 00 00
	00 00		 mov	 DWORD PTR __$EHRec$[ebp+8], 0
  00098	ff 15 00 00 00
	00		 call	 DWORD PTR __imp_??0?$CStringT@DV?$StrTraitMFC_DLL@DV?$ChTraitsCRT@D@ATL@@@@@ATL@@QAE@XZ

; 840  : 	szCodeName = m_ListCodes.GetItemText(nItem, 0);

  0009e	6a 00		 push	 0
  000a0	ff 75 08	 push	 DWORD PTR _nItem$[ebp]
  000a3	8d 45 e8	 lea	 eax, DWORD PTR $T2[ebp]
  000a6	c6 45 fc 01	 mov	 BYTE PTR __$EHRec$[ebp+8], 1
  000aa	50		 push	 eax
  000ab	8d 8f e8 00 00
	00		 lea	 ecx, DWORD PTR [edi+232]
  000b1	e8 00 00 00 00	 call	 ?GetItemText@CListCtrl@@QBE?AV?$CStringT@DV?$StrTraitMFC_DLL@DV?$ChTraitsCRT@D@ATL@@@@@ATL@@HH@Z ; CListCtrl::GetItemText
  000b6	50		 push	 eax
  000b7	8d 4d f0	 lea	 ecx, DWORD PTR _szCodeName$[ebp]
  000ba	c6 45 fc 02	 mov	 BYTE PTR __$EHRec$[ebp+8], 2
  000be	ff 15 00 00 00
	00		 call	 DWORD PTR __imp_??4?$CStringT@DV?$StrTraitMFC_DLL@DV?$ChTraitsCRT@D@ATL@@@@@ATL@@QAEAAV01@ABV01@@Z
  000c4	8d 4d e8	 lea	 ecx, DWORD PTR $T2[ebp]
  000c7	c6 45 fc 01	 mov	 BYTE PTR __$EHRec$[ebp+8], 1
  000cb	ff 15 00 00 00
	00		 call	 DWORD PTR __imp_??1?$CStringT@DV?$StrTraitMFC_DLL@DV?$ChTraitsCRT@D@ATL@@@@@ATL@@QAE@XZ

; 841  : 	szCode = m_ListCodes.GetItemText(nItem, 1);

  000d1	6a 01		 push	 1
  000d3	ff 75 08	 push	 DWORD PTR _nItem$[ebp]
  000d6	8d 45 08	 lea	 eax, DWORD PTR $T4[ebp]
  000d9	50		 push	 eax
  000da	8d 8f e8 00 00
	00		 lea	 ecx, DWORD PTR [edi+232]
  000e0	e8 00 00 00 00	 call	 ?GetItemText@CListCtrl@@QBE?AV?$CStringT@DV?$StrTraitMFC_DLL@DV?$ChTraitsCRT@D@ATL@@@@@ATL@@HH@Z ; CListCtrl::GetItemText
  000e5	50		 push	 eax
  000e6	8d 4d ec	 lea	 ecx, DWORD PTR _szCode$[ebp]
  000e9	c6 45 fc 03	 mov	 BYTE PTR __$EHRec$[ebp+8], 3
  000ed	ff 15 00 00 00
	00		 call	 DWORD PTR __imp_??4?$CStringT@DV?$StrTraitMFC_DLL@DV?$ChTraitsCRT@D@ATL@@@@@ATL@@QAEAAV01@ABV01@@Z
  000f3	8d 4d 08	 lea	 ecx, DWORD PTR $T4[ebp]
  000f6	c6 45 fc 01	 mov	 BYTE PTR __$EHRec$[ebp+8], 1
  000fa	ff 15 00 00 00
	00		 call	 DWORD PTR __imp_??1?$CStringT@DV?$StrTraitMFC_DLL@DV?$ChTraitsCRT@D@ATL@@@@@ATL@@QAE@XZ

; 842  : 
; 843  : 	//   .
; 844  : 	int nRet = fnCheckCode(szCode, szCodeName);

  00100	ff 75 f0	 push	 DWORD PTR _szCodeName$[ebp]
  00103	8b cf		 mov	 ecx, edi
  00105	ff 75 ec	 push	 DWORD PTR _szCode$[ebp]
  00108	e8 00 00 00 00	 call	 ?fnCheckCode@CDlgCompSetup@@IAEHPBD0@Z ; CDlgCompSetup::fnCheckCode

; 845  : 	if(nRet==-1)

  0010d	83 f8 ff	 cmp	 eax, -1
  00110	75 13		 jne	 SHORT $LN5@DoAddToIte

; 846  : 	{
; 847  : 		AfxMessageBox("   .");

  00112	6a 00		 push	 0
  00114	6a 00		 push	 0
  00116	68 00 00 00 00	 push	 OFFSET ??_C@_0BP@NJDMJDP@?$MA?L?$LJ?L?5?C?$NP?$LA?$KB?$LF?G?$LO?n?5?$MA?V?$LE?B?5?A?$LO?$LI?q?$MA?T?$LE?O?$LE?Y?4@
  0011b	e8 00 00 00 00	 call	 ?AfxMessageBox@@YGHPBDII@Z ; AfxMessageBox
  00120	e9 d6 00 00 00	 jmp	 $LN17@DoAddToIte
$LN5@DoAddToIte:

; 848  : 		return;
; 849  : 	}
; 850  : 	else if(nRet==-2)

  00125	83 f8 fe	 cmp	 eax, -2			; fffffffeH
  00128	75 3b		 jne	 SHORT $LN7@DoAddToIte

; 851  : 	{
; 852  : 		CString szMsg;

  0012a	8d 4d 08	 lea	 ecx, DWORD PTR _szMsg$3[ebp]
  0012d	ff 15 00 00 00
	00		 call	 DWORD PTR __imp_??0?$CStringT@DV?$StrTraitMFC_DLL@DV?$ChTraitsCRT@D@ATL@@@@@ATL@@QAE@XZ

; 853  : 		szMsg.Format(" %d  .", MAX_ITEM_CNT);

  00133	6a 0a		 push	 10			; 0000000aH
  00135	8d 45 08	 lea	 eax, DWORD PTR _szMsg$3[ebp]
  00138	c6 45 fc 04	 mov	 BYTE PTR __$EHRec$[ebp+8], 4
  0013c	68 00 00 00 00	 push	 OFFSET ??_C@_0BP@BKPHIEFF@?C?V?$LE?k?5?$CFd?$LA?$LD?5?A?$LO?$LI?q?$LB?n?A?v?5?$LA?$KB?$LE?I?G?U?$LE?O?$LE?Y?4@
  00141	50		 push	 eax
  00142	ff 15 00 00 00
	00		 call	 DWORD PTR __imp_?Format@?$CStringT@DV?$StrTraitMFC_DLL@DV?$ChTraitsCRT@D@ATL@@@@@ATL@@QAAXPBDZZ
  00148	83 c4 0c	 add	 esp, 12			; 0000000cH

; 854  : 		AfxMessageBox(szMsg);

  0014b	6a 00		 push	 0
  0014d	6a 00		 push	 0
  0014f	ff 75 08	 push	 DWORD PTR _szMsg$3[ebp]
  00152	e8 00 00 00 00	 call	 ?AfxMessageBox@@YGHPBDII@Z ; AfxMessageBox

; 855  : 		return;

  00157	8d 4d 08	 lea	 ecx, DWORD PTR _szMsg$3[ebp]
  0015a	ff 15 00 00 00
	00		 call	 DWORD PTR __imp_??1?$CStringT@DV?$StrTraitMFC_DLL@DV?$ChTraitsCRT@D@ATL@@@@@ATL@@QAE@XZ
  00160	e9 96 00 00 00	 jmp	 $LN17@DoAddToIte
$LN7@DoAddToIte:

; 856  : 	}
; 857  : 
; 858  : 	m_bModifyFlag = TRUE;	// 
; 859  : 
; 860  : 
; 861  : 	int nI = m_ListItem.GetItemCount();

  00165	8d 8f 98 01 00
	00		 lea	 ecx, DWORD PTR [edi+408]
  0016b	c7 87 00 07 00
	00 01 00 00 00	 mov	 DWORD PTR [edi+1792], 1
  00175	e8 00 00 00 00	 call	 ?GetItemCount@CListCtrl@@QBEHXZ ; CListCtrl::GetItemCount
; File C:\Program Files (x86)\Microsoft Visual Studio\2019\Community\VC\Tools\MSVC\14.29.30133\atlmfc\include\afxcmn.inl

; 165  : 	{ ASSERT(::IsWindow(m_hWnd)); return InsertItem(LVIF_TEXT, nItem, lpszItem, 0, 0, 0, 0); }

  0017a	6a 00		 push	 0
  0017c	6a 00		 push	 0
  0017e	6a 00		 push	 0
  00180	6a 00		 push	 0
  00182	ff 75 f0	 push	 DWORD PTR _szCodeName$[ebp]
  00185	8d 8f 98 01 00
	00		 lea	 ecx, DWORD PTR [edi+408]
  0018b	50		 push	 eax
  0018c	6a 01		 push	 1
  0018e	e8 00 00 00 00	 call	 ?InsertItem@CListCtrl@@QAEHIHPBDIIHJ@Z ; CListCtrl::InsertItem
; File D:\git\src\IBK\IBK_DRFN\ProjSrc\SrcDrfn\Chart\ChartUtil\DlgCompSetup.cpp

; 863  : 	nI = m_ListItem.SetItemText(nI, 1, szCode);

  00193	ff 75 ec	 push	 DWORD PTR _szCode$[ebp]
  00196	8d 8f 98 01 00
	00		 lea	 ecx, DWORD PTR [edi+408]
  0019c	6a 01		 push	 1
  0019e	50		 push	 eax
  0019f	e8 00 00 00 00	 call	 ?SetItemText@CListCtrl@@QAEHHHPBD@Z ; CListCtrl::SetItemText

; 864  : 
; 865  : 	CDlgCompSubItem* pNewItem = new CDlgCompSubItem;

  001a4	6a 14		 push	 20			; 00000014H
  001a6	e8 00 00 00 00	 call	 ??2@YAPAXI@Z		; operator new
  001ab	83 c4 04	 add	 esp, 4
  001ae	85 c0		 test	 eax, eax
  001b0	74 0b		 je	 SHORT $LN9@DoAddToIte
  001b2	8b c8		 mov	 ecx, eax
  001b4	e8 00 00 00 00	 call	 ??0CDlgCompSubItem@@QAE@XZ
  001b9	8b f0		 mov	 esi, eax
  001bb	eb 02		 jmp	 SHORT $LN10@DoAddToIte
$LN9@DoAddToIte:
  001bd	33 f6		 xor	 esi, esi
$LN10@DoAddToIte:

; 866  : 	INIT_CDlgCompSubItemP(pNewItem);
; 867  : 	pNewItem->m_szCode = szCode;

  001bf	8d 45 ec	 lea	 eax, DWORD PTR _szCode$[ebp]
  001c2	c7 46 08 ff 00
	00 00		 mov	 DWORD PTR [esi+8], 255	; 000000ffH
  001c9	50		 push	 eax
  001ca	8b ce		 mov	 ecx, esi
  001cc	c7 46 0c 00 00
	00 00		 mov	 DWORD PTR [esi+12], 0
  001d3	c7 46 10 00 00
	00 00		 mov	 DWORD PTR [esi+16], 0
  001da	ff 15 00 00 00
	00		 call	 DWORD PTR __imp_??4?$CStringT@DV?$StrTraitMFC_DLL@DV?$ChTraitsCRT@D@ATL@@@@@ATL@@QAEAAV01@ABV01@@Z

; 868  : 	pNewItem->m_szCodeName = szCodeName;

  001e0	8d 45 f0	 lea	 eax, DWORD PTR _szCodeName$[ebp]
  001e3	50		 push	 eax
  001e4	8d 4e 04	 lea	 ecx, DWORD PTR [esi+4]
  001e7	ff 15 00 00 00
	00		 call	 DWORD PTR __imp_??4?$CStringT@DV?$StrTraitMFC_DLL@DV?$ChTraitsCRT@D@ATL@@@@@ATL@@QAEAAV01@ABV01@@Z

; 869  : 
; 870  : 	pCurSubItem->AddTail(pNewItem);

  001ed	56		 push	 esi
  001ee	8b cb		 mov	 ecx, ebx
  001f0	e8 00 00 00 00	 call	 ?AddTail@?$CList@PAVCDlgCompSubItem@@PAV1@@@QAEPAU__POSITION@@PAVCDlgCompSubItem@@@Z ; CList<CDlgCompSubItem *,CDlgCompSubItem *>::AddTail

; 871  : 	m_pCurSubItem = pNewItem;

  001f5	89 b7 d0 00 00
	00		 mov	 DWORD PTR [edi+208], esi
$LN17@DoAddToIte:

; 872  : }

  001fb	8d 4d f0	 lea	 ecx, DWORD PTR _szCodeName$[ebp]
  001fe	ff 15 00 00 00
	00		 call	 DWORD PTR __imp_??1?$CStringT@DV?$StrTraitMFC_DLL@DV?$ChTraitsCRT@D@ATL@@@@@ATL@@QAE@XZ
  00204	8d 4d ec	 lea	 ecx, DWORD PTR _szCode$[ebp]
  00207	ff 15 00 00 00
	00		 call	 DWORD PTR __imp_??1?$CStringT@DV?$StrTraitMFC_DLL@DV?$ChTraitsCRT@D@ATL@@@@@ATL@@QAE@XZ
$LN1@DoAddToIte:
  0020d	8b 4d f4	 mov	 ecx, DWORD PTR __$EHRec$[ebp]
  00210	64 89 0d 00 00
	00 00		 mov	 DWORD PTR fs:0, ecx
  00217	59		 pop	 ecx
  00218	5f		 pop	 edi
  00219	5e		 pop	 esi
  0021a	5b		 pop	 ebx
  0021b	8b e5		 mov	 esp, ebp
  0021d	5d		 pop	 ebp
  0021e	c2 04 00	 ret	 4
_TEXT	ENDS
;	COMDAT text$x
text$x	SEGMENT
__unwindfunclet$?DoAddToItem@CDlgCompSetup@@IAEXH@Z$0:
  00000	8d 4d ec	 lea	 ecx, DWORD PTR _szCode$[ebp]
  00003	ff 25 00 00 00
	00		 jmp	 DWORD PTR __imp_??1?$CStringT@DV?$StrTraitMFC_DLL@DV?$ChTraitsCRT@D@ATL@@@@@ATL@@QAE@XZ
__unwindfunclet$?DoAddToItem@CDlgCompSetup@@IAEXH@Z$1:
  00009	8d 4d f0	 lea	 ecx, DWORD PTR _szCodeName$[ebp]
  0000c	ff 25 00 00 00
	00		 jmp	 DWORD PTR __imp_??1?$CStringT@DV?$StrTraitMFC_DLL@DV?$ChTraitsCRT@D@ATL@@@@@ATL@@QAE@XZ
__unwindfunclet$?DoAddToItem@CDlgCompSetup@@IAEXH@Z$2:
  00012	8d 4d e8	 lea	 ecx, DWORD PTR $T2[ebp]
  00015	ff 25 00 00 00
	00		 jmp	 DWORD PTR __imp_??1?$CStringT@DV?$StrTraitMFC_DLL@DV?$ChTraitsCRT@D@ATL@@@@@ATL@@QAE@XZ
__unwindfunclet$?DoAddToItem@CDlgCompSetup@@IAEXH@Z$3:
  0001b	8d 4d 08	 lea	 ecx, DWORD PTR $T4[ebp]
  0001e	ff 25 00 00 00
	00		 jmp	 DWORD PTR __imp_??1?$CStringT@DV?$StrTraitMFC_DLL@DV?$ChTraitsCRT@D@ATL@@@@@ATL@@QAE@XZ
__unwindfunclet$?DoAddToItem@CDlgCompSetup@@IAEXH@Z$4:
  00024	8d 4d 08	 lea	 ecx, DWORD PTR _szMsg$3[ebp]
  00027	ff 25 00 00 00
	00		 jmp	 DWORD PTR __imp_??1?$CStringT@DV?$StrTraitMFC_DLL@DV?$ChTraitsCRT@D@ATL@@@@@ATL@@QAE@XZ
  0002d	cc		 int	 3
  0002e	cc		 int	 3
  0002f	cc		 int	 3
  00030	cc		 int	 3
  00031	cc		 int	 3
__ehhandler$?DoAddToItem@CDlgCompSetup@@IAEXH@Z:
  00032	90		 npad	 1
  00033	90		 npad	 1
  00034	8b 54 24 08	 mov	 edx, DWORD PTR [esp+8]
  00038	8d 42 0c	 lea	 eax, DWORD PTR [edx+12]
  0003b	8b 4a e4	 mov	 ecx, DWORD PTR [edx-28]
  0003e	33 c8		 xor	 ecx, eax
  00040	e8 00 00 00 00	 call	 @__security_check_cookie@4
  00045	b8 00 00 00 00	 mov	 eax, OFFSET __ehfuncinfo$?DoAddToItem@CDlgCompSetup@@IAEXH@Z
  0004a	e9 00 00 00 00	 jmp	 ___CxxFrameHandler3
text$x	ENDS
?DoAddToItem@CDlgCompSetup@@IAEXH@Z ENDP		; CDlgCompSetup::DoAddToItem
; Function compile flags: /Ogtp
; File D:\git\src\IBK\IBK_DRFN\ProjSrc\SrcDrfn\Chart\ChartUtil\DlgCompSetup.cpp
; File C:\Program Files (x86)\Microsoft Visual Studio\2019\Community\VC\Tools\MSVC\14.29.30133\atlmfc\include\afxwin2.inl
; File D:\git\src\IBK\IBK_DRFN\ProjSrc\SrcDrfn\Chart\ChartUtil\DlgCompSetup.cpp
; File C:\Program Files (x86)\Microsoft Visual Studio\2019\Community\VC\Tools\MSVC\14.29.30133\atlmfc\include\afxwin2.inl
; File D:\git\src\IBK\IBK_DRFN\ProjSrc\SrcDrfn\Chart\ChartUtil\DlgCompSetup.cpp
; File C:\Program Files (x86)\Microsoft Visual Studio\2019\Community\VC\Tools\MSVC\14.29.30133\atlmfc\include\afxwin2.inl
; File D:\git\src\IBK\IBK_DRFN\ProjSrc\SrcDrfn\Chart\ChartUtil\DlgCompSetup.cpp
;	COMDAT ?fnUpdateToMemory@CDlgCompSetup@@IAEXPAVCDlgCompSubItem@@@Z
_TEXT	SEGMENT
_pCurSubItem$ = 8					; size = 4
?fnUpdateToMemory@CDlgCompSetup@@IAEXPAVCDlgCompSubItem@@@Z PROC ; CDlgCompSetup::fnUpdateToMemory, COMDAT
; _this$ = ecx

; 967  : {

  00000	55		 push	 ebp
  00001	8b ec		 mov	 ebp, esp
  00003	53		 push	 ebx
  00004	57		 push	 edi

; 968  : 	if(!pCurSubItem)

  00005	8b 7d 08	 mov	 edi, DWORD PTR _pCurSubItem$[ebp]
  00008	8b d9		 mov	 ebx, ecx
  0000a	85 ff		 test	 edi, edi
  0000c	75 12		 jne	 SHORT $LN2@fnUpdateTo

; 969  : 	{
; 970  : 		AfxMessageBox("    ");

  0000e	57		 push	 edi
  0000f	57		 push	 edi
  00010	68 00 00 00 00	 push	 OFFSET ??_C@_0CB@GHOJNJLD@?G?v?$MA?g?5?$LO?F?$MA?L?E?$NL?5?C?$LD?$LI?$KO?$LA?$KB?5?$LF?G?$LO?n?$MA?V?A?v?5?$LO?J?$MA@
  00015	e8 00 00 00 00	 call	 ?AfxMessageBox@@YGHPBDII@Z ; AfxMessageBox
  0001a	5f		 pop	 edi

; 979  : }

  0001b	5b		 pop	 ebx
  0001c	5d		 pop	 ebp
  0001d	c2 04 00	 ret	 4
$LN2@fnUpdateTo:

; 976  : 	pCurSubItem->m_clr = m_btnTextColor.GetColor();

  00020	8d 8b 18 03 00
	00		 lea	 ecx, DWORD PTR [ebx+792]
  00026	c7 83 00 07 00
	00 01 00 00 00	 mov	 DWORD PTR [ebx+1792], 1
  00030	e8 00 00 00 00	 call	 ?GetColor@CXColourPicker@@QAEKXZ ; CXColourPicker::GetColor
; File C:\Program Files (x86)\Microsoft Visual Studio\2019\Community\VC\Tools\MSVC\14.29.30133\atlmfc\include\afxwin2.inl

; 765  : 	{ ASSERT(::IsWindow(m_hWnd)); return (int)::SendMessage(m_hWnd, CB_GETCURSEL, 0, 0); }

  00035	6a 00		 push	 0
  00037	6a 00		 push	 0
  00039	68 47 01 00 00	 push	 327			; 00000147H
; File D:\git\src\IBK\IBK_DRFN\ProjSrc\SrcDrfn\Chart\ChartUtil\DlgCompSetup.cpp

; 976  : 	pCurSubItem->m_clr = m_btnTextColor.GetColor();

  0003e	89 47 08	 mov	 DWORD PTR [edi+8], eax
; File C:\Program Files (x86)\Microsoft Visual Studio\2019\Community\VC\Tools\MSVC\14.29.30133\atlmfc\include\afxwin2.inl

; 765  : 	{ ASSERT(::IsWindow(m_hWnd)); return (int)::SendMessage(m_hWnd, CB_GETCURSEL, 0, 0); }

  00041	ff b3 e0 05 00
	00		 push	 DWORD PTR [ebx+1504]
  00047	ff 15 00 00 00
	00		 call	 DWORD PTR __imp__SendMessageA@16
  0004d	6a 00		 push	 0
  0004f	6a 00		 push	 0
  00051	68 47 01 00 00	 push	 327			; 00000147H
; File D:\git\src\IBK\IBK_DRFN\ProjSrc\SrcDrfn\Chart\ChartUtil\DlgCompSetup.cpp

; 977  : 	pCurSubItem->m_nDrawStyle = m_DrawStyle_Combo.GetCurSel();

  00056	89 47 0c	 mov	 DWORD PTR [edi+12], eax
; File C:\Program Files (x86)\Microsoft Visual Studio\2019\Community\VC\Tools\MSVC\14.29.30133\atlmfc\include\afxwin2.inl

; 765  : 	{ ASSERT(::IsWindow(m_hWnd)); return (int)::SendMessage(m_hWnd, CB_GETCURSEL, 0, 0); }

  00059	ff b3 58 05 00
	00		 push	 DWORD PTR [ebx+1368]
  0005f	ff 15 00 00 00
	00		 call	 DWORD PTR __imp__SendMessageA@16
; File D:\git\src\IBK\IBK_DRFN\ProjSrc\SrcDrfn\Chart\ChartUtil\DlgCompSetup.cpp

; 978  : 	pCurSubItem->m_nThickness = m_Thickness_Combo.GetCurSel();

  00065	89 47 10	 mov	 DWORD PTR [edi+16], eax
  00068	5f		 pop	 edi

; 979  : }

  00069	5b		 pop	 ebx
  0006a	5d		 pop	 ebp
  0006b	c2 04 00	 ret	 4
?fnUpdateToMemory@CDlgCompSetup@@IAEXPAVCDlgCompSubItem@@@Z ENDP ; CDlgCompSetup::fnUpdateToMemory
_TEXT	ENDS
; Function compile flags: /Ogtp
; File D:\git\src\IBK\IBK_DRFN\ProjSrc\SrcDrfn\Chart\ChartUtil\DlgCompSetup.cpp
; File C:\Program Files (x86)\Microsoft Visual Studio\2019\Community\VC\Tools\MSVC\14.29.30133\atlmfc\include\afxwin2.inl
; File D:\git\src\IBK\IBK_DRFN\ProjSrc\SrcDrfn\Chart\ChartUtil\DlgCompSetup.cpp
;	COMDAT ?fnUpdateToControl@CDlgCompSetup@@IAEXPAVCDlgCompSubItem@@@Z
_TEXT	SEGMENT
_pCurSubItem$ = 8					; size = 4
?fnUpdateToControl@CDlgCompSetup@@IAEXPAVCDlgCompSubItem@@@Z PROC ; CDlgCompSetup::fnUpdateToControl, COMDAT
; _this$ = ecx

; 959  : {

  00000	55		 push	 ebp
  00001	8b ec		 mov	 ebp, esp
  00003	53		 push	 ebx
  00004	57		 push	 edi

; 960  : 	SetDlgItemText(IDC_TXTTITLE, pCurSubItem->m_szCodeName);

  00005	8b 7d 08	 mov	 edi, DWORD PTR _pCurSubItem$[ebp]
  00008	8b d9		 mov	 ebx, ecx
  0000a	ff 77 04	 push	 DWORD PTR [edi+4]
  0000d	68 79 17 00 00	 push	 6009			; 00001779H
  00012	e8 00 00 00 00	 call	 ?SetDlgItemTextA@CWnd@@QAEXHPBD@Z ; CWnd::SetDlgItemTextA

; 961  : 	m_btnTextColor.SetColor(pCurSubItem->m_clr);

  00017	ff 77 08	 push	 DWORD PTR [edi+8]
  0001a	8d 8b 18 03 00
	00		 lea	 ecx, DWORD PTR [ebx+792]
  00020	e8 00 00 00 00	 call	 ?SetColor@CXColourPicker@@QAEXK@Z ; CXColourPicker::SetColor
; File C:\Program Files (x86)\Microsoft Visual Studio\2019\Community\VC\Tools\MSVC\14.29.30133\atlmfc\include\afxwin2.inl

; 767  : 	{ ASSERT(::IsWindow(m_hWnd)); return (int)::SendMessage(m_hWnd, CB_SETCURSEL, nSelect, 0); }

  00025	6a 00		 push	 0
  00027	ff 77 0c	 push	 DWORD PTR [edi+12]
  0002a	68 4e 01 00 00	 push	 334			; 0000014eH
  0002f	ff b3 e0 05 00
	00		 push	 DWORD PTR [ebx+1504]
  00035	ff 15 00 00 00
	00		 call	 DWORD PTR __imp__SendMessageA@16
  0003b	6a 00		 push	 0
  0003d	ff 77 10	 push	 DWORD PTR [edi+16]
  00040	68 4e 01 00 00	 push	 334			; 0000014eH
  00045	ff b3 58 05 00
	00		 push	 DWORD PTR [ebx+1368]
  0004b	ff 15 00 00 00
	00		 call	 DWORD PTR __imp__SendMessageA@16
  00051	5f		 pop	 edi
  00052	5b		 pop	 ebx
; File D:\git\src\IBK\IBK_DRFN\ProjSrc\SrcDrfn\Chart\ChartUtil\DlgCompSetup.cpp

; 964  : }

  00053	5d		 pop	 ebp
  00054	c2 04 00	 ret	 4
?fnUpdateToControl@CDlgCompSetup@@IAEXPAVCDlgCompSubItem@@@Z ENDP ; CDlgCompSetup::fnUpdateToControl
_TEXT	ENDS
; Function compile flags: /Ogtp
; File D:\git\src\IBK\IBK_DRFN\ProjSrc\SrcDrfn\Chart\ChartUtil\DlgCompSetup.cpp
; File C:\Program Files (x86)\Microsoft Visual Studio\2019\Community\VC\Tools\MSVC\14.29.30133\atlmfc\include\afxwin2.inl
; File D:\git\src\IBK\IBK_DRFN\ProjSrc\SrcDrfn\Chart\ChartUtil\DlgCompSetup.cpp
;	COMDAT ?fnSelectItem@CDlgCompSetup@@IAEXPAVCDlgCompSubItem@@@Z
_TEXT	SEGMENT
_pItem$ = 8						; size = 4
?fnSelectItem@CDlgCompSetup@@IAEXPAVCDlgCompSubItem@@@Z PROC ; CDlgCompSetup::fnSelectItem, COMDAT
; _this$ = ecx

; 638  : {

  00000	55		 push	 ebp
  00001	8b ec		 mov	 ebp, esp
  00003	53		 push	 ebx
  00004	57		 push	 edi

; 639  : 	if(!pItem) return;

  00005	8b 7d 08	 mov	 edi, DWORD PTR _pItem$[ebp]
  00008	8b d9		 mov	 ebx, ecx
  0000a	85 ff		 test	 edi, edi
  0000c	74 4d		 je	 SHORT $LN1@fnSelectIt

; 640  : 
; 641  : 	//    .
; 642  : 	m_pCurSubItem = pItem;

  0000e	89 bb d0 00 00
	00		 mov	 DWORD PTR [ebx+208], edi

; 960  : 	SetDlgItemText(IDC_TXTTITLE, pCurSubItem->m_szCodeName);

  00014	ff 77 04	 push	 DWORD PTR [edi+4]
  00017	68 79 17 00 00	 push	 6009			; 00001779H
  0001c	e8 00 00 00 00	 call	 ?SetDlgItemTextA@CWnd@@QAEXHPBD@Z ; CWnd::SetDlgItemTextA

; 961  : 	m_btnTextColor.SetColor(pCurSubItem->m_clr);

  00021	ff 77 08	 push	 DWORD PTR [edi+8]
  00024	8d 8b 18 03 00
	00		 lea	 ecx, DWORD PTR [ebx+792]
  0002a	e8 00 00 00 00	 call	 ?SetColor@CXColourPicker@@QAEXK@Z ; CXColourPicker::SetColor
; File C:\Program Files (x86)\Microsoft Visual Studio\2019\Community\VC\Tools\MSVC\14.29.30133\atlmfc\include\afxwin2.inl

; 767  : 	{ ASSERT(::IsWindow(m_hWnd)); return (int)::SendMessage(m_hWnd, CB_SETCURSEL, nSelect, 0); }

  0002f	6a 00		 push	 0
  00031	ff 77 0c	 push	 DWORD PTR [edi+12]
  00034	68 4e 01 00 00	 push	 334			; 0000014eH
  00039	ff b3 e0 05 00
	00		 push	 DWORD PTR [ebx+1504]
  0003f	ff 15 00 00 00
	00		 call	 DWORD PTR __imp__SendMessageA@16
  00045	6a 00		 push	 0
  00047	ff 77 10	 push	 DWORD PTR [edi+16]
  0004a	68 4e 01 00 00	 push	 334			; 0000014eH
  0004f	ff b3 58 05 00
	00		 push	 DWORD PTR [ebx+1368]
  00055	ff 15 00 00 00
	00		 call	 DWORD PTR __imp__SendMessageA@16
$LN1@fnSelectIt:
  0005b	5f		 pop	 edi
; File D:\git\src\IBK\IBK_DRFN\ProjSrc\SrcDrfn\Chart\ChartUtil\DlgCompSetup.cpp

; 648  : }

  0005c	5b		 pop	 ebx
  0005d	5d		 pop	 ebp
  0005e	c2 04 00	 ret	 4
?fnSelectItem@CDlgCompSetup@@IAEXPAVCDlgCompSubItem@@@Z ENDP ; CDlgCompSetup::fnSelectItem
_TEXT	ENDS
; Function compile flags: /Ogtp
; File D:\git\src\IBK\IBK_DRFN\ProjSrc\SrcDrfn\Chart\ChartUtil\DlgCompSetup.cpp
; File C:\Program Files (x86)\Microsoft Visual Studio\2019\Community\VC\Tools\MSVC\14.29.30133\atlmfc\include\afxwin2.inl
; File D:\git\src\IBK\IBK_DRFN\ProjSrc\SrcDrfn\Chart\ChartUtil\DlgCompSetup.cpp
; File C:\Program Files (x86)\Microsoft Visual Studio\2019\Community\VC\Tools\MSVC\14.29.30133\atlmfc\include\afxtempl.h
; File D:\git\src\IBK\IBK_DRFN\ProjSrc\SrcDrfn\Chart\ChartUtil\DlgCompSetup.cpp
; File C:\Program Files (x86)\Microsoft Visual Studio\2019\Community\VC\Tools\MSVC\14.29.30133\atlmfc\include\afxtempl.h
; File D:\git\src\IBK\IBK_DRFN\ProjSrc\SrcDrfn\Chart\ChartUtil\DlgCompSetup.cpp
; File C:\Program Files (x86)\Microsoft Visual Studio\2019\Community\VC\Tools\MSVC\14.29.30133\atlmfc\include\afxwin2.inl
; File D:\git\src\IBK\IBK_DRFN\ProjSrc\SrcDrfn\Chart\ChartUtil\DlgCompSetup.cpp
;	COMDAT ?fnSelectItem@CDlgCompSetup@@IAEXPAVCDlgCompGroupData@@H@Z
_TEXT	SEGMENT
_pGroupData$ = 8					; size = 4
_nItemSel$ = 12						; size = 4
?fnSelectItem@CDlgCompSetup@@IAEXPAVCDlgCompGroupData@@H@Z PROC ; CDlgCompSetup::fnSelectItem, COMDAT
; _this$ = ecx

; 619  : {

  00000	55		 push	 ebp
  00001	8b ec		 mov	 ebp, esp
  00003	53		 push	 ebx

; 620  : 	if(pGroupData==NULL)

  00004	8b 1d 00 00 00
	00		 mov	 ebx, DWORD PTR __imp__SendMessageA@16
  0000a	56		 push	 esi
  0000b	8b f1		 mov	 esi, ecx
  0000d	8b 4d 08	 mov	 ecx, DWORD PTR _pGroupData$[ebp]
  00010	85 c9		 test	 ecx, ecx
  00012	75 3e		 jne	 SHORT $LN42@fnSelectIt
; File C:\Program Files (x86)\Microsoft Visual Studio\2019\Community\VC\Tools\MSVC\14.29.30133\atlmfc\include\afxwin2.inl

; 666  : 	{ ASSERT(::IsWindow(m_hWnd)); return (int)::SendMessage(m_hWnd, LB_GETCURSEL, 0, 0); }

  00014	6a 00		 push	 0
  00016	6a 00		 push	 0
  00018	68 88 01 00 00	 push	 392			; 00000188H
  0001d	ff b6 38 02 00
	00		 push	 DWORD PTR [esi+568]
  00023	ff d3		 call	 ebx
; File D:\git\src\IBK\IBK_DRFN\ProjSrc\SrcDrfn\Chart\ChartUtil\DlgCompSetup.cpp

; 623  : 		if(nGroup<0) return;

  00025	85 c0		 test	 eax, eax
  00027	0f 88 91 00 00
	00		 js	 $LN21@fnSelectIt
; File C:\Program Files (x86)\Microsoft Visual Studio\2019\Community\VC\Tools\MSVC\14.29.30133\atlmfc\include\afxtempl.h

; 1133 : 	if (nIndex >= m_nCount || nIndex < 0)

  0002d	3b 86 bc 00 00
	00		 cmp	 eax, DWORD PTR [esi+188]
  00033	7d 14		 jge	 SHORT $LN13@fnSelectIt

; 1135 : 
; 1136 : 	CNode* pNode = m_pNodeHead;

  00035	8b 8e b4 00 00
	00		 mov	 ecx, DWORD PTR [esi+180]

; 1137 : 	while (nIndex--)

  0003b	85 c0		 test	 eax, eax
  0003d	74 0c		 je	 SHORT $LN9@fnSelectIt
  0003f	90		 npad	 1
$LL10@fnSelectIt:

; 1138 : 	{
; 1139 : 		ASSERT(AfxIsValidAddress(pNode, sizeof(CNode)));
; 1140 : 		pNode = pNode->pNext;

  00040	8b 09		 mov	 ecx, DWORD PTR [ecx]
  00042	83 e8 01	 sub	 eax, 1
  00045	75 f9		 jne	 SHORT $LL10@fnSelectIt

; 1141 : 	}
; 1142 : 	return (POSITION) pNode;

  00047	eb 02		 jmp	 SHORT $LN9@fnSelectIt
$LN13@fnSelectIt:

; 1134 : 		return NULL;  // went too far

  00049	33 c9		 xor	 ecx, ecx
$LN9@fnSelectIt:
; File D:\git\src\IBK\IBK_DRFN\ProjSrc\SrcDrfn\Chart\ChartUtil\DlgCompSetup.cpp

; 626  : 		pGroupData = m_GroupList.GetAt(pos);

  0004b	8b 49 08	 mov	 ecx, DWORD PTR [ecx+8]

; 627  : 	}
; 628  : 	if(pGroupData==NULL) return;

  0004e	85 c9		 test	 ecx, ecx
  00050	74 6c		 je	 SHORT $LN21@fnSelectIt
$LN42@fnSelectIt:

; 629  : 
; 630  : 	POSITION pos = pGroupData->m_ItemList.FindIndex(nItemSel);

  00052	8b 45 0c	 mov	 eax, DWORD PTR _nItemSel$[ebp]
; File C:\Program Files (x86)\Microsoft Visual Studio\2019\Community\VC\Tools\MSVC\14.29.30133\atlmfc\include\afxtempl.h

; 1133 : 	if (nIndex >= m_nCount || nIndex < 0)

  00055	3b 41 10	 cmp	 eax, DWORD PTR [ecx+16]
  00058	7d 64		 jge	 SHORT $LN21@fnSelectIt
  0005a	85 c0		 test	 eax, eax
  0005c	78 60		 js	 SHORT $LN21@fnSelectIt

; 1135 : 
; 1136 : 	CNode* pNode = m_pNodeHead;

  0005e	8b 49 08	 mov	 ecx, DWORD PTR [ecx+8]

; 1137 : 	while (nIndex--)

  00061	74 07		 je	 SHORT $LN36@fnSelectIt
$LL16@fnSelectIt:

; 1138 : 	{
; 1139 : 		ASSERT(AfxIsValidAddress(pNode, sizeof(CNode)));
; 1140 : 		pNode = pNode->pNext;

  00063	8b 09		 mov	 ecx, DWORD PTR [ecx]
  00065	83 e8 01	 sub	 eax, 1
  00068	75 f9		 jne	 SHORT $LL16@fnSelectIt
$LN36@fnSelectIt:
; File D:\git\src\IBK\IBK_DRFN\ProjSrc\SrcDrfn\Chart\ChartUtil\DlgCompSetup.cpp

; 631  : 	if(!pos) return;

  0006a	85 c9		 test	 ecx, ecx
  0006c	74 50		 je	 SHORT $LN21@fnSelectIt

; 632  : 
; 633  : 	CDlgCompSubItem* pItem = pGroupData->m_ItemList.GetAt(pos);

  0006e	57		 push	 edi
  0006f	8b 79 08	 mov	 edi, DWORD PTR [ecx+8]

; 639  : 	if(!pItem) return;

  00072	85 ff		 test	 edi, edi
  00074	74 47		 je	 SHORT $LN43@fnSelectIt

; 640  : 
; 641  : 	//    .
; 642  : 	m_pCurSubItem = pItem;

  00076	89 be d0 00 00
	00		 mov	 DWORD PTR [esi+208], edi

; 960  : 	SetDlgItemText(IDC_TXTTITLE, pCurSubItem->m_szCodeName);

  0007c	8b ce		 mov	 ecx, esi
  0007e	ff 77 04	 push	 DWORD PTR [edi+4]
  00081	68 79 17 00 00	 push	 6009			; 00001779H
  00086	e8 00 00 00 00	 call	 ?SetDlgItemTextA@CWnd@@QAEXHPBD@Z ; CWnd::SetDlgItemTextA

; 961  : 	m_btnTextColor.SetColor(pCurSubItem->m_clr);

  0008b	ff 77 08	 push	 DWORD PTR [edi+8]
  0008e	8d 8e 18 03 00
	00		 lea	 ecx, DWORD PTR [esi+792]
  00094	e8 00 00 00 00	 call	 ?SetColor@CXColourPicker@@QAEXK@Z ; CXColourPicker::SetColor
; File C:\Program Files (x86)\Microsoft Visual Studio\2019\Community\VC\Tools\MSVC\14.29.30133\atlmfc\include\afxwin2.inl

; 767  : 	{ ASSERT(::IsWindow(m_hWnd)); return (int)::SendMessage(m_hWnd, CB_SETCURSEL, nSelect, 0); }

  00099	6a 00		 push	 0
  0009b	ff 77 0c	 push	 DWORD PTR [edi+12]
  0009e	68 4e 01 00 00	 push	 334			; 0000014eH
  000a3	ff b6 e0 05 00
	00		 push	 DWORD PTR [esi+1504]
  000a9	ff d3		 call	 ebx
  000ab	6a 00		 push	 0
  000ad	ff 77 10	 push	 DWORD PTR [edi+16]
  000b0	68 4e 01 00 00	 push	 334			; 0000014eH
  000b5	ff b6 58 05 00
	00		 push	 DWORD PTR [esi+1368]
  000bb	ff d3		 call	 ebx
$LN43@fnSelectIt:
  000bd	5f		 pop	 edi
$LN21@fnSelectIt:
  000be	5e		 pop	 esi
; File D:\git\src\IBK\IBK_DRFN\ProjSrc\SrcDrfn\Chart\ChartUtil\DlgCompSetup.cpp

; 635  : }

  000bf	5b		 pop	 ebx
  000c0	5d		 pop	 ebp
  000c1	c2 08 00	 ret	 8
?fnSelectItem@CDlgCompSetup@@IAEXPAVCDlgCompGroupData@@H@Z ENDP ; CDlgCompSetup::fnSelectItem
_TEXT	ENDS
; Function compile flags: /Ogtp
; File D:\git\src\IBK\IBK_DRFN\ProjSrc\SrcDrfn\Chart\ChartUtil\DlgCompSetup.cpp
; File C:\Program Files (x86)\Microsoft Visual Studio\2019\Community\VC\Tools\MSVC\14.29.30133\atlmfc\include\afxcmn.inl
; File D:\git\src\IBK\IBK_DRFN\ProjSrc\SrcDrfn\Chart\ChartUtil\DlgCompSetup.cpp
; File C:\Program Files (x86)\Microsoft Visual Studio\2019\Community\VC\Tools\MSVC\14.29.30133\atlmfc\include\afxcmn.inl
; File D:\git\src\IBK\IBK_DRFN\ProjSrc\SrcDrfn\Chart\ChartUtil\DlgCompSetup.cpp
; File C:\Program Files (x86)\Microsoft Visual Studio\2019\Community\VC\Tools\MSVC\14.29.30133\atlmfc\include\afxtempl.h
; File D:\git\src\IBK\IBK_DRFN\ProjSrc\SrcDrfn\Chart\ChartUtil\DlgCompSetup.cpp
; File C:\Program Files (x86)\Microsoft Visual Studio\2019\Community\VC\Tools\MSVC\14.29.30133\atlmfc\include\afxtempl.h
; File C:\Program Files (x86)\Microsoft Visual Studio\2019\Community\VC\Tools\MSVC\14.29.30133\atlmfc\include\afxcmn.inl
; File D:\git\src\IBK\IBK_DRFN\ProjSrc\SrcDrfn\Chart\ChartUtil\DlgCompSetup.cpp
;	COMDAT ?fnSelectGroup@CDlgCompSetup@@IAEXH@Z
_TEXT	SEGMENT
tv314 = 8						; size = 4
_nSel$ = 8						; size = 4
?fnSelectGroup@CDlgCompSetup@@IAEXH@Z PROC		; CDlgCompSetup::fnSelectGroup, COMDAT
; _this$ = ecx

; 595  : {

  00000	55		 push	 ebp
  00001	8b ec		 mov	 ebp, esp
  00003	56		 push	 esi
; File C:\Program Files (x86)\Microsoft Visual Studio\2019\Community\VC\Tools\MSVC\14.29.30133\atlmfc\include\afxcmn.inl

; 171  : 	{ ASSERT(::IsWindow(m_hWnd)); return (BOOL) ::SendMessage(m_hWnd, LVM_DELETEALLITEMS, 0, 0L); }

  00004	6a 00		 push	 0
; File D:\git\src\IBK\IBK_DRFN\ProjSrc\SrcDrfn\Chart\ChartUtil\DlgCompSetup.cpp

; 595  : {

  00006	8b f1		 mov	 esi, ecx
; File C:\Program Files (x86)\Microsoft Visual Studio\2019\Community\VC\Tools\MSVC\14.29.30133\atlmfc\include\afxcmn.inl

; 171  : 	{ ASSERT(::IsWindow(m_hWnd)); return (BOOL) ::SendMessage(m_hWnd, LVM_DELETEALLITEMS, 0, 0L); }

  00008	6a 00		 push	 0
  0000a	68 09 10 00 00	 push	 4105			; 00001009H
  0000f	ff b6 b8 01 00
	00		 push	 DWORD PTR [esi+440]
  00015	ff 15 00 00 00
	00		 call	 DWORD PTR __imp__SendMessageA@16
; File D:\git\src\IBK\IBK_DRFN\ProjSrc\SrcDrfn\Chart\ChartUtil\DlgCompSetup.cpp

; 586  : 	pos = m_GroupList.FindIndex(nIndex);

  0001b	8b 45 08	 mov	 eax, DWORD PTR _nSel$[ebp]
; File C:\Program Files (x86)\Microsoft Visual Studio\2019\Community\VC\Tools\MSVC\14.29.30133\atlmfc\include\afxtempl.h

; 1133 : 	if (nIndex >= m_nCount || nIndex < 0)

  0001e	3b 86 bc 00 00
	00		 cmp	 eax, DWORD PTR [esi+188]
  00024	7d 6b		 jge	 SHORT $LN3@fnSelectGr
  00026	85 c0		 test	 eax, eax
  00028	78 67		 js	 SHORT $LN3@fnSelectGr

; 1134 : 		return NULL;  // went too far
; 1135 : 
; 1136 : 	CNode* pNode = m_pNodeHead;

  0002a	8b 8e b4 00 00
	00		 mov	 ecx, DWORD PTR [esi+180]

; 1137 : 	while (nIndex--)

  00030	74 07		 je	 SHORT $LN28@fnSelectGr
$LL13@fnSelectGr:

; 1138 : 	{
; 1139 : 		ASSERT(AfxIsValidAddress(pNode, sizeof(CNode)));
; 1140 : 		pNode = pNode->pNext;

  00032	8b 09		 mov	 ecx, DWORD PTR [ecx]
  00034	83 e8 01	 sub	 eax, 1
  00037	75 f9		 jne	 SHORT $LL13@fnSelectGr
$LN28@fnSelectGr:
; File D:\git\src\IBK\IBK_DRFN\ProjSrc\SrcDrfn\Chart\ChartUtil\DlgCompSetup.cpp

; 587  : 	if(pos)

  00039	85 c9		 test	 ecx, ecx
  0003b	74 54		 je	 SHORT $LN3@fnSelectGr

; 588  : 		return m_GroupList.GetAt(pos);

  0003d	57		 push	 edi
  0003e	8b 79 08	 mov	 edi, DWORD PTR [ecx+8]

; 596  : 	m_ListItem.DeleteAllItems();
; 597  : 
; 598  : 	POSITION pos=NULL;
; 599  : 	CDlgCompGroupData* pGroupData = FindGroupInfo(nSel, pos);
; 600  : 	if(!pGroupData) return;

  00041	85 ff		 test	 edi, edi
  00043	74 4b		 je	 SHORT $LN35@fnSelectGr

; 601  : 
; 602  : 	m_pCurGroup = pGroupData;

  00045	53		 push	 ebx
  00046	89 be cc 00 00
	00		 mov	 DWORD PTR [esi+204], edi

; 603  : 	int nItem=0;

  0004c	33 db		 xor	 ebx, ebx

; 604  : 	//CDlgCompSubItem* pItem0=NULL;
; 605  : 	for(POSITION tPos=pGroupData->m_ItemList.GetHeadPosition(); tPos; nItem++)

  0004e	8b 7f 08	 mov	 edi, DWORD PTR [edi+8]
  00051	85 ff		 test	 edi, edi
  00053	74 3a		 je	 SHORT $LN36@fnSelectGr
  00055	8d 8e 98 01 00
	00		 lea	 ecx, DWORD PTR [esi+408]
  0005b	89 4d 08	 mov	 DWORD PTR tv314[ebp], ecx
  0005e	66 90		 npad	 2
$LL4@fnSelectGr:

; 606  : 	{
; 607  : 		CDlgCompSubItem* pItem = pGroupData->m_ItemList.GetNext(tPos);

  00060	8b 77 08	 mov	 esi, DWORD PTR [edi+8]
; File C:\Program Files (x86)\Microsoft Visual Studio\2019\Community\VC\Tools\MSVC\14.29.30133\atlmfc\include\afxtempl.h

; 813  : 		rPosition = (POSITION) pNode->pNext;

  00063	8b 3f		 mov	 edi, DWORD PTR [edi]
; File C:\Program Files (x86)\Microsoft Visual Studio\2019\Community\VC\Tools\MSVC\14.29.30133\atlmfc\include\afxcmn.inl

; 165  : 	{ ASSERT(::IsWindow(m_hWnd)); return InsertItem(LVIF_TEXT, nItem, lpszItem, 0, 0, 0, 0); }

  00065	6a 00		 push	 0
  00067	6a 00		 push	 0
  00069	6a 00		 push	 0
  0006b	6a 00		 push	 0
  0006d	ff 76 04	 push	 DWORD PTR [esi+4]
  00070	53		 push	 ebx
  00071	6a 01		 push	 1
  00073	e8 00 00 00 00	 call	 ?InsertItem@CListCtrl@@QAEHIHPBDIIHJ@Z ; CListCtrl::InsertItem
; File D:\git\src\IBK\IBK_DRFN\ProjSrc\SrcDrfn\Chart\ChartUtil\DlgCompSetup.cpp

; 611  : 		m_ListItem.SetItemText(nItem, 1, pItem->m_szCode);

  00078	ff 36		 push	 DWORD PTR [esi]
  0007a	8b 4d 08	 mov	 ecx, DWORD PTR tv314[ebp]
  0007d	8b d8		 mov	 ebx, eax
  0007f	6a 01		 push	 1
  00081	53		 push	 ebx
  00082	e8 00 00 00 00	 call	 ?SetItemText@CListCtrl@@QAEHHHPBD@Z ; CListCtrl::SetItemText
  00087	8b 4d 08	 mov	 ecx, DWORD PTR tv314[ebp]
  0008a	43		 inc	 ebx
  0008b	85 ff		 test	 edi, edi
  0008d	75 d1		 jne	 SHORT $LL4@fnSelectGr
$LN36@fnSelectGr:
  0008f	5b		 pop	 ebx
$LN35@fnSelectGr:
  00090	5f		 pop	 edi
$LN3@fnSelectGr:
  00091	5e		 pop	 esi

; 612  : 		//m_ListItem.InsertColumn(nItem)
; 613  : 	}
; 614  : 
; 615  : 	//if(pItem0) fnSelectItem(pItem0);
; 616  : }

  00092	5d		 pop	 ebp
  00093	c2 04 00	 ret	 4
?fnSelectGroup@CDlgCompSetup@@IAEXH@Z ENDP		; CDlgCompSetup::fnSelectGroup
_TEXT	ENDS
; Function compile flags: /Ogtp
; File D:\git\src\IBK\IBK_DRFN\ProjSrc\SrcDrfn\Chart\ChartUtil\DlgCompSetup.cpp
; File D:\git\src\IBK\IBK_DRFN\ProjSrc\SrcDrfn\inc\ITreeListMng.h
; File D:\git\src\IBK\IBK_DRFN\ProjSrc\SrcDrfn\Chart\ChartUtil\DlgCompSetup.cpp
; File D:\git\src\IBK\IBK_DRFN\ProjSrc\SrcDrfn\inc\ITreeListMng.h
; File D:\git\src\IBK\IBK_DRFN\ProjSrc\SrcDrfn\Chart\ChartUtil\DlgCompSetup.cpp
;	COMDAT ?fnTreeLoad@CDlgCompSetup@@IAEXXZ
_TEXT	SEGMENT
_inData$ = -32						; size = 20
__$EHRec$ = -12						; size = 12
?fnTreeLoad@CDlgCompSetup@@IAEXXZ PROC			; CDlgCompSetup::fnTreeLoad, COMDAT
; _this$ = ecx

; 537  : {

  00000	55		 push	 ebp
  00001	8b ec		 mov	 ebp, esp
  00003	6a ff		 push	 -1
  00005	68 00 00 00 00	 push	 __ehhandler$?fnTreeLoad@CDlgCompSetup@@IAEXXZ
  0000a	64 a1 00 00 00
	00		 mov	 eax, DWORD PTR fs:0
  00010	50		 push	 eax
  00011	83 ec 14	 sub	 esp, 20			; 00000014H
  00014	56		 push	 esi
  00015	a1 00 00 00 00	 mov	 eax, DWORD PTR ___security_cookie
  0001a	33 c5		 xor	 eax, ebp
  0001c	50		 push	 eax
  0001d	8d 45 f4	 lea	 eax, DWORD PTR __$EHRec$[ebp]
  00020	64 a3 00 00 00
	00		 mov	 DWORD PTR fs:0, eax
  00026	8b f1		 mov	 esi, ecx

; 538  : 	m_pTreeListMng = (ITreeListManager2*)AfxGetPctrInterface(UUID_ITreeListManager2);

  00028	6a 1a		 push	 26			; 0000001aH
  0002a	e8 00 00 00 00	 call	 ?AfxGetPctrInterface@@YGJH@Z ; AfxGetPctrInterface
; File D:\git\src\IBK\IBK_DRFN\ProjSrc\SrcDrfn\inc\ITreeListMng.h

; 134  : 	CInputCodeList()

  0002f	8d 4d e4	 lea	 ecx, DWORD PTR _inData$[ebp+4]
; File D:\git\src\IBK\IBK_DRFN\ProjSrc\SrcDrfn\Chart\ChartUtil\DlgCompSetup.cpp

; 538  : 	m_pTreeListMng = (ITreeListManager2*)AfxGetPctrInterface(UUID_ITreeListManager2);

  00032	89 86 04 07 00
	00		 mov	 DWORD PTR [esi+1796], eax
; File D:\git\src\IBK\IBK_DRFN\ProjSrc\SrcDrfn\inc\ITreeListMng.h

; 134  : 	CInputCodeList()

  00038	ff 15 00 00 00
	00		 call	 DWORD PTR __imp_??0?$CStringT@DV?$StrTraitMFC_DLL@DV?$ChTraitsCRT@D@ATL@@@@@ATL@@QAE@XZ
  0003e	8d 4d e8	 lea	 ecx, DWORD PTR _inData$[ebp+8]
  00041	c7 45 fc 00 00
	00 00		 mov	 DWORD PTR __$EHRec$[ebp+8], 0
  00048	ff 15 00 00 00
	00		 call	 DWORD PTR __imp_??0?$CStringT@DV?$StrTraitMFC_DLL@DV?$ChTraitsCRT@D@ATL@@@@@ATL@@QAE@XZ

; 135  : 	{
; 136  : 		m_pTreeCtrl = NULL;
; 137  : 		m_szSection = "TREELIST";

  0004e	68 00 00 00 00	 push	 OFFSET ??_C@_08KDNPGENH@TREELIST@
  00053	8d 4d e8	 lea	 ecx, DWORD PTR _inData$[ebp+8]
  00056	c6 45 fc 01	 mov	 BYTE PTR __$EHRec$[ebp+8], 1
  0005a	c7 45 e0 00 00
	00 00		 mov	 DWORD PTR _inData$[ebp], 0
  00061	ff 15 00 00 00
	00		 call	 DWORD PTR __imp_??4?$CStringT@DV?$StrTraitMFC_DLL@DV?$ChTraitsCRT@D@ATL@@@@@ATL@@QAEAAV01@PBD@Z

; 160  : 		m_nCtrlType = ICLE_CTLTYPE_TREE;

  00067	c7 45 f0 00 00
	00 00		 mov	 DWORD PTR _inData$[ebp+16], 0
; File D:\git\src\IBK\IBK_DRFN\ProjSrc\SrcDrfn\Chart\ChartUtil\DlgCompSetup.cpp

; 541  : 	inData.m_pTreeCtrl = &m_treeSearch;

  0006e	8d 86 98 02 00
	00		 lea	 eax, DWORD PTR [esi+664]
  00074	c7 45 fc 02 00
	00 00		 mov	 DWORD PTR __$EHRec$[ebp+8], 2

; 542  : 	inData.m_pListCtrl = NULL;
; 543  : 	inData.m_szSection = "";

  0007b	68 00 00 00 00	 push	 OFFSET ??_C@_0L@HJJAEEML@?$LF?n?$LG?t?$LH?$PM?B?w?F?$KO@
  00080	8d 4d e8	 lea	 ecx, DWORD PTR _inData$[ebp+8]
  00083	89 45 e0	 mov	 DWORD PTR _inData$[ebp], eax
  00086	c7 45 ec 00 00
	00 00		 mov	 DWORD PTR _inData$[ebp+12], 0
  0008d	ff 15 00 00 00
	00		 call	 DWORD PTR __imp_??4?$CStringT@DV?$StrTraitMFC_DLL@DV?$ChTraitsCRT@D@ATL@@@@@ATL@@QAEAAV01@PBD@Z

; 544  : 
; 545  : 	if(m_pTreeListMng)

  00093	8b 8e 04 07 00
	00		 mov	 ecx, DWORD PTR [esi+1796]
  00099	85 c9		 test	 ecx, ecx
  0009b	74 2b		 je	 SHORT $LN2@fnTreeLoad

; 546  : 	{
; 547  : 		m_dwTreeKey = m_pTreeListMng->LoadTreeList(&inData, "");

  0009d	8b 01		 mov	 eax, DWORD PTR [ecx]
  0009f	8d 55 e0	 lea	 edx, DWORD PTR _inData$[ebp]
  000a2	68 00 00 00 00	 push	 OFFSET ??_C@_0L@HJJAEEML@?$LF?n?$LG?t?$LH?$PM?B?w?F?$KO@
  000a7	52		 push	 edx
  000a8	51		 push	 ecx
  000a9	ff 50 08	 call	 DWORD PTR [eax+8]
  000ac	89 86 0c 07 00
	00		 mov	 DWORD PTR [esi+1804], eax

; 548  : 		m_pTreeListMng->SetBaseData("SCREENCODE", "4602");

  000b2	8b 86 04 07 00
	00		 mov	 eax, DWORD PTR [esi+1796]
  000b8	68 00 00 00 00	 push	 OFFSET ??_C@_04HBCHAADI@4602@
  000bd	68 00 00 00 00	 push	 OFFSET ??_C@_0L@DIKICJIA@SCREENCODE@
  000c2	50		 push	 eax
  000c3	8b 08		 mov	 ecx, DWORD PTR [eax]
  000c5	ff 51 3c	 call	 DWORD PTR [ecx+60]
$LN2@fnTreeLoad:
  000c8	8d 4d e8	 lea	 ecx, DWORD PTR _inData$[ebp+8]
  000cb	ff 15 00 00 00
	00		 call	 DWORD PTR __imp_??1?$CStringT@DV?$StrTraitMFC_DLL@DV?$ChTraitsCRT@D@ATL@@@@@ATL@@QAE@XZ
  000d1	8d 4d e4	 lea	 ecx, DWORD PTR _inData$[ebp+4]
  000d4	ff 15 00 00 00
	00		 call	 DWORD PTR __imp_??1?$CStringT@DV?$StrTraitMFC_DLL@DV?$ChTraitsCRT@D@ATL@@@@@ATL@@QAE@XZ

; 549  : 	}
; 550  : }

  000da	8b 4d f4	 mov	 ecx, DWORD PTR __$EHRec$[ebp]
  000dd	64 89 0d 00 00
	00 00		 mov	 DWORD PTR fs:0, ecx
  000e4	59		 pop	 ecx
  000e5	5e		 pop	 esi
  000e6	8b e5		 mov	 esp, ebp
  000e8	5d		 pop	 ebp
  000e9	c3		 ret	 0
_TEXT	ENDS
;	COMDAT text$x
text$x	SEGMENT
__unwindfunclet$?fnTreeLoad@CDlgCompSetup@@IAEXXZ$2:
  00000	8d 4d e4	 lea	 ecx, DWORD PTR _inData$[ebp+4]
  00003	ff 25 00 00 00
	00		 jmp	 DWORD PTR __imp_??1?$CStringT@DV?$StrTraitMFC_DLL@DV?$ChTraitsCRT@D@ATL@@@@@ATL@@QAE@XZ
__unwindfunclet$?fnTreeLoad@CDlgCompSetup@@IAEXXZ$3:
  00009	8d 4d e8	 lea	 ecx, DWORD PTR _inData$[ebp+8]
  0000c	ff 25 00 00 00
	00		 jmp	 DWORD PTR __imp_??1?$CStringT@DV?$StrTraitMFC_DLL@DV?$ChTraitsCRT@D@ATL@@@@@ATL@@QAE@XZ
__unwindfunclet$?fnTreeLoad@CDlgCompSetup@@IAEXXZ$0:
  00012	8d 4d e0	 lea	 ecx, DWORD PTR _inData$[ebp]
  00015	e9 00 00 00 00	 jmp	 ??1CInputCodeListEx@@QAE@XZ
  0001a	cc		 int	 3
  0001b	cc		 int	 3
  0001c	cc		 int	 3
  0001d	cc		 int	 3
  0001e	cc		 int	 3
__ehhandler$?fnTreeLoad@CDlgCompSetup@@IAEXXZ:
  0001f	90		 npad	 1
  00020	90		 npad	 1
  00021	8b 54 24 08	 mov	 edx, DWORD PTR [esp+8]
  00025	8d 42 0c	 lea	 eax, DWORD PTR [edx+12]
  00028	8b 4a e4	 mov	 ecx, DWORD PTR [edx-28]
  0002b	33 c8		 xor	 ecx, eax
  0002d	e8 00 00 00 00	 call	 @__security_check_cookie@4
  00032	b8 00 00 00 00	 mov	 eax, OFFSET __ehfuncinfo$?fnTreeLoad@CDlgCompSetup@@IAEXXZ
  00037	e9 00 00 00 00	 jmp	 ___CxxFrameHandler3
text$x	ENDS
?fnTreeLoad@CDlgCompSetup@@IAEXXZ ENDP			; CDlgCompSetup::fnTreeLoad
; Function compile flags: /Ogtp
; File D:\git\src\IBK\IBK_DRFN\ProjSrc\SrcDrfn\Chart\ChartUtil\DlgCompSetup.cpp
; File C:\Program Files (x86)\Microsoft Visual Studio\2019\Community\VC\Tools\MSVC\14.29.30133\atlmfc\include\afxcmn2.inl
; File D:\git\src\IBK\IBK_DRFN\ProjSrc\SrcDrfn\Chart\ChartUtil\DlgCompSetup.cpp
; File C:\Program Files (x86)\Microsoft Visual Studio\2019\Community\VC\Tools\MSVC\14.29.30133\atlmfc\include\afxcmn2.inl
; File D:\git\src\IBK\IBK_DRFN\ProjSrc\SrcDrfn\Chart\ChartUtil\DlgCompSetup.cpp
;	COMDAT ?fnInitList@CDlgCompSetup@@IAEXXZ
_TEXT	SEGMENT
?fnInitList@CDlgCompSetup@@IAEXXZ PROC			; CDlgCompSetup::fnInitList, COMDAT
; _this$ = ecx

; 524  : {

  00000	53		 push	 ebx
  00001	56		 push	 esi

; 525  : 	m_ListItem.InsertColumn(0, ""	, LVCFMT_LEFT	, 140);

  00002	6a ff		 push	 -1
  00004	68 8c 00 00 00	 push	 140			; 0000008cH
  00009	8b d9		 mov	 ebx, ecx
  0000b	6a 00		 push	 0
  0000d	68 00 00 00 00	 push	 OFFSET ??_C@_06BGMJNGKF@?A?$LO?$LI?q?$LI?m@
  00012	6a 00		 push	 0
  00014	8d 8b 98 01 00
	00		 lea	 ecx, DWORD PTR [ebx+408]
  0001a	e8 00 00 00 00	 call	 ?InsertColumn@CListCtrl@@QAEHHPBDHHH@Z ; CListCtrl::InsertColumn

; 526  : 	m_ListItem.InsertColumn(1, ""	, LVCFMT_CENTER	, 70);

  0001f	6a ff		 push	 -1
  00021	6a 46		 push	 70			; 00000046H
  00023	6a 02		 push	 2
  00025	68 00 00 00 00	 push	 OFFSET ??_C@_04IMDNCEFG@?D?Z?$LF?e@
  0002a	6a 01		 push	 1
  0002c	8d 8b 98 01 00
	00		 lea	 ecx, DWORD PTR [ebx+408]
  00032	e8 00 00 00 00	 call	 ?InsertColumn@CListCtrl@@QAEHHPBDHHH@Z ; CListCtrl::InsertColumn
; File C:\Program Files (x86)\Microsoft Visual Studio\2019\Community\VC\Tools\MSVC\14.29.30133\atlmfc\include\afxcmn2.inl

; 117  : 	{ ASSERT(::IsWindow(m_hWnd)); return (DWORD) ::SendMessage(m_hWnd, LVM_SETEXTENDEDLISTVIEWSTYLE, 0, (LPARAM) dwNewStyle); }

  00037	68 20 40 00 00	 push	 16416			; 00004020H
  0003c	6a 00		 push	 0
  0003e	68 36 10 00 00	 push	 4150			; 00001036H
  00043	ff b3 b8 01 00
	00		 push	 DWORD PTR [ebx+440]
  00049	ff 15 00 00 00
	00		 call	 DWORD PTR __imp__SendMessageA@16
; File D:\git\src\IBK\IBK_DRFN\ProjSrc\SrcDrfn\Chart\ChartUtil\DlgCompSetup.cpp

; 529  : 	m_ListCodes.InsertColumn(0, "", LVCFMT_LEFT	, 100);

  0004f	6a ff		 push	 -1
  00051	6a 64		 push	 100			; 00000064H
  00053	6a 00		 push	 0
  00055	68 00 00 00 00	 push	 OFFSET ??_C@_06BGMJNGKF@?A?$LO?$LI?q?$LI?m@
  0005a	6a 00		 push	 0
  0005c	8d 8b e8 00 00
	00		 lea	 ecx, DWORD PTR [ebx+232]
  00062	e8 00 00 00 00	 call	 ?InsertColumn@CListCtrl@@QAEHHPBDHHH@Z ; CListCtrl::InsertColumn

; 530  : 	m_ListCodes.InsertColumn(1, ""	, LVCFMT_CENTER	, 90);

  00067	6a ff		 push	 -1
  00069	6a 5a		 push	 90			; 0000005aH
  0006b	6a 02		 push	 2
  0006d	68 00 00 00 00	 push	 OFFSET ??_C@_04IMDNCEFG@?D?Z?$LF?e@
  00072	6a 01		 push	 1
  00074	8d 8b e8 00 00
	00		 lea	 ecx, DWORD PTR [ebx+232]
  0007a	e8 00 00 00 00	 call	 ?InsertColumn@CListCtrl@@QAEHHPBDHHH@Z ; CListCtrl::InsertColumn

; 531  : //	m_ListCodes.Init_ListCtrl();
; 532  : 	m_ListCodes.SetRowHeight(15);

  0007f	6a 0f		 push	 15			; 0000000fH
  00081	8d 8b e8 00 00
	00		 lea	 ecx, DWORD PTR [ebx+232]
  00087	e8 00 00 00 00	 call	 ?SetRowHeight@CVirtualListCtrl@@QAEXF@Z ; CVirtualListCtrl::SetRowHeight
; File C:\Program Files (x86)\Microsoft Visual Studio\2019\Community\VC\Tools\MSVC\14.29.30133\atlmfc\include\afxcmn2.inl

; 117  : 	{ ASSERT(::IsWindow(m_hWnd)); return (DWORD) ::SendMessage(m_hWnd, LVM_SETEXTENDEDLISTVIEWSTYLE, 0, (LPARAM) dwNewStyle); }

  0008c	68 20 40 00 00	 push	 16416			; 00004020H
  00091	6a 00		 push	 0
  00093	68 36 10 00 00	 push	 4150			; 00001036H
  00098	ff b3 08 01 00
	00		 push	 DWORD PTR [ebx+264]
  0009e	ff 15 00 00 00
	00		 call	 DWORD PTR __imp__SendMessageA@16
  000a4	5e		 pop	 esi
  000a5	5b		 pop	 ebx
; File D:\git\src\IBK\IBK_DRFN\ProjSrc\SrcDrfn\Chart\ChartUtil\DlgCompSetup.cpp

; 534  : }

  000a6	c3		 ret	 0
?fnInitList@CDlgCompSetup@@IAEXXZ ENDP			; CDlgCompSetup::fnInitList
_TEXT	ENDS
; Function compile flags: /Ogtp
; File D:\git\src\IBK\IBK_DRFN\ProjSrc\SrcDrfn\Chart\ChartUtil\DlgCompSetup.cpp
; File C:\Program Files (x86)\Microsoft Visual Studio\2019\Community\VC\Tools\MSVC\14.29.30133\atlmfc\include\afxcmn.inl
; File D:\git\src\IBK\IBK_DRFN\ProjSrc\SrcDrfn\Chart\ChartUtil\DlgCompSetup.cpp
; File C:\Program Files (x86)\Microsoft Visual Studio\2019\Community\VC\Tools\MSVC\14.29.30133\atlmfc\include\afxtempl.h
; File D:\git\src\IBK\IBK_DRFN\ProjSrc\SrcDrfn\Chart\ChartUtil\DlgCompSetup.cpp
; File C:\Program Files (x86)\Microsoft Visual Studio\2019\Community\VC\Tools\MSVC\14.29.30133\atlmfc\include\afxtempl.h
; File D:\git\src\IBK\IBK_DRFN\ProjSrc\SrcDrfn\Chart\ChartUtil\DlgCompSetup.cpp
; File C:\Program Files (x86)\Microsoft Visual Studio\2019\Community\VC\Tools\MSVC\14.29.30133\atlmfc\include\afxtempl.h
; File C:\Program Files (x86)\Microsoft Visual Studio\2019\Community\VC\Tools\MSVC\14.29.30133\atlmfc\include\afxcmn.inl
; File D:\git\src\IBK\IBK_DRFN\ProjSrc\SrcDrfn\Chart\ChartUtil\DlgCompSetup.cpp
; File C:\Program Files (x86)\Microsoft Visual Studio\2019\Community\VC\Tools\MSVC\14.29.30133\atlmfc\include\afxtempl.h
; File D:\git\src\IBK\IBK_DRFN\ProjSrc\SrcDrfn\Chart\ChartUtil\DlgCompSetup.cpp
;	COMDAT ?ReceiveData@CTLMCallback@CDlgCompSetup@@EAGXHDJHPAX@Z
_TEXT	SEGMENT
_TypeA$1 = -24						; size = 16
__ctlState$ = -8					; size = 8
_pThis$1$ = 8						; size = 4
_this$ = 8						; size = 4
_nRtnState$ = 12					; size = 4
_this$1$ = 16						; size = 4
_aDataType$ = 16					; size = 1
_dwReserved$ = 20					; size = 4
_nLength$ = 24						; size = 4
_pData$ = 28						; size = 4
?ReceiveData@CTLMCallback@CDlgCompSetup@@EAGXHDJHPAX@Z PROC ; CDlgCompSetup::CTLMCallback::ReceiveData, COMDAT

; 769  : {

  00000	55		 push	 ebp
  00001	8b ec		 mov	 ebp, esp
  00003	83 ec 18	 sub	 esp, 24			; 00000018H

; 770  : 	//TRACE("CDlgCompSetup::CTLMCallback::ReceiveData\n");
; 771  : 
; 772  : 	if(aDataType!='A') return; //  A.

  00006	80 7d 10 41	 cmp	 BYTE PTR _aDataType$[ebp], 65 ; 00000041H
  0000a	0f 85 6a 01 00
	00		 jne	 $LN1@ReceiveDat

; 773  : 	METHOD_PROLOGUE(CDlgCompSetup, TLMCallback);

  00010	53		 push	 ebx
  00011	8b 5d 08	 mov	 ebx, DWORD PTR _this$[ebp]
  00014	8d 4d f8	 lea	 ecx, DWORD PTR __ctlState$[ebp]
  00017	81 c3 f8 f8 ff
	ff		 add	 ebx, -1800		; fffff8f8H
  0001d	56		 push	 esi
  0001e	89 5d 08	 mov	 DWORD PTR _pThis$1$[ebp], ebx
  00021	ff 73 1c	 push	 DWORD PTR [ebx+28]
  00024	e8 00 00 00 00	 call	 ??0AFX_MAINTAIN_STATE2@@QAE@PAVAFX_MODULE_STATE@@@Z ; AFX_MAINTAIN_STATE2::AFX_MAINTAIN_STATE2

; 776  : 	{
; 777  : 		LIST_CCodeTypeA *pListTypeA = (LIST_CCodeTypeA*)pData;
; 778  : 		if(pListTypeA)

  00029	8b 75 1c	 mov	 esi, DWORD PTR _pData$[ebp]
  0002c	8b 83 18 07 00
	00		 mov	 eax, DWORD PTR [ebx+1816]
  00032	85 f6		 test	 esi, esi
  00034	0f 84 36 01 00
	00		 je	 $LN12@ReceiveDat

; 774  : 
; 775  : 	if(	pThis->m_nCtrlType == 1)		// Kospi200

  0003a	83 f8 01	 cmp	 eax, 1
  0003d	74 05		 je	 SHORT $LN49@ReceiveDat

; 779  : 		{
; 780  : 			pThis->SetMasterData(pListTypeA);
; 781  : 		}
; 782  : 	}
; 783  : 	else if( pThis->m_nCtrlType == 2)	// 

  0003f	83 f8 02	 cmp	 eax, 2
  00042	75 18		 jne	 SHORT $LN9@ReceiveDat
$LN49@ReceiveDat:

; 821  : }

  00044	56		 push	 esi
  00045	8b cb		 mov	 ecx, ebx
  00047	e8 00 00 00 00	 call	 ?SetMasterData@CDlgCompSetup@@IAEXPAV?$CList@VCCodeTypeA@@V1@@@@Z ; CDlgCompSetup::SetMasterData
  0004c	8d 4d f8	 lea	 ecx, DWORD PTR __ctlState$[ebp]
  0004f	e8 00 00 00 00	 call	 ??1AFX_MAINTAIN_STATE2@@QAE@XZ ; AFX_MAINTAIN_STATE2::~AFX_MAINTAIN_STATE2
  00054	5e		 pop	 esi
  00055	5b		 pop	 ebx
  00056	8b e5		 mov	 esp, ebp
  00058	5d		 pop	 ebp
  00059	c2 18 00	 ret	 24			; 00000018H
$LN9@ReceiveDat:
  0005c	57		 push	 edi
; File C:\Program Files (x86)\Microsoft Visual Studio\2019\Community\VC\Tools\MSVC\14.29.30133\atlmfc\include\afxcmn.inl

; 171  : 	{ ASSERT(::IsWindow(m_hWnd)); return (BOOL) ::SendMessage(m_hWnd, LVM_DELETEALLITEMS, 0, 0L); }

  0005d	6a 00		 push	 0
  0005f	6a 00		 push	 0
  00061	68 09 10 00 00	 push	 4105			; 00001009H
  00066	ff b3 08 01 00
	00		 push	 DWORD PTR [ebx+264]
  0006c	ff 15 00 00 00
	00		 call	 DWORD PTR __imp__SendMessageA@16
; File D:\git\src\IBK\IBK_DRFN\ProjSrc\SrcDrfn\Chart\ChartUtil\DlgCompSetup.cpp

; 798  : 			pThis->m_ListCodes.fnUsingMemoryClear();

  00072	8d 8b e8 00 00
	00		 lea	 ecx, DWORD PTR [ebx+232]
  00078	e8 00 00 00 00	 call	 ?fnUsingMemoryClear@CVirtualListCtrl@@QAEXXZ ; CVirtualListCtrl::fnUsingMemoryClear

; 808  : 			for(POSITION pos=pListTypeA->GetHeadPosition(); pos; )

  0007d	8b 7e 04	 mov	 edi, DWORD PTR [esi+4]
  00080	85 ff		 test	 edi, edi
  00082	0f 84 d1 00 00
	00		 je	 $LN3@ReceiveDat
  00088	81 c3 78 01 00
	00		 add	 ebx, 376		; 00000178H
  0008e	89 5d 10	 mov	 DWORD PTR _this$1$[ebp], ebx
$LL2@ReceiveDat:
; File C:\Program Files (x86)\Microsoft Visual Studio\2019\Community\VC\Tools\MSVC\14.29.30133\atlmfc\include\afxtempl.h

; 811  : 	{ CNode* pNode = (CNode*) rPosition;

  00091	8d 37		 lea	 esi, DWORD PTR [edi]

; 812  : 		ASSERT(AfxIsValidAddress(pNode, sizeof(CNode)));
; 813  : 		rPosition = (POSITION) pNode->pNext;

  00093	8b 3f		 mov	 edi, DWORD PTR [edi]
  00095	c7 45 e8 00 00
	00 00		 mov	 DWORD PTR _TypeA$1[ebp], OFFSET ??_7CCodeTypeBase@@6B@
  0009c	8d 4d f0	 lea	 ecx, DWORD PTR _TypeA$1[ebp+8]
  0009f	8a 46 0c	 mov	 al, BYTE PTR [esi+12]
  000a2	88 45 ec	 mov	 BYTE PTR _TypeA$1[ebp+4], al
; File D:\git\src\IBK\IBK_DRFN\ProjSrc\SrcDrfn\Chart\ChartUtil\DlgCompSetup.cpp

; 810  : 				CCodeTypeA TypeA = pListTypeA->GetNext(pos);

  000a5	8d 46 10	 lea	 eax, DWORD PTR [esi+16]
  000a8	50		 push	 eax
  000a9	ff 15 00 00 00
	00		 call	 DWORD PTR __imp_??0?$CStringT@DV?$StrTraitMFC_DLL@DV?$ChTraitsCRT@D@ATL@@@@@ATL@@QAE@ABV01@@Z
  000af	8d 46 14	 lea	 eax, DWORD PTR [esi+20]
  000b2	50		 push	 eax
  000b3	8d 4d f4	 lea	 ecx, DWORD PTR _TypeA$1[ebp+12]
  000b6	ff 15 00 00 00
	00		 call	 DWORD PTR __imp_??0?$CStringT@DV?$StrTraitMFC_DLL@DV?$ChTraitsCRT@D@ATL@@@@@ATL@@QAE@ABV01@@Z

; 811  : 				
; 812  : 				MASTERCODE* pData = new MASTERCODE;

  000bc	6a 0c		 push	 12			; 0000000cH
  000be	c7 45 e8 00 00
	00 00		 mov	 DWORD PTR _TypeA$1[ebp], OFFSET ??_7CCodeTypeA@@6B@
  000c5	e8 00 00 00 00	 call	 ??2@YAPAXI@Z		; operator new
  000ca	8b f0		 mov	 esi, eax
  000cc	83 c4 04	 add	 esp, 4
  000cf	85 f6		 test	 esi, esi
  000d1	74 1c		 je	 SHORT $LN14@ReceiveDat
  000d3	8b ce		 mov	 ecx, esi
  000d5	ff 15 00 00 00
	00		 call	 DWORD PTR __imp_??0?$CStringT@DV?$StrTraitMFC_DLL@DV?$ChTraitsCRT@D@ATL@@@@@ATL@@QAE@XZ
  000db	8d 4e 04	 lea	 ecx, DWORD PTR [esi+4]
  000de	ff 15 00 00 00
	00		 call	 DWORD PTR __imp_??0?$CStringT@DV?$StrTraitMFC_DLL@DV?$ChTraitsCRT@D@ATL@@@@@ATL@@QAE@XZ
  000e4	8d 4e 08	 lea	 ecx, DWORD PTR [esi+8]
  000e7	ff 15 00 00 00
	00		 call	 DWORD PTR __imp_??0?$CStringT@DV?$StrTraitMFC_DLL@DV?$ChTraitsCRT@D@ATL@@@@@ATL@@QAE@XZ
  000ed	eb 02		 jmp	 SHORT $LN15@ReceiveDat
$LN14@ReceiveDat:
  000ef	33 f6		 xor	 esi, esi
$LN15@ReceiveDat:

; 813  : 				pData->strCode = TypeA.m_szcode;

  000f1	8d 45 f0	 lea	 eax, DWORD PTR _TypeA$1[ebp+8]
  000f4	8b ce		 mov	 ecx, esi
  000f6	50		 push	 eax
  000f7	ff 15 00 00 00
	00		 call	 DWORD PTR __imp_??4?$CStringT@DV?$StrTraitMFC_DLL@DV?$ChTraitsCRT@D@ATL@@@@@ATL@@QAEAAV01@ABV01@@Z

; 814  : 				pData->strKor = TypeA.m_szhname;

  000fd	8d 45 f4	 lea	 eax, DWORD PTR _TypeA$1[ebp+12]
  00100	50		 push	 eax
  00101	8d 4e 04	 lea	 ecx, DWORD PTR [esi+4]
  00104	ff 15 00 00 00
	00		 call	 DWORD PTR __imp_??4?$CStringT@DV?$StrTraitMFC_DLL@DV?$ChTraitsCRT@D@ATL@@@@@ATL@@QAEAAV01@ABV01@@Z

; 815  : 				pData->strEng = _T("");	

  0010a	68 00 00 00 00	 push	 OFFSET ??_C@_00CNPNBAHC@@
  0010f	8d 4e 08	 lea	 ecx, DWORD PTR [esi+8]
  00112	ff 15 00 00 00
	00		 call	 DWORD PTR __imp_??4?$CStringT@DV?$StrTraitMFC_DLL@DV?$ChTraitsCRT@D@ATL@@@@@ATL@@QAEAAV01@PBD@Z
; File C:\Program Files (x86)\Microsoft Visual Studio\2019\Community\VC\Tools\MSVC\14.29.30133\atlmfc\include\afxtempl.h

; 333  : 	{ INT_PTR nIndex = m_nSize;

  00118	8b 5b 08	 mov	 ebx, DWORD PTR [ebx+8]

; 538  : 	if(nIndex < 0)

  0011b	85 db		 test	 ebx, ebx
  0011d	78 61		 js	 SHORT $LN44@ReceiveDat

; 540  : 
; 541  : 	if (nIndex >= m_nSize)
; 542  : 		SetSize(nIndex+1, -1);

  0011f	8b 4d 10	 mov	 ecx, DWORD PTR _this$1$[ebp]
  00122	8d 43 01	 lea	 eax, DWORD PTR [ebx+1]
  00125	6a ff		 push	 -1
  00127	50		 push	 eax
  00128	e8 00 00 00 00	 call	 ?SetSize@?$CArray@PAU__MASTERCODE@@PAU1@@@QAEXHH@Z ; CArray<__MASTERCODE *,__MASTERCODE *>::SetSize

; 543  : 	m_pData[nIndex] = newElement;

  0012d	8b 4d 10	 mov	 ecx, DWORD PTR _this$1$[ebp]
  00130	8b 41 04	 mov	 eax, DWORD PTR [ecx+4]
  00133	8d 4d f4	 lea	 ecx, DWORD PTR _TypeA$1[ebp+12]
  00136	89 34 98	 mov	 DWORD PTR [eax+ebx*4], esi
  00139	ff 15 00 00 00
	00		 call	 DWORD PTR __imp_??1?$CStringT@DV?$StrTraitMFC_DLL@DV?$ChTraitsCRT@D@ATL@@@@@ATL@@QAE@XZ
  0013f	8d 4d f0	 lea	 ecx, DWORD PTR _TypeA$1[ebp+8]
  00142	ff 15 00 00 00
	00		 call	 DWORD PTR __imp_??1?$CStringT@DV?$StrTraitMFC_DLL@DV?$ChTraitsCRT@D@ATL@@@@@ATL@@QAE@XZ
; File D:\git\src\IBK\IBK_DRFN\ProjSrc\SrcDrfn\Chart\ChartUtil\DlgCompSetup.cpp

; 808  : 			for(POSITION pos=pListTypeA->GetHeadPosition(); pos; )

  00148	8b 5d 10	 mov	 ebx, DWORD PTR _this$1$[ebp]
  0014b	85 ff		 test	 edi, edi
  0014d	0f 85 3e ff ff
	ff		 jne	 $LL2@ReceiveDat
; File C:\Program Files (x86)\Microsoft Visual Studio\2019\Community\VC\Tools\MSVC\14.29.30133\atlmfc\include\afxtempl.h

; 538  : 	if(nIndex < 0)

  00153	8b 5d 08	 mov	 ebx, DWORD PTR _pThis$1$[ebp]
  00156	8b 75 1c	 mov	 esi, DWORD PTR _pData$[ebp]
$LN3@ReceiveDat:
; File C:\Program Files (x86)\Microsoft Visual Studio\2019\Community\VC\Tools\MSVC\14.29.30133\atlmfc\include\afxcmn.inl

; 239  : 	{ ASSERT(::IsWindow(m_hWnd)); ::SendMessage(m_hWnd, LVM_SETITEMCOUNT, nItems, 0); }

  00159	6a 00		 push	 0
  0015b	ff 76 0c	 push	 DWORD PTR [esi+12]
  0015e	68 2f 10 00 00	 push	 4143			; 0000102fH
  00163	ff b3 08 01 00
	00		 push	 DWORD PTR [ebx+264]
  00169	ff 15 00 00 00
	00		 call	 DWORD PTR __imp__SendMessageA@16
  0016f	5f		 pop	 edi
$LN12@ReceiveDat:
; File D:\git\src\IBK\IBK_DRFN\ProjSrc\SrcDrfn\Chart\ChartUtil\DlgCompSetup.cpp

; 821  : }

  00170	8d 4d f8	 lea	 ecx, DWORD PTR __ctlState$[ebp]
  00173	e8 00 00 00 00	 call	 ??1AFX_MAINTAIN_STATE2@@QAE@XZ ; AFX_MAINTAIN_STATE2::~AFX_MAINTAIN_STATE2
  00178	5e		 pop	 esi
  00179	5b		 pop	 ebx
$LN1@ReceiveDat:
  0017a	8b e5		 mov	 esp, ebp
  0017c	5d		 pop	 ebp
  0017d	c2 18 00	 ret	 24			; 00000018H
$LN44@ReceiveDat:
; File C:\Program Files (x86)\Microsoft Visual Studio\2019\Community\VC\Tools\MSVC\14.29.30133\atlmfc\include\afxtempl.h

; 539  : 		AfxThrowInvalidArgException();

  00180	e8 00 00 00 00	 call	 ?AfxThrowInvalidArgException@@YGXXZ ; AfxThrowInvalidArgException
$LN48@ReceiveDat:
  00185	cc		 int	 3
?ReceiveData@CTLMCallback@CDlgCompSetup@@EAGXHDJHPAX@Z ENDP ; CDlgCompSetup::CTLMCallback::ReceiveData
_TEXT	ENDS
; Function compile flags: /Ogtp
; File D:\git\src\IBK\IBK_DRFN\ProjSrc\SrcDrfn\Chart\ChartUtil\DlgCompSetup.cpp
; File C:\Program Files (x86)\Microsoft Visual Studio\2019\Community\VC\Tools\MSVC\14.29.30133\atlmfc\include\afxtempl.h
; File D:\git\src\IBK\IBK_DRFN\ProjSrc\SrcDrfn\Chart\ChartUtil\DlgCompSetup.cpp
; File C:\Program Files (x86)\Microsoft Visual Studio\2019\Community\VC\Tools\MSVC\14.29.30133\atlmfc\include\afxtempl.h
; File D:\git\src\IBK\IBK_DRFN\ProjSrc\SrcDrfn\Chart\ChartUtil\DlgCompSetup.cpp
;	COMDAT ?FindGroupInfo@CDlgCompSetup@@IAEPAVCDlgCompGroupData@@HAAPAU__POSITION@@@Z
_TEXT	SEGMENT
_nIndex$ = 8						; size = 4
_pos$ = 12						; size = 4
?FindGroupInfo@CDlgCompSetup@@IAEPAVCDlgCompGroupData@@HAAPAU__POSITION@@@Z PROC ; CDlgCompSetup::FindGroupInfo, COMDAT
; _this$ = ecx

; 585  : {

  00000	55		 push	 ebp
  00001	8b ec		 mov	 ebp, esp

; 586  : 	pos = m_GroupList.FindIndex(nIndex);

  00003	8b 55 08	 mov	 edx, DWORD PTR _nIndex$[ebp]
  00006	56		 push	 esi
  00007	8b 75 0c	 mov	 esi, DWORD PTR _pos$[ebp]
; File C:\Program Files (x86)\Microsoft Visual Studio\2019\Community\VC\Tools\MSVC\14.29.30133\atlmfc\include\afxtempl.h

; 1133 : 	if (nIndex >= m_nCount || nIndex < 0)

  0000a	3b 91 bc 00 00
	00		 cmp	 edx, DWORD PTR [ecx+188]
  00010	7d 23		 jge	 SHORT $LN8@FindGroupI
  00012	85 d2		 test	 edx, edx
  00014	78 1f		 js	 SHORT $LN8@FindGroupI

; 1135 : 
; 1136 : 	CNode* pNode = m_pNodeHead;

  00016	8b 81 b4 00 00
	00		 mov	 eax, DWORD PTR [ecx+180]

; 1137 : 	while (nIndex--)

  0001c	74 09		 je	 SHORT $LN11@FindGroupI
  0001e	66 90		 npad	 2
$LL5@FindGroupI:

; 1138 : 	{
; 1139 : 		ASSERT(AfxIsValidAddress(pNode, sizeof(CNode)));
; 1140 : 		pNode = pNode->pNext;

  00020	8b 00		 mov	 eax, DWORD PTR [eax]
  00022	83 ea 01	 sub	 edx, 1
  00025	75 f9		 jne	 SHORT $LL5@FindGroupI
$LN11@FindGroupI:
; File D:\git\src\IBK\IBK_DRFN\ProjSrc\SrcDrfn\Chart\ChartUtil\DlgCompSetup.cpp

; 586  : 	pos = m_GroupList.FindIndex(nIndex);

  00027	89 06		 mov	 DWORD PTR [esi], eax

; 587  : 	if(pos)

  00029	85 c0		 test	 eax, eax
  0002b	74 0e		 je	 SHORT $LN2@FindGroupI

; 588  : 		return m_GroupList.GetAt(pos);

  0002d	8b 40 08	 mov	 eax, DWORD PTR [eax+8]
  00030	5e		 pop	 esi

; 591  : }

  00031	5d		 pop	 ebp
  00032	c2 08 00	 ret	 8
$LN8@FindGroupI:
; File C:\Program Files (x86)\Microsoft Visual Studio\2019\Community\VC\Tools\MSVC\14.29.30133\atlmfc\include\afxtempl.h

; 1134 : 		return NULL;  // went too far

  00035	c7 06 00 00 00
	00		 mov	 DWORD PTR [esi], 0
$LN2@FindGroupI:
; File D:\git\src\IBK\IBK_DRFN\ProjSrc\SrcDrfn\Chart\ChartUtil\DlgCompSetup.cpp

; 590  : 	return NULL;

  0003b	33 c0		 xor	 eax, eax
  0003d	5e		 pop	 esi

; 591  : }

  0003e	5d		 pop	 ebp
  0003f	c2 08 00	 ret	 8
?FindGroupInfo@CDlgCompSetup@@IAEPAVCDlgCompGroupData@@HAAPAU__POSITION@@@Z ENDP ; CDlgCompSetup::FindGroupInfo
_TEXT	ENDS
; Function compile flags: /Ogtp
; File D:\git\src\IBK\IBK_DRFN\ProjSrc\SrcDrfn\Chart\ChartUtil\DlgCompSetup.cpp
; File C:\Program Files (x86)\Microsoft Visual Studio\2019\Community\VC\Tools\MSVC\14.29.30133\atlmfc\include\atlsimpstr.h
; File C:\Program Files (x86)\Microsoft Visual Studio\2019\Community\VC\Tools\MSVC\14.29.30133\atlmfc\include\afxtempl.h
; File C:\Program Files (x86)\Microsoft Visual Studio\2019\Community\VC\Tools\MSVC\14.29.30133\atlmfc\include\afxwin2.inl
; File D:\git\src\IBK\IBK_DRFN\ProjSrc\SrcDrfn\Chart\ChartUtil\DlgCompSetup.cpp
;	COMDAT ?InitFromLoadData@CDlgCompSetup@@IAEXXZ
_TEXT	SEGMENT
?InitFromLoadData@CDlgCompSetup@@IAEXXZ PROC		; CDlgCompSetup::InitFromLoadData, COMDAT
; _this$ = ecx

; 507  : {

  00000	56		 push	 esi
  00001	57		 push	 edi
  00002	8b f9		 mov	 edi, ecx

; 508  : 	m_nRComp	= m_dwInData->m_nBase;

  00004	8b 97 ac 00 00
	00		 mov	 edx, DWORD PTR [edi+172]

; 513  : 	for(POSITION pos=m_GroupList.GetHeadPosition(); pos;)

  0000a	8b b7 b4 00 00
	00		 mov	 esi, DWORD PTR [edi+180]
  00010	8b 42 20	 mov	 eax, DWORD PTR [edx+32]
  00013	89 87 d4 06 00
	00		 mov	 DWORD PTR [edi+1748], eax
  00019	8b 42 24	 mov	 eax, DWORD PTR [edx+36]
  0001c	89 87 c8 06 00
	00		 mov	 DWORD PTR [edi+1736], eax
  00022	8b 42 2c	 mov	 eax, DWORD PTR [edx+44]
  00025	89 87 d0 06 00
	00		 mov	 DWORD PTR [edi+1744], eax
  0002b	8b 42 28	 mov	 eax, DWORD PTR [edx+40]
  0002e	89 87 cc 06 00
	00		 mov	 DWORD PTR [edi+1740], eax
  00034	85 f6		 test	 esi, esi
  00036	74 23		 je	 SHORT $LN3@InitFromLo
  00038	53		 push	 ebx
  00039	8b 1d 00 00 00
	00		 mov	 ebx, DWORD PTR __imp__SendMessageA@16
  0003f	90		 npad	 1
$LL2@InitFromLo:
; File C:\Program Files (x86)\Microsoft Visual Studio\2019\Community\VC\Tools\MSVC\14.29.30133\atlmfc\include\atlsimpstr.h

; 377  : 		return( m_pszData );

  00040	8b 46 08	 mov	 eax, DWORD PTR [esi+8]
; File C:\Program Files (x86)\Microsoft Visual Studio\2019\Community\VC\Tools\MSVC\14.29.30133\atlmfc\include\afxtempl.h

; 813  : 		rPosition = (POSITION) pNode->pNext;

  00043	8b 36		 mov	 esi, DWORD PTR [esi]
; File C:\Program Files (x86)\Microsoft Visual Studio\2019\Community\VC\Tools\MSVC\14.29.30133\atlmfc\include\afxwin2.inl

; 725  : 	{ ASSERT(::IsWindow(m_hWnd)); return (int)::SendMessage(m_hWnd, LB_ADDSTRING, 0, (LPARAM)lpszItem); }

  00045	ff 30		 push	 DWORD PTR [eax]
  00047	6a 00		 push	 0
  00049	68 80 01 00 00	 push	 384			; 00000180H
  0004e	ff b7 38 02 00
	00		 push	 DWORD PTR [edi+568]
  00054	ff d3		 call	 ebx
; File D:\git\src\IBK\IBK_DRFN\ProjSrc\SrcDrfn\Chart\ChartUtil\DlgCompSetup.cpp

; 513  : 	for(POSITION pos=m_GroupList.GetHeadPosition(); pos;)

  00056	85 f6		 test	 esi, esi
  00058	75 e6		 jne	 SHORT $LL2@InitFromLo
  0005a	5b		 pop	 ebx
$LN3@InitFromLo:
  0005b	5f		 pop	 edi

; 514  : 	{
; 515  : 		CDlgCompGroupData* pGroupData = m_GroupList.GetNext(pos);
; 516  : 		m_ListRP.AddString(pGroupData->m_szGroupName);
; 517  : 	}
; 518  : }

  0005c	5e		 pop	 esi
  0005d	c3		 ret	 0
?InitFromLoadData@CDlgCompSetup@@IAEXXZ ENDP		; CDlgCompSetup::InitFromLoadData
_TEXT	ENDS
; Function compile flags: /Ogtp
; File D:\git\src\IBK\IBK_DRFN\ProjSrc\SrcDrfn\Chart\ChartUtil\DlgCompSetup.cpp
; File C:\Program Files (x86)\Microsoft Visual Studio\2019\Community\VC\Tools\MSVC\14.29.30133\atlmfc\include\afxwin2.inl
; File D:\git\src\IBK\IBK_DRFN\ProjSrc\SrcDrfn\Chart\ChartUtil\DlgCompSetup.cpp
; File C:\Program Files (x86)\Microsoft Visual Studio\2019\Community\VC\Tools\MSVC\14.29.30133\atlmfc\include\afxwin2.inl
; File D:\git\src\IBK\IBK_DRFN\ProjSrc\SrcDrfn\Chart\ChartUtil\DlgCompSetup.cpp
;	COMDAT ?fnCheckNoGroup@CDlgCompSetup@@IAEXXZ
_TEXT	SEGMENT
$T2 = -20						; size = 4
_szGroup$ = -16						; size = 4
__$EHRec$ = -12						; size = 12
?fnCheckNoGroup@CDlgCompSetup@@IAEXXZ PROC		; CDlgCompSetup::fnCheckNoGroup, COMDAT
; _this$ = ecx

; 1009 : {

  00000	55		 push	 ebp
  00001	8b ec		 mov	 ebp, esp
  00003	6a ff		 push	 -1
  00005	68 00 00 00 00	 push	 __ehhandler$?fnCheckNoGroup@CDlgCompSetup@@IAEXXZ
  0000a	64 a1 00 00 00
	00		 mov	 eax, DWORD PTR fs:0
  00010	50		 push	 eax
  00011	83 ec 08	 sub	 esp, 8
  00014	56		 push	 esi
  00015	57		 push	 edi
  00016	a1 00 00 00 00	 mov	 eax, DWORD PTR ___security_cookie
  0001b	33 c5		 xor	 eax, ebp
  0001d	50		 push	 eax
  0001e	8d 45 f4	 lea	 eax, DWORD PTR __$EHRec$[ebp]
  00021	64 a3 00 00 00
	00		 mov	 DWORD PTR fs:0, eax
  00027	8b f9		 mov	 edi, ecx

; 1010 : 	if(m_GroupList.GetCount()>0) return;

  00029	83 bf bc 00 00
	00 00		 cmp	 DWORD PTR [edi+188], 0
  00030	0f 8f 82 00 00
	00		 jg	 $LN1@fnCheckNoG

; 1012 : 	CString szGroup("");

  00036	68 00 00 00 00	 push	 OFFSET ??_C@_08NHOKBKDK@?$LB?b?$LK?$LL?$LB?W?$LH?l@
  0003b	8d 4d f0	 lea	 ecx, DWORD PTR _szGroup$[ebp]
  0003e	ff 15 00 00 00
	00		 call	 DWORD PTR __imp_??0?$CStringT@DV?$StrTraitMFC_DLL@DV?$ChTraitsCRT@D@ATL@@@@@ATL@@QAE@PBD@Z
; File C:\Program Files (x86)\Microsoft Visual Studio\2019\Community\VC\Tools\MSVC\14.29.30133\atlmfc\include\afxwin2.inl

; 725  : 	{ ASSERT(::IsWindow(m_hWnd)); return (int)::SendMessage(m_hWnd, LB_ADDSTRING, 0, (LPARAM)lpszItem); }

  00044	ff 75 f0	 push	 DWORD PTR _szGroup$[ebp]
  00047	8b 35 00 00 00
	00		 mov	 esi, DWORD PTR __imp__SendMessageA@16
  0004d	6a 00		 push	 0
  0004f	68 80 01 00 00	 push	 384			; 00000180H
  00054	ff b7 38 02 00
	00		 push	 DWORD PTR [edi+568]
; File D:\git\src\IBK\IBK_DRFN\ProjSrc\SrcDrfn\Chart\ChartUtil\DlgCompSetup.cpp

; 1012 : 	CString szGroup("");

  0005a	c7 45 fc 00 00
	00 00		 mov	 DWORD PTR __$EHRec$[ebp+8], 0
; File C:\Program Files (x86)\Microsoft Visual Studio\2019\Community\VC\Tools\MSVC\14.29.30133\atlmfc\include\afxwin2.inl

; 725  : 	{ ASSERT(::IsWindow(m_hWnd)); return (int)::SendMessage(m_hWnd, LB_ADDSTRING, 0, (LPARAM)lpszItem); }

  00061	ff d6		 call	 esi

; 668  : 	{ ASSERT(::IsWindow(m_hWnd)); return (int)::SendMessage(m_hWnd, LB_SETCURSEL, nSelect, 0); }

  00063	6a 00		 push	 0
  00065	50		 push	 eax
  00066	68 86 01 00 00	 push	 390			; 00000186H
  0006b	ff b7 38 02 00
	00		 push	 DWORD PTR [edi+568]
  00071	ff d6		 call	 esi
; File D:\git\src\IBK\IBK_DRFN\ProjSrc\SrcDrfn\Chart\ChartUtil\DlgCompSetup.cpp

; 1017 : 	CDlgCompGroupData* pGroupData = new CDlgCompGroupData;

  00073	6a 20		 push	 32			; 00000020H
  00075	e8 00 00 00 00	 call	 ??2@YAPAXI@Z		; operator new
  0007a	83 c4 04	 add	 esp, 4
  0007d	89 45 ec	 mov	 DWORD PTR $T2[ebp], eax
  00080	85 c0		 test	 eax, eax
  00082	74 0b		 je	 SHORT $LN4@fnCheckNoG
  00084	8b c8		 mov	 ecx, eax
  00086	e8 00 00 00 00	 call	 ??0CDlgCompGroupData@@QAE@XZ
  0008b	8b f0		 mov	 esi, eax
  0008d	eb 02		 jmp	 SHORT $LN5@fnCheckNoG
$LN4@fnCheckNoG:
  0008f	33 f6		 xor	 esi, esi
$LN5@fnCheckNoG:

; 1018 : 	pGroupData->m_szGroupName = szGroup;

  00091	8d 45 f0	 lea	 eax, DWORD PTR _szGroup$[ebp]
  00094	8b ce		 mov	 ecx, esi
  00096	50		 push	 eax
  00097	ff 15 00 00 00
	00		 call	 DWORD PTR __imp_??4?$CStringT@DV?$StrTraitMFC_DLL@DV?$ChTraitsCRT@D@ATL@@@@@ATL@@QAEAAV01@ABV01@@Z

; 1019 : 	m_GroupList.AddTail(pGroupData);

  0009d	56		 push	 esi
  0009e	8d 8f b0 00 00
	00		 lea	 ecx, DWORD PTR [edi+176]
  000a4	e8 00 00 00 00	 call	 ?AddTail@?$CList@PAVCDlgCompGroupData@@PAV1@@@QAEPAU__POSITION@@PAVCDlgCompGroupData@@@Z ; CList<CDlgCompGroupData *,CDlgCompGroupData *>::AddTail

; 1020 : 	m_pCurGroup = pGroupData;
; 1021 : }

  000a9	8d 4d f0	 lea	 ecx, DWORD PTR _szGroup$[ebp]
  000ac	89 b7 cc 00 00
	00		 mov	 DWORD PTR [edi+204], esi
  000b2	ff 15 00 00 00
	00		 call	 DWORD PTR __imp_??1?$CStringT@DV?$StrTraitMFC_DLL@DV?$ChTraitsCRT@D@ATL@@@@@ATL@@QAE@XZ
$LN1@fnCheckNoG:
  000b8	8b 4d f4	 mov	 ecx, DWORD PTR __$EHRec$[ebp]
  000bb	64 89 0d 00 00
	00 00		 mov	 DWORD PTR fs:0, ecx
  000c2	59		 pop	 ecx
  000c3	5f		 pop	 edi
  000c4	5e		 pop	 esi
  000c5	8b e5		 mov	 esp, ebp
  000c7	5d		 pop	 ebp
  000c8	c3		 ret	 0
_TEXT	ENDS
;	COMDAT text$x
text$x	SEGMENT
__unwindfunclet$?fnCheckNoGroup@CDlgCompSetup@@IAEXXZ$0:
  00000	8d 4d f0	 lea	 ecx, DWORD PTR _szGroup$[ebp]
  00003	ff 25 00 00 00
	00		 jmp	 DWORD PTR __imp_??1?$CStringT@DV?$StrTraitMFC_DLL@DV?$ChTraitsCRT@D@ATL@@@@@ATL@@QAE@XZ
  00009	cc		 int	 3
  0000a	cc		 int	 3
  0000b	cc		 int	 3
  0000c	cc		 int	 3
  0000d	cc		 int	 3
__ehhandler$?fnCheckNoGroup@CDlgCompSetup@@IAEXXZ:
  0000e	90		 npad	 1
  0000f	90		 npad	 1
  00010	8b 54 24 08	 mov	 edx, DWORD PTR [esp+8]
  00014	8d 42 0c	 lea	 eax, DWORD PTR [edx+12]
  00017	8b 4a ec	 mov	 ecx, DWORD PTR [edx-20]
  0001a	33 c8		 xor	 ecx, eax
  0001c	e8 00 00 00 00	 call	 @__security_check_cookie@4
  00021	b8 00 00 00 00	 mov	 eax, OFFSET __ehfuncinfo$?fnCheckNoGroup@CDlgCompSetup@@IAEXXZ
  00026	e9 00 00 00 00	 jmp	 ___CxxFrameHandler3
text$x	ENDS
?fnCheckNoGroup@CDlgCompSetup@@IAEXXZ ENDP		; CDlgCompSetup::fnCheckNoGroup
; Function compile flags: /Ogtp
; File D:\git\src\IBK\IBK_DRFN\ProjSrc\SrcDrfn\Chart\ChartUtil\DlgCompSetup.cpp
;	COMDAT ?GetMessageMap@CDlgCompSetup@@MBEPBUAFX_MSGMAP@@XZ
_TEXT	SEGMENT
?GetMessageMap@CDlgCompSetup@@MBEPBUAFX_MSGMAP@@XZ PROC	; CDlgCompSetup::GetMessageMap, COMDAT
; _this$ = ecx

; 86   : BEGIN_MESSAGE_MAP(CDlgCompSetup, CDialog)

  00000	b8 00 00 00 00	 mov	 eax, OFFSET ?messageMap@?1??GetThisMessageMap@CDlgCompSetup@@KGPBUAFX_MSGMAP@@XZ@4U3@B
  00005	c3		 ret	 0
?GetMessageMap@CDlgCompSetup@@MBEPBUAFX_MSGMAP@@XZ ENDP	; CDlgCompSetup::GetMessageMap
_TEXT	ENDS
; Function compile flags: /Ogtp
; File D:\git\src\IBK\IBK_DRFN\ProjSrc\SrcDrfn\Chart\ChartUtil\DlgCompSetup.cpp
;	COMDAT ?GetThisMessageMap@CDlgCompSetup@@KGPBUAFX_MSGMAP@@XZ
_TEXT	SEGMENT
?GetThisMessageMap@CDlgCompSetup@@KGPBUAFX_MSGMAP@@XZ PROC ; CDlgCompSetup::GetThisMessageMap, COMDAT

; 87   : 	//{{AFX_MSG_MAP(CDlgCompSetup)
; 88   : 	ON_BN_CLICKED(IDC_BTNGRPNEW, OnBtngrpnew)
; 89   : 	ON_BN_CLICKED(IDC_BTNGRPDEL, OnBtngrpdel)
; 90   : 	ON_BN_CLICKED(IDC_BTNGRPCHANGE, OnBtngrpchange)
; 91   : 	ON_BN_CLICKED(IDC_ARROW1, OnArrow1)
; 92   : 	ON_BN_CLICKED(IDC_ARROW2, OnArrow2)
; 93   : 	ON_BN_CLICKED(IDC_ARROW3, OnArrow3)
; 94   : 	ON_BN_CLICKED(IDC_ARROW4, OnArrow4)
; 95   : 	ON_BN_CLICKED(IDC_BTNLEFT, OnBtnleft)
; 96   : 	ON_BN_CLICKED(IDC_BTNRIGHT, OnBtnright)
; 97   : 	ON_BN_CLICKED(IDC_BTNLEFT3, OnBtnleft3)
; 98   : 	ON_BN_CLICKED(IDOK, OnOk)
; 99   : 	ON_WM_DESTROY()
; 100  : 	ON_LBN_SELCHANGE(IDC_LISTGRP, OnSelchangeListgrp)
; 101  : 	ON_NOTIFY(HDN_ITEMCHANGED, IDC_LISTITEM, OnItemchangedListitem)
; 102  : 	ON_NOTIFY(TVN_SELCHANGED, IDC_TREESEARCH, OnSelchangedTreesearch)
; 103  : 	ON_NOTIFY(NM_CLICK, IDC_LISTITEM, OnClkListItem)
; 104  : 	ON_NOTIFY(NM_DBLCLK, IDC_LISTITEM, OnDblclkListItem)
; 105  : 	ON_NOTIFY(NM_CLICK, IDC_LISTCODES, OnClkListcodes)
; 106  : 	ON_NOTIFY(NM_DBLCLK, IDC_LISTCODES, OnDblclkListcodes)
; 107  : 	ON_CBN_SELCHANGE(IDC_DRAWSTYLE, OnSelchangeDrawstyle)
; 108  : 	ON_CBN_SELCHANGE(IDC_THICKNESS, OnSelchangeThickness)
; 109  : 	ON_CBN_SELCHANGE(IDC_CMBSEL, OnSelchangeCmbsel)
; 110  : 	ON_MESSAGE(CPN_SELCHANGE, OnColorSelChange)
; 111  : 	//}}AFX_MSG_MAP
; 112  : END_MESSAGE_MAP()

  00000	b8 00 00 00 00	 mov	 eax, OFFSET ?messageMap@?1??GetThisMessageMap@CDlgCompSetup@@KGPBUAFX_MSGMAP@@XZ@4U3@B
  00005	c3		 ret	 0
?GetThisMessageMap@CDlgCompSetup@@KGPBUAFX_MSGMAP@@XZ ENDP ; CDlgCompSetup::GetThisMessageMap
_TEXT	ENDS
; Function compile flags: /Ogtp
; File D:\git\src\IBK\IBK_DRFN\ProjSrc\SrcDrfn\Chart\ChartUtil\DlgCompSetup.cpp
; File C:\Program Files (x86)\Microsoft Visual Studio\2019\Community\VC\Tools\MSVC\14.29.30133\atlmfc\include\afxwin2.inl
; File D:\git\src\IBK\IBK_DRFN\ProjSrc\SrcDrfn\Chart\ChartUtil\DlgCompSetup.cpp
; File C:\Program Files (x86)\Microsoft Visual Studio\2019\Community\VC\Tools\MSVC\14.29.30133\atlmfc\include\afxwin2.inl
; File D:\git\src\IBK\IBK_DRFN\ProjSrc\SrcDrfn\Chart\ChartUtil\DlgCompSetup.cpp
; File C:\Program Files (x86)\Microsoft Visual Studio\2019\Community\VC\Tools\MSVC\14.29.30133\atlmfc\include\afxwin2.inl
; File D:\git\src\IBK\IBK_DRFN\ProjSrc\SrcDrfn\Chart\ChartUtil\DlgCompSetup.cpp
;	COMDAT ?OnColorSelChange@CDlgCompSetup@@IAEJIJ@Z
_TEXT	SEGMENT
_wParam$ = 8						; size = 4
___formal$ = 12						; size = 4
?OnColorSelChange@CDlgCompSetup@@IAEJIJ@Z PROC		; CDlgCompSetup::OnColorSelChange, COMDAT
; _this$ = ecx

; 982  : {

  00000	53		 push	 ebx
  00001	57		 push	 edi
  00002	8b f9		 mov	 edi, ecx

; 983  : 	fnUpdateToMemory(m_pCurSubItem);

  00004	8b 9f d0 00 00
	00		 mov	 ebx, DWORD PTR [edi+208]

; 968  : 	if(!pCurSubItem)

  0000a	85 db		 test	 ebx, ebx
  0000c	75 14		 jne	 SHORT $LN4@OnColorSel

; 969  : 	{
; 970  : 		AfxMessageBox("    ");

  0000e	53		 push	 ebx
  0000f	53		 push	 ebx
  00010	68 00 00 00 00	 push	 OFFSET ??_C@_0CB@GHOJNJLD@?G?v?$MA?g?5?$LO?F?$MA?L?E?$NL?5?C?$LD?$LI?$KO?$LA?$KB?5?$LF?G?$LO?n?$MA?V?A?v?5?$LO?J?$MA@
  00015	e8 00 00 00 00	 call	 ?AfxMessageBox@@YGHPBDII@Z ; AfxMessageBox
  0001a	5f		 pop	 edi

; 984  : 	return TRUE;
; 985  : }

  0001b	8d 43 01	 lea	 eax, DWORD PTR [ebx+1]
  0001e	5b		 pop	 ebx
  0001f	c2 08 00	 ret	 8
$LN4@OnColorSel:

; 976  : 	pCurSubItem->m_clr = m_btnTextColor.GetColor();

  00022	8d 8f 18 03 00
	00		 lea	 ecx, DWORD PTR [edi+792]
  00028	c7 87 00 07 00
	00 01 00 00 00	 mov	 DWORD PTR [edi+1792], 1
  00032	e8 00 00 00 00	 call	 ?GetColor@CXColourPicker@@QAEKXZ ; CXColourPicker::GetColor
; File C:\Program Files (x86)\Microsoft Visual Studio\2019\Community\VC\Tools\MSVC\14.29.30133\atlmfc\include\afxwin2.inl

; 765  : 	{ ASSERT(::IsWindow(m_hWnd)); return (int)::SendMessage(m_hWnd, CB_GETCURSEL, 0, 0); }

  00037	6a 00		 push	 0
  00039	6a 00		 push	 0
  0003b	68 47 01 00 00	 push	 327			; 00000147H
; File D:\git\src\IBK\IBK_DRFN\ProjSrc\SrcDrfn\Chart\ChartUtil\DlgCompSetup.cpp

; 976  : 	pCurSubItem->m_clr = m_btnTextColor.GetColor();

  00040	89 43 08	 mov	 DWORD PTR [ebx+8], eax
; File C:\Program Files (x86)\Microsoft Visual Studio\2019\Community\VC\Tools\MSVC\14.29.30133\atlmfc\include\afxwin2.inl

; 765  : 	{ ASSERT(::IsWindow(m_hWnd)); return (int)::SendMessage(m_hWnd, CB_GETCURSEL, 0, 0); }

  00043	ff b7 e0 05 00
	00		 push	 DWORD PTR [edi+1504]
  00049	ff 15 00 00 00
	00		 call	 DWORD PTR __imp__SendMessageA@16
  0004f	6a 00		 push	 0
  00051	6a 00		 push	 0
  00053	68 47 01 00 00	 push	 327			; 00000147H
; File D:\git\src\IBK\IBK_DRFN\ProjSrc\SrcDrfn\Chart\ChartUtil\DlgCompSetup.cpp

; 977  : 	pCurSubItem->m_nDrawStyle = m_DrawStyle_Combo.GetCurSel();

  00058	89 43 0c	 mov	 DWORD PTR [ebx+12], eax
; File C:\Program Files (x86)\Microsoft Visual Studio\2019\Community\VC\Tools\MSVC\14.29.30133\atlmfc\include\afxwin2.inl

; 765  : 	{ ASSERT(::IsWindow(m_hWnd)); return (int)::SendMessage(m_hWnd, CB_GETCURSEL, 0, 0); }

  0005b	ff b7 58 05 00
	00		 push	 DWORD PTR [edi+1368]
  00061	ff 15 00 00 00
	00		 call	 DWORD PTR __imp__SendMessageA@16
; File D:\git\src\IBK\IBK_DRFN\ProjSrc\SrcDrfn\Chart\ChartUtil\DlgCompSetup.cpp

; 978  : 	pCurSubItem->m_nThickness = m_Thickness_Combo.GetCurSel();

  00067	89 43 10	 mov	 DWORD PTR [ebx+16], eax

; 984  : 	return TRUE;
; 985  : }

  0006a	b8 01 00 00 00	 mov	 eax, 1
  0006f	5f		 pop	 edi
  00070	5b		 pop	 ebx
  00071	c2 08 00	 ret	 8
?OnColorSelChange@CDlgCompSetup@@IAEJIJ@Z ENDP		; CDlgCompSetup::OnColorSelChange
_TEXT	ENDS
; Function compile flags: /Ogtp
; File D:\git\src\IBK\IBK_DRFN\ProjSrc\SrcDrfn\Chart\ChartUtil\DlgCompSetup.cpp
; File C:\Program Files (x86)\Microsoft Visual Studio\2019\Community\VC\Tools\MSVC\14.29.30133\atlmfc\include\afxwin2.inl
; File D:\git\src\IBK\IBK_DRFN\ProjSrc\SrcDrfn\Chart\ChartUtil\DlgCompSetup.cpp
;	COMDAT ?OnSelchangeCmbsel@CDlgCompSetup@@IAEXXZ
_TEXT	SEGMENT
_rString$ = -16						; size = 4
__$EHRec$ = -12						; size = 12
?OnSelchangeCmbsel@CDlgCompSetup@@IAEXXZ PROC		; CDlgCompSetup::OnSelchangeCmbsel, COMDAT
; _this$ = ecx

; 999  : {

  00000	55		 push	 ebp
  00001	8b ec		 mov	 ebp, esp
  00003	6a ff		 push	 -1
  00005	68 00 00 00 00	 push	 __ehhandler$?OnSelchangeCmbsel@CDlgCompSetup@@IAEXXZ
  0000a	64 a1 00 00 00
	00		 mov	 eax, DWORD PTR fs:0
  00010	50		 push	 eax
  00011	51		 push	 ecx
  00012	56		 push	 esi
  00013	57		 push	 edi
  00014	a1 00 00 00 00	 mov	 eax, DWORD PTR ___security_cookie
  00019	33 c5		 xor	 eax, ebp
  0001b	50		 push	 eax
  0001c	8d 45 f4	 lea	 eax, DWORD PTR __$EHRec$[ebp]
  0001f	64 a3 00 00 00
	00		 mov	 DWORD PTR fs:0, eax
  00025	8b f9		 mov	 edi, ecx
; File C:\Program Files (x86)\Microsoft Visual Studio\2019\Community\VC\Tools\MSVC\14.29.30133\atlmfc\include\afxwin2.inl

; 765  : 	{ ASSERT(::IsWindow(m_hWnd)); return (int)::SendMessage(m_hWnd, CB_GETCURSEL, 0, 0); }

  00027	6a 00		 push	 0
  00029	6a 00		 push	 0
  0002b	68 47 01 00 00	 push	 327			; 00000147H
  00030	ff b7 68 06 00
	00		 push	 DWORD PTR [edi+1640]
  00036	ff 15 00 00 00
	00		 call	 DWORD PTR __imp__SendMessageA@16
; File D:\git\src\IBK\IBK_DRFN\ProjSrc\SrcDrfn\Chart\ChartUtil\DlgCompSetup.cpp

; 1001 : 	CString rString;

  0003c	8d 4d f0	 lea	 ecx, DWORD PTR _rString$[ebp]
  0003f	8b f0		 mov	 esi, eax
  00041	ff 15 00 00 00
	00		 call	 DWORD PTR __imp_??0?$CStringT@DV?$StrTraitMFC_DLL@DV?$ChTraitsCRT@D@ATL@@@@@ATL@@QAE@XZ

; 1002 : 	m_CmbSel_Combo.GetLBText(nSel, rString);

  00047	8d 45 f0	 lea	 eax, DWORD PTR _rString$[ebp]
  0004a	c7 45 fc 00 00
	00 00		 mov	 DWORD PTR __$EHRec$[ebp+8], 0
  00051	50		 push	 eax
  00052	56		 push	 esi
  00053	8d 8f 48 06 00
	00		 lea	 ecx, DWORD PTR [edi+1608]
  00059	e8 00 00 00 00	 call	 ?GetLBText@CComboBox@@QBEXHAAV?$CStringT@DV?$StrTraitMFC_DLL@DV?$ChTraitsCRT@D@ATL@@@@@ATL@@@Z ; CComboBox::GetLBText

; 1003 : 
; 1004 : 	DoFindEdtName(rString);

  0005e	ff 75 f0	 push	 DWORD PTR _rString$[ebp]
  00061	8b cf		 mov	 ecx, edi
  00063	e8 00 00 00 00	 call	 ?DoFindEdtName@CDlgCompSetup@@IAEXPBD@Z ; CDlgCompSetup::DoFindEdtName

; 1005 : }

  00068	8d 4d f0	 lea	 ecx, DWORD PTR _rString$[ebp]
  0006b	ff 15 00 00 00
	00		 call	 DWORD PTR __imp_??1?$CStringT@DV?$StrTraitMFC_DLL@DV?$ChTraitsCRT@D@ATL@@@@@ATL@@QAE@XZ
  00071	8b 4d f4	 mov	 ecx, DWORD PTR __$EHRec$[ebp]
  00074	64 89 0d 00 00
	00 00		 mov	 DWORD PTR fs:0, ecx
  0007b	59		 pop	 ecx
  0007c	5f		 pop	 edi
  0007d	5e		 pop	 esi
  0007e	8b e5		 mov	 esp, ebp
  00080	5d		 pop	 ebp
  00081	c3		 ret	 0
_TEXT	ENDS
;	COMDAT text$x
text$x	SEGMENT
__unwindfunclet$?OnSelchangeCmbsel@CDlgCompSetup@@IAEXXZ$0:
  00000	8d 4d f0	 lea	 ecx, DWORD PTR _rString$[ebp]
  00003	ff 25 00 00 00
	00		 jmp	 DWORD PTR __imp_??1?$CStringT@DV?$StrTraitMFC_DLL@DV?$ChTraitsCRT@D@ATL@@@@@ATL@@QAE@XZ
  00009	cc		 int	 3
  0000a	cc		 int	 3
  0000b	cc		 int	 3
  0000c	cc		 int	 3
  0000d	cc		 int	 3
__ehhandler$?OnSelchangeCmbsel@CDlgCompSetup@@IAEXXZ:
  0000e	90		 npad	 1
  0000f	90		 npad	 1
  00010	8b 54 24 08	 mov	 edx, DWORD PTR [esp+8]
  00014	8d 42 0c	 lea	 eax, DWORD PTR [edx+12]
  00017	8b 4a f0	 mov	 ecx, DWORD PTR [edx-16]
  0001a	33 c8		 xor	 ecx, eax
  0001c	e8 00 00 00 00	 call	 @__security_check_cookie@4
  00021	b8 00 00 00 00	 mov	 eax, OFFSET __ehfuncinfo$?OnSelchangeCmbsel@CDlgCompSetup@@IAEXXZ
  00026	e9 00 00 00 00	 jmp	 ___CxxFrameHandler3
text$x	ENDS
?OnSelchangeCmbsel@CDlgCompSetup@@IAEXXZ ENDP		; CDlgCompSetup::OnSelchangeCmbsel
; Function compile flags: /Ogtp
; File D:\git\src\IBK\IBK_DRFN\ProjSrc\SrcDrfn\Chart\ChartUtil\DlgCompSetup.cpp
; File C:\Program Files (x86)\Microsoft Visual Studio\2019\Community\VC\Tools\MSVC\14.29.30133\atlmfc\include\afxwin2.inl
; File D:\git\src\IBK\IBK_DRFN\ProjSrc\SrcDrfn\Chart\ChartUtil\DlgCompSetup.cpp
; File C:\Program Files (x86)\Microsoft Visual Studio\2019\Community\VC\Tools\MSVC\14.29.30133\atlmfc\include\afxwin2.inl
; File D:\git\src\IBK\IBK_DRFN\ProjSrc\SrcDrfn\Chart\ChartUtil\DlgCompSetup.cpp
; File C:\Program Files (x86)\Microsoft Visual Studio\2019\Community\VC\Tools\MSVC\14.29.30133\atlmfc\include\afxwin2.inl
; File D:\git\src\IBK\IBK_DRFN\ProjSrc\SrcDrfn\Chart\ChartUtil\DlgCompSetup.cpp
;	COMDAT ?OnSelchangeThickness@CDlgCompSetup@@IAEXXZ
_TEXT	SEGMENT
?OnSelchangeThickness@CDlgCompSetup@@IAEXXZ PROC	; CDlgCompSetup::OnSelchangeThickness, COMDAT
; _this$ = ecx

; 994  : {

  00000	53		 push	 ebx
  00001	57		 push	 edi
  00002	8b f9		 mov	 edi, ecx

; 995  : 	fnUpdateToMemory(m_pCurSubItem);

  00004	8b 9f d0 00 00
	00		 mov	 ebx, DWORD PTR [edi+208]

; 968  : 	if(!pCurSubItem)

  0000a	85 db		 test	 ebx, ebx
  0000c	75 0f		 jne	 SHORT $LN4@OnSelchang

; 969  : 	{
; 970  : 		AfxMessageBox("    ");

  0000e	53		 push	 ebx
  0000f	53		 push	 ebx
  00010	68 00 00 00 00	 push	 OFFSET ??_C@_0CB@GHOJNJLD@?G?v?$MA?g?5?$LO?F?$MA?L?E?$NL?5?C?$LD?$LI?$KO?$LA?$KB?5?$LF?G?$LO?n?$MA?V?A?v?5?$LO?J?$MA@
  00015	e8 00 00 00 00	 call	 ?AfxMessageBox@@YGHPBDII@Z ; AfxMessageBox
  0001a	5f		 pop	 edi

; 996  : }

  0001b	5b		 pop	 ebx
  0001c	c3		 ret	 0
$LN4@OnSelchang:

; 976  : 	pCurSubItem->m_clr = m_btnTextColor.GetColor();

  0001d	8d 8f 18 03 00
	00		 lea	 ecx, DWORD PTR [edi+792]
  00023	c7 87 00 07 00
	00 01 00 00 00	 mov	 DWORD PTR [edi+1792], 1
  0002d	e8 00 00 00 00	 call	 ?GetColor@CXColourPicker@@QAEKXZ ; CXColourPicker::GetColor
; File C:\Program Files (x86)\Microsoft Visual Studio\2019\Community\VC\Tools\MSVC\14.29.30133\atlmfc\include\afxwin2.inl

; 765  : 	{ ASSERT(::IsWindow(m_hWnd)); return (int)::SendMessage(m_hWnd, CB_GETCURSEL, 0, 0); }

  00032	6a 00		 push	 0
  00034	6a 00		 push	 0
  00036	68 47 01 00 00	 push	 327			; 00000147H
; File D:\git\src\IBK\IBK_DRFN\ProjSrc\SrcDrfn\Chart\ChartUtil\DlgCompSetup.cpp

; 976  : 	pCurSubItem->m_clr = m_btnTextColor.GetColor();

  0003b	89 43 08	 mov	 DWORD PTR [ebx+8], eax
; File C:\Program Files (x86)\Microsoft Visual Studio\2019\Community\VC\Tools\MSVC\14.29.30133\atlmfc\include\afxwin2.inl

; 765  : 	{ ASSERT(::IsWindow(m_hWnd)); return (int)::SendMessage(m_hWnd, CB_GETCURSEL, 0, 0); }

  0003e	ff b7 e0 05 00
	00		 push	 DWORD PTR [edi+1504]
  00044	ff 15 00 00 00
	00		 call	 DWORD PTR __imp__SendMessageA@16
  0004a	6a 00		 push	 0
  0004c	6a 00		 push	 0
  0004e	68 47 01 00 00	 push	 327			; 00000147H
; File D:\git\src\IBK\IBK_DRFN\ProjSrc\SrcDrfn\Chart\ChartUtil\DlgCompSetup.cpp

; 977  : 	pCurSubItem->m_nDrawStyle = m_DrawStyle_Combo.GetCurSel();

  00053	89 43 0c	 mov	 DWORD PTR [ebx+12], eax
; File C:\Program Files (x86)\Microsoft Visual Studio\2019\Community\VC\Tools\MSVC\14.29.30133\atlmfc\include\afxwin2.inl

; 765  : 	{ ASSERT(::IsWindow(m_hWnd)); return (int)::SendMessage(m_hWnd, CB_GETCURSEL, 0, 0); }

  00056	ff b7 58 05 00
	00		 push	 DWORD PTR [edi+1368]
  0005c	ff 15 00 00 00
	00		 call	 DWORD PTR __imp__SendMessageA@16
  00062	5f		 pop	 edi
; File D:\git\src\IBK\IBK_DRFN\ProjSrc\SrcDrfn\Chart\ChartUtil\DlgCompSetup.cpp

; 978  : 	pCurSubItem->m_nThickness = m_Thickness_Combo.GetCurSel();

  00063	89 43 10	 mov	 DWORD PTR [ebx+16], eax

; 996  : }

  00066	5b		 pop	 ebx
  00067	c3		 ret	 0
?OnSelchangeThickness@CDlgCompSetup@@IAEXXZ ENDP	; CDlgCompSetup::OnSelchangeThickness
_TEXT	ENDS
; Function compile flags: /Ogtp
; File D:\git\src\IBK\IBK_DRFN\ProjSrc\SrcDrfn\Chart\ChartUtil\DlgCompSetup.cpp
; File C:\Program Files (x86)\Microsoft Visual Studio\2019\Community\VC\Tools\MSVC\14.29.30133\atlmfc\include\afxwin2.inl
; File D:\git\src\IBK\IBK_DRFN\ProjSrc\SrcDrfn\Chart\ChartUtil\DlgCompSetup.cpp
; File C:\Program Files (x86)\Microsoft Visual Studio\2019\Community\VC\Tools\MSVC\14.29.30133\atlmfc\include\afxwin2.inl
; File D:\git\src\IBK\IBK_DRFN\ProjSrc\SrcDrfn\Chart\ChartUtil\DlgCompSetup.cpp
; File C:\Program Files (x86)\Microsoft Visual Studio\2019\Community\VC\Tools\MSVC\14.29.30133\atlmfc\include\afxwin2.inl
; File D:\git\src\IBK\IBK_DRFN\ProjSrc\SrcDrfn\Chart\ChartUtil\DlgCompSetup.cpp
;	COMDAT ?OnSelchangeDrawstyle@CDlgCompSetup@@IAEXXZ
_TEXT	SEGMENT
?OnSelchangeDrawstyle@CDlgCompSetup@@IAEXXZ PROC	; CDlgCompSetup::OnSelchangeDrawstyle, COMDAT
; _this$ = ecx

; 989  : {

  00000	53		 push	 ebx
  00001	57		 push	 edi
  00002	8b f9		 mov	 edi, ecx

; 990  : 	fnUpdateToMemory(m_pCurSubItem);

  00004	8b 9f d0 00 00
	00		 mov	 ebx, DWORD PTR [edi+208]

; 968  : 	if(!pCurSubItem)

  0000a	85 db		 test	 ebx, ebx
  0000c	75 0f		 jne	 SHORT $LN4@OnSelchang

; 969  : 	{
; 970  : 		AfxMessageBox("    ");

  0000e	53		 push	 ebx
  0000f	53		 push	 ebx
  00010	68 00 00 00 00	 push	 OFFSET ??_C@_0CB@GHOJNJLD@?G?v?$MA?g?5?$LO?F?$MA?L?E?$NL?5?C?$LD?$LI?$KO?$LA?$KB?5?$LF?G?$LO?n?$MA?V?A?v?5?$LO?J?$MA@
  00015	e8 00 00 00 00	 call	 ?AfxMessageBox@@YGHPBDII@Z ; AfxMessageBox
  0001a	5f		 pop	 edi

; 991  : }

  0001b	5b		 pop	 ebx
  0001c	c3		 ret	 0
$LN4@OnSelchang:

; 976  : 	pCurSubItem->m_clr = m_btnTextColor.GetColor();

  0001d	8d 8f 18 03 00
	00		 lea	 ecx, DWORD PTR [edi+792]
  00023	c7 87 00 07 00
	00 01 00 00 00	 mov	 DWORD PTR [edi+1792], 1
  0002d	e8 00 00 00 00	 call	 ?GetColor@CXColourPicker@@QAEKXZ ; CXColourPicker::GetColor
; File C:\Program Files (x86)\Microsoft Visual Studio\2019\Community\VC\Tools\MSVC\14.29.30133\atlmfc\include\afxwin2.inl

; 765  : 	{ ASSERT(::IsWindow(m_hWnd)); return (int)::SendMessage(m_hWnd, CB_GETCURSEL, 0, 0); }

  00032	6a 00		 push	 0
  00034	6a 00		 push	 0
  00036	68 47 01 00 00	 push	 327			; 00000147H
; File D:\git\src\IBK\IBK_DRFN\ProjSrc\SrcDrfn\Chart\ChartUtil\DlgCompSetup.cpp

; 976  : 	pCurSubItem->m_clr = m_btnTextColor.GetColor();

  0003b	89 43 08	 mov	 DWORD PTR [ebx+8], eax
; File C:\Program Files (x86)\Microsoft Visual Studio\2019\Community\VC\Tools\MSVC\14.29.30133\atlmfc\include\afxwin2.inl

; 765  : 	{ ASSERT(::IsWindow(m_hWnd)); return (int)::SendMessage(m_hWnd, CB_GETCURSEL, 0, 0); }

  0003e	ff b7 e0 05 00
	00		 push	 DWORD PTR [edi+1504]
  00044	ff 15 00 00 00
	00		 call	 DWORD PTR __imp__SendMessageA@16
  0004a	6a 00		 push	 0
  0004c	6a 00		 push	 0
  0004e	68 47 01 00 00	 push	 327			; 00000147H
; File D:\git\src\IBK\IBK_DRFN\ProjSrc\SrcDrfn\Chart\ChartUtil\DlgCompSetup.cpp

; 977  : 	pCurSubItem->m_nDrawStyle = m_DrawStyle_Combo.GetCurSel();

  00053	89 43 0c	 mov	 DWORD PTR [ebx+12], eax
; File C:\Program Files (x86)\Microsoft Visual Studio\2019\Community\VC\Tools\MSVC\14.29.30133\atlmfc\include\afxwin2.inl

; 765  : 	{ ASSERT(::IsWindow(m_hWnd)); return (int)::SendMessage(m_hWnd, CB_GETCURSEL, 0, 0); }

  00056	ff b7 58 05 00
	00		 push	 DWORD PTR [edi+1368]
  0005c	ff 15 00 00 00
	00		 call	 DWORD PTR __imp__SendMessageA@16
  00062	5f		 pop	 edi
; File D:\git\src\IBK\IBK_DRFN\ProjSrc\SrcDrfn\Chart\ChartUtil\DlgCompSetup.cpp

; 978  : 	pCurSubItem->m_nThickness = m_Thickness_Combo.GetCurSel();

  00063	89 43 10	 mov	 DWORD PTR [ebx+16], eax

; 991  : }

  00066	5b		 pop	 ebx
  00067	c3		 ret	 0
?OnSelchangeDrawstyle@CDlgCompSetup@@IAEXXZ ENDP	; CDlgCompSetup::OnSelchangeDrawstyle
_TEXT	ENDS
; Function compile flags: /Ogtp
; File D:\git\src\IBK\IBK_DRFN\ProjSrc\SrcDrfn\Chart\ChartUtil\DlgCompSetup.cpp
;	COMDAT ?OnDblclkListcodes@CDlgCompSetup@@IAEXPAUtagNMHDR@@PAJ@Z
_TEXT	SEGMENT
_pNMHDR$ = 8						; size = 4
_pResult$ = 12						; size = 4
?OnDblclkListcodes@CDlgCompSetup@@IAEXPAUtagNMHDR@@PAJ@Z PROC ; CDlgCompSetup::OnDblclkListcodes, COMDAT
; _this$ = ecx

; 759  : {

  00000	55		 push	 ebp
  00001	8b ec		 mov	 ebp, esp

; 760  : 	NM_LISTVIEW* pNMListView = (NM_LISTVIEW*)pNMHDR;
; 761  : 
; 762  : 	m_nListCodeSel = pNMListView->iItem;

  00003	8b 45 08	 mov	 eax, DWORD PTR _pNMHDR$[ebp]
  00006	8b 40 0c	 mov	 eax, DWORD PTR [eax+12]

; 763  : 	DoAddToItem(m_nListCodeSel);

  00009	50		 push	 eax
  0000a	89 81 dc 00 00
	00		 mov	 DWORD PTR [ecx+220], eax
  00010	e8 00 00 00 00	 call	 ?DoAddToItem@CDlgCompSetup@@IAEXH@Z ; CDlgCompSetup::DoAddToItem

; 764  : 
; 765  : 	*pResult = 0;

  00015	8b 45 0c	 mov	 eax, DWORD PTR _pResult$[ebp]
  00018	c7 00 00 00 00
	00		 mov	 DWORD PTR [eax], 0

; 766  : }

  0001e	5d		 pop	 ebp
  0001f	c2 08 00	 ret	 8
?OnDblclkListcodes@CDlgCompSetup@@IAEXPAUtagNMHDR@@PAJ@Z ENDP ; CDlgCompSetup::OnDblclkListcodes
_TEXT	ENDS
; Function compile flags: /Ogtp
; File D:\git\src\IBK\IBK_DRFN\ProjSrc\SrcDrfn\Chart\ChartUtil\DlgCompSetup.cpp
;	COMDAT ?OnClkListcodes@CDlgCompSetup@@IAEXPAUtagNMHDR@@PAJ@Z
_TEXT	SEGMENT
_pNMHDR$ = 8						; size = 4
_pResult$ = 12						; size = 4
?OnClkListcodes@CDlgCompSetup@@IAEXPAUtagNMHDR@@PAJ@Z PROC ; CDlgCompSetup::OnClkListcodes, COMDAT
; _this$ = ecx

; 751  : {

  00000	55		 push	 ebp
  00001	8b ec		 mov	 ebp, esp

; 752  : 	NM_LISTVIEW* pNMListView = (NM_LISTVIEW*)pNMHDR;
; 753  : 	m_nListCodeSel = pNMListView->iItem;

  00003	8b 45 08	 mov	 eax, DWORD PTR _pNMHDR$[ebp]
  00006	8b 40 0c	 mov	 eax, DWORD PTR [eax+12]
  00009	89 81 dc 00 00
	00		 mov	 DWORD PTR [ecx+220], eax

; 754  : 
; 755  : 	*pResult = 0;

  0000f	8b 45 0c	 mov	 eax, DWORD PTR _pResult$[ebp]
  00012	c7 00 00 00 00
	00		 mov	 DWORD PTR [eax], 0

; 756  : }

  00018	5d		 pop	 ebp
  00019	c2 08 00	 ret	 8
?OnClkListcodes@CDlgCompSetup@@IAEXPAUtagNMHDR@@PAJ@Z ENDP ; CDlgCompSetup::OnClkListcodes
_TEXT	ENDS
; Function compile flags: /Ogtp
; File D:\git\src\IBK\IBK_DRFN\ProjSrc\SrcDrfn\Chart\ChartUtil\DlgCompSetup.cpp
; File C:\Program Files (x86)\Microsoft Visual Studio\2019\Community\VC\Tools\MSVC\14.29.30133\atlmfc\include\afxcmn.inl
; File D:\git\src\IBK\IBK_DRFN\ProjSrc\SrcDrfn\Chart\ChartUtil\DlgCompSetup.cpp
;	COMDAT ?OnDblclkListItem@CDlgCompSetup@@IAEXPAUtagNMHDR@@PAJ@Z
_TEXT	SEGMENT
_pNMHDR$ = 8						; size = 4
_pResult$ = 12						; size = 4
?OnDblclkListItem@CDlgCompSetup@@IAEXPAUtagNMHDR@@PAJ@Z PROC ; CDlgCompSetup::OnDblclkListItem, COMDAT
; _this$ = ecx

; 739  : {

  00000	55		 push	 ebp
  00001	8b ec		 mov	 ebp, esp

; 740  : 	NM_LISTVIEW* pNMListView = (NM_LISTVIEW*)pNMHDR;
; 741  : 
; 742  : 	m_nListItemSel = pNMListView->iItem;

  00003	8b 45 08	 mov	 eax, DWORD PTR _pNMHDR$[ebp]
  00006	56		 push	 esi
  00007	8b f1		 mov	 esi, ecx
  00009	8b 40 0c	 mov	 eax, DWORD PTR [eax+12]

; 743  : 	DoDeleteItem(m_nListItemSel);

  0000c	50		 push	 eax
  0000d	89 86 d8 00 00
	00		 mov	 DWORD PTR [esi+216], eax
  00013	e8 00 00 00 00	 call	 ?DoDeleteItem@CDlgCompSetup@@IAEXH@Z ; CDlgCompSetup::DoDeleteItem

; 744  : 	m_nListItemSel--;

  00018	ff 8e d8 00 00
	00		 dec	 DWORD PTR [esi+216]
; File C:\Program Files (x86)\Microsoft Visual Studio\2019\Community\VC\Tools\MSVC\14.29.30133\atlmfc\include\afxcmn.inl

; 155  : 	{ ASSERT(::IsWindow(m_hWnd)); return (int) ::SendMessage(m_hWnd, LVM_GETITEMCOUNT, 0, 0L); }

  0001e	6a 00		 push	 0
  00020	6a 00		 push	 0
  00022	68 04 10 00 00	 push	 4100			; 00001004H
  00027	ff b6 b8 01 00
	00		 push	 DWORD PTR [esi+440]
  0002d	ff 15 00 00 00
	00		 call	 DWORD PTR __imp__SendMessageA@16
; File D:\git\src\IBK\IBK_DRFN\ProjSrc\SrcDrfn\Chart\ChartUtil\DlgCompSetup.cpp

; 945  : 	if(nCnt==0)

  00033	85 c0		 test	 eax, eax
  00035	8b 45 0c	 mov	 eax, DWORD PTR _pResult$[ebp]
  00038	75 0a		 jne	 SHORT $LN9@OnDblclkLi

; 946  : 	{
; 947  : 		m_nListItemSel = -1;

  0003a	c7 86 d8 00 00
	00 ff ff ff ff	 mov	 DWORD PTR [esi+216], -1
$LN9@OnDblclkLi:

; 745  : 	DoCurItemChange();
; 746  : 
; 747  : 	*pResult = 0;
; 748  : }

  00044	c7 00 00 00 00
	00		 mov	 DWORD PTR [eax], 0
  0004a	5e		 pop	 esi
  0004b	5d		 pop	 ebp
  0004c	c2 08 00	 ret	 8
?OnDblclkListItem@CDlgCompSetup@@IAEXPAUtagNMHDR@@PAJ@Z ENDP ; CDlgCompSetup::OnDblclkListItem
_TEXT	ENDS
; Function compile flags: /Ogtp
; File D:\git\src\IBK\IBK_DRFN\ProjSrc\SrcDrfn\Chart\ChartUtil\DlgCompSetup.cpp
;	COMDAT ?OnClkListItem@CDlgCompSetup@@IAEXPAUtagNMHDR@@PAJ@Z
_TEXT	SEGMENT
_pNMHDR$ = 8						; size = 4
_pResult$ = 12						; size = 4
?OnClkListItem@CDlgCompSetup@@IAEXPAUtagNMHDR@@PAJ@Z PROC ; CDlgCompSetup::OnClkListItem, COMDAT
; _this$ = ecx

; 730  : {

  00000	55		 push	 ebp
  00001	8b ec		 mov	 ebp, esp

; 731  : 	NM_LISTVIEW* pNMListView = (NM_LISTVIEW*)pNMHDR;
; 732  : 	m_nListItemSel = pNMListView->iItem;

  00003	8b 45 08	 mov	 eax, DWORD PTR _pNMHDR$[ebp]
  00006	8b 40 0c	 mov	 eax, DWORD PTR [eax+12]

; 733  : 
; 734  : 	fnSelectItem(m_pCurGroup, m_nListItemSel);

  00009	50		 push	 eax
  0000a	ff b1 cc 00 00
	00		 push	 DWORD PTR [ecx+204]
  00010	89 81 d8 00 00
	00		 mov	 DWORD PTR [ecx+216], eax
  00016	e8 00 00 00 00	 call	 ?fnSelectItem@CDlgCompSetup@@IAEXPAVCDlgCompGroupData@@H@Z ; CDlgCompSetup::fnSelectItem

; 735  : 	*pResult = 0;

  0001b	8b 45 0c	 mov	 eax, DWORD PTR _pResult$[ebp]
  0001e	c7 00 00 00 00
	00		 mov	 DWORD PTR [eax], 0

; 736  : }

  00024	5d		 pop	 ebp
  00025	c2 08 00	 ret	 8
?OnClkListItem@CDlgCompSetup@@IAEXPAUtagNMHDR@@PAJ@Z ENDP ; CDlgCompSetup::OnClkListItem
_TEXT	ENDS
; Function compile flags: /Ogtp
; File D:\git\src\IBK\IBK_DRFN\ProjSrc\SrcDrfn\Chart\ChartUtil\DlgCompSetup.cpp
; File C:\Program Files (x86)\Microsoft Visual Studio\2019\Community\VC\Tools\MSVC\14.29.30133\atlmfc\include\afxcmn.inl
; File D:\git\src\IBK\IBK_DRFN\ProjSrc\SrcDrfn\Chart\ChartUtil\DlgCompSetup.cpp
; File C:\Program Files (x86)\Microsoft Visual Studio\2019\Community\VC\Tools\MSVC\14.29.30133\atlmfc\include\afxcmn.inl
; File D:\git\src\IBK\IBK_DRFN\ProjSrc\SrcDrfn\Chart\ChartUtil\DlgCompSetup.cpp
;	COMDAT ?OnSelchangedTreesearch@CDlgCompSetup@@IAEXPAUtagNMHDR@@PAJ@Z
_TEXT	SEGMENT
_pNMHDR$ = 8						; size = 4
_pResult$ = 12						; size = 4
?OnSelchangedTreesearch@CDlgCompSetup@@IAEXPAUtagNMHDR@@PAJ@Z PROC ; CDlgCompSetup::OnSelchangedTreesearch, COMDAT
; _this$ = ecx

; 699  : {

  00000	55		 push	 ebp
  00001	8b ec		 mov	 ebp, esp
  00003	51		 push	 ecx
  00004	56		 push	 esi
  00005	57		 push	 edi
; File C:\Program Files (x86)\Microsoft Visual Studio\2019\Community\VC\Tools\MSVC\14.29.30133\atlmfc\include\afxcmn.inl

; 316  : 	{ ASSERT(::IsWindow(m_hWnd)); return (HTREEITEM)::SendMessage(m_hWnd, TVM_GETNEXTITEM, TVGN_CARET, 0); }

  00006	6a 00		 push	 0
; File D:\git\src\IBK\IBK_DRFN\ProjSrc\SrcDrfn\Chart\ChartUtil\DlgCompSetup.cpp

; 699  : {

  00008	8b f1		 mov	 esi, ecx
; File C:\Program Files (x86)\Microsoft Visual Studio\2019\Community\VC\Tools\MSVC\14.29.30133\atlmfc\include\afxcmn.inl

; 316  : 	{ ASSERT(::IsWindow(m_hWnd)); return (HTREEITEM)::SendMessage(m_hWnd, TVM_GETNEXTITEM, TVGN_CARET, 0); }

  0000a	6a 09		 push	 9
  0000c	68 0a 11 00 00	 push	 4362			; 0000110aH
  00011	ff b6 b8 02 00
	00		 push	 DWORD PTR [esi+696]
  00017	ff 15 00 00 00
	00		 call	 DWORD PTR __imp__SendMessageA@16
; File D:\git\src\IBK\IBK_DRFN\ProjSrc\SrcDrfn\Chart\ChartUtil\DlgCompSetup.cpp

; 702  : 	if(hItem == NULL)

  0001d	85 c0		 test	 eax, eax
  0001f	74 66		 je	 SHORT $LN1@OnSelchang

; 703  : 		return;
; 704  : 
; 705  : 	// CBaseLongData 
; 706  : 	CItemLongData* pLData = (CItemLongData*)m_treeSearch.GetItemData(hItem);

  00021	50		 push	 eax
  00022	8d 8e 98 02 00
	00		 lea	 ecx, DWORD PTR [esi+664]
  00028	e8 00 00 00 00	 call	 ?GetItemData@CTreeCtrl@@QBEKPAU_TREEITEM@@@Z ; CTreeCtrl::GetItemData
  0002d	8b f8		 mov	 edi, eax

; 707  : 	if(pLData)

  0002f	85 ff		 test	 edi, edi
  00031	74 4b		 je	 SHORT $LN8@OnSelchang

; 708  : 	{
; 709  : 		TRACE("Title[%s], Sub[%s], Method[%s]\n", pLData->m_szTitle, pLData->m_szSub, pLData->m_szMethod);
; 710  : 		ChangeListOrGridCtrl(pLData->m_szSection);

  00033	51		 push	 ecx
  00034	8b d4		 mov	 edx, esp
  00036	8d 4f 10	 lea	 ecx, DWORD PTR [edi+16]
  00039	51		 push	 ecx
  0003a	8b ca		 mov	 ecx, edx
  0003c	ff 15 00 00 00
	00		 call	 DWORD PTR __imp_??0?$CStringT@DV?$StrTraitMFC_DLL@DV?$ChTraitsCRT@D@ATL@@@@@ATL@@QAE@ABV01@@Z
  00042	8b ce		 mov	 ecx, esi
  00044	e8 00 00 00 00	 call	 ?ChangeListOrGridCtrl@CDlgCompSetup@@IAEXV?$CStringT@DV?$StrTraitMFC_DLL@DV?$ChTraitsCRT@D@ATL@@@@@ATL@@@Z ; CDlgCompSetup::ChangeListOrGridCtrl

; 711  : 
; 712  : 		if(pLData->m_nType==BaseLongData_OneClick)

  00049	83 3f 01	 cmp	 DWORD PTR [edi], 1
  0004c	74 12		 je	 SHORT $LN14@OnSelchang

; 713  : 		{
; 714  : 			long dwReserved=0;
; 715  : 			if(m_pTreeListMng)
; 716  : 				m_pTreeListMng->RequestData(pLData, &m_xTLMCallback, 'A', '1', dwReserved);
; 717  : 		}
; 718  : 		else if(pLData->m_szMethod.CompareNoCase("CFG")!=0)

  0004e	68 00 00 00 00	 push	 OFFSET ??_C@_03JMDFPPIA@CFG@
  00053	8d 4f 0c	 lea	 ecx, DWORD PTR [edi+12]
  00056	ff 15 00 00 00
	00		 call	 DWORD PTR __imp_?CompareNoCase@?$CStringT@DV?$StrTraitMFC_DLL@DV?$ChTraitsCRT@D@ATL@@@@@ATL@@QBEHPBD@Z
  0005c	85 c0		 test	 eax, eax
  0005e	74 1e		 je	 SHORT $LN8@OnSelchang
$LN14@OnSelchang:

; 719  : 		{
; 720  : 			long dwReserved=0;
; 721  : 			if(m_pTreeListMng)
; 722  : 				m_pTreeListMng->RequestData(pLData, &m_xTLMCallback, 'A', '1', dwReserved);
; 723  : 		}
; 724  : 	}
; 725  : 
; 726  : 	*pResult = 0;

  00060	8b 96 04 07 00
	00		 mov	 edx, DWORD PTR [esi+1796]
  00066	85 d2		 test	 edx, edx
  00068	74 14		 je	 SHORT $LN8@OnSelchang
  0006a	8b 0a		 mov	 ecx, DWORD PTR [edx]
  0006c	8d 86 08 07 00
	00		 lea	 eax, DWORD PTR [esi+1800]
  00072	6a 00		 push	 0
  00074	6a 31		 push	 49			; 00000031H
  00076	6a 41		 push	 65			; 00000041H
  00078	50		 push	 eax
  00079	57		 push	 edi
  0007a	52		 push	 edx
  0007b	ff 51 10	 call	 DWORD PTR [ecx+16]
$LN8@OnSelchang:
  0007e	8b 45 0c	 mov	 eax, DWORD PTR _pResult$[ebp]
  00081	c7 00 00 00 00
	00		 mov	 DWORD PTR [eax], 0
$LN1@OnSelchang:

; 727  : }

  00087	5f		 pop	 edi
  00088	5e		 pop	 esi
  00089	8b e5		 mov	 esp, ebp
  0008b	5d		 pop	 ebp
  0008c	c2 08 00	 ret	 8
?OnSelchangedTreesearch@CDlgCompSetup@@IAEXPAUtagNMHDR@@PAJ@Z ENDP ; CDlgCompSetup::OnSelchangedTreesearch
_TEXT	ENDS
; Function compile flags: /Ogtp
; File D:\git\src\IBK\IBK_DRFN\ProjSrc\SrcDrfn\Chart\ChartUtil\DlgCompSetup.cpp
; File C:\Program Files (x86)\Microsoft Visual Studio\2019\Community\VC\Tools\MSVC\14.29.30133\atlmfc\include\afxtempl.h
; File D:\git\src\IBK\IBK_DRFN\ProjSrc\SrcDrfn\Chart\ChartUtil\DlgCompSetup.cpp
; File C:\Program Files (x86)\Microsoft Visual Studio\2019\Community\VC\Tools\MSVC\14.29.30133\atlmfc\include\afxwin2.inl
; File D:\git\src\IBK\IBK_DRFN\ProjSrc\SrcDrfn\Chart\ChartUtil\DlgCompSetup.cpp
;	COMDAT ?OnItemchangedListitem@CDlgCompSetup@@IAEXPAUtagNMHDR@@PAJ@Z
_TEXT	SEGMENT
_pNMHDR$ = 8						; size = 4
_pResult$ = 12						; size = 4
?OnItemchangedListitem@CDlgCompSetup@@IAEXPAUtagNMHDR@@PAJ@Z PROC ; CDlgCompSetup::OnItemchangedListitem, COMDAT
; _this$ = ecx

; 665  : {

  00000	55		 push	 ebp
  00001	8b ec		 mov	 ebp, esp

; 666  : 	//HD_NOTIFY *phdn = (HD_NOTIFY *) pNMHDR;
; 667  : 	NM_LISTVIEW* pNMListView = (NM_LISTVIEW*)pNMHDR;
; 668  : 	// TODO: Add your control notification handler code here
; 669  : 
; 670  : 	int nItem = pNMListView->iItem;

  00003	8b 45 08	 mov	 eax, DWORD PTR _pNMHDR$[ebp]
  00006	53		 push	 ebx
  00007	8b d9		 mov	 ebx, ecx
  00009	8b 40 0c	 mov	 eax, DWORD PTR [eax+12]

; 671  : 	if(nItem>=0)

  0000c	85 c0		 test	 eax, eax
  0000e	78 6f		 js	 SHORT $LN23@OnItemchan

; 673  : 		m_pCurSubItem = m_pCurGroup->m_ItemList.GetAt(m_pCurGroup->m_ItemList.FindIndex(nItem));

  00010	57		 push	 edi
  00011	8b bb cc 00 00
	00		 mov	 edi, DWORD PTR [ebx+204]
; File C:\Program Files (x86)\Microsoft Visual Studio\2019\Community\VC\Tools\MSVC\14.29.30133\atlmfc\include\afxtempl.h

; 1133 : 	if (nIndex >= m_nCount || nIndex < 0)

  00017	3b 47 10	 cmp	 eax, DWORD PTR [edi+16]
  0001a	7d 10		 jge	 SHORT $LN8@OnItemchan

; 1135 : 
; 1136 : 	CNode* pNode = m_pNodeHead;

  0001c	8b 7f 08	 mov	 edi, DWORD PTR [edi+8]

; 1137 : 	while (nIndex--)

  0001f	85 c0		 test	 eax, eax
  00021	74 0b		 je	 SHORT $LN4@OnItemchan
$LL5@OnItemchan:

; 1138 : 	{
; 1139 : 		ASSERT(AfxIsValidAddress(pNode, sizeof(CNode)));
; 1140 : 		pNode = pNode->pNext;

  00023	8b 3f		 mov	 edi, DWORD PTR [edi]
  00025	83 e8 01	 sub	 eax, 1
  00028	75 f9		 jne	 SHORT $LL5@OnItemchan

; 1141 : 	}
; 1142 : 	return (POSITION) pNode;

  0002a	eb 02		 jmp	 SHORT $LN4@OnItemchan
$LN8@OnItemchan:

; 1134 : 		return NULL;  // went too far

  0002c	33 ff		 xor	 edi, edi
$LN4@OnItemchan:
; File D:\git\src\IBK\IBK_DRFN\ProjSrc\SrcDrfn\Chart\ChartUtil\DlgCompSetup.cpp

; 673  : 		m_pCurSubItem = m_pCurGroup->m_ItemList.GetAt(m_pCurGroup->m_ItemList.FindIndex(nItem));

  0002e	8b 7f 08	 mov	 edi, DWORD PTR [edi+8]
  00031	89 bb d0 00 00
	00		 mov	 DWORD PTR [ebx+208], edi

; 960  : 	SetDlgItemText(IDC_TXTTITLE, pCurSubItem->m_szCodeName);

  00037	ff 77 04	 push	 DWORD PTR [edi+4]
  0003a	68 79 17 00 00	 push	 6009			; 00001779H
  0003f	e8 00 00 00 00	 call	 ?SetDlgItemTextA@CWnd@@QAEXHPBD@Z ; CWnd::SetDlgItemTextA

; 961  : 	m_btnTextColor.SetColor(pCurSubItem->m_clr);

  00044	ff 77 08	 push	 DWORD PTR [edi+8]
  00047	8d 8b 18 03 00
	00		 lea	 ecx, DWORD PTR [ebx+792]
  0004d	e8 00 00 00 00	 call	 ?SetColor@CXColourPicker@@QAEXK@Z ; CXColourPicker::SetColor
; File C:\Program Files (x86)\Microsoft Visual Studio\2019\Community\VC\Tools\MSVC\14.29.30133\atlmfc\include\afxwin2.inl

; 767  : 	{ ASSERT(::IsWindow(m_hWnd)); return (int)::SendMessage(m_hWnd, CB_SETCURSEL, nSelect, 0); }

  00052	6a 00		 push	 0
  00054	ff 77 0c	 push	 DWORD PTR [edi+12]
  00057	68 4e 01 00 00	 push	 334			; 0000014eH
  0005c	ff b3 e0 05 00
	00		 push	 DWORD PTR [ebx+1504]
  00062	ff 15 00 00 00
	00		 call	 DWORD PTR __imp__SendMessageA@16
  00068	6a 00		 push	 0
  0006a	ff 77 10	 push	 DWORD PTR [edi+16]
  0006d	68 4e 01 00 00	 push	 334			; 0000014eH
  00072	ff b3 58 05 00
	00		 push	 DWORD PTR [ebx+1368]
  00078	ff 15 00 00 00
	00		 call	 DWORD PTR __imp__SendMessageA@16
; File D:\git\src\IBK\IBK_DRFN\ProjSrc\SrcDrfn\Chart\ChartUtil\DlgCompSetup.cpp

; 678  : 	*pResult = 0;

  0007e	5f		 pop	 edi
$LN23@OnItemchan:

; 679  : }

  0007f	8b 45 0c	 mov	 eax, DWORD PTR _pResult$[ebp]
  00082	5b		 pop	 ebx
  00083	c7 00 00 00 00
	00		 mov	 DWORD PTR [eax], 0
  00089	5d		 pop	 ebp
  0008a	c2 08 00	 ret	 8
?OnItemchangedListitem@CDlgCompSetup@@IAEXPAUtagNMHDR@@PAJ@Z ENDP ; CDlgCompSetup::OnItemchangedListitem
_TEXT	ENDS
; Function compile flags: /Ogtp
; File D:\git\src\IBK\IBK_DRFN\ProjSrc\SrcDrfn\Chart\ChartUtil\DlgCompSetup.cpp
; File C:\Program Files (x86)\Microsoft Visual Studio\2019\Community\VC\Tools\MSVC\14.29.30133\atlmfc\include\afxwin2.inl
; File D:\git\src\IBK\IBK_DRFN\ProjSrc\SrcDrfn\Chart\ChartUtil\DlgCompSetup.cpp
; File C:\Program Files (x86)\Microsoft Visual Studio\2019\Community\VC\Tools\MSVC\14.29.30133\atlmfc\include\afxwin2.inl
; File D:\git\src\IBK\IBK_DRFN\ProjSrc\SrcDrfn\Chart\ChartUtil\DlgCompSetup.cpp
; File C:\Program Files (x86)\Microsoft Visual Studio\2019\Community\VC\Tools\MSVC\14.29.30133\atlmfc\include\afxwin2.inl
; File D:\git\src\IBK\IBK_DRFN\ProjSrc\SrcDrfn\Chart\ChartUtil\DlgCompSetup.cpp
; File C:\Program Files (x86)\Microsoft Visual Studio\2019\Community\VC\Tools\MSVC\14.29.30133\atlmfc\include\afxtempl.h
; File D:\git\src\IBK\IBK_DRFN\ProjSrc\SrcDrfn\Chart\ChartUtil\DlgCompSetup.cpp
; File C:\Program Files (x86)\Microsoft Visual Studio\2019\Community\VC\Tools\MSVC\14.29.30133\atlmfc\include\afxwin2.inl
; File D:\git\src\IBK\IBK_DRFN\ProjSrc\SrcDrfn\Chart\ChartUtil\DlgCompSetup.cpp
; File C:\Program Files (x86)\Microsoft Visual Studio\2019\Community\VC\Tools\MSVC\14.29.30133\atlmfc\include\afxtempl.h
; File D:\git\src\IBK\IBK_DRFN\ProjSrc\SrcDrfn\Chart\ChartUtil\DlgCompSetup.cpp
; File C:\Program Files (x86)\Microsoft Visual Studio\2019\Community\VC\Tools\MSVC\14.29.30133\atlmfc\include\afxtempl.h
; File D:\git\src\IBK\IBK_DRFN\ProjSrc\SrcDrfn\Chart\ChartUtil\DlgCompSetup.cpp
; File C:\Program Files (x86)\Microsoft Visual Studio\2019\Community\VC\Tools\MSVC\14.29.30133\atlmfc\include\afxwin2.inl
; File D:\git\src\IBK\IBK_DRFN\ProjSrc\SrcDrfn\Chart\ChartUtil\DlgCompSetup.cpp
;	COMDAT ?OnSelchangeListgrp@CDlgCompSetup@@IAEXXZ
_TEXT	SEGMENT
?OnSelchangeListgrp@CDlgCompSetup@@IAEXXZ PROC		; CDlgCompSetup::OnSelchangeListgrp, COMDAT
; _this$ = ecx

; 652  : {

  00000	53		 push	 ebx
; File C:\Program Files (x86)\Microsoft Visual Studio\2019\Community\VC\Tools\MSVC\14.29.30133\atlmfc\include\afxwin2.inl

; 666  : 	{ ASSERT(::IsWindow(m_hWnd)); return (int)::SendMessage(m_hWnd, LB_GETCURSEL, 0, 0); }

  00001	8b 1d 00 00 00
	00		 mov	 ebx, DWORD PTR __imp__SendMessageA@16
; File D:\git\src\IBK\IBK_DRFN\ProjSrc\SrcDrfn\Chart\ChartUtil\DlgCompSetup.cpp

; 652  : {

  00007	56		 push	 esi
; File C:\Program Files (x86)\Microsoft Visual Studio\2019\Community\VC\Tools\MSVC\14.29.30133\atlmfc\include\afxwin2.inl

; 666  : 	{ ASSERT(::IsWindow(m_hWnd)); return (int)::SendMessage(m_hWnd, LB_GETCURSEL, 0, 0); }

  00008	6a 00		 push	 0
; File D:\git\src\IBK\IBK_DRFN\ProjSrc\SrcDrfn\Chart\ChartUtil\DlgCompSetup.cpp

; 652  : {

  0000a	8b f1		 mov	 esi, ecx
; File C:\Program Files (x86)\Microsoft Visual Studio\2019\Community\VC\Tools\MSVC\14.29.30133\atlmfc\include\afxwin2.inl

; 666  : 	{ ASSERT(::IsWindow(m_hWnd)); return (int)::SendMessage(m_hWnd, LB_GETCURSEL, 0, 0); }

  0000c	6a 00		 push	 0
  0000e	68 88 01 00 00	 push	 392			; 00000188H
  00013	ff b6 38 02 00
	00		 push	 DWORD PTR [esi+568]
  00019	ff d3		 call	 ebx
; File D:\git\src\IBK\IBK_DRFN\ProjSrc\SrcDrfn\Chart\ChartUtil\DlgCompSetup.cpp

; 654  : 	int nSel = m_ListRP.GetCurSel();

  0001b	8b d0		 mov	 edx, eax

; 655  : 	if(nSel<0) return;

  0001d	85 d2		 test	 edx, edx
  0001f	0f 88 da 00 00
	00		 js	 $LN32@OnSelchang

; 656  : 
; 657  : 	CDlgCompGroupData* pGroupData = m_GroupList.GetAt(m_GroupList.FindIndex(nSel));

  00025	8b ca		 mov	 ecx, edx
; File C:\Program Files (x86)\Microsoft Visual Studio\2019\Community\VC\Tools\MSVC\14.29.30133\atlmfc\include\afxtempl.h

; 1133 : 	if (nIndex >= m_nCount || nIndex < 0)

  00027	3b 96 bc 00 00
	00		 cmp	 edx, DWORD PTR [esi+188]
  0002d	7d 1a		 jge	 SHORT $LN10@OnSelchang

; 1135 : 
; 1136 : 	CNode* pNode = m_pNodeHead;

  0002f	8b 86 b4 00 00
	00		 mov	 eax, DWORD PTR [esi+180]

; 1137 : 	while (nIndex--)

  00035	85 d2		 test	 edx, edx
  00037	74 12		 je	 SHORT $LN6@OnSelchang
  00039	0f 1f 80 00 00
	00 00		 npad	 7
$LL7@OnSelchang:

; 1138 : 	{
; 1139 : 		ASSERT(AfxIsValidAddress(pNode, sizeof(CNode)));
; 1140 : 		pNode = pNode->pNext;

  00040	8b 00		 mov	 eax, DWORD PTR [eax]
  00042	83 e9 01	 sub	 ecx, 1
  00045	75 f9		 jne	 SHORT $LL7@OnSelchang

; 1141 : 	}
; 1142 : 	return (POSITION) pNode;

  00047	eb 02		 jmp	 SHORT $LN6@OnSelchang
$LN10@OnSelchang:

; 1134 : 		return NULL;  // went too far

  00049	33 c0		 xor	 eax, eax
$LN6@OnSelchang:
; File D:\git\src\IBK\IBK_DRFN\ProjSrc\SrcDrfn\Chart\ChartUtil\DlgCompSetup.cpp

; 658  : 	m_pCurGroup = pGroupData;

  0004b	8b 40 08	 mov	 eax, DWORD PTR [eax+8]

; 659  : 
; 660  : 	fnSelectGroup(nSel);

  0004e	8b ce		 mov	 ecx, esi
  00050	52		 push	 edx
  00051	89 86 cc 00 00
	00		 mov	 DWORD PTR [esi+204], eax
  00057	e8 00 00 00 00	 call	 ?fnSelectGroup@CDlgCompSetup@@IAEXH@Z ; CDlgCompSetup::fnSelectGroup

; 661  : 	fnSelectItem(m_pCurGroup, 0);

  0005c	8b 86 cc 00 00
	00		 mov	 eax, DWORD PTR [esi+204]

; 620  : 	if(pGroupData==NULL)

  00062	85 c0		 test	 eax, eax
  00064	75 3c		 jne	 SHORT $LN58@OnSelchang
; File C:\Program Files (x86)\Microsoft Visual Studio\2019\Community\VC\Tools\MSVC\14.29.30133\atlmfc\include\afxwin2.inl

; 666  : 	{ ASSERT(::IsWindow(m_hWnd)); return (int)::SendMessage(m_hWnd, LB_GETCURSEL, 0, 0); }

  00066	50		 push	 eax
  00067	50		 push	 eax
  00068	68 88 01 00 00	 push	 392			; 00000188H
  0006d	ff b6 38 02 00
	00		 push	 DWORD PTR [esi+568]
  00073	ff d3		 call	 ebx
; File D:\git\src\IBK\IBK_DRFN\ProjSrc\SrcDrfn\Chart\ChartUtil\DlgCompSetup.cpp

; 623  : 		if(nGroup<0) return;

  00075	85 c0		 test	 eax, eax
  00077	0f 88 82 00 00
	00		 js	 $LN32@OnSelchang
; File C:\Program Files (x86)\Microsoft Visual Studio\2019\Community\VC\Tools\MSVC\14.29.30133\atlmfc\include\afxtempl.h

; 1133 : 	if (nIndex >= m_nCount || nIndex < 0)

  0007d	3b 86 bc 00 00
	00		 cmp	 eax, DWORD PTR [esi+188]
  00083	7d 14		 jge	 SHORT $LN24@OnSelchang

; 1135 : 
; 1136 : 	CNode* pNode = m_pNodeHead;

  00085	8b 8e b4 00 00
	00		 mov	 ecx, DWORD PTR [esi+180]

; 1137 : 	while (nIndex--)

  0008b	85 c0		 test	 eax, eax
  0008d	74 0c		 je	 SHORT $LN20@OnSelchang
  0008f	90		 npad	 1
$LL21@OnSelchang:

; 1138 : 	{
; 1139 : 		ASSERT(AfxIsValidAddress(pNode, sizeof(CNode)));
; 1140 : 		pNode = pNode->pNext;

  00090	8b 09		 mov	 ecx, DWORD PTR [ecx]
  00092	83 e8 01	 sub	 eax, 1
  00095	75 f9		 jne	 SHORT $LL21@OnSelchang

; 1141 : 	}
; 1142 : 	return (POSITION) pNode;

  00097	eb 02		 jmp	 SHORT $LN20@OnSelchang
$LN24@OnSelchang:

; 1134 : 		return NULL;  // went too far

  00099	33 c9		 xor	 ecx, ecx
$LN20@OnSelchang:
; File D:\git\src\IBK\IBK_DRFN\ProjSrc\SrcDrfn\Chart\ChartUtil\DlgCompSetup.cpp

; 626  : 		pGroupData = m_GroupList.GetAt(pos);

  0009b	8b 41 08	 mov	 eax, DWORD PTR [ecx+8]

; 627  : 	}
; 628  : 	if(pGroupData==NULL) return;

  0009e	85 c0		 test	 eax, eax
  000a0	74 5d		 je	 SHORT $LN32@OnSelchang
$LN58@OnSelchang:
; File C:\Program Files (x86)\Microsoft Visual Studio\2019\Community\VC\Tools\MSVC\14.29.30133\atlmfc\include\afxtempl.h

; 1133 : 	if (nIndex >= m_nCount || nIndex < 0)

  000a2	83 78 10 00	 cmp	 DWORD PTR [eax+16], 0
  000a6	7e 57		 jle	 SHORT $LN32@OnSelchang

; 1135 : 
; 1136 : 	CNode* pNode = m_pNodeHead;

  000a8	57		 push	 edi
  000a9	8b 78 08	 mov	 edi, DWORD PTR [eax+8]
; File D:\git\src\IBK\IBK_DRFN\ProjSrc\SrcDrfn\Chart\ChartUtil\DlgCompSetup.cpp

; 631  : 	if(!pos) return;

  000ac	85 ff		 test	 edi, edi
  000ae	74 4e		 je	 SHORT $LN59@OnSelchang

; 632  : 
; 633  : 	CDlgCompSubItem* pItem = pGroupData->m_ItemList.GetAt(pos);

  000b0	8b 7f 08	 mov	 edi, DWORD PTR [edi+8]

; 639  : 	if(!pItem) return;

  000b3	85 ff		 test	 edi, edi
  000b5	74 47		 je	 SHORT $LN59@OnSelchang

; 640  : 
; 641  : 	//    .
; 642  : 	m_pCurSubItem = pItem;

  000b7	89 be d0 00 00
	00		 mov	 DWORD PTR [esi+208], edi

; 960  : 	SetDlgItemText(IDC_TXTTITLE, pCurSubItem->m_szCodeName);

  000bd	8b ce		 mov	 ecx, esi
  000bf	ff 77 04	 push	 DWORD PTR [edi+4]
  000c2	68 79 17 00 00	 push	 6009			; 00001779H
  000c7	e8 00 00 00 00	 call	 ?SetDlgItemTextA@CWnd@@QAEXHPBD@Z ; CWnd::SetDlgItemTextA

; 961  : 	m_btnTextColor.SetColor(pCurSubItem->m_clr);

  000cc	ff 77 08	 push	 DWORD PTR [edi+8]
  000cf	8d 8e 18 03 00
	00		 lea	 ecx, DWORD PTR [esi+792]
  000d5	e8 00 00 00 00	 call	 ?SetColor@CXColourPicker@@QAEXK@Z ; CXColourPicker::SetColor
; File C:\Program Files (x86)\Microsoft Visual Studio\2019\Community\VC\Tools\MSVC\14.29.30133\atlmfc\include\afxwin2.inl

; 767  : 	{ ASSERT(::IsWindow(m_hWnd)); return (int)::SendMessage(m_hWnd, CB_SETCURSEL, nSelect, 0); }

  000da	6a 00		 push	 0
  000dc	ff 77 0c	 push	 DWORD PTR [edi+12]
  000df	68 4e 01 00 00	 push	 334			; 0000014eH
  000e4	ff b6 e0 05 00
	00		 push	 DWORD PTR [esi+1504]
  000ea	ff d3		 call	 ebx
  000ec	6a 00		 push	 0
  000ee	ff 77 10	 push	 DWORD PTR [edi+16]
  000f1	68 4e 01 00 00	 push	 334			; 0000014eH
  000f6	ff b6 58 05 00
	00		 push	 DWORD PTR [esi+1368]
  000fc	ff d3		 call	 ebx
$LN59@OnSelchang:
  000fe	5f		 pop	 edi
$LN32@OnSelchang:
  000ff	5e		 pop	 esi
; File D:\git\src\IBK\IBK_DRFN\ProjSrc\SrcDrfn\Chart\ChartUtil\DlgCompSetup.cpp

; 662  : }

  00100	5b		 pop	 ebx
  00101	c3		 ret	 0
?OnSelchangeListgrp@CDlgCompSetup@@IAEXXZ ENDP		; CDlgCompSetup::OnSelchangeListgrp
_TEXT	ENDS
; Function compile flags: /Ogtp
; File D:\git\src\IBK\IBK_DRFN\ProjSrc\SrcDrfn\Chart\ChartUtil\DlgCompSetup.cpp
; File C:\Program Files (x86)\Microsoft Visual Studio\2019\Community\VC\Tools\MSVC\14.29.30133\atlmfc\include\afxwin2.inl
; File D:\git\src\IBK\IBK_DRFN\ProjSrc\SrcDrfn\Chart\ChartUtil\DlgCompSetup.cpp
; File C:\Program Files (x86)\Microsoft Visual Studio\2019\Community\VC\Tools\MSVC\14.29.30133\atlmfc\include\afxtempl.h
; File D:\git\src\IBK\IBK_DRFN\ProjSrc\SrcDrfn\Chart\ChartUtil\DlgCompSetup.cpp
;	COMDAT ?OnDestroy@CDlgCompSetup@@IAEXXZ
_TEXT	SEGMENT
?OnDestroy@CDlgCompSetup@@IAEXXZ PROC			; CDlgCompSetup::OnDestroy, COMDAT
; _this$ = ecx

; 553  : {

  00000	56		 push	 esi
  00001	8b f1		 mov	 esi, ecx

; 554  : 	if(m_pGridCtrl)

  00003	8b 86 dc 06 00
	00		 mov	 eax, DWORD PTR [esi+1756]
  00009	85 c0		 test	 eax, eax
  0000b	74 38		 je	 SHORT $LN2@OnDestroy
; File C:\Program Files (x86)\Microsoft Visual Studio\2019\Community\VC\Tools\MSVC\14.29.30133\atlmfc\include\afxwin2.inl

; 25   : 	{ return this == NULL ? NULL : m_hWnd; }

  0000d	8b 40 20	 mov	 eax, DWORD PTR [eax+32]
; File D:\git\src\IBK\IBK_DRFN\ProjSrc\SrcDrfn\Chart\ChartUtil\DlgCompSetup.cpp

; 558  : 		if( hGrid&& IsWindow(hGrid))

  00010	85 c0		 test	 eax, eax
  00012	74 16		 je	 SHORT $LN3@OnDestroy
  00014	50		 push	 eax
  00015	ff 15 00 00 00
	00		 call	 DWORD PTR __imp__IsWindow@4
  0001b	85 c0		 test	 eax, eax
  0001d	74 0b		 je	 SHORT $LN3@OnDestroy

; 559  : 		{
; 560  : 			//AFX_MANAGE_STATE(AfxGetStaticModuleState()); 
; 561  : 			m_pGridCtrl->DestroyWindow();

  0001f	8b 8e dc 06 00
	00		 mov	 ecx, DWORD PTR [esi+1756]
  00025	8b 01		 mov	 eax, DWORD PTR [ecx]
  00027	ff 50 68	 call	 DWORD PTR [eax+104]
$LN3@OnDestroy:

; 562  : 		}
; 563  : 
; 564  : 		delete m_pGridCtrl;

  0002a	8b 8e dc 06 00
	00		 mov	 ecx, DWORD PTR [esi+1756]
  00030	85 c9		 test	 ecx, ecx
  00032	74 07		 je	 SHORT $LN7@OnDestroy
  00034	8b 01		 mov	 eax, DWORD PTR [ecx]
  00036	6a 01		 push	 1
  00038	ff 50 04	 call	 DWORD PTR [eax+4]
$LN7@OnDestroy:

; 565  : 		m_pGridCtrl = NULL;

  0003b	c7 86 dc 06 00
	00 00 00 00 00	 mov	 DWORD PTR [esi+1756], 0
$LN2@OnDestroy:

; 566  : 	}
; 567  : 	
; 568  : 	if(m_dwInData)m_dwInData->m_pFn->ClearGroupList((long)&m_GroupList);

  00045	8b 8e ac 00 00
	00		 mov	 ecx, DWORD PTR [esi+172]
  0004b	85 c9		 test	 ecx, ecx
  0004d	74 10		 je	 SHORT $LN4@OnDestroy
  0004f	8b 49 44	 mov	 ecx, DWORD PTR [ecx+68]
  00052	8d 86 b0 00 00
	00		 lea	 eax, DWORD PTR [esi+176]
  00058	50		 push	 eax
  00059	51		 push	 ecx
  0005a	8b 11		 mov	 edx, DWORD PTR [ecx]
  0005c	ff 52 1c	 call	 DWORD PTR [edx+28]
$LN4@OnDestroy:
; File C:\Program Files (x86)\Microsoft Visual Studio\2019\Community\VC\Tools\MSVC\14.29.30133\atlmfc\include\afxtempl.h

; 872  : 	m_pBlocks->FreeDataChain();

  0005f	8b 8e c4 00 00
	00		 mov	 ecx, DWORD PTR [esi+196]
  00065	c7 86 bc 00 00
	00 00 00 00 00	 mov	 DWORD PTR [esi+188], 0
  0006f	c7 86 c0 00 00
	00 00 00 00 00	 mov	 DWORD PTR [esi+192], 0
  00079	c7 86 b8 00 00
	00 00 00 00 00	 mov	 DWORD PTR [esi+184], 0
  00083	c7 86 b4 00 00
	00 00 00 00 00	 mov	 DWORD PTR [esi+180], 0
  0008d	e8 00 00 00 00	 call	 ?FreeDataChain@CPlex@@QAEXXZ ; CPlex::FreeDataChain

; 873  : 	m_pBlocks = NULL;

  00092	c7 86 c4 00 00
	00 00 00 00 00	 mov	 DWORD PTR [esi+196], 0
; File D:\git\src\IBK\IBK_DRFN\ProjSrc\SrcDrfn\Chart\ChartUtil\DlgCompSetup.cpp

; 570  : 	if(m_pTreeListMng) m_pTreeListMng->UnLoadTreeList(m_dwTreeKey);

  0009c	8b 8e 04 07 00
	00		 mov	 ecx, DWORD PTR [esi+1796]
  000a2	85 c9		 test	 ecx, ecx
  000a4	74 0c		 je	 SHORT $LN5@OnDestroy
  000a6	ff b6 0c 07 00
	00		 push	 DWORD PTR [esi+1804]
  000ac	8b 01		 mov	 eax, DWORD PTR [ecx]
  000ae	51		 push	 ecx
  000af	ff 50 0c	 call	 DWORD PTR [eax+12]
$LN5@OnDestroy:

; 571  : 
; 572  : 	CDialog::OnDestroy();	

  000b2	8b ce		 mov	 ecx, esi
  000b4	5e		 pop	 esi
  000b5	e9 00 00 00 00	 jmp	 ?OnDestroy@CWnd@@IAEXXZ	; CWnd::OnDestroy
?OnDestroy@CDlgCompSetup@@IAEXXZ ENDP			; CDlgCompSetup::OnDestroy
_TEXT	ENDS
; Function compile flags: /Ogtp
; File D:\git\src\IBK\IBK_DRFN\ProjSrc\SrcDrfn\Chart\ChartUtil\DlgCompSetup.cpp
; File C:\Program Files (x86)\Microsoft Visual Studio\2019\Community\VC\Tools\MSVC\14.29.30133\atlmfc\include\cstringt.h
; File D:\git\src\IBK\IBK_DRFN\ProjSrc\SrcDrfn\Chart\ChartUtil\DlgCompSetup.cpp
; File C:\Program Files (x86)\Microsoft Visual Studio\2019\Community\VC\Tools\MSVC\14.29.30133\atlmfc\include\cstringt.h
; File D:\git\src\IBK\IBK_DRFN\ProjSrc\SrcDrfn\Chart\ChartUtil\DlgCompSetup.cpp
;	COMDAT ?OnOk@CDlgCompSetup@@IAEXXZ
_TEXT	SEGMENT
?OnOk@CDlgCompSetup@@IAEXXZ PROC			; CDlgCompSetup::OnOk, COMDAT
; _this$ = ecx

; 376  : {

  00000	56		 push	 esi

; 377  : 	UpdateData(TRUE);

  00001	6a 01		 push	 1
  00003	8b f1		 mov	 esi, ecx
  00005	e8 00 00 00 00	 call	 ?UpdateData@CWnd@@QAEHH@Z ; CWnd::UpdateData

; 378  : 
; 379  : 	// TODO: Add your control notification handler code here
; 380  : 	//     .
; 381  : 	if(	m_dwInData->m_nBase	!=m_nRComp ||
; 382  : 		m_dwInData->m_nTimer != m_nTime ||
; 383  : 		m_dwInData->m_nTypeUnit	!= m_nPeriodType ||

  0000a	8b 8e ac 00 00
	00		 mov	 ecx, DWORD PTR [esi+172]
  00010	8b 41 20	 mov	 eax, DWORD PTR [ecx+32]
  00013	3b 86 d4 06 00
	00		 cmp	 eax, DWORD PTR [esi+1748]
  00019	75 43		 jne	 SHORT $LN3@OnOk
  0001b	8b 41 24	 mov	 eax, DWORD PTR [ecx+36]
  0001e	3b 86 c8 06 00
	00		 cmp	 eax, DWORD PTR [esi+1736]
  00024	75 38		 jne	 SHORT $LN3@OnOk
  00026	8b 41 2c	 mov	 eax, DWORD PTR [ecx+44]
  00029	3b 86 d0 06 00
	00		 cmp	 eax, DWORD PTR [esi+1744]
  0002f	75 2d		 jne	 SHORT $LN3@OnOk
  00031	8b 41 28	 mov	 eax, DWORD PTR [ecx+40]
  00034	3b 86 cc 06 00
	00		 cmp	 eax, DWORD PTR [esi+1740]
  0003a	75 22		 jne	 SHORT $LN3@OnOk

; 384  : 		m_dwInData->m_bCurDisp	!= m_bCurShow)
; 385  : 	m_bModifyFlag = TRUE;
; 386  : 
; 387  : 	if(m_bModifyFlag==FALSE && m_pCurGroup)

  0003c	83 be 00 07 00
	00 00		 cmp	 DWORD PTR [esi+1792], 0
  00043	75 34		 jne	 SHORT $LN6@OnOk
  00045	8b 86 cc 00 00
	00		 mov	 eax, DWORD PTR [esi+204]
  0004b	85 c0		 test	 eax, eax
  0004d	74 19		 je	 SHORT $LN5@OnOk
; File C:\Program Files (x86)\Microsoft Visual Studio\2019\Community\VC\Tools\MSVC\14.29.30133\atlmfc\include\cstringt.h

; 2560 : 		return( str1.Compare( str2 ) != 0 );

  0004f	ff 30		 push	 DWORD PTR [eax]
; File D:\git\src\IBK\IBK_DRFN\ProjSrc\SrcDrfn\Chart\ChartUtil\DlgCompSetup.cpp

; 389  : 		if(m_dwInData->m_szSelectGroup != m_pCurGroup->m_szGroupName)

  00051	83 c1 30	 add	 ecx, 48			; 00000030H
; File C:\Program Files (x86)\Microsoft Visual Studio\2019\Community\VC\Tools\MSVC\14.29.30133\atlmfc\include\cstringt.h

; 2560 : 		return( str1.Compare( str2 ) != 0 );

  00054	ff 15 00 00 00
	00		 call	 DWORD PTR __imp_?Compare@?$CStringT@DV?$StrTraitMFC_DLL@DV?$ChTraitsCRT@D@ATL@@@@@ATL@@QBEHPBD@Z
  0005a	85 c0		 test	 eax, eax
; File D:\git\src\IBK\IBK_DRFN\ProjSrc\SrcDrfn\Chart\ChartUtil\DlgCompSetup.cpp

; 389  : 		if(m_dwInData->m_szSelectGroup != m_pCurGroup->m_szGroupName)

  0005c	74 0a		 je	 SHORT $LN5@OnOk
$LN3@OnOk:

; 390  : 			m_bModifyFlag = TRUE;
; 391  : 	}
; 392  : 
; 393  : 	if(m_bModifyFlag==FALSE)

  0005e	c7 86 00 07 00
	00 01 00 00 00	 mov	 DWORD PTR [esi+1792], 1
$LN5@OnOk:
  00068	83 be 00 07 00
	00 00		 cmp	 DWORD PTR [esi+1792], 0
  0006f	75 08		 jne	 SHORT $LN6@OnOk

; 394  : 	{
; 395  : 		CDialog::OnCancel();

  00071	8b ce		 mov	 ecx, esi
  00073	5e		 pop	 esi
  00074	e9 00 00 00 00	 jmp	 ?OnCancel@CDialog@@MAEXXZ ; CDialog::OnCancel
$LN6@OnOk:

; 396  : 		return;
; 397  : 	}
; 398  : 	if(m_dwInData)

  00079	8b 8e ac 00 00
	00		 mov	 ecx, DWORD PTR [esi+172]
  0007f	85 c9		 test	 ecx, ecx
  00081	74 77		 je	 SHORT $LN7@OnOk

; 399  : 	{
; 400  : 		m_dwInData->m_nBase		= m_nRComp;

  00083	8b 86 d4 06 00
	00		 mov	 eax, DWORD PTR [esi+1748]
  00089	89 41 20	 mov	 DWORD PTR [ecx+32], eax

; 401  : 		m_dwInData->m_nTimer	= m_nTime;

  0008c	8b 8e ac 00 00
	00		 mov	 ecx, DWORD PTR [esi+172]
  00092	8b 86 c8 06 00
	00		 mov	 eax, DWORD PTR [esi+1736]
  00098	89 41 24	 mov	 DWORD PTR [ecx+36], eax

; 402  : 		m_dwInData->m_nTypeUnit	= m_nPeriodType;

  0009b	8b 8e ac 00 00
	00		 mov	 ecx, DWORD PTR [esi+172]
  000a1	8b 86 d0 06 00
	00		 mov	 eax, DWORD PTR [esi+1744]
  000a7	89 41 2c	 mov	 DWORD PTR [ecx+44], eax

; 403  : 		m_dwInData->m_bCurDisp	= m_bCurShow;

  000aa	8b 8e ac 00 00
	00		 mov	 ecx, DWORD PTR [esi+172]
  000b0	8b 86 cc 06 00
	00		 mov	 eax, DWORD PTR [esi+1740]
  000b6	89 41 28	 mov	 DWORD PTR [ecx+40], eax

; 404  : 
; 405  : 		if(m_pCurGroup)

  000b9	8b 86 cc 00 00
	00		 mov	 eax, DWORD PTR [esi+204]
  000bf	85 c0		 test	 eax, eax
  000c1	74 10		 je	 SHORT $LN8@OnOk

; 406  : 			m_dwInData->m_szSelectGroup = m_pCurGroup->m_szGroupName;

  000c3	8b 8e ac 00 00
	00		 mov	 ecx, DWORD PTR [esi+172]
  000c9	50		 push	 eax
  000ca	83 c1 30	 add	 ecx, 48			; 00000030H
  000cd	ff 15 00 00 00
	00		 call	 DWORD PTR __imp_??4?$CStringT@DV?$StrTraitMFC_DLL@DV?$ChTraitsCRT@D@ATL@@@@@ATL@@QAEAAV01@ABV01@@Z
$LN8@OnOk:

; 407  : 
; 408  : 		//m_dwInData->m_pFn->SaveData((long)m_dwInData);
; 409  : 		m_dwInData->m_pFn->CopyGroupList((long)&m_GroupList, (long)&m_dwInData->m_GroupList);

  000d3	8b 86 ac 00 00
	00		 mov	 eax, DWORD PTR [esi+172]
  000d9	50		 push	 eax
  000da	8b 48 44	 mov	 ecx, DWORD PTR [eax+68]
  000dd	8d 86 b0 00 00
	00		 lea	 eax, DWORD PTR [esi+176]
  000e3	50		 push	 eax
  000e4	51		 push	 ecx
  000e5	8b 11		 mov	 edx, DWORD PTR [ecx]
  000e7	ff 52 20	 call	 DWORD PTR [edx+32]

; 410  : 		m_dwInData->m_pFn->SaveData((long)m_dwInData);

  000ea	8b 86 ac 00 00
	00		 mov	 eax, DWORD PTR [esi+172]
  000f0	50		 push	 eax
  000f1	8b 48 44	 mov	 ecx, DWORD PTR [eax+68]
  000f4	51		 push	 ecx
  000f5	8b 11		 mov	 edx, DWORD PTR [ecx]
  000f7	ff 52 04	 call	 DWORD PTR [edx+4]
$LN7@OnOk:

; 411  : 	}	
; 412  : 
; 413  : 	CDialog::OnOK();

  000fa	8b ce		 mov	 ecx, esi
  000fc	5e		 pop	 esi
  000fd	e9 00 00 00 00	 jmp	 ?OnOK@CDialog@@MAEXXZ	; CDialog::OnOK
?OnOk@CDlgCompSetup@@IAEXXZ ENDP			; CDlgCompSetup::OnOk
_TEXT	ENDS
; Function compile flags: /Ogtp
; File D:\git\src\IBK\IBK_DRFN\ProjSrc\SrcDrfn\Chart\ChartUtil\DlgCompSetup.cpp
; File C:\Program Files (x86)\Microsoft Visual Studio\2019\Community\VC\Tools\MSVC\14.29.30133\atlmfc\include\afxcmn.inl
; File D:\git\src\IBK\IBK_DRFN\ProjSrc\SrcDrfn\Chart\ChartUtil\DlgCompSetup.cpp
; File C:\Program Files (x86)\Microsoft Visual Studio\2019\Community\VC\Tools\MSVC\14.29.30133\atlmfc\include\afxcmn.inl
; File D:\git\src\IBK\IBK_DRFN\ProjSrc\SrcDrfn\Chart\ChartUtil\DlgCompSetup.cpp
; File C:\Program Files (x86)\Microsoft Visual Studio\2019\Community\VC\Tools\MSVC\14.29.30133\atlmfc\include\afxcmn.inl
; File D:\git\src\IBK\IBK_DRFN\ProjSrc\SrcDrfn\Chart\ChartUtil\DlgCompSetup.cpp
; File C:\Program Files (x86)\Microsoft Visual Studio\2019\Community\VC\Tools\MSVC\14.29.30133\atlmfc\include\afxtempl.h
; File D:\git\src\IBK\IBK_DRFN\ProjSrc\SrcDrfn\Chart\ChartUtil\DlgCompSetup.cpp
;	COMDAT ?OnBtnleft3@CDlgCompSetup@@IAEXXZ
_TEXT	SEGMENT
_tpos$1$ = -4						; size = 4
?OnBtnleft3@CDlgCompSetup@@IAEXXZ PROC			; CDlgCompSetup::OnBtnleft3, COMDAT
; _this$ = ecx

; 355  : {

  00000	55		 push	 ebp
  00001	8b ec		 mov	 ebp, esp
  00003	51		 push	 ecx
  00004	53		 push	 ebx
  00005	56		 push	 esi
; File C:\Program Files (x86)\Microsoft Visual Studio\2019\Community\VC\Tools\MSVC\14.29.30133\atlmfc\include\afxcmn.inl

; 171  : 	{ ASSERT(::IsWindow(m_hWnd)); return (BOOL) ::SendMessage(m_hWnd, LVM_DELETEALLITEMS, 0, 0L); }

  00006	6a 00		 push	 0
; File D:\git\src\IBK\IBK_DRFN\ProjSrc\SrcDrfn\Chart\ChartUtil\DlgCompSetup.cpp

; 355  : {

  00008	8b f1		 mov	 esi, ecx
; File C:\Program Files (x86)\Microsoft Visual Studio\2019\Community\VC\Tools\MSVC\14.29.30133\atlmfc\include\afxcmn.inl

; 171  : 	{ ASSERT(::IsWindow(m_hWnd)); return (BOOL) ::SendMessage(m_hWnd, LVM_DELETEALLITEMS, 0, 0L); }

  0000a	6a 00		 push	 0
  0000c	68 09 10 00 00	 push	 4105			; 00001009H
  00011	ff b6 b8 01 00
	00		 push	 DWORD PTR [esi+440]
; File D:\git\src\IBK\IBK_DRFN\ProjSrc\SrcDrfn\Chart\ChartUtil\DlgCompSetup.cpp

; 356  : 	m_bModifyFlag = TRUE;	// 

  00017	c7 86 00 07 00
	00 01 00 00 00	 mov	 DWORD PTR [esi+1792], 1
; File C:\Program Files (x86)\Microsoft Visual Studio\2019\Community\VC\Tools\MSVC\14.29.30133\atlmfc\include\afxcmn.inl

; 171  : 	{ ASSERT(::IsWindow(m_hWnd)); return (BOOL) ::SendMessage(m_hWnd, LVM_DELETEALLITEMS, 0, 0L); }

  00021	ff 15 00 00 00
	00		 call	 DWORD PTR __imp__SendMessageA@16
; File D:\git\src\IBK\IBK_DRFN\ProjSrc\SrcDrfn\Chart\ChartUtil\DlgCompSetup.cpp

; 579  : 	if(m_pCurGroup)

  00027	8b 9e cc 00 00
	00		 mov	 ebx, DWORD PTR [esi+204]

; 357  : 	
; 358  : 	m_ListItem.DeleteAllItems();
; 359  : 
; 360  : 	List_CDlgCompSubItem* pSubItemList = GetCurSubItemList();
; 361  : 	if(pSubItemList)

  0002d	8d 43 04	 lea	 eax, DWORD PTR [ebx+4]
  00030	f7 db		 neg	 ebx
  00032	1b db		 sbb	 ebx, ebx
  00034	23 d8		 and	 ebx, eax
  00036	74 3f		 je	 SHORT $LN3@OnBtnleft3

; 362  : 	{
; 363  : 		POSITION tpos=NULL;
; 364  : 		for(POSITION pos=pSubItemList->GetHeadPosition(); pos;)

  00038	8b 73 04	 mov	 esi, DWORD PTR [ebx+4]
  0003b	85 f6		 test	 esi, esi
  0003d	74 38		 je	 SHORT $LN3@OnBtnleft3
  0003f	57		 push	 edi
$LL2@OnBtnleft3:

; 368  : 			delete pItem;

  00040	8b 7e 08	 mov	 edi, DWORD PTR [esi+8]
  00043	89 75 fc	 mov	 DWORD PTR _tpos$1$[ebp], esi
; File C:\Program Files (x86)\Microsoft Visual Studio\2019\Community\VC\Tools\MSVC\14.29.30133\atlmfc\include\afxtempl.h

; 813  : 		rPosition = (POSITION) pNode->pNext;

  00046	8b 36		 mov	 esi, DWORD PTR [esi]
; File D:\git\src\IBK\IBK_DRFN\ProjSrc\SrcDrfn\Chart\ChartUtil\DlgCompSetup.cpp

; 368  : 			delete pItem;

  00048	85 ff		 test	 edi, edi
  0004a	74 1c		 je	 SHORT $LN18@OnBtnleft3
  0004c	8d 4f 04	 lea	 ecx, DWORD PTR [edi+4]
  0004f	ff 15 00 00 00
	00		 call	 DWORD PTR __imp_??1?$CStringT@DV?$StrTraitMFC_DLL@DV?$ChTraitsCRT@D@ATL@@@@@ATL@@QAE@XZ
  00055	8b cf		 mov	 ecx, edi
  00057	ff 15 00 00 00
	00		 call	 DWORD PTR __imp_??1?$CStringT@DV?$StrTraitMFC_DLL@DV?$ChTraitsCRT@D@ATL@@@@@ATL@@QAE@XZ
  0005d	6a 14		 push	 20			; 00000014H
  0005f	57		 push	 edi
  00060	e8 00 00 00 00	 call	 ??3@YAXPAXI@Z		; operator delete
  00065	83 c4 08	 add	 esp, 8
$LN18@OnBtnleft3:

; 369  : 
; 370  : 			if(tpos) pSubItemList->RemoveAt(tpos);

  00068	ff 75 fc	 push	 DWORD PTR _tpos$1$[ebp]
  0006b	8b cb		 mov	 ecx, ebx
  0006d	e8 00 00 00 00	 call	 ?RemoveAt@?$CList@PAVCDlgCompSubItem@@PAV1@@@QAEXPAU__POSITION@@@Z ; CList<CDlgCompSubItem *,CDlgCompSubItem *>::RemoveAt
  00072	85 f6		 test	 esi, esi
  00074	75 ca		 jne	 SHORT $LL2@OnBtnleft3
  00076	5f		 pop	 edi
$LN3@OnBtnleft3:
  00077	5e		 pop	 esi

; 371  : 		}
; 372  : 	}
; 373  : }

  00078	5b		 pop	 ebx
  00079	8b e5		 mov	 esp, ebp
  0007b	5d		 pop	 ebp
  0007c	c3		 ret	 0
?OnBtnleft3@CDlgCompSetup@@IAEXXZ ENDP			; CDlgCompSetup::OnBtnleft3
_TEXT	ENDS
; Function compile flags: /Ogtp
; File D:\git\src\IBK\IBK_DRFN\ProjSrc\SrcDrfn\Chart\ChartUtil\DlgCompSetup.cpp
; File C:\Program Files (x86)\Microsoft Visual Studio\2019\Community\VC\Tools\MSVC\14.29.30133\atlmfc\include\afxcmn.inl
; File D:\git\src\IBK\IBK_DRFN\ProjSrc\SrcDrfn\Chart\ChartUtil\DlgCompSetup.cpp
; File C:\Program Files (x86)\Microsoft Visual Studio\2019\Community\VC\Tools\MSVC\14.29.30133\include\vector
; File D:\git\src\IBK\IBK_DRFN\ProjSrc\SrcDrfn\Chart\ChartUtil\DlgCompSetup.cpp
; File C:\Program Files (x86)\Microsoft Visual Studio\2019\Community\VC\Tools\MSVC\14.29.30133\atlmfc\include\afxcmn.inl
; File D:\git\src\IBK\IBK_DRFN\ProjSrc\SrcDrfn\Chart\ChartUtil\DlgCompSetup.cpp
; File C:\Program Files (x86)\Microsoft Visual Studio\2019\Community\VC\Tools\MSVC\14.29.30133\include\vector
; File D:\git\src\IBK\IBK_DRFN\ProjSrc\SrcDrfn\Chart\ChartUtil\DlgCompSetup.cpp
; File C:\Program Files (x86)\Microsoft Visual Studio\2019\Community\VC\Tools\MSVC\14.29.30133\include\vector
; File D:\git\src\IBK\IBK_DRFN\ProjSrc\SrcDrfn\Chart\ChartUtil\DlgCompSetup.cpp
; File C:\Program Files (x86)\Microsoft Visual Studio\2019\Community\VC\Tools\MSVC\14.29.30133\include\vector
; File D:\git\src\IBK\IBK_DRFN\ProjSrc\SrcDrfn\Chart\ChartUtil\DlgCompSetup.cpp
; File C:\Program Files (x86)\Microsoft Visual Studio\2019\Community\VC\Tools\MSVC\14.29.30133\include\vector
; File D:\git\src\IBK\IBK_DRFN\ProjSrc\SrcDrfn\Chart\ChartUtil\DlgCompSetup.cpp
; File C:\Program Files (x86)\Microsoft Visual Studio\2019\Community\VC\Tools\MSVC\14.29.30133\atlmfc\include\afxcmn.inl
; File D:\git\src\IBK\IBK_DRFN\ProjSrc\SrcDrfn\Chart\ChartUtil\DlgCompSetup.cpp
; File C:\Program Files (x86)\Microsoft Visual Studio\2019\Community\VC\Tools\MSVC\14.29.30133\atlmfc\include\afxcmn.inl
; File D:\git\src\IBK\IBK_DRFN\ProjSrc\SrcDrfn\Chart\ChartUtil\DlgCompSetup.cpp
; File C:\Program Files (x86)\Microsoft Visual Studio\2019\Community\VC\Tools\MSVC\14.29.30133\atlmfc\include\afxwin2.inl
; File D:\git\src\IBK\IBK_DRFN\ProjSrc\SrcDrfn\Chart\ChartUtil\DlgCompSetup.cpp
; File C:\Program Files (x86)\Microsoft Visual Studio\2019\Community\VC\Tools\MSVC\14.29.30133\atlmfc\include\afxtempl.h
; File D:\git\src\IBK\IBK_DRFN\ProjSrc\SrcDrfn\Chart\ChartUtil\DlgCompSetup.cpp
; File C:\Program Files (x86)\Microsoft Visual Studio\2019\Community\VC\Tools\MSVC\14.29.30133\atlmfc\include\afxtempl.h
; File D:\git\src\IBK\IBK_DRFN\ProjSrc\SrcDrfn\Chart\ChartUtil\DlgCompSetup.cpp
; File C:\Program Files (x86)\Microsoft Visual Studio\2019\Community\VC\Tools\MSVC\14.29.30133\atlmfc\include\afxwin2.inl
; File C:\Program Files (x86)\Microsoft Visual Studio\2019\Community\VC\Tools\MSVC\14.29.30133\include\vector
; File C:\Program Files (x86)\Microsoft Visual Studio\2019\Community\VC\Tools\MSVC\14.29.30133\include\xmemory
; File D:\git\src\IBK\IBK_DRFN\ProjSrc\SrcDrfn\Chart\ChartUtil\DlgCompSetup.cpp
; File C:\Program Files (x86)\Microsoft Visual Studio\2019\Community\VC\Tools\MSVC\14.29.30133\include\vector
; File D:\git\src\IBK\IBK_DRFN\ProjSrc\SrcDrfn\Chart\ChartUtil\DlgCompSetup.cpp
;	COMDAT ?OnBtnright@CDlgCompSetup@@IAEXXZ
_TEXT	SEGMENT
_nSelList$2 = -32					; size = 12
_nOldPos$1$ = -20					; size = 4
_nItem$3 = -20						; size = 4
_this$1$ = -16						; size = 4
__$EHRec$ = -12						; size = 12
?OnBtnright@CDlgCompSetup@@IAEXXZ PROC			; CDlgCompSetup::OnBtnright, COMDAT
; _this$ = ecx

; 317  : {

  00000	55		 push	 ebp
  00001	8b ec		 mov	 ebp, esp
  00003	6a ff		 push	 -1
  00005	68 00 00 00 00	 push	 __ehhandler$?OnBtnright@CDlgCompSetup@@IAEXXZ
  0000a	64 a1 00 00 00
	00		 mov	 eax, DWORD PTR fs:0
  00010	50		 push	 eax
  00011	83 ec 14	 sub	 esp, 20			; 00000014H
  00014	53		 push	 ebx
  00015	56		 push	 esi
  00016	57		 push	 edi
  00017	a1 00 00 00 00	 mov	 eax, DWORD PTR ___security_cookie
  0001c	33 c5		 xor	 eax, ebp
  0001e	50		 push	 eax
  0001f	8d 45 f4	 lea	 eax, DWORD PTR __$EHRec$[ebp]
  00022	64 a3 00 00 00
	00		 mov	 DWORD PTR fs:0, eax
  00028	8b c1		 mov	 eax, ecx
  0002a	89 45 f0	 mov	 DWORD PTR _this$1$[ebp], eax
; File C:\Program Files (x86)\Microsoft Visual Studio\2019\Community\VC\Tools\MSVC\14.29.30133\atlmfc\include\afxcmn.inl

; 177  : 	{ ASSERT(::IsWindow(m_hWnd)); return (int) ::SendMessage(m_hWnd, LVM_GETNEXTITEM, nItem, MAKELPARAM(nFlags, 0)); }

  0002d	6a 02		 push	 2
  0002f	6a ff		 push	 -1
  00031	68 0c 10 00 00	 push	 4108			; 0000100cH
  00036	ff b0 b8 01 00
	00		 push	 DWORD PTR [eax+440]
  0003c	ff 15 00 00 00
	00		 call	 DWORD PTR __imp__SendMessageA@16
  00042	8b f8		 mov	 edi, eax

; 179  : 	{ ASSERT(::IsWindow(m_hWnd)); return (POSITION)(DWORD_PTR)(1+GetNextItem(-1, LVIS_SELECTED)); }

  00044	83 c7 01	 add	 edi, 1
; File D:\git\src\IBK\IBK_DRFN\ProjSrc\SrcDrfn\Chart\ChartUtil\DlgCompSetup.cpp

; 324  : 	if (pos == NULL)

  00047	0f 84 ba 01 00
	00		 je	 $LN81@OnBtnright
; File C:\Program Files (x86)\Microsoft Visual Studio\2019\Community\VC\Tools\MSVC\14.29.30133\include\vector

; 390  :     _CONSTEXPR20_CONTAINER _Vector_val() noexcept : _Myfirst(), _Mylast(), _Myend() {}

  0004d	33 f6		 xor	 esi, esi
  0004f	c7 45 e0 00 00
	00 00		 mov	 DWORD PTR _nSelList$2[ebp], 0
  00056	33 db		 xor	 ebx, ebx
  00058	89 75 e4	 mov	 DWORD PTR _nSelList$2[ebp+4], esi
  0005b	89 5d e8	 mov	 DWORD PTR _nSelList$2[ebp+8], ebx
; File D:\git\src\IBK\IBK_DRFN\ProjSrc\SrcDrfn\Chart\ChartUtil\DlgCompSetup.cpp

; 329  : 		std::vector<int> nSelList;

  0005e	89 5d fc	 mov	 DWORD PTR __$EHRec$[ebp+8], ebx
$LL2@OnBtnright:
; File C:\Program Files (x86)\Microsoft Visual Studio\2019\Community\VC\Tools\MSVC\14.29.30133\atlmfc\include\afxcmn.inl

; 177  : 	{ ASSERT(::IsWindow(m_hWnd)); return (int) ::SendMessage(m_hWnd, LVM_GETNEXTITEM, nItem, MAKELPARAM(nFlags, 0)); }

  00061	6a 02		 push	 2

; 181  : 	{ ASSERT(::IsWindow(m_hWnd)); DWORD_PTR nOldPos = (DWORD_PTR)pos-1; pos = (POSITION)(DWORD_PTR)(1+GetNextItem((UINT)nOldPos, LVIS_SELECTED)); return (UINT)nOldPos; }

  00063	8d 47 ff	 lea	 eax, DWORD PTR [edi-1]

; 177  : 	{ ASSERT(::IsWindow(m_hWnd)); return (int) ::SendMessage(m_hWnd, LVM_GETNEXTITEM, nItem, MAKELPARAM(nFlags, 0)); }

  00066	50		 push	 eax

; 181  : 	{ ASSERT(::IsWindow(m_hWnd)); DWORD_PTR nOldPos = (DWORD_PTR)pos-1; pos = (POSITION)(DWORD_PTR)(1+GetNextItem((UINT)nOldPos, LVIS_SELECTED)); return (UINT)nOldPos; }

  00067	89 45 ec	 mov	 DWORD PTR _nOldPos$1$[ebp], eax

; 177  : 	{ ASSERT(::IsWindow(m_hWnd)); return (int) ::SendMessage(m_hWnd, LVM_GETNEXTITEM, nItem, MAKELPARAM(nFlags, 0)); }

  0006a	8b 45 f0	 mov	 eax, DWORD PTR _this$1$[ebp]
  0006d	68 0c 10 00 00	 push	 4108			; 0000100cH
  00072	ff b0 b8 01 00
	00		 push	 DWORD PTR [eax+440]
  00078	ff 15 00 00 00
	00		 call	 DWORD PTR __imp__SendMessageA@16

; 181  : 	{ ASSERT(::IsWindow(m_hWnd)); DWORD_PTR nOldPos = (DWORD_PTR)pos-1; pos = (POSITION)(DWORD_PTR)(1+GetNextItem((UINT)nOldPos, LVIS_SELECTED)); return (UINT)nOldPos; }

  0007e	8d 78 01	 lea	 edi, DWORD PTR [eax+1]
; File D:\git\src\IBK\IBK_DRFN\ProjSrc\SrcDrfn\Chart\ChartUtil\DlgCompSetup.cpp

; 332  : 			int nItem = m_ListItem.GetNextSelectedItem(pos);

  00081	8b 45 ec	 mov	 eax, DWORD PTR _nOldPos$1$[ebp]
  00084	89 45 ec	 mov	 DWORD PTR _nItem$3[ebp], eax
; File C:\Program Files (x86)\Microsoft Visual Studio\2019\Community\VC\Tools\MSVC\14.29.30133\include\vector

; 730  :         if (_Mylast != _My_data._Myend) {

  00087	3b f3		 cmp	 esi, ebx
  00089	74 0a		 je	 SHORT $LN28@OnBtnright

; 713  :         _Alty_traits::construct(_Getal(), _Unfancy(_Mylast), _STD forward<_Valty>(_Val)...);

  0008b	89 06		 mov	 DWORD PTR [esi], eax

; 714  :         _Orphan_range(_Mylast, _Mylast);
; 715  :         _Ty& _Result = *_Mylast;
; 716  :         ++_Mylast;

  0008d	83 c6 04	 add	 esi, 4
  00090	89 75 e4	 mov	 DWORD PTR _nSelList$2[ebp+4], esi

; 731  :             return _Emplace_back_with_unused_capacity(_STD forward<_Valty>(_Val)...);

  00093	eb 13		 jmp	 SHORT $LN27@OnBtnright
$LN28@OnBtnright:

; 732  :         }
; 733  : 
; 734  :         _Ty& _Result = *_Emplace_reallocate(_Mylast, _STD forward<_Valty>(_Val)...);

  00095	8d 45 ec	 lea	 eax, DWORD PTR _nItem$3[ebp]
  00098	50		 push	 eax
  00099	56		 push	 esi
  0009a	8d 4d e0	 lea	 ecx, DWORD PTR _nSelList$2[ebp]
  0009d	e8 00 00 00 00	 call	 ??$_Emplace_reallocate@ABH@?$vector@HV?$allocator@H@std@@@std@@QAEPAHQAHABH@Z ; std::vector<int,std::allocator<int> >::_Emplace_reallocate<int const &>
  000a2	8b 5d e8	 mov	 ebx, DWORD PTR _nSelList$2[ebp+8]
  000a5	8b 75 e4	 mov	 esi, DWORD PTR _nSelList$2[ebp+4]
$LN27@OnBtnright:
; File D:\git\src\IBK\IBK_DRFN\ProjSrc\SrcDrfn\Chart\ChartUtil\DlgCompSetup.cpp

; 330  : 		while (pos)

  000a8	85 ff		 test	 edi, edi
  000aa	75 b5		 jne	 SHORT $LL2@OnBtnright
; File C:\Program Files (x86)\Microsoft Visual Studio\2019\Community\VC\Tools\MSVC\14.29.30133\include\vector

; 1536 :         return static_cast<size_type>(_My_data._Mylast - _My_data._Myfirst);

  000ac	8b 45 e0	 mov	 eax, DWORD PTR _nSelList$2[ebp]
  000af	2b f0		 sub	 esi, eax
  000b1	c1 fe 02	 sar	 esi, 2
; File D:\git\src\IBK\IBK_DRFN\ProjSrc\SrcDrfn\Chart\ChartUtil\DlgCompSetup.cpp

; 337  : 		for(int i=nCnt-1; i>=0; i--)

  000b4	8d 7e ff	 lea	 edi, DWORD PTR [esi-1]
  000b7	85 ff		 test	 edi, edi
  000b9	78 20		 js	 SHORT $LN5@OnBtnright
  000bb	0f 1f 44 00 00	 npad	 5
$LL6@OnBtnright:
; File C:\Program Files (x86)\Microsoft Visual Studio\2019\Community\VC\Tools\MSVC\14.29.30133\include\vector

; 1571 :         if (static_cast<size_type>(_My_data._Mylast - _My_data._Myfirst) <= _Pos) {

  000c0	3b f7		 cmp	 esi, edi
  000c2	0f 86 51 01 00
	00		 jbe	 $LN122@OnBtnright
; File D:\git\src\IBK\IBK_DRFN\ProjSrc\SrcDrfn\Chart\ChartUtil\DlgCompSetup.cpp

; 339  : 			DoDeleteItem(nSelList.at(i));

  000c8	ff 34 b8	 push	 DWORD PTR [eax+edi*4]
  000cb	8b 4d f0	 mov	 ecx, DWORD PTR _this$1$[ebp]
  000ce	e8 00 00 00 00	 call	 ?DoDeleteItem@CDlgCompSetup@@IAEXH@Z ; CDlgCompSetup::DoDeleteItem
  000d3	83 ef 01	 sub	 edi, 1
  000d6	8b 45 e0	 mov	 eax, DWORD PTR _nSelList$2[ebp]
  000d9	79 e5		 jns	 SHORT $LL6@OnBtnright
$LN5@OnBtnright:
; File C:\Program Files (x86)\Microsoft Visual Studio\2019\Community\VC\Tools\MSVC\14.29.30133\include\vector

; 1571 :         if (static_cast<size_type>(_My_data._Mylast - _My_data._Myfirst) <= _Pos) {

  000db	85 f6		 test	 esi, esi
  000dd	0f 84 36 01 00
	00		 je	 $LN122@OnBtnright
; File D:\git\src\IBK\IBK_DRFN\ProjSrc\SrcDrfn\Chart\ChartUtil\DlgCompSetup.cpp

; 344  : 		m_nListItemSel--;

  000e3	8b 75 f0	 mov	 esi, DWORD PTR _this$1$[ebp]
  000e6	8b 00		 mov	 eax, DWORD PTR [eax]
; File C:\Program Files (x86)\Microsoft Visual Studio\2019\Community\VC\Tools\MSVC\14.29.30133\atlmfc\include\afxcmn.inl

; 155  : 	{ ASSERT(::IsWindow(m_hWnd)); return (int) ::SendMessage(m_hWnd, LVM_GETITEMCOUNT, 0, 0L); }

  000e8	6a 00		 push	 0
  000ea	6a 00		 push	 0
  000ec	68 04 10 00 00	 push	 4100			; 00001004H
  000f1	ff b6 b8 01 00
	00		 push	 DWORD PTR [esi+440]
; File D:\git\src\IBK\IBK_DRFN\ProjSrc\SrcDrfn\Chart\ChartUtil\DlgCompSetup.cpp

; 344  : 		m_nListItemSel--;

  000f7	48		 dec	 eax
  000f8	89 86 d8 00 00
	00		 mov	 DWORD PTR [esi+216], eax
; File C:\Program Files (x86)\Microsoft Visual Studio\2019\Community\VC\Tools\MSVC\14.29.30133\atlmfc\include\afxcmn.inl

; 155  : 	{ ASSERT(::IsWindow(m_hWnd)); return (int) ::SendMessage(m_hWnd, LVM_GETITEMCOUNT, 0, 0L); }

  000fe	ff 15 00 00 00
	00		 call	 DWORD PTR __imp__SendMessageA@16
; File D:\git\src\IBK\IBK_DRFN\ProjSrc\SrcDrfn\Chart\ChartUtil\DlgCompSetup.cpp

; 945  : 	if(nCnt==0)

  00104	85 c0		 test	 eax, eax
  00106	75 0f		 jne	 SHORT $LN116@OnBtnright

; 946  : 	{
; 947  : 		m_nListItemSel = -1;

  00108	c7 86 d8 00 00
	00 ff ff ff ff	 mov	 DWORD PTR [esi+216], -1
  00112	83 cf ff	 or	 edi, -1
  00115	eb 06		 jmp	 SHORT $LN42@OnBtnright
$LN116@OnBtnright:
  00117	8b be d8 00 00
	00		 mov	 edi, DWORD PTR [esi+216]
$LN42@OnBtnright:

; 345  : 		DoCurItemChange();
; 346  : 		fnSelectItem(m_pCurGroup, m_nListItemSel);

  0011d	8b 86 cc 00 00
	00		 mov	 eax, DWORD PTR [esi+204]

; 620  : 	if(pGroupData==NULL)

  00123	85 c0		 test	 eax, eax
  00125	75 3f		 jne	 SHORT $LN121@OnBtnright
; File C:\Program Files (x86)\Microsoft Visual Studio\2019\Community\VC\Tools\MSVC\14.29.30133\atlmfc\include\afxwin2.inl

; 666  : 	{ ASSERT(::IsWindow(m_hWnd)); return (int)::SendMessage(m_hWnd, LB_GETCURSEL, 0, 0); }

  00127	50		 push	 eax
  00128	50		 push	 eax
  00129	68 88 01 00 00	 push	 392			; 00000188H
  0012e	ff b6 38 02 00
	00		 push	 DWORD PTR [esi+568]
  00134	ff 15 00 00 00
	00		 call	 DWORD PTR __imp__SendMessageA@16
; File D:\git\src\IBK\IBK_DRFN\ProjSrc\SrcDrfn\Chart\ChartUtil\DlgCompSetup.cpp

; 623  : 		if(nGroup<0) return;

  0013a	85 c0		 test	 eax, eax
  0013c	0f 88 93 00 00
	00		 js	 $LN67@OnBtnright
; File C:\Program Files (x86)\Microsoft Visual Studio\2019\Community\VC\Tools\MSVC\14.29.30133\atlmfc\include\afxtempl.h

; 1133 : 	if (nIndex >= m_nCount || nIndex < 0)

  00142	3b 86 bc 00 00
	00		 cmp	 eax, DWORD PTR [esi+188]
  00148	7d 13		 jge	 SHORT $LN59@OnBtnright

; 1135 : 
; 1136 : 	CNode* pNode = m_pNodeHead;

  0014a	8b 8e b4 00 00
	00		 mov	 ecx, DWORD PTR [esi+180]

; 1137 : 	while (nIndex--)

  00150	85 c0		 test	 eax, eax
  00152	74 0b		 je	 SHORT $LN55@OnBtnright
$LL56@OnBtnright:

; 1138 : 	{
; 1139 : 		ASSERT(AfxIsValidAddress(pNode, sizeof(CNode)));
; 1140 : 		pNode = pNode->pNext;

  00154	8b 09		 mov	 ecx, DWORD PTR [ecx]
  00156	83 e8 01	 sub	 eax, 1
  00159	75 f9		 jne	 SHORT $LL56@OnBtnright

; 1141 : 	}
; 1142 : 	return (POSITION) pNode;

  0015b	eb 02		 jmp	 SHORT $LN55@OnBtnright
$LN59@OnBtnright:

; 1134 : 		return NULL;  // went too far

  0015d	33 c9		 xor	 ecx, ecx
$LN55@OnBtnright:
; File D:\git\src\IBK\IBK_DRFN\ProjSrc\SrcDrfn\Chart\ChartUtil\DlgCompSetup.cpp

; 626  : 		pGroupData = m_GroupList.GetAt(pos);

  0015f	8b 41 08	 mov	 eax, DWORD PTR [ecx+8]

; 627  : 	}
; 628  : 	if(pGroupData==NULL) return;

  00162	85 c0		 test	 eax, eax
  00164	74 6f		 je	 SHORT $LN67@OnBtnright
$LN121@OnBtnright:
; File C:\Program Files (x86)\Microsoft Visual Studio\2019\Community\VC\Tools\MSVC\14.29.30133\atlmfc\include\afxtempl.h

; 1133 : 	if (nIndex >= m_nCount || nIndex < 0)

  00166	3b 78 10	 cmp	 edi, DWORD PTR [eax+16]
  00169	7d 6a		 jge	 SHORT $LN67@OnBtnright
  0016b	85 ff		 test	 edi, edi
  0016d	78 66		 js	 SHORT $LN67@OnBtnright

; 1135 : 
; 1136 : 	CNode* pNode = m_pNodeHead;

  0016f	8b 40 08	 mov	 eax, DWORD PTR [eax+8]

; 1137 : 	while (nIndex--)

  00172	74 07		 je	 SHORT $LN110@OnBtnright
$LL62@OnBtnright:

; 1138 : 	{
; 1139 : 		ASSERT(AfxIsValidAddress(pNode, sizeof(CNode)));
; 1140 : 		pNode = pNode->pNext;

  00174	8b 00		 mov	 eax, DWORD PTR [eax]
  00176	83 ef 01	 sub	 edi, 1
  00179	75 f9		 jne	 SHORT $LL62@OnBtnright
$LN110@OnBtnright:
; File D:\git\src\IBK\IBK_DRFN\ProjSrc\SrcDrfn\Chart\ChartUtil\DlgCompSetup.cpp

; 631  : 	if(!pos) return;

  0017b	85 c0		 test	 eax, eax
  0017d	74 56		 je	 SHORT $LN67@OnBtnright

; 632  : 
; 633  : 	CDlgCompSubItem* pItem = pGroupData->m_ItemList.GetAt(pos);

  0017f	8b 78 08	 mov	 edi, DWORD PTR [eax+8]

; 639  : 	if(!pItem) return;

  00182	85 ff		 test	 edi, edi
  00184	74 4f		 je	 SHORT $LN67@OnBtnright

; 640  : 
; 641  : 	//    .
; 642  : 	m_pCurSubItem = pItem;

  00186	89 be d0 00 00
	00		 mov	 DWORD PTR [esi+208], edi

; 960  : 	SetDlgItemText(IDC_TXTTITLE, pCurSubItem->m_szCodeName);

  0018c	8b ce		 mov	 ecx, esi
  0018e	ff 77 04	 push	 DWORD PTR [edi+4]
  00191	68 79 17 00 00	 push	 6009			; 00001779H
  00196	e8 00 00 00 00	 call	 ?SetDlgItemTextA@CWnd@@QAEXHPBD@Z ; CWnd::SetDlgItemTextA

; 961  : 	m_btnTextColor.SetColor(pCurSubItem->m_clr);

  0019b	ff 77 08	 push	 DWORD PTR [edi+8]
  0019e	8d 8e 18 03 00
	00		 lea	 ecx, DWORD PTR [esi+792]
  001a4	e8 00 00 00 00	 call	 ?SetColor@CXColourPicker@@QAEXK@Z ; CXColourPicker::SetColor
; File C:\Program Files (x86)\Microsoft Visual Studio\2019\Community\VC\Tools\MSVC\14.29.30133\atlmfc\include\afxwin2.inl

; 767  : 	{ ASSERT(::IsWindow(m_hWnd)); return (int)::SendMessage(m_hWnd, CB_SETCURSEL, nSelect, 0); }

  001a9	6a 00		 push	 0
  001ab	ff 77 0c	 push	 DWORD PTR [edi+12]
  001ae	68 4e 01 00 00	 push	 334			; 0000014eH
  001b3	ff b6 e0 05 00
	00		 push	 DWORD PTR [esi+1504]
  001b9	ff 15 00 00 00
	00		 call	 DWORD PTR __imp__SendMessageA@16
  001bf	6a 00		 push	 0
  001c1	ff 77 10	 push	 DWORD PTR [edi+16]
  001c4	68 4e 01 00 00	 push	 334			; 0000014eH
  001c9	ff b6 58 05 00
	00		 push	 DWORD PTR [esi+1368]
  001cf	ff 15 00 00 00
	00		 call	 DWORD PTR __imp__SendMessageA@16
$LN67@OnBtnright:
; File C:\Program Files (x86)\Microsoft Visual Studio\2019\Community\VC\Tools\MSVC\14.29.30133\include\vector

; 1752 :             _Getal().deallocate(_Myfirst, static_cast<size_type>(_Myend - _Myfirst));

  001d5	8b 4d e0	 mov	 ecx, DWORD PTR _nSelList$2[ebp]
  001d8	2b d9		 sub	 ebx, ecx
; File C:\Program Files (x86)\Microsoft Visual Studio\2019\Community\VC\Tools\MSVC\14.29.30133\include\xmemory

; 797  :         _Deallocate<_New_alignof<_Ty>>(_Ptr, sizeof(_Ty) * _Count);

  001da	83 e3 fc	 and	 ebx, -4			; fffffffcH
  001dd	8b c1		 mov	 eax, ecx

; 251  :         if (_Bytes >= _Big_allocation_threshold) { // boost the alignment of big allocations to help autovectorization

  001df	81 fb 00 10 00
	00		 cmp	 ebx, 4096		; 00001000H
  001e5	72 16		 jb	 SHORT $LN97@OnBtnright

; 150  :     const uintptr_t _Ptr_container   = _Ptr_user[-1];

  001e7	8b 49 fc	 mov	 ecx, DWORD PTR [ecx-4]
  001ea	83 c3 23	 add	 ebx, 35			; 00000023H
  001ed	2b c1		 sub	 eax, ecx

; 151  : 
; 152  :     // If the following asserts, it likely means that we are performing
; 153  :     // an aligned delete on memory coming from an unaligned allocation.
; 154  :     _STL_ASSERT(_Ptr_user[-2] == _Big_allocation_sentinel, "invalid argument");
; 155  : 
; 156  :     // Extra paranoia on aligned allocation/deallocation; ensure _Ptr_container is
; 157  :     // in range [_Min_back_shift, _Non_user_size]
; 158  : #ifdef _DEBUG
; 159  :     constexpr uintptr_t _Min_back_shift = 2 * sizeof(void*);
; 160  : #else // ^^^ _DEBUG ^^^ // vvv !_DEBUG vvv
; 161  :     constexpr uintptr_t _Min_back_shift = sizeof(void*);
; 162  : #endif // _DEBUG
; 163  :     const uintptr_t _Back_shift = reinterpret_cast<uintptr_t>(_Ptr) - _Ptr_container;
; 164  :     _STL_VERIFY(_Back_shift >= _Min_back_shift && _Back_shift <= _Non_user_size, "invalid argument");

  001ef	83 c0 fc	 add	 eax, -4			; fffffffcH
  001f2	83 f8 1f	 cmp	 eax, 31			; 0000001fH
  001f5	76 06		 jbe	 SHORT $LN97@OnBtnright
  001f7	ff 15 00 00 00
	00		 call	 DWORD PTR __imp___invalid_parameter_noinfo_noreturn
$LN97@OnBtnright:

; 255  :         ::operator delete(_Ptr, _Bytes);

  001fd	53		 push	 ebx
  001fe	51		 push	 ecx
  001ff	e8 00 00 00 00	 call	 ??3@YAXPAXI@Z		; operator delete
  00204	83 c4 08	 add	 esp, 8
$LN81@OnBtnright:
; File D:\git\src\IBK\IBK_DRFN\ProjSrc\SrcDrfn\Chart\ChartUtil\DlgCompSetup.cpp

; 351  : }

  00207	8b 4d f4	 mov	 ecx, DWORD PTR __$EHRec$[ebp]
  0020a	64 89 0d 00 00
	00 00		 mov	 DWORD PTR fs:0, ecx
  00211	59		 pop	 ecx
  00212	5f		 pop	 edi
  00213	5e		 pop	 esi
  00214	5b		 pop	 ebx
  00215	8b e5		 mov	 esp, ebp
  00217	5d		 pop	 ebp
  00218	c3		 ret	 0
$LN122@OnBtnright:
; File C:\Program Files (x86)\Microsoft Visual Studio\2019\Community\VC\Tools\MSVC\14.29.30133\include\vector

; 1572 :             _Xrange();

  00219	e8 00 00 00 00	 call	 ?_Xrange@?$vector@HV?$allocator@H@std@@@std@@CAXXZ ; std::vector<int,std::allocator<int> >::_Xrange
$LN124@OnBtnright:
  0021e	cc		 int	 3
_TEXT	ENDS
;	COMDAT text$x
text$x	SEGMENT
__unwindfunclet$?OnBtnright@CDlgCompSetup@@IAEXXZ$0:
  00000	8d 4d e0	 lea	 ecx, DWORD PTR _nSelList$2[ebp]
  00003	e9 00 00 00 00	 jmp	 ??1?$vector@HV?$allocator@H@std@@@std@@QAE@XZ ; std::vector<int,std::allocator<int> >::~vector<int,std::allocator<int> >
  00008	cc		 int	 3
  00009	cc		 int	 3
  0000a	cc		 int	 3
  0000b	cc		 int	 3
  0000c	cc		 int	 3
__ehhandler$?OnBtnright@CDlgCompSetup@@IAEXXZ:
  0000d	90		 npad	 1
  0000e	90		 npad	 1
  0000f	8b 54 24 08	 mov	 edx, DWORD PTR [esp+8]
  00013	8d 42 0c	 lea	 eax, DWORD PTR [edx+12]
  00016	8b 4a dc	 mov	 ecx, DWORD PTR [edx-36]
  00019	33 c8		 xor	 ecx, eax
  0001b	e8 00 00 00 00	 call	 @__security_check_cookie@4
  00020	b8 00 00 00 00	 mov	 eax, OFFSET __ehfuncinfo$?OnBtnright@CDlgCompSetup@@IAEXXZ
  00025	e9 00 00 00 00	 jmp	 ___CxxFrameHandler3
text$x	ENDS
?OnBtnright@CDlgCompSetup@@IAEXXZ ENDP			; CDlgCompSetup::OnBtnright
; Function compile flags: /Ogtp
; File D:\git\src\IBK\IBK_DRFN\ProjSrc\SrcDrfn\Chart\ChartUtil\DlgCompSetup.cpp
; File C:\Program Files (x86)\Microsoft Visual Studio\2019\Community\VC\Tools\MSVC\14.29.30133\atlmfc\include\afxcmn.inl
; File D:\git\src\IBK\IBK_DRFN\ProjSrc\SrcDrfn\Chart\ChartUtil\DlgCompSetup.cpp
; File C:\Program Files (x86)\Microsoft Visual Studio\2019\Community\VC\Tools\MSVC\14.29.30133\include\vector
; File D:\git\src\IBK\IBK_DRFN\ProjSrc\SrcDrfn\Chart\ChartUtil\DlgCompSetup.cpp
; File C:\Program Files (x86)\Microsoft Visual Studio\2019\Community\VC\Tools\MSVC\14.29.30133\atlmfc\include\afxcmn.inl
; File D:\git\src\IBK\IBK_DRFN\ProjSrc\SrcDrfn\Chart\ChartUtil\DlgCompSetup.cpp
; File C:\Program Files (x86)\Microsoft Visual Studio\2019\Community\VC\Tools\MSVC\14.29.30133\atlmfc\include\afxcmn.inl
; File D:\git\src\IBK\IBK_DRFN\ProjSrc\SrcDrfn\Chart\ChartUtil\DlgCompSetup.cpp
; File C:\Program Files (x86)\Microsoft Visual Studio\2019\Community\VC\Tools\MSVC\14.29.30133\include\vector
; File D:\git\src\IBK\IBK_DRFN\ProjSrc\SrcDrfn\Chart\ChartUtil\DlgCompSetup.cpp
; File C:\Program Files (x86)\Microsoft Visual Studio\2019\Community\VC\Tools\MSVC\14.29.30133\include\vector
; File D:\git\src\IBK\IBK_DRFN\ProjSrc\SrcDrfn\Chart\ChartUtil\DlgCompSetup.cpp
; File C:\Program Files (x86)\Microsoft Visual Studio\2019\Community\VC\Tools\MSVC\14.29.30133\include\vector
; File D:\git\src\IBK\IBK_DRFN\ProjSrc\SrcDrfn\Chart\ChartUtil\DlgCompSetup.cpp
; File C:\Program Files (x86)\Microsoft Visual Studio\2019\Community\VC\Tools\MSVC\14.29.30133\include\vector
; File C:\Program Files (x86)\Microsoft Visual Studio\2019\Community\VC\Tools\MSVC\14.29.30133\include\xmemory
; File D:\git\src\IBK\IBK_DRFN\ProjSrc\SrcDrfn\Chart\ChartUtil\DlgCompSetup.cpp
;	COMDAT ?OnBtnleft@CDlgCompSetup@@IAEXXZ
_TEXT	SEGMENT
_nSelList$2 = -36					; size = 12
_this$1$ = -24						; size = 4
_pos$1$ = -20						; size = 4
__Bytes$1$ = -16					; size = 4
_nOldPos$1$ = -16					; size = 4
_nItem$3 = -16						; size = 4
__$EHRec$ = -12						; size = 12
?OnBtnleft@CDlgCompSetup@@IAEXXZ PROC			; CDlgCompSetup::OnBtnleft, COMDAT
; _this$ = ecx

; 284  : {

  00000	55		 push	 ebp
  00001	8b ec		 mov	 ebp, esp
  00003	6a ff		 push	 -1
  00005	68 00 00 00 00	 push	 __ehhandler$?OnBtnleft@CDlgCompSetup@@IAEXXZ
  0000a	64 a1 00 00 00
	00		 mov	 eax, DWORD PTR fs:0
  00010	50		 push	 eax
  00011	83 ec 18	 sub	 esp, 24			; 00000018H
  00014	53		 push	 ebx
  00015	56		 push	 esi
  00016	57		 push	 edi
  00017	a1 00 00 00 00	 mov	 eax, DWORD PTR ___security_cookie
  0001c	33 c5		 xor	 eax, ebp
  0001e	50		 push	 eax
  0001f	8d 45 f4	 lea	 eax, DWORD PTR __$EHRec$[ebp]
  00022	64 a3 00 00 00
	00		 mov	 DWORD PTR fs:0, eax
  00028	8b f1		 mov	 esi, ecx
  0002a	89 75 e8	 mov	 DWORD PTR _this$1$[ebp], esi

; 285  : 	if(m_nAddType==1)

  0002d	83 be a8 00 00
	00 01		 cmp	 DWORD PTR [esi+168], 1
  00034	75 23		 jne	 SHORT $LN6@OnBtnleft

; 286  : 		DoGridAddToItem(m_szGridSelCode, m_szGridSelCodeName);

  00036	ff b6 14 07 00
	00		 push	 DWORD PTR [esi+1812]
  0003c	ff b6 10 07 00
	00		 push	 DWORD PTR [esi+1808]
  00042	e8 00 00 00 00	 call	 ?DoGridAddToItem@CDlgCompSetup@@IAEXPBD0@Z ; CDlgCompSetup::DoGridAddToItem

; 313  : }

  00047	8b 4d f4	 mov	 ecx, DWORD PTR __$EHRec$[ebp]
  0004a	64 89 0d 00 00
	00 00		 mov	 DWORD PTR fs:0, ecx
  00051	59		 pop	 ecx
  00052	5f		 pop	 edi
  00053	5e		 pop	 esi
  00054	5b		 pop	 ebx
  00055	8b e5		 mov	 esp, ebp
  00057	5d		 pop	 ebp
  00058	c3		 ret	 0
$LN6@OnBtnleft:
; File C:\Program Files (x86)\Microsoft Visual Studio\2019\Community\VC\Tools\MSVC\14.29.30133\atlmfc\include\afxcmn.inl

; 177  : 	{ ASSERT(::IsWindow(m_hWnd)); return (int) ::SendMessage(m_hWnd, LVM_GETNEXTITEM, nItem, MAKELPARAM(nFlags, 0)); }

  00059	6a 02		 push	 2
  0005b	6a ff		 push	 -1
  0005d	68 0c 10 00 00	 push	 4108			; 0000100cH
  00062	ff b6 08 01 00
	00		 push	 DWORD PTR [esi+264]
  00068	ff 15 00 00 00
	00		 call	 DWORD PTR __imp__SendMessageA@16

; 179  : 	{ ASSERT(::IsWindow(m_hWnd)); return (POSITION)(DWORD_PTR)(1+GetNextItem(-1, LVIS_SELECTED)); }

  0006e	83 c0 01	 add	 eax, 1
; File D:\git\src\IBK\IBK_DRFN\ProjSrc\SrcDrfn\Chart\ChartUtil\DlgCompSetup.cpp

; 292  : 		if (pos == NULL)

  00071	0f 84 c9 00 00
	00		 je	 $LN60@OnBtnleft
; File C:\Program Files (x86)\Microsoft Visual Studio\2019\Community\VC\Tools\MSVC\14.29.30133\include\vector

; 390  :     _CONSTEXPR20_CONTAINER _Vector_val() noexcept : _Myfirst(), _Mylast(), _Myend() {}

  00077	33 ff		 xor	 edi, edi
  00079	c7 45 dc 00 00
	00 00		 mov	 DWORD PTR _nSelList$2[ebp], 0
  00080	33 db		 xor	 ebx, ebx
  00082	89 7d e0	 mov	 DWORD PTR _nSelList$2[ebp+4], edi
  00085	89 5d e4	 mov	 DWORD PTR _nSelList$2[ebp+8], ebx
; File D:\git\src\IBK\IBK_DRFN\ProjSrc\SrcDrfn\Chart\ChartUtil\DlgCompSetup.cpp

; 296  : 			std::vector<int> nSelList;

  00088	89 5d fc	 mov	 DWORD PTR __$EHRec$[ebp+8], ebx
  0008b	0f 1f 44 00 00	 npad	 5
$LL2@OnBtnleft:
; File C:\Program Files (x86)\Microsoft Visual Studio\2019\Community\VC\Tools\MSVC\14.29.30133\atlmfc\include\afxcmn.inl

; 177  : 	{ ASSERT(::IsWindow(m_hWnd)); return (int) ::SendMessage(m_hWnd, LVM_GETNEXTITEM, nItem, MAKELPARAM(nFlags, 0)); }

  00090	6a 02		 push	 2

; 181  : 	{ ASSERT(::IsWindow(m_hWnd)); DWORD_PTR nOldPos = (DWORD_PTR)pos-1; pos = (POSITION)(DWORD_PTR)(1+GetNextItem((UINT)nOldPos, LVIS_SELECTED)); return (UINT)nOldPos; }

  00092	48		 dec	 eax

; 177  : 	{ ASSERT(::IsWindow(m_hWnd)); return (int) ::SendMessage(m_hWnd, LVM_GETNEXTITEM, nItem, MAKELPARAM(nFlags, 0)); }

  00093	50		 push	 eax
  00094	68 0c 10 00 00	 push	 4108			; 0000100cH
  00099	ff b6 08 01 00
	00		 push	 DWORD PTR [esi+264]

; 181  : 	{ ASSERT(::IsWindow(m_hWnd)); DWORD_PTR nOldPos = (DWORD_PTR)pos-1; pos = (POSITION)(DWORD_PTR)(1+GetNextItem((UINT)nOldPos, LVIS_SELECTED)); return (UINT)nOldPos; }

  0009f	89 45 f0	 mov	 DWORD PTR _nOldPos$1$[ebp], eax

; 177  : 	{ ASSERT(::IsWindow(m_hWnd)); return (int) ::SendMessage(m_hWnd, LVM_GETNEXTITEM, nItem, MAKELPARAM(nFlags, 0)); }

  000a2	ff 15 00 00 00
	00		 call	 DWORD PTR __imp__SendMessageA@16
; File D:\git\src\IBK\IBK_DRFN\ProjSrc\SrcDrfn\Chart\ChartUtil\DlgCompSetup.cpp

; 299  : 				int nItem = m_ListCodes.GetNextSelectedItem(pos);

  000a8	8b 4d f0	 mov	 ecx, DWORD PTR _nOldPos$1$[ebp]
; File C:\Program Files (x86)\Microsoft Visual Studio\2019\Community\VC\Tools\MSVC\14.29.30133\atlmfc\include\afxcmn.inl

; 181  : 	{ ASSERT(::IsWindow(m_hWnd)); DWORD_PTR nOldPos = (DWORD_PTR)pos-1; pos = (POSITION)(DWORD_PTR)(1+GetNextItem((UINT)nOldPos, LVIS_SELECTED)); return (UINT)nOldPos; }

  000ab	40		 inc	 eax
  000ac	89 45 ec	 mov	 DWORD PTR _pos$1$[ebp], eax
; File D:\git\src\IBK\IBK_DRFN\ProjSrc\SrcDrfn\Chart\ChartUtil\DlgCompSetup.cpp

; 299  : 				int nItem = m_ListCodes.GetNextSelectedItem(pos);

  000af	89 4d f0	 mov	 DWORD PTR _nItem$3[ebp], ecx
; File C:\Program Files (x86)\Microsoft Visual Studio\2019\Community\VC\Tools\MSVC\14.29.30133\include\vector

; 730  :         if (_Mylast != _My_data._Myend) {

  000b2	3b fb		 cmp	 edi, ebx
  000b4	74 0a		 je	 SHORT $LN33@OnBtnleft

; 713  :         _Alty_traits::construct(_Getal(), _Unfancy(_Mylast), _STD forward<_Valty>(_Val)...);

  000b6	89 0f		 mov	 DWORD PTR [edi], ecx

; 714  :         _Orphan_range(_Mylast, _Mylast);
; 715  :         _Ty& _Result = *_Mylast;
; 716  :         ++_Mylast;

  000b8	83 c7 04	 add	 edi, 4
  000bb	89 7d e0	 mov	 DWORD PTR _nSelList$2[ebp+4], edi

; 731  :             return _Emplace_back_with_unused_capacity(_STD forward<_Valty>(_Val)...);

  000be	eb 16		 jmp	 SHORT $LN32@OnBtnleft
$LN33@OnBtnleft:

; 732  :         }
; 733  : 
; 734  :         _Ty& _Result = *_Emplace_reallocate(_Mylast, _STD forward<_Valty>(_Val)...);

  000c0	8d 45 f0	 lea	 eax, DWORD PTR _nItem$3[ebp]
  000c3	50		 push	 eax
  000c4	57		 push	 edi
  000c5	8d 4d dc	 lea	 ecx, DWORD PTR _nSelList$2[ebp]
  000c8	e8 00 00 00 00	 call	 ??$_Emplace_reallocate@ABH@?$vector@HV?$allocator@H@std@@@std@@QAEPAHQAHABH@Z ; std::vector<int,std::allocator<int> >::_Emplace_reallocate<int const &>
  000cd	8b 5d e4	 mov	 ebx, DWORD PTR _nSelList$2[ebp+8]
  000d0	8b 7d e0	 mov	 edi, DWORD PTR _nSelList$2[ebp+4]
  000d3	8b 45 ec	 mov	 eax, DWORD PTR _pos$1$[ebp]
$LN32@OnBtnleft:
; File D:\git\src\IBK\IBK_DRFN\ProjSrc\SrcDrfn\Chart\ChartUtil\DlgCompSetup.cpp

; 297  : 			while (pos)

  000d6	85 c0		 test	 eax, eax
  000d8	75 b6		 jne	 SHORT $LL2@OnBtnleft
; File C:\Program Files (x86)\Microsoft Visual Studio\2019\Community\VC\Tools\MSVC\14.29.30133\include\vector

; 41   :     _CONSTEXPR20_CONTAINER _Vector_const_iterator(_Tptr _Parg, const _Container_base* _Pvector) noexcept : _Ptr(_Parg) {

  000da	8b 4d dc	 mov	 ecx, DWORD PTR _nSelList$2[ebp]
  000dd	8b f1		 mov	 esi, ecx
  000df	89 5d f0	 mov	 DWORD PTR __Bytes$1$[ebp], ebx
  000e2	3b f7		 cmp	 esi, edi
; File D:\git\src\IBK\IBK_DRFN\ProjSrc\SrcDrfn\Chart\ChartUtil\DlgCompSetup.cpp

; 303  : 			while(it != nSelList.end())

  000e4	74 27		 je	 SHORT $LN5@OnBtnleft
  000e6	8b 5d e8	 mov	 ebx, DWORD PTR _this$1$[ebp]
  000e9	0f 1f 80 00 00
	00 00		 npad	 7
$LL4@OnBtnleft:

; 304  : 			{
; 305  : 				m_nListCodeSel = *it;

  000f0	8b 06		 mov	 eax, DWORD PTR [esi]

; 306  : 				DoAddToItem(m_nListCodeSel);

  000f2	8b cb		 mov	 ecx, ebx
  000f4	50		 push	 eax
  000f5	89 83 dc 00 00
	00		 mov	 DWORD PTR [ebx+220], eax
  000fb	e8 00 00 00 00	 call	 ?DoAddToItem@CDlgCompSetup@@IAEXH@Z ; CDlgCompSetup::DoAddToItem
; File C:\Program Files (x86)\Microsoft Visual Studio\2019\Community\VC\Tools\MSVC\14.29.30133\include\vector

; 74   :         ++_Ptr;

  00100	83 c6 04	 add	 esi, 4

; 150  :         return _Ptr == _Right._Ptr;

  00103	3b f7		 cmp	 esi, edi
; File D:\git\src\IBK\IBK_DRFN\ProjSrc\SrcDrfn\Chart\ChartUtil\DlgCompSetup.cpp

; 303  : 			while(it != nSelList.end())

  00105	75 e9		 jne	 SHORT $LL4@OnBtnleft
  00107	8b 5d f0	 mov	 ebx, DWORD PTR __Bytes$1$[ebp]
  0010a	8b 4d dc	 mov	 ecx, DWORD PTR _nSelList$2[ebp]
$LN5@OnBtnleft:
; File C:\Program Files (x86)\Microsoft Visual Studio\2019\Community\VC\Tools\MSVC\14.29.30133\include\vector

; 1750 :         if (_Myfirst) { // destroy and deallocate old array

  0010d	85 c9		 test	 ecx, ecx
  0010f	74 2f		 je	 SHORT $LN60@OnBtnleft

; 1751 :             _Destroy(_Myfirst, _Mylast);
; 1752 :             _Getal().deallocate(_Myfirst, static_cast<size_type>(_Myend - _Myfirst));

  00111	2b d9		 sub	 ebx, ecx
; File C:\Program Files (x86)\Microsoft Visual Studio\2019\Community\VC\Tools\MSVC\14.29.30133\include\xmemory

; 797  :         _Deallocate<_New_alignof<_Ty>>(_Ptr, sizeof(_Ty) * _Count);

  00113	8b c1		 mov	 eax, ecx
  00115	83 e3 fc	 and	 ebx, -4			; fffffffcH

; 251  :         if (_Bytes >= _Big_allocation_threshold) { // boost the alignment of big allocations to help autovectorization

  00118	81 fb 00 10 00
	00		 cmp	 ebx, 4096		; 00001000H
  0011e	72 16		 jb	 SHORT $LN76@OnBtnleft

; 150  :     const uintptr_t _Ptr_container   = _Ptr_user[-1];

  00120	8b 49 fc	 mov	 ecx, DWORD PTR [ecx-4]
  00123	83 c3 23	 add	 ebx, 35			; 00000023H
  00126	2b c1		 sub	 eax, ecx

; 151  : 
; 152  :     // If the following asserts, it likely means that we are performing
; 153  :     // an aligned delete on memory coming from an unaligned allocation.
; 154  :     _STL_ASSERT(_Ptr_user[-2] == _Big_allocation_sentinel, "invalid argument");
; 155  : 
; 156  :     // Extra paranoia on aligned allocation/deallocation; ensure _Ptr_container is
; 157  :     // in range [_Min_back_shift, _Non_user_size]
; 158  : #ifdef _DEBUG
; 159  :     constexpr uintptr_t _Min_back_shift = 2 * sizeof(void*);
; 160  : #else // ^^^ _DEBUG ^^^ // vvv !_DEBUG vvv
; 161  :     constexpr uintptr_t _Min_back_shift = sizeof(void*);
; 162  : #endif // _DEBUG
; 163  :     const uintptr_t _Back_shift = reinterpret_cast<uintptr_t>(_Ptr) - _Ptr_container;
; 164  :     _STL_VERIFY(_Back_shift >= _Min_back_shift && _Back_shift <= _Non_user_size, "invalid argument");

  00128	83 c0 fc	 add	 eax, -4			; fffffffcH
  0012b	83 f8 1f	 cmp	 eax, 31			; 0000001fH
  0012e	76 06		 jbe	 SHORT $LN76@OnBtnleft
  00130	ff 15 00 00 00
	00		 call	 DWORD PTR __imp___invalid_parameter_noinfo_noreturn
$LN76@OnBtnleft:

; 255  :         ::operator delete(_Ptr, _Bytes);

  00136	53		 push	 ebx
  00137	51		 push	 ecx
  00138	e8 00 00 00 00	 call	 ??3@YAXPAXI@Z		; operator delete
  0013d	83 c4 08	 add	 esp, 8
$LN60@OnBtnleft:
; File D:\git\src\IBK\IBK_DRFN\ProjSrc\SrcDrfn\Chart\ChartUtil\DlgCompSetup.cpp

; 313  : }

  00140	8b 4d f4	 mov	 ecx, DWORD PTR __$EHRec$[ebp]
  00143	64 89 0d 00 00
	00 00		 mov	 DWORD PTR fs:0, ecx
  0014a	59		 pop	 ecx
  0014b	5f		 pop	 edi
  0014c	5e		 pop	 esi
  0014d	5b		 pop	 ebx
  0014e	8b e5		 mov	 esp, ebp
  00150	5d		 pop	 ebp
  00151	c3		 ret	 0
$LN90@OnBtnleft:
_TEXT	ENDS
;	COMDAT text$x
text$x	SEGMENT
__unwindfunclet$?OnBtnleft@CDlgCompSetup@@IAEXXZ$0:
  00000	8d 4d dc	 lea	 ecx, DWORD PTR _nSelList$2[ebp]
  00003	e9 00 00 00 00	 jmp	 ??1?$vector@HV?$allocator@H@std@@@std@@QAE@XZ ; std::vector<int,std::allocator<int> >::~vector<int,std::allocator<int> >
  00008	cc		 int	 3
  00009	cc		 int	 3
  0000a	cc		 int	 3
  0000b	cc		 int	 3
  0000c	cc		 int	 3
__ehhandler$?OnBtnleft@CDlgCompSetup@@IAEXXZ:
  0000d	90		 npad	 1
  0000e	90		 npad	 1
  0000f	8b 54 24 08	 mov	 edx, DWORD PTR [esp+8]
  00013	8d 42 0c	 lea	 eax, DWORD PTR [edx+12]
  00016	8b 4a d8	 mov	 ecx, DWORD PTR [edx-40]
  00019	33 c8		 xor	 ecx, eax
  0001b	e8 00 00 00 00	 call	 @__security_check_cookie@4
  00020	b8 00 00 00 00	 mov	 eax, OFFSET __ehfuncinfo$?OnBtnleft@CDlgCompSetup@@IAEXXZ
  00025	e9 00 00 00 00	 jmp	 ___CxxFrameHandler3
text$x	ENDS
?OnBtnleft@CDlgCompSetup@@IAEXXZ ENDP			; CDlgCompSetup::OnBtnleft
; Function compile flags: /Ogtp
; File D:\git\src\IBK\IBK_DRFN\ProjSrc\SrcDrfn\Chart\ChartUtil\DlgCompSetup.cpp
;	COMDAT ?OnArrow4@CDlgCompSetup@@IAEXXZ
_TEXT	SEGMENT
?OnArrow4@CDlgCompSetup@@IAEXXZ PROC			; CDlgCompSetup::OnArrow4, COMDAT
; _this$ = ecx

; 279  : 	m_bModifyFlag = TRUE;	// 

  00000	c7 81 00 07 00
	00 01 00 00 00	 mov	 DWORD PTR [ecx+1792], 1

; 280  : }

  0000a	c3		 ret	 0
?OnArrow4@CDlgCompSetup@@IAEXXZ ENDP			; CDlgCompSetup::OnArrow4
_TEXT	ENDS
; Function compile flags: /Ogtp
; File D:\git\src\IBK\IBK_DRFN\ProjSrc\SrcDrfn\Chart\ChartUtil\DlgCompSetup.cpp
;	COMDAT ?OnArrow3@CDlgCompSetup@@IAEXXZ
_TEXT	SEGMENT
?OnArrow3@CDlgCompSetup@@IAEXXZ PROC			; CDlgCompSetup::OnArrow3, COMDAT
; _this$ = ecx

; 274  : 	m_bModifyFlag = TRUE;	// 

  00000	c7 81 00 07 00
	00 01 00 00 00	 mov	 DWORD PTR [ecx+1792], 1

; 275  : }

  0000a	c3		 ret	 0
?OnArrow3@CDlgCompSetup@@IAEXXZ ENDP			; CDlgCompSetup::OnArrow3
_TEXT	ENDS
; Function compile flags: /Ogtp
; File D:\git\src\IBK\IBK_DRFN\ProjSrc\SrcDrfn\Chart\ChartUtil\DlgCompSetup.cpp
;	COMDAT ?OnArrow2@CDlgCompSetup@@IAEXXZ
_TEXT	SEGMENT
?OnArrow2@CDlgCompSetup@@IAEXXZ PROC			; CDlgCompSetup::OnArrow2, COMDAT
; _this$ = ecx

; 269  : 	m_bModifyFlag = TRUE;	// 

  00000	c7 81 00 07 00
	00 01 00 00 00	 mov	 DWORD PTR [ecx+1792], 1

; 270  : }

  0000a	c3		 ret	 0
?OnArrow2@CDlgCompSetup@@IAEXXZ ENDP			; CDlgCompSetup::OnArrow2
_TEXT	ENDS
; Function compile flags: /Ogtp
; File D:\git\src\IBK\IBK_DRFN\ProjSrc\SrcDrfn\Chart\ChartUtil\DlgCompSetup.cpp
;	COMDAT ?OnArrow1@CDlgCompSetup@@IAEXXZ
_TEXT	SEGMENT
?OnArrow1@CDlgCompSetup@@IAEXXZ PROC			; CDlgCompSetup::OnArrow1, COMDAT
; _this$ = ecx

; 264  : 	m_bModifyFlag = TRUE;	// 

  00000	c7 81 00 07 00
	00 01 00 00 00	 mov	 DWORD PTR [ecx+1792], 1

; 265  : }

  0000a	c3		 ret	 0
?OnArrow1@CDlgCompSetup@@IAEXXZ ENDP			; CDlgCompSetup::OnArrow1
_TEXT	ENDS
; Function compile flags: /Ogtp
; File D:\git\src\IBK\IBK_DRFN\ProjSrc\SrcDrfn\Chart\ChartUtil\DlgCompSetup.cpp
; File C:\Program Files (x86)\Microsoft Visual Studio\2019\Community\VC\Tools\MSVC\14.29.30133\atlmfc\include\afxwin2.inl
; File D:\git\src\IBK\IBK_DRFN\ProjSrc\SrcDrfn\Chart\ChartUtil\DlgCompSetup.cpp
; File C:\Program Files (x86)\Microsoft Visual Studio\2019\Community\VC\Tools\MSVC\14.29.30133\atlmfc\include\afxwin2.inl
; File D:\git\src\IBK\IBK_DRFN\ProjSrc\SrcDrfn\Chart\ChartUtil\DlgCompSetup.cpp
;	COMDAT ?OnBtngrpchange@CDlgCompSetup@@IAEXXZ
_TEXT	SEGMENT
_dlg$ = -196						; size = 176
_pos$2 = -20						; size = 4
_rString$ = -16						; size = 4
__$EHRec$ = -12						; size = 12
?OnBtngrpchange@CDlgCompSetup@@IAEXXZ PROC		; CDlgCompSetup::OnBtngrpchange, COMDAT
; _this$ = ecx

; 230  : {

  00000	55		 push	 ebp
  00001	8b ec		 mov	 ebp, esp
  00003	6a ff		 push	 -1
  00005	68 00 00 00 00	 push	 __ehhandler$?OnBtngrpchange@CDlgCompSetup@@IAEXXZ
  0000a	64 a1 00 00 00
	00		 mov	 eax, DWORD PTR fs:0
  00010	50		 push	 eax
  00011	81 ec b8 00 00
	00		 sub	 esp, 184		; 000000b8H
  00017	53		 push	 ebx
  00018	56		 push	 esi
  00019	57		 push	 edi
  0001a	a1 00 00 00 00	 mov	 eax, DWORD PTR ___security_cookie
  0001f	33 c5		 xor	 eax, ebp
  00021	50		 push	 eax
  00022	8d 45 f4	 lea	 eax, DWORD PTR __$EHRec$[ebp]
  00025	64 a3 00 00 00
	00		 mov	 DWORD PTR fs:0, eax
  0002b	8b f1		 mov	 esi, ecx
; File C:\Program Files (x86)\Microsoft Visual Studio\2019\Community\VC\Tools\MSVC\14.29.30133\atlmfc\include\afxwin2.inl

; 666  : 	{ ASSERT(::IsWindow(m_hWnd)); return (int)::SendMessage(m_hWnd, LB_GETCURSEL, 0, 0); }

  0002d	8b 1d 00 00 00
	00		 mov	 ebx, DWORD PTR __imp__SendMessageA@16
  00033	6a 00		 push	 0
  00035	6a 00		 push	 0
  00037	68 88 01 00 00	 push	 392			; 00000188H
  0003c	ff b6 38 02 00
	00		 push	 DWORD PTR [esi+568]
  00042	ff d3		 call	 ebx
; File D:\git\src\IBK\IBK_DRFN\ProjSrc\SrcDrfn\Chart\ChartUtil\DlgCompSetup.cpp

; 231  : 	int nSel = m_ListRP.GetCurSel();

  00044	8b f8		 mov	 edi, eax

; 232  : 	if(nSel<0) return;

  00046	85 ff		 test	 edi, edi
  00048	0f 88 d2 00 00
	00		 js	 $LN1@OnBtngrpch

; 233  : 
; 234  : 	CString rString;

  0004e	8d 4d f0	 lea	 ecx, DWORD PTR _rString$[ebp]
  00051	ff 15 00 00 00
	00		 call	 DWORD PTR __imp_??0?$CStringT@DV?$StrTraitMFC_DLL@DV?$ChTraitsCRT@D@ATL@@@@@ATL@@QAE@XZ

; 235  : 	m_ListRP.GetText(nSel, rString);

  00057	8d 45 f0	 lea	 eax, DWORD PTR _rString$[ebp]
  0005a	c7 45 fc 00 00
	00 00		 mov	 DWORD PTR __$EHRec$[ebp+8], 0
  00061	50		 push	 eax
  00062	57		 push	 edi
  00063	8d 8e 18 02 00
	00		 lea	 ecx, DWORD PTR [esi+536]
  00069	e8 00 00 00 00	 call	 ?GetText@CListBox@@QBEXHAAV?$CStringT@DV?$StrTraitMFC_DLL@DV?$ChTraitsCRT@D@ATL@@@@@ATL@@@Z ; CListBox::GetText

; 236  : 
; 237  : 	CDlgGroupName dlg;

  0006e	6a 00		 push	 0
  00070	8d 8d 3c ff ff
	ff		 lea	 ecx, DWORD PTR _dlg$[ebp]
  00076	e8 00 00 00 00	 call	 ??0CDlgGroupName@@QAE@PAVCWnd@@@Z ; CDlgGroupName::CDlgGroupName

; 238  : 	dlg.m_szName = rString;

  0007b	8d 45 f0	 lea	 eax, DWORD PTR _rString$[ebp]
  0007e	c6 45 fc 01	 mov	 BYTE PTR __$EHRec$[ebp+8], 1
  00082	50		 push	 eax
  00083	8d 4d e4	 lea	 ecx, DWORD PTR _dlg$[ebp+168]
  00086	ff 15 00 00 00
	00		 call	 DWORD PTR __imp_??4?$CStringT@DV?$StrTraitMFC_DLL@DV?$ChTraitsCRT@D@ATL@@@@@ATL@@QAEAAV01@ABV01@@Z

; 239  : 	if(dlg.DoModal()==IDOK)

  0008c	8d 8d 3c ff ff
	ff		 lea	 ecx, DWORD PTR _dlg$[ebp]
  00092	e8 00 00 00 00	 call	 ?DoModal@CDialog@@UAEHXZ ; CDialog::DoModal
  00097	83 f8 01	 cmp	 eax, 1
  0009a	75 67		 jne	 SHORT $LN6@OnBtngrpch

; 240  : 	{
; 241  : 		//    .
; 242  : 		if(rString.Compare(dlg.m_szName)==0) return;

  0009c	ff 75 e4	 push	 DWORD PTR _dlg$[ebp+168]
  0009f	8d 4d f0	 lea	 ecx, DWORD PTR _rString$[ebp]
  000a2	ff 15 00 00 00
	00		 call	 DWORD PTR __imp_?Compare@?$CStringT@DV?$StrTraitMFC_DLL@DV?$ChTraitsCRT@D@ATL@@@@@ATL@@QBEHPBD@Z
  000a8	85 c0		 test	 eax, eax
  000aa	74 57		 je	 SHORT $LN6@OnBtngrpch

; 243  : 
; 244  : 		m_bModifyFlag = TRUE;	// 
; 245  : 		
; 246  : 		if(dlg.m_szName.GetLength()>0)

  000ac	8b 45 e4	 mov	 eax, DWORD PTR _dlg$[ebp+168]
  000af	c7 86 00 07 00
	00 01 00 00 00	 mov	 DWORD PTR [esi+1792], 1
  000b9	83 78 f4 00	 cmp	 DWORD PTR [eax-12], 0
  000bd	7e 44		 jle	 SHORT $LN6@OnBtngrpch
; File C:\Program Files (x86)\Microsoft Visual Studio\2019\Community\VC\Tools\MSVC\14.29.30133\atlmfc\include\afxwin2.inl

; 727  : 	{ ASSERT(::IsWindow(m_hWnd)); return (int)::SendMessage(m_hWnd, LB_DELETESTRING, nIndex, 0); }

  000bf	6a 00		 push	 0
  000c1	57		 push	 edi
  000c2	68 82 01 00 00	 push	 386			; 00000182H
  000c7	ff b6 38 02 00
	00		 push	 DWORD PTR [esi+568]
  000cd	ff d3		 call	 ebx

; 729  : 	{ ASSERT(::IsWindow(m_hWnd)); return (int)::SendMessage(m_hWnd, LB_INSERTSTRING, nIndex, (LPARAM)lpszItem); }

  000cf	ff 75 e4	 push	 DWORD PTR _dlg$[ebp+168]
  000d2	57		 push	 edi
  000d3	68 81 01 00 00	 push	 385			; 00000181H
  000d8	ff b6 38 02 00
	00		 push	 DWORD PTR [esi+568]
  000de	ff d3		 call	 ebx
; File D:\git\src\IBK\IBK_DRFN\ProjSrc\SrcDrfn\Chart\ChartUtil\DlgCompSetup.cpp

; 253  : 			CDlgCompGroupData* pGroupData = FindGroupInfo(nSel, pos);

  000e0	8d 45 ec	 lea	 eax, DWORD PTR _pos$2[ebp]
  000e3	c7 45 ec 00 00
	00 00		 mov	 DWORD PTR _pos$2[ebp], 0
  000ea	50		 push	 eax
  000eb	57		 push	 edi
  000ec	8b ce		 mov	 ecx, esi
  000ee	e8 00 00 00 00	 call	 ?FindGroupInfo@CDlgCompSetup@@IAEPAVCDlgCompGroupData@@HAAPAU__POSITION@@@Z ; CDlgCompSetup::FindGroupInfo

; 254  : 			if(pGroupData)

  000f3	85 c0		 test	 eax, eax
  000f5	74 0c		 je	 SHORT $LN6@OnBtngrpch

; 255  : 			{
; 256  : 				pGroupData->m_szGroupName = dlg.m_szName;

  000f7	8d 4d e4	 lea	 ecx, DWORD PTR _dlg$[ebp+168]
  000fa	51		 push	 ecx
  000fb	8b c8		 mov	 ecx, eax
  000fd	ff 15 00 00 00
	00		 call	 DWORD PTR __imp_??4?$CStringT@DV?$StrTraitMFC_DLL@DV?$ChTraitsCRT@D@ATL@@@@@ATL@@QAEAAV01@ABV01@@Z
$LN6@OnBtngrpch:

; 257  : 			}
; 258  : 		}
; 259  : 	}
; 260  : }

  00103	8d 4d e4	 lea	 ecx, DWORD PTR _dlg$[ebp+168]
  00106	ff 15 00 00 00
	00		 call	 DWORD PTR __imp_??1?$CStringT@DV?$StrTraitMFC_DLL@DV?$ChTraitsCRT@D@ATL@@@@@ATL@@QAE@XZ
  0010c	8d 8d 3c ff ff
	ff		 lea	 ecx, DWORD PTR _dlg$[ebp]
  00112	e8 00 00 00 00	 call	 ??1CDialog@@UAE@XZ	; CDialog::~CDialog
  00117	8d 4d f0	 lea	 ecx, DWORD PTR _rString$[ebp]
  0011a	ff 15 00 00 00
	00		 call	 DWORD PTR __imp_??1?$CStringT@DV?$StrTraitMFC_DLL@DV?$ChTraitsCRT@D@ATL@@@@@ATL@@QAE@XZ
$LN1@OnBtngrpch:
  00120	8b 4d f4	 mov	 ecx, DWORD PTR __$EHRec$[ebp]
  00123	64 89 0d 00 00
	00 00		 mov	 DWORD PTR fs:0, ecx
  0012a	59		 pop	 ecx
  0012b	5f		 pop	 edi
  0012c	5e		 pop	 esi
  0012d	5b		 pop	 ebx
  0012e	8b e5		 mov	 esp, ebp
  00130	5d		 pop	 ebp
  00131	c3		 ret	 0
_TEXT	ENDS
;	COMDAT text$x
text$x	SEGMENT
__unwindfunclet$?OnBtngrpchange@CDlgCompSetup@@IAEXXZ$0:
  00000	8d 4d f0	 lea	 ecx, DWORD PTR _rString$[ebp]
  00003	ff 25 00 00 00
	00		 jmp	 DWORD PTR __imp_??1?$CStringT@DV?$StrTraitMFC_DLL@DV?$ChTraitsCRT@D@ATL@@@@@ATL@@QAE@XZ
__unwindfunclet$?OnBtngrpchange@CDlgCompSetup@@IAEXXZ$1:
  00009	8d 8d 3c ff ff
	ff		 lea	 ecx, DWORD PTR _dlg$[ebp]
  0000f	e9 00 00 00 00	 jmp	 ??1CDlgGroupName@@UAE@XZ
  00014	cc		 int	 3
  00015	cc		 int	 3
  00016	cc		 int	 3
  00017	cc		 int	 3
  00018	cc		 int	 3
__ehhandler$?OnBtngrpchange@CDlgCompSetup@@IAEXXZ:
  00019	90		 npad	 1
  0001a	90		 npad	 1
  0001b	8b 54 24 08	 mov	 edx, DWORD PTR [esp+8]
  0001f	8d 42 0c	 lea	 eax, DWORD PTR [edx+12]
  00022	8b 8a 38 ff ff
	ff		 mov	 ecx, DWORD PTR [edx-200]
  00028	33 c8		 xor	 ecx, eax
  0002a	e8 00 00 00 00	 call	 @__security_check_cookie@4
  0002f	b8 00 00 00 00	 mov	 eax, OFFSET __ehfuncinfo$?OnBtngrpchange@CDlgCompSetup@@IAEXXZ
  00034	e9 00 00 00 00	 jmp	 ___CxxFrameHandler3
text$x	ENDS
?OnBtngrpchange@CDlgCompSetup@@IAEXXZ ENDP		; CDlgCompSetup::OnBtngrpchange
; Function compile flags: /Ogtp
; File D:\git\src\IBK\IBK_DRFN\ProjSrc\SrcDrfn\Chart\ChartUtil\DlgCompSetup.cpp
; File C:\Program Files (x86)\Microsoft Visual Studio\2019\Community\VC\Tools\MSVC\14.29.30133\atlmfc\include\afxwin2.inl
; File D:\git\src\IBK\IBK_DRFN\ProjSrc\SrcDrfn\Chart\ChartUtil\DlgCompSetup.cpp
; File C:\Program Files (x86)\Microsoft Visual Studio\2019\Community\VC\Tools\MSVC\14.29.30133\atlmfc\include\afxwin2.inl
; File D:\git\src\IBK\IBK_DRFN\ProjSrc\SrcDrfn\Chart\ChartUtil\DlgCompSetup.cpp
; File C:\Program Files (x86)\Microsoft Visual Studio\2019\Community\VC\Tools\MSVC\14.29.30133\atlmfc\include\afxwin2.inl
; File C:\Program Files (x86)\Microsoft Visual Studio\2019\Community\VC\Tools\MSVC\14.29.30133\atlmfc\include\afxcmn.inl
; File D:\git\src\IBK\IBK_DRFN\ProjSrc\SrcDrfn\Chart\ChartUtil\DlgCompSetup.cpp
; File C:\Program Files (x86)\Microsoft Visual Studio\2019\Community\VC\Tools\MSVC\14.29.30133\atlmfc\include\afxtempl.h
; File D:\git\src\IBK\IBK_DRFN\ProjSrc\SrcDrfn\Chart\ChartUtil\DlgCompSetup.cpp
; File C:\Program Files (x86)\Microsoft Visual Studio\2019\Community\VC\Tools\MSVC\14.29.30133\atlmfc\include\afxtempl.h
; File C:\Program Files (x86)\Microsoft Visual Studio\2019\Community\VC\Tools\MSVC\14.29.30133\atlmfc\include\afxwin2.inl
; File D:\git\src\IBK\IBK_DRFN\ProjSrc\SrcDrfn\Chart\ChartUtil\DlgCompSetup.cpp
; File C:\Program Files (x86)\Microsoft Visual Studio\2019\Community\VC\Tools\MSVC\14.29.30133\atlmfc\include\afxwin2.inl
; File D:\git\src\IBK\IBK_DRFN\ProjSrc\SrcDrfn\Chart\ChartUtil\DlgCompSetup.cpp
;	COMDAT ?OnBtngrpdel@CDlgCompSetup@@IAEXXZ
_TEXT	SEGMENT
_pGroupData$1$ = -32					; size = 4
_nSel$1$ = -28						; size = 4
_pos$ = -24						; size = 4
_rString$ = -20						; size = 4
_szMsg$ = -16						; size = 4
__$EHRec$ = -12						; size = 12
?OnBtngrpdel@CDlgCompSetup@@IAEXXZ PROC			; CDlgCompSetup::OnBtngrpdel, COMDAT
; _this$ = ecx

; 190  : {

  00000	55		 push	 ebp
  00001	8b ec		 mov	 ebp, esp
  00003	6a ff		 push	 -1
  00005	68 00 00 00 00	 push	 __ehhandler$?OnBtngrpdel@CDlgCompSetup@@IAEXXZ
  0000a	64 a1 00 00 00
	00		 mov	 eax, DWORD PTR fs:0
  00010	50		 push	 eax
  00011	83 ec 14	 sub	 esp, 20			; 00000014H
  00014	53		 push	 ebx
  00015	56		 push	 esi
  00016	57		 push	 edi
  00017	a1 00 00 00 00	 mov	 eax, DWORD PTR ___security_cookie
  0001c	33 c5		 xor	 eax, ebp
  0001e	50		 push	 eax
  0001f	8d 45 f4	 lea	 eax, DWORD PTR __$EHRec$[ebp]
  00022	64 a3 00 00 00
	00		 mov	 DWORD PTR fs:0, eax
  00028	8b f9		 mov	 edi, ecx
; File C:\Program Files (x86)\Microsoft Visual Studio\2019\Community\VC\Tools\MSVC\14.29.30133\atlmfc\include\afxwin2.inl

; 666  : 	{ ASSERT(::IsWindow(m_hWnd)); return (int)::SendMessage(m_hWnd, LB_GETCURSEL, 0, 0); }

  0002a	8b 1d 00 00 00
	00		 mov	 ebx, DWORD PTR __imp__SendMessageA@16
  00030	6a 00		 push	 0
  00032	6a 00		 push	 0
  00034	68 88 01 00 00	 push	 392			; 00000188H
  00039	ff b7 38 02 00
	00		 push	 DWORD PTR [edi+568]
  0003f	ff d3		 call	 ebx
; File D:\git\src\IBK\IBK_DRFN\ProjSrc\SrcDrfn\Chart\ChartUtil\DlgCompSetup.cpp

; 191  : 	int nSel = m_ListRP.GetCurSel();

  00041	8b f0		 mov	 esi, eax
  00043	89 75 e4	 mov	 DWORD PTR _nSel$1$[ebp], esi

; 192  : 	if(nSel<0) return;

  00046	85 f6		 test	 esi, esi
  00048	0f 88 d8 01 00
	00		 js	 $LN1@OnBtngrpde

; 193  : 
; 194  : 	CString rString;

  0004e	8d 4d ec	 lea	 ecx, DWORD PTR _rString$[ebp]
  00051	ff 15 00 00 00
	00		 call	 DWORD PTR __imp_??0?$CStringT@DV?$StrTraitMFC_DLL@DV?$ChTraitsCRT@D@ATL@@@@@ATL@@QAE@XZ

; 195  : 	m_ListRP.GetText(nSel, rString);

  00057	8d 45 ec	 lea	 eax, DWORD PTR _rString$[ebp]
  0005a	c7 45 fc 00 00
	00 00		 mov	 DWORD PTR __$EHRec$[ebp+8], 0
  00061	50		 push	 eax
  00062	56		 push	 esi
  00063	8d 8f 18 02 00
	00		 lea	 ecx, DWORD PTR [edi+536]
  00069	e8 00 00 00 00	 call	 ?GetText@CListBox@@QBEXHAAV?$CStringT@DV?$StrTraitMFC_DLL@DV?$ChTraitsCRT@D@ATL@@@@@ATL@@@Z ; CListBox::GetText

; 196  : 
; 197  : 	CString szMsg;

  0006e	8d 4d f0	 lea	 ecx, DWORD PTR _szMsg$[ebp]
  00071	ff 15 00 00 00
	00		 call	 DWORD PTR __imp_??0?$CStringT@DV?$StrTraitMFC_DLL@DV?$ChTraitsCRT@D@ATL@@@@@ATL@@QAE@XZ

; 198  : 	szMsg.Format("%s () ?", rString);

  00077	ff 75 ec	 push	 DWORD PTR _rString$[ebp]
  0007a	8d 45 f0	 lea	 eax, DWORD PTR _szMsg$[ebp]
  0007d	c6 45 fc 01	 mov	 BYTE PTR __$EHRec$[ebp+8], 1
  00081	68 00 00 00 00	 push	 OFFSET ??_C@_0CA@KGDMODEH@?$CFs?5?$LB?W?$LH?l?$MA?$LL?$CI?$LI?$KG?$CJ?5?$LL?h?A?$KG?G?O?$LN?C?$LA?Z?$LN?$MA?$LE?O?$LB?n?$DP@
  00086	50		 push	 eax
  00087	ff 15 00 00 00
	00		 call	 DWORD PTR __imp_?Format@?$CStringT@DV?$StrTraitMFC_DLL@DV?$ChTraitsCRT@D@ATL@@@@@ATL@@QAAXPBDZZ
  0008d	83 c4 0c	 add	 esp, 12			; 0000000cH

; 199  : 	if(IDYES!=AfxMessageBox(szMsg, MB_YESNO))

  00090	6a 00		 push	 0
  00092	6a 04		 push	 4
  00094	ff 75 f0	 push	 DWORD PTR _szMsg$[ebp]
  00097	e8 00 00 00 00	 call	 ?AfxMessageBox@@YGHPBDII@Z ; AfxMessageBox
  0009c	83 f8 06	 cmp	 eax, 6
  0009f	0f 85 6f 01 00
	00		 jne	 $LN16@OnBtngrpde
; File C:\Program Files (x86)\Microsoft Visual Studio\2019\Community\VC\Tools\MSVC\14.29.30133\atlmfc\include\afxwin2.inl

; 727  : 	{ ASSERT(::IsWindow(m_hWnd)); return (int)::SendMessage(m_hWnd, LB_DELETESTRING, nIndex, 0); }

  000a5	6a 00		 push	 0
  000a7	56		 push	 esi
  000a8	68 82 01 00 00	 push	 386			; 00000182H
  000ad	ff b7 38 02 00
	00		 push	 DWORD PTR [edi+568]
; File D:\git\src\IBK\IBK_DRFN\ProjSrc\SrcDrfn\Chart\ChartUtil\DlgCompSetup.cpp

; 202  : 	m_bModifyFlag = TRUE;	// 

  000b3	c7 87 00 07 00
	00 01 00 00 00	 mov	 DWORD PTR [edi+1792], 1
; File C:\Program Files (x86)\Microsoft Visual Studio\2019\Community\VC\Tools\MSVC\14.29.30133\atlmfc\include\afxwin2.inl

; 727  : 	{ ASSERT(::IsWindow(m_hWnd)); return (int)::SendMessage(m_hWnd, LB_DELETESTRING, nIndex, 0); }

  000bd	ff d3		 call	 ebx
; File C:\Program Files (x86)\Microsoft Visual Studio\2019\Community\VC\Tools\MSVC\14.29.30133\atlmfc\include\afxcmn.inl

; 171  : 	{ ASSERT(::IsWindow(m_hWnd)); return (BOOL) ::SendMessage(m_hWnd, LVM_DELETEALLITEMS, 0, 0L); }

  000bf	6a 00		 push	 0
  000c1	6a 00		 push	 0
  000c3	68 09 10 00 00	 push	 4105			; 00001009H
  000c8	ff b7 b8 01 00
	00		 push	 DWORD PTR [edi+440]
  000ce	ff d3		 call	 ebx
; File D:\git\src\IBK\IBK_DRFN\ProjSrc\SrcDrfn\Chart\ChartUtil\DlgCompSetup.cpp

; 209  : 	CDlgCompGroupData* pGroupData = FindGroupInfo(nSel, pos);

  000d0	8d 45 e8	 lea	 eax, DWORD PTR _pos$[ebp]
  000d3	c7 45 e8 00 00
	00 00		 mov	 DWORD PTR _pos$[ebp], 0
  000da	50		 push	 eax
  000db	56		 push	 esi
  000dc	8b cf		 mov	 ecx, edi
  000de	e8 00 00 00 00	 call	 ?FindGroupInfo@CDlgCompSetup@@IAEPAVCDlgCompGroupData@@HAAPAU__POSITION@@@Z ; CDlgCompSetup::FindGroupInfo
  000e3	8b d8		 mov	 ebx, eax
  000e5	89 5d e0	 mov	 DWORD PTR _pGroupData$1$[ebp], ebx

; 210  : 	if(pGroupData)

  000e8	85 db		 test	 ebx, ebx
  000ea	0f 84 e7 00 00
	00		 je	 $LN45@OnBtngrpde

; 211  : 	{
; 212  : 		for(POSITION tPos=pGroupData->m_ItemList.GetHeadPosition(); tPos;)

  000f0	8b 73 08	 mov	 esi, DWORD PTR [ebx+8]
  000f3	85 f6		 test	 esi, esi
  000f5	74 2c		 je	 SHORT $LN35@OnBtngrpde
$LL2@OnBtngrpde:

; 214  : 			delete pGroupData->m_ItemList.GetNext(tPos);

  000f7	8b 5e 08	 mov	 ebx, DWORD PTR [esi+8]
; File C:\Program Files (x86)\Microsoft Visual Studio\2019\Community\VC\Tools\MSVC\14.29.30133\atlmfc\include\afxtempl.h

; 813  : 		rPosition = (POSITION) pNode->pNext;

  000fa	8b 36		 mov	 esi, DWORD PTR [esi]
; File D:\git\src\IBK\IBK_DRFN\ProjSrc\SrcDrfn\Chart\ChartUtil\DlgCompSetup.cpp

; 214  : 			delete pGroupData->m_ItemList.GetNext(tPos);

  000fc	85 db		 test	 ebx, ebx
  000fe	74 1c		 je	 SHORT $LN28@OnBtngrpde
  00100	8d 4b 04	 lea	 ecx, DWORD PTR [ebx+4]
  00103	ff 15 00 00 00
	00		 call	 DWORD PTR __imp_??1?$CStringT@DV?$StrTraitMFC_DLL@DV?$ChTraitsCRT@D@ATL@@@@@ATL@@QAE@XZ
  00109	8b cb		 mov	 ecx, ebx
  0010b	ff 15 00 00 00
	00		 call	 DWORD PTR __imp_??1?$CStringT@DV?$StrTraitMFC_DLL@DV?$ChTraitsCRT@D@ATL@@@@@ATL@@QAE@XZ
  00111	6a 14		 push	 20			; 00000014H
  00113	53		 push	 ebx
  00114	e8 00 00 00 00	 call	 ??3@YAXPAXI@Z		; operator delete
  00119	83 c4 08	 add	 esp, 8
$LN28@OnBtngrpde:

; 211  : 	{
; 212  : 		for(POSITION tPos=pGroupData->m_ItemList.GetHeadPosition(); tPos;)

  0011c	85 f6		 test	 esi, esi
  0011e	75 d7		 jne	 SHORT $LL2@OnBtngrpde
  00120	8b 5d e0	 mov	 ebx, DWORD PTR _pGroupData$1$[ebp]
$LN35@OnBtngrpde:
; File C:\Program Files (x86)\Microsoft Visual Studio\2019\Community\VC\Tools\MSVC\14.29.30133\atlmfc\include\afxtempl.h

; 872  : 	m_pBlocks->FreeDataChain();

  00123	8b 4b 18	 mov	 ecx, DWORD PTR [ebx+24]
  00126	c7 43 10 00 00
	00 00		 mov	 DWORD PTR [ebx+16], 0
  0012d	c7 43 14 00 00
	00 00		 mov	 DWORD PTR [ebx+20], 0
  00134	c7 43 0c 00 00
	00 00		 mov	 DWORD PTR [ebx+12], 0
  0013b	c7 43 08 00 00
	00 00		 mov	 DWORD PTR [ebx+8], 0
  00142	e8 00 00 00 00	 call	 ?FreeDataChain@CPlex@@QAEXXZ ; CPlex::FreeDataChain

; 1107 : 	if (pOldNode == m_pNodeHead)

  00147	8b 4d e8	 mov	 ecx, DWORD PTR _pos$[ebp]

; 873  : 	m_pBlocks = NULL;

  0014a	c7 43 18 00 00
	00 00		 mov	 DWORD PTR [ebx+24], 0

; 1107 : 	if (pOldNode == m_pNodeHead)

  00151	8b 11		 mov	 edx, DWORD PTR [ecx]
  00153	3b 8f b4 00 00
	00		 cmp	 ecx, DWORD PTR [edi+180]
  00159	75 08		 jne	 SHORT $LN39@OnBtngrpde

; 1108 : 	{
; 1109 : 		m_pNodeHead = pOldNode->pNext;

  0015b	89 97 b4 00 00
	00		 mov	 DWORD PTR [edi+180], edx

; 1110 : 	}

  00161	eb 05		 jmp	 SHORT $LN40@OnBtngrpde
$LN39@OnBtngrpde:

; 1111 : 	else
; 1112 : 	{
; 1113 : 		ASSERT(AfxIsValidAddress(pOldNode->pPrev, sizeof(CNode)));
; 1114 : 		pOldNode->pPrev->pNext = pOldNode->pNext;

  00163	8b 41 04	 mov	 eax, DWORD PTR [ecx+4]
  00166	89 10		 mov	 DWORD PTR [eax], edx
$LN40@OnBtngrpde:

; 1115 : 	}
; 1116 : 	if (pOldNode == m_pNodeTail)

  00168	8b 51 04	 mov	 edx, DWORD PTR [ecx+4]
  0016b	3b 8f b8 00 00
	00		 cmp	 ecx, DWORD PTR [edi+184]
  00171	75 08		 jne	 SHORT $LN41@OnBtngrpde

; 1117 : 	{
; 1118 : 		m_pNodeTail = pOldNode->pPrev;

  00173	89 97 b8 00 00
	00		 mov	 DWORD PTR [edi+184], edx

; 1119 : 	}

  00179	eb 05		 jmp	 SHORT $LN42@OnBtngrpde
$LN41@OnBtngrpde:

; 1120 : 	else
; 1121 : 	{
; 1122 : 		ASSERT(AfxIsValidAddress(pOldNode->pNext, sizeof(CNode)));
; 1123 : 		pOldNode->pNext->pPrev = pOldNode->pPrev;

  0017b	8b 01		 mov	 eax, DWORD PTR [ecx]
  0017d	89 50 04	 mov	 DWORD PTR [eax+4], edx
$LN42@OnBtngrpde:

; 938  : 	pNode->pNext = m_pNodeFree;

  00180	8b 87 c0 00 00
	00		 mov	 eax, DWORD PTR [edi+192]
  00186	89 01		 mov	 DWORD PTR [ecx], eax

; 939  : 	m_pNodeFree = pNode;
; 940  : 	m_nCount--;

  00188	83 87 bc 00 00
	00 ff		 add	 DWORD PTR [edi+188], -1
  0018f	89 8f c0 00 00
	00		 mov	 DWORD PTR [edi+192], ecx

; 941  : 	ASSERT(m_nCount >= 0);  // make sure we don't underflow
; 942  : 
; 943  : 	// if no more elements, cleanup completely
; 944  : 	if (m_nCount == 0)

  00195	75 3d		 jne	 SHORT $LN69@OnBtngrpde

; 872  : 	m_pBlocks->FreeDataChain();

  00197	8b 8f c4 00 00
	00		 mov	 ecx, DWORD PTR [edi+196]
  0019d	c7 87 bc 00 00
	00 00 00 00 00	 mov	 DWORD PTR [edi+188], 0
  001a7	c7 87 c0 00 00
	00 00 00 00 00	 mov	 DWORD PTR [edi+192], 0
  001b1	c7 87 b8 00 00
	00 00 00 00 00	 mov	 DWORD PTR [edi+184], 0
  001bb	c7 87 b4 00 00
	00 00 00 00 00	 mov	 DWORD PTR [edi+180], 0
  001c5	e8 00 00 00 00	 call	 ?FreeDataChain@CPlex@@QAEXXZ ; CPlex::FreeDataChain

; 873  : 	m_pBlocks = NULL;

  001ca	c7 87 c4 00 00
	00 00 00 00 00	 mov	 DWORD PTR [edi+196], 0
$LN69@OnBtngrpde:
; File C:\Program Files (x86)\Microsoft Visual Studio\2019\Community\VC\Tools\MSVC\14.29.30133\atlmfc\include\afxwin2.inl

; 664  : 	{ ASSERT(::IsWindow(m_hWnd)); return (int)::SendMessage(m_hWnd, LB_GETCOUNT, 0, 0); }

  001d4	8b 75 e4	 mov	 esi, DWORD PTR _nSel$1$[ebp]
$LN45@OnBtngrpde:
  001d7	8b 1d 00 00 00
	00		 mov	 ebx, DWORD PTR __imp__SendMessageA@16
  001dd	6a 00		 push	 0
  001df	6a 00		 push	 0
  001e1	68 8b 01 00 00	 push	 395			; 0000018bH
  001e6	ff b7 38 02 00
	00		 push	 DWORD PTR [edi+568]
  001ec	ff d3		 call	 ebx
; File D:\git\src\IBK\IBK_DRFN\ProjSrc\SrcDrfn\Chart\ChartUtil\DlgCompSetup.cpp

; 220  : 	if(m_ListRP.GetCount()==0) return;

  001ee	85 c0		 test	 eax, eax
  001f0	74 22		 je	 SHORT $LN16@OnBtngrpde

; 221  : 
; 222  : 	int nIndex = nSel - 1;

  001f2	8d 46 ff	 lea	 eax, DWORD PTR [esi-1]
; File C:\Program Files (x86)\Microsoft Visual Studio\2019\Community\VC\Tools\MSVC\14.29.30133\atlmfc\include\afxwin2.inl

; 668  : 	{ ASSERT(::IsWindow(m_hWnd)); return (int)::SendMessage(m_hWnd, LB_SETCURSEL, nSelect, 0); }

  001f5	33 f6		 xor	 esi, esi
  001f7	85 c0		 test	 eax, eax
  001f9	6a 00		 push	 0
  001fb	0f 49 f0	 cmovns	 esi, eax
  001fe	56		 push	 esi
  001ff	68 86 01 00 00	 push	 390			; 00000186H
  00204	ff b7 38 02 00
	00		 push	 DWORD PTR [edi+568]
  0020a	ff d3		 call	 ebx
; File D:\git\src\IBK\IBK_DRFN\ProjSrc\SrcDrfn\Chart\ChartUtil\DlgCompSetup.cpp

; 226  : 	fnSelectGroup(nIndex);

  0020c	56		 push	 esi
  0020d	8b cf		 mov	 ecx, edi
  0020f	e8 00 00 00 00	 call	 ?fnSelectGroup@CDlgCompSetup@@IAEXH@Z ; CDlgCompSetup::fnSelectGroup
$LN16@OnBtngrpde:

; 227  : }

  00214	8d 4d f0	 lea	 ecx, DWORD PTR _szMsg$[ebp]
  00217	ff 15 00 00 00
	00		 call	 DWORD PTR __imp_??1?$CStringT@DV?$StrTraitMFC_DLL@DV?$ChTraitsCRT@D@ATL@@@@@ATL@@QAE@XZ
  0021d	8d 4d ec	 lea	 ecx, DWORD PTR _rString$[ebp]
  00220	ff 15 00 00 00
	00		 call	 DWORD PTR __imp_??1?$CStringT@DV?$StrTraitMFC_DLL@DV?$ChTraitsCRT@D@ATL@@@@@ATL@@QAE@XZ
$LN1@OnBtngrpde:
  00226	8b 4d f4	 mov	 ecx, DWORD PTR __$EHRec$[ebp]
  00229	64 89 0d 00 00
	00 00		 mov	 DWORD PTR fs:0, ecx
  00230	59		 pop	 ecx
  00231	5f		 pop	 edi
  00232	5e		 pop	 esi
  00233	5b		 pop	 ebx
  00234	8b e5		 mov	 esp, ebp
  00236	5d		 pop	 ebp
  00237	c3		 ret	 0
_TEXT	ENDS
;	COMDAT text$x
text$x	SEGMENT
__unwindfunclet$?OnBtngrpdel@CDlgCompSetup@@IAEXXZ$0:
  00000	8d 4d ec	 lea	 ecx, DWORD PTR _rString$[ebp]
  00003	ff 25 00 00 00
	00		 jmp	 DWORD PTR __imp_??1?$CStringT@DV?$StrTraitMFC_DLL@DV?$ChTraitsCRT@D@ATL@@@@@ATL@@QAE@XZ
__unwindfunclet$?OnBtngrpdel@CDlgCompSetup@@IAEXXZ$1:
  00009	8d 4d f0	 lea	 ecx, DWORD PTR _szMsg$[ebp]
  0000c	ff 25 00 00 00
	00		 jmp	 DWORD PTR __imp_??1?$CStringT@DV?$StrTraitMFC_DLL@DV?$ChTraitsCRT@D@ATL@@@@@ATL@@QAE@XZ
  00012	cc		 int	 3
  00013	cc		 int	 3
  00014	cc		 int	 3
  00015	cc		 int	 3
  00016	cc		 int	 3
__ehhandler$?OnBtngrpdel@CDlgCompSetup@@IAEXXZ:
  00017	90		 npad	 1
  00018	90		 npad	 1
  00019	8b 54 24 08	 mov	 edx, DWORD PTR [esp+8]
  0001d	8d 42 0c	 lea	 eax, DWORD PTR [edx+12]
  00020	8b 4a dc	 mov	 ecx, DWORD PTR [edx-36]
  00023	33 c8		 xor	 ecx, eax
  00025	e8 00 00 00 00	 call	 @__security_check_cookie@4
  0002a	b8 00 00 00 00	 mov	 eax, OFFSET __ehfuncinfo$?OnBtngrpdel@CDlgCompSetup@@IAEXXZ
  0002f	e9 00 00 00 00	 jmp	 ___CxxFrameHandler3
text$x	ENDS
?OnBtngrpdel@CDlgCompSetup@@IAEXXZ ENDP			; CDlgCompSetup::OnBtngrpdel
; Function compile flags: /Ogtp
; File D:\git\src\IBK\IBK_DRFN\ProjSrc\SrcDrfn\Chart\ChartUtil\DlgCompSetup.cpp
; File C:\Program Files (x86)\Microsoft Visual Studio\2019\Community\VC\Tools\MSVC\14.29.30133\atlmfc\include\atlsimpstr.h
; File D:\git\src\IBK\IBK_DRFN\ProjSrc\SrcDrfn\Chart\ChartUtil\DlgCompSetup.cpp
; File C:\Program Files (x86)\Microsoft Visual Studio\2019\Community\VC\Tools\MSVC\14.29.30133\atlmfc\include\afxwin2.inl
; File D:\git\src\IBK\IBK_DRFN\ProjSrc\SrcDrfn\Chart\ChartUtil\DlgCompSetup.cpp
; File C:\Program Files (x86)\Microsoft Visual Studio\2019\Community\VC\Tools\MSVC\14.29.30133\atlmfc\include\afxwin2.inl
; File C:\Program Files (x86)\Microsoft Visual Studio\2019\Community\VC\Tools\MSVC\14.29.30133\atlmfc\include\afxcmn.inl
; File D:\git\src\IBK\IBK_DRFN\ProjSrc\SrcDrfn\Chart\ChartUtil\DlgCompSetup.cpp
; File C:\Program Files (x86)\Microsoft Visual Studio\2019\Community\VC\Tools\MSVC\14.29.30133\atlmfc\include\afxtempl.h
; File D:\git\src\IBK\IBK_DRFN\ProjSrc\SrcDrfn\Chart\ChartUtil\DlgCompSetup.cpp
;	COMDAT ?OnBtngrpnew@CDlgCompSetup@@IAEXXZ
_TEXT	SEGMENT
_dlg$ = -192						; size = 176
$T2 = -16						; size = 4
_rString$3 = -16					; size = 4
__$EHRec$ = -12						; size = 12
?OnBtngrpnew@CDlgCompSetup@@IAEXXZ PROC			; CDlgCompSetup::OnBtngrpnew, COMDAT
; _this$ = ecx

; 151  : {

  00000	55		 push	 ebp
  00001	8b ec		 mov	 ebp, esp
  00003	6a ff		 push	 -1
  00005	68 00 00 00 00	 push	 __ehhandler$?OnBtngrpnew@CDlgCompSetup@@IAEXXZ
  0000a	64 a1 00 00 00
	00		 mov	 eax, DWORD PTR fs:0
  00010	50		 push	 eax
  00011	81 ec b4 00 00
	00		 sub	 esp, 180		; 000000b4H
  00017	53		 push	 ebx
  00018	56		 push	 esi
  00019	57		 push	 edi
  0001a	a1 00 00 00 00	 mov	 eax, DWORD PTR ___security_cookie
  0001f	33 c5		 xor	 eax, ebp
  00021	50		 push	 eax
  00022	8d 45 f4	 lea	 eax, DWORD PTR __$EHRec$[ebp]
  00025	64 a3 00 00 00
	00		 mov	 DWORD PTR fs:0, eax
  0002b	8b f9		 mov	 edi, ecx

; 152  : 	CDlgGroupName dlg;

  0002d	6a 00		 push	 0
  0002f	8d 8d 40 ff ff
	ff		 lea	 ecx, DWORD PTR _dlg$[ebp]
  00035	e8 00 00 00 00	 call	 ??0CDlgGroupName@@QAE@PAVCWnd@@@Z ; CDlgGroupName::CDlgGroupName

; 153  : 	if(dlg.DoModal()==IDOK)

  0003a	8d 8d 40 ff ff
	ff		 lea	 ecx, DWORD PTR _dlg$[ebp]
  00040	c7 45 fc 00 00
	00 00		 mov	 DWORD PTR __$EHRec$[ebp+8], 0
  00047	e8 00 00 00 00	 call	 ?DoModal@CDialog@@UAEHXZ ; CDialog::DoModal
  0004c	83 f8 01	 cmp	 eax, 1
  0004f	0f 85 53 01 00
	00		 jne	 $LN6@OnBtngrpne

; 154  : 	{
; 155  : 		m_bModifyFlag = TRUE;	// 
; 156  : 
; 157  : 		dlg.m_szName.TrimLeft();

  00055	8d 4d e8	 lea	 ecx, DWORD PTR _dlg$[ebp+168]
  00058	89 87 00 07 00
	00		 mov	 DWORD PTR [edi+1792], eax
  0005e	ff 15 00 00 00
	00		 call	 DWORD PTR __imp_?TrimLeft@?$CStringT@DV?$StrTraitMFC_DLL@DV?$ChTraitsCRT@D@ATL@@@@@ATL@@QAEAAV12@XZ

; 158  : 		dlg.m_szName.TrimRight();

  00064	8d 4d e8	 lea	 ecx, DWORD PTR _dlg$[ebp+168]
  00067	ff 15 00 00 00
	00		 call	 DWORD PTR __imp_?TrimRight@?$CStringT@DV?$StrTraitMFC_DLL@DV?$ChTraitsCRT@D@ATL@@@@@ATL@@QAEAAV12@XZ
; File C:\Program Files (x86)\Microsoft Visual Studio\2019\Community\VC\Tools\MSVC\14.29.30133\atlmfc\include\atlsimpstr.h

; 519  : 		return( GetData()->nDataLength );

  0006d	8b 45 e8	 mov	 eax, DWORD PTR _dlg$[ebp+168]
; File D:\git\src\IBK\IBK_DRFN\ProjSrc\SrcDrfn\Chart\ChartUtil\DlgCompSetup.cpp

; 160  : 		if(dlg.m_szName.GetLength()>0)

  00070	83 78 f4 00	 cmp	 DWORD PTR [eax-12], 0
  00074	0f 8e 2e 01 00
	00		 jle	 $LN6@OnBtngrpne
; File C:\Program Files (x86)\Microsoft Visual Studio\2019\Community\VC\Tools\MSVC\14.29.30133\atlmfc\include\afxwin2.inl

; 664  : 	{ ASSERT(::IsWindow(m_hWnd)); return (int)::SendMessage(m_hWnd, LB_GETCOUNT, 0, 0); }

  0007a	6a 00		 push	 0
  0007c	6a 00		 push	 0
  0007e	68 8b 01 00 00	 push	 395			; 0000018bH
  00083	ff b7 38 02 00
	00		 push	 DWORD PTR [edi+568]
  00089	ff 15 00 00 00
	00		 call	 DWORD PTR __imp__SendMessageA@16
; File D:\git\src\IBK\IBK_DRFN\ProjSrc\SrcDrfn\Chart\ChartUtil\DlgCompSetup.cpp

; 165  : 				CString rString;

  0008f	8d 4d f0	 lea	 ecx, DWORD PTR _rString$3[ebp]
  00092	8b d8		 mov	 ebx, eax
  00094	ff 15 00 00 00
	00		 call	 DWORD PTR __imp_??0?$CStringT@DV?$StrTraitMFC_DLL@DV?$ChTraitsCRT@D@ATL@@@@@ATL@@QAE@XZ

; 166  : 				for(int i=0; i<nCnt; i++)

  0009a	33 f6		 xor	 esi, esi
  0009c	c6 45 fc 01	 mov	 BYTE PTR __$EHRec$[ebp+8], 1
  000a0	85 db		 test	 ebx, ebx
  000a2	7e 37		 jle	 SHORT $LN3@OnBtngrpne
  000a4	8d 87 18 02 00
	00		 lea	 eax, DWORD PTR [edi+536]
  000aa	66 0f 1f 44 00
	00		 npad	 6
$LL4@OnBtngrpne:

; 167  : 				{
; 168  : 					m_ListRP.GetText(i, rString);

  000b0	8d 4d f0	 lea	 ecx, DWORD PTR _rString$3[ebp]
  000b3	51		 push	 ecx
  000b4	56		 push	 esi
  000b5	8b c8		 mov	 ecx, eax
  000b7	e8 00 00 00 00	 call	 ?GetText@CListBox@@QBEXHAAV?$CStringT@DV?$StrTraitMFC_DLL@DV?$ChTraitsCRT@D@ATL@@@@@ATL@@@Z ; CListBox::GetText

; 169  : 					if(rString.Compare(dlg.m_szName)==0)

  000bc	ff 75 e8	 push	 DWORD PTR _dlg$[ebp+168]
  000bf	8d 4d f0	 lea	 ecx, DWORD PTR _rString$3[ebp]
  000c2	ff 15 00 00 00
	00		 call	 DWORD PTR __imp_?Compare@?$CStringT@DV?$StrTraitMFC_DLL@DV?$ChTraitsCRT@D@ATL@@@@@ATL@@QBEHPBD@Z
  000c8	85 c0		 test	 eax, eax
  000ca	0f 84 9f 00 00
	00		 je	 $LN42@OnBtngrpne

; 166  : 				for(int i=0; i<nCnt; i++)

  000d0	46		 inc	 esi
  000d1	8d 87 18 02 00
	00		 lea	 eax, DWORD PTR [edi+536]
  000d7	3b f3		 cmp	 esi, ebx
  000d9	7c d5		 jl	 SHORT $LL4@OnBtngrpne
$LN3@OnBtngrpne:

; 173  : 					}
; 174  : 				}
; 175  : 			}

  000db	8d 4d f0	 lea	 ecx, DWORD PTR _rString$3[ebp]
  000de	c6 45 fc 00	 mov	 BYTE PTR __$EHRec$[ebp+8], 0
  000e2	ff 15 00 00 00
	00		 call	 DWORD PTR __imp_??1?$CStringT@DV?$StrTraitMFC_DLL@DV?$ChTraitsCRT@D@ATL@@@@@ATL@@QAE@XZ
; File C:\Program Files (x86)\Microsoft Visual Studio\2019\Community\VC\Tools\MSVC\14.29.30133\atlmfc\include\afxwin2.inl

; 725  : 	{ ASSERT(::IsWindow(m_hWnd)); return (int)::SendMessage(m_hWnd, LB_ADDSTRING, 0, (LPARAM)lpszItem); }

  000e8	ff 75 e8	 push	 DWORD PTR _dlg$[ebp+168]
  000eb	8b 35 00 00 00
	00		 mov	 esi, DWORD PTR __imp__SendMessageA@16
  000f1	6a 00		 push	 0
  000f3	68 80 01 00 00	 push	 384			; 00000180H
  000f8	ff b7 38 02 00
	00		 push	 DWORD PTR [edi+568]
  000fe	ff d6		 call	 esi

; 668  : 	{ ASSERT(::IsWindow(m_hWnd)); return (int)::SendMessage(m_hWnd, LB_SETCURSEL, nSelect, 0); }

  00100	6a 00		 push	 0
  00102	50		 push	 eax
  00103	68 86 01 00 00	 push	 390			; 00000186H
  00108	ff b7 38 02 00
	00		 push	 DWORD PTR [edi+568]
  0010e	ff d6		 call	 esi
; File C:\Program Files (x86)\Microsoft Visual Studio\2019\Community\VC\Tools\MSVC\14.29.30133\atlmfc\include\afxcmn.inl

; 171  : 	{ ASSERT(::IsWindow(m_hWnd)); return (BOOL) ::SendMessage(m_hWnd, LVM_DELETEALLITEMS, 0, 0L); }

  00110	6a 00		 push	 0
  00112	6a 00		 push	 0
  00114	68 09 10 00 00	 push	 4105			; 00001009H
  00119	ff b7 b8 01 00
	00		 push	 DWORD PTR [edi+440]
  0011f	ff d6		 call	 esi
; File D:\git\src\IBK\IBK_DRFN\ProjSrc\SrcDrfn\Chart\ChartUtil\DlgCompSetup.cpp

; 181  : 			CDlgCompGroupData* pGroupData = new CDlgCompGroupData;

  00121	6a 20		 push	 32			; 00000020H
  00123	e8 00 00 00 00	 call	 ??2@YAPAXI@Z		; operator new
  00128	8b f0		 mov	 esi, eax
  0012a	83 c4 04	 add	 esp, 4
  0012d	89 75 f0	 mov	 DWORD PTR $T2[ebp], esi
  00130	85 f6		 test	 esi, esi
  00132	74 54		 je	 SHORT $LN9@OnBtngrpne
  00134	8b ce		 mov	 ecx, esi
  00136	ff 15 00 00 00
	00		 call	 DWORD PTR __imp_??0?$CStringT@DV?$StrTraitMFC_DLL@DV?$ChTraitsCRT@D@ATL@@@@@ATL@@QAE@XZ
; File C:\Program Files (x86)\Microsoft Visual Studio\2019\Community\VC\Tools\MSVC\14.29.30133\atlmfc\include\afxtempl.h

; 851  : {

  0013c	c7 46 04 00 00
	00 00		 mov	 DWORD PTR [esi+4], OFFSET ??_7?$CList@PAVCDlgCompSubItem@@PAV1@@@6B@

; 852  : 	ASSERT(nBlockSize > 0);
; 853  : 
; 854  : 	m_nCount = 0;

  00143	c7 46 10 00 00
	00 00		 mov	 DWORD PTR [esi+16], 0

; 855  : 	m_pNodeHead = m_pNodeTail = m_pNodeFree = NULL;

  0014a	c7 46 14 00 00
	00 00		 mov	 DWORD PTR [esi+20], 0
  00151	c7 46 0c 00 00
	00 00		 mov	 DWORD PTR [esi+12], 0
  00158	c7 46 08 00 00
	00 00		 mov	 DWORD PTR [esi+8], 0

; 856  : 	m_pBlocks = NULL;

  0015f	c7 46 18 00 00
	00 00		 mov	 DWORD PTR [esi+24], 0

; 857  : 	m_nBlockSize = nBlockSize;

  00166	c7 46 1c 0a 00
	00 00		 mov	 DWORD PTR [esi+28], 10	; 0000000aH
; File D:\git\src\IBK\IBK_DRFN\ProjSrc\SrcDrfn\Chart\ChartUtil\DlgCompSetup.cpp

; 181  : 			CDlgCompGroupData* pGroupData = new CDlgCompGroupData;

  0016d	eb 1b		 jmp	 SHORT $LN10@OnBtngrpne
$LN42@OnBtngrpne:

; 170  : 					{
; 171  : 						AfxMessageBox("   .");

  0016f	6a 00		 push	 0
  00171	6a 00		 push	 0
  00173	68 00 00 00 00	 push	 OFFSET ??_C@_0BP@BLNMJNIH@?$MA?L?$LJ?L?5?$LA?$LA?$MA?$LK?5?$LB?W?$LH?l?$LI?m?$MA?L?5?A?$LI?$MA?g?G?U?$LE?O?$LE?Y?4@
  00178	e8 00 00 00 00	 call	 ?AfxMessageBox@@YGHPBDII@Z ; AfxMessageBox

; 172  : 						return;

  0017d	8d 4d f0	 lea	 ecx, DWORD PTR _rString$3[ebp]
  00180	ff 15 00 00 00
	00		 call	 DWORD PTR __imp_??1?$CStringT@DV?$StrTraitMFC_DLL@DV?$ChTraitsCRT@D@ATL@@@@@ATL@@QAE@XZ
  00186	eb 20		 jmp	 SHORT $LN6@OnBtngrpne
$LN9@OnBtngrpne:

; 181  : 			CDlgCompGroupData* pGroupData = new CDlgCompGroupData;

  00188	33 f6		 xor	 esi, esi
$LN10@OnBtngrpne:

; 182  : 			pGroupData->m_szGroupName = dlg.m_szName;

  0018a	8d 45 e8	 lea	 eax, DWORD PTR _dlg$[ebp+168]
  0018d	8b ce		 mov	 ecx, esi
  0018f	50		 push	 eax
  00190	ff 15 00 00 00
	00		 call	 DWORD PTR __imp_??4?$CStringT@DV?$StrTraitMFC_DLL@DV?$ChTraitsCRT@D@ATL@@@@@ATL@@QAEAAV01@ABV01@@Z

; 183  : 			m_GroupList.AddTail(pGroupData);

  00196	56		 push	 esi
  00197	8d 8f b0 00 00
	00		 lea	 ecx, DWORD PTR [edi+176]
  0019d	e8 00 00 00 00	 call	 ?AddTail@?$CList@PAVCDlgCompGroupData@@PAV1@@@QAEPAU__POSITION@@PAVCDlgCompGroupData@@@Z ; CList<CDlgCompGroupData *,CDlgCompGroupData *>::AddTail

; 184  : 			m_pCurGroup = pGroupData;

  001a2	89 b7 cc 00 00
	00		 mov	 DWORD PTR [edi+204], esi
$LN6@OnBtngrpne:
  001a8	8d 4d e8	 lea	 ecx, DWORD PTR _dlg$[ebp+168]
  001ab	ff 15 00 00 00
	00		 call	 DWORD PTR __imp_??1?$CStringT@DV?$StrTraitMFC_DLL@DV?$ChTraitsCRT@D@ATL@@@@@ATL@@QAE@XZ
  001b1	8d 8d 40 ff ff
	ff		 lea	 ecx, DWORD PTR _dlg$[ebp]
  001b7	e8 00 00 00 00	 call	 ??1CDialog@@UAE@XZ	; CDialog::~CDialog

; 185  : 		}
; 186  : 	}
; 187  : }

  001bc	8b 4d f4	 mov	 ecx, DWORD PTR __$EHRec$[ebp]
  001bf	64 89 0d 00 00
	00 00		 mov	 DWORD PTR fs:0, ecx
  001c6	59		 pop	 ecx
  001c7	5f		 pop	 edi
  001c8	5e		 pop	 esi
  001c9	5b		 pop	 ebx
  001ca	8b e5		 mov	 esp, ebp
  001cc	5d		 pop	 ebp
  001cd	c3		 ret	 0
_TEXT	ENDS
;	COMDAT text$x
text$x	SEGMENT
__unwindfunclet$?OnBtngrpnew@CDlgCompSetup@@IAEXXZ$0:
  00000	8d 8d 40 ff ff
	ff		 lea	 ecx, DWORD PTR _dlg$[ebp]
  00006	e9 00 00 00 00	 jmp	 ??1CDlgGroupName@@UAE@XZ
__unwindfunclet$?OnBtngrpnew@CDlgCompSetup@@IAEXXZ$1:
  0000b	8d 4d f0	 lea	 ecx, DWORD PTR _rString$3[ebp]
  0000e	ff 25 00 00 00
	00		 jmp	 DWORD PTR __imp_??1?$CStringT@DV?$StrTraitMFC_DLL@DV?$ChTraitsCRT@D@ATL@@@@@ATL@@QAE@XZ
  00014	cc		 int	 3
  00015	cc		 int	 3
  00016	cc		 int	 3
  00017	cc		 int	 3
  00018	cc		 int	 3
__ehhandler$?OnBtngrpnew@CDlgCompSetup@@IAEXXZ:
  00019	90		 npad	 1
  0001a	90		 npad	 1
  0001b	8b 54 24 08	 mov	 edx, DWORD PTR [esp+8]
  0001f	8d 42 0c	 lea	 eax, DWORD PTR [edx+12]
  00022	8b 8a 3c ff ff
	ff		 mov	 ecx, DWORD PTR [edx-196]
  00028	33 c8		 xor	 ecx, eax
  0002a	e8 00 00 00 00	 call	 @__security_check_cookie@4
  0002f	b8 00 00 00 00	 mov	 eax, OFFSET __ehfuncinfo$?OnBtngrpnew@CDlgCompSetup@@IAEXXZ
  00034	e9 00 00 00 00	 jmp	 ___CxxFrameHandler3
text$x	ENDS
?OnBtngrpnew@CDlgCompSetup@@IAEXXZ ENDP			; CDlgCompSetup::OnBtngrpnew
; Function compile flags: /Ogtp
; File D:\git\src\IBK\IBK_DRFN\ProjSrc\SrcDrfn\Chart\ChartUtil\DlgCompSetup.cpp
; File C:\Program Files (x86)\Microsoft Visual Studio\2019\Community\VC\Tools\MSVC\14.29.30133\atlmfc\include\afxcmn2.inl
; File D:\git\src\IBK\IBK_DRFN\ProjSrc\SrcDrfn\Chart\ChartUtil\DlgCompSetup.cpp
; File C:\Program Files (x86)\Microsoft Visual Studio\2019\Community\VC\Tools\MSVC\14.29.30133\atlmfc\include\afxcmn2.inl
; File D:\git\src\IBK\IBK_DRFN\ProjSrc\SrcDrfn\Chart\ChartUtil\DlgCompSetup.cpp
; File D:\git\src\IBK\IBK_DRFN\ProjSrc\SrcDrfn\inc\ITreeListMng.h
; File D:\git\src\IBK\IBK_DRFN\ProjSrc\SrcDrfn\Chart\ChartUtil\DlgCompSetup.cpp
; File D:\git\src\IBK\IBK_DRFN\ProjSrc\SrcDrfn\inc\ITreeListMng.h
; File D:\git\src\IBK\IBK_DRFN\ProjSrc\SrcDrfn\Chart\ChartUtil\DlgCompSetup.cpp
; File C:\Program Files (x86)\Microsoft Visual Studio\2019\Community\VC\Tools\MSVC\14.29.30133\atlmfc\include\afxwin1.inl
; File D:\git\src\IBK\IBK_DRFN\ProjSrc\SrcDrfn\Chart\ChartUtil\DlgCompSetup.cpp
; File C:\Program Files (x86)\Microsoft Visual Studio\2019\Community\VC\Tools\MSVC\14.29.30133\atlmfc\include\afxwin1.inl
; File D:\git\src\IBK\IBK_DRFN\ProjSrc\SrcDrfn\Chart\ChartUtil\DlgCompSetup.cpp
; File C:\Program Files (x86)\Microsoft Visual Studio\2019\Community\VC\Tools\MSVC\14.29.30133\atlmfc\include\afxwin2.inl
; File D:\git\src\IBK\IBK_DRFN\ProjSrc\SrcDrfn\Chart\ChartUtil\DlgCompSetup.cpp
; File C:\Program Files (x86)\Microsoft Visual Studio\2019\Community\VC\Tools\MSVC\14.29.30133\atlmfc\include\afxwin2.inl
; File D:\git\src\IBK\IBK_DRFN\ProjSrc\SrcDrfn\Chart\ChartUtil\DlgCompSetup.cpp
; File C:\Program Files (x86)\Microsoft Visual Studio\2019\Community\VC\Tools\MSVC\14.29.30133\atlmfc\include\afxwin2.inl
; File D:\git\src\IBK\IBK_DRFN\ProjSrc\SrcDrfn\Chart\ChartUtil\DlgCompSetup.cpp
; File C:\Program Files (x86)\Microsoft Visual Studio\2019\Community\VC\Tools\MSVC\14.29.30133\atlmfc\include\afxwin2.inl
; File D:\git\src\IBK\IBK_DRFN\ProjSrc\SrcDrfn\Chart\ChartUtil\DlgCompSetup.cpp
; File C:\Program Files (x86)\Microsoft Visual Studio\2019\Community\VC\Tools\MSVC\14.29.30133\atlmfc\include\afxwin2.inl
; File D:\git\src\IBK\IBK_DRFN\ProjSrc\SrcDrfn\Chart\ChartUtil\DlgCompSetup.cpp
; File C:\Program Files (x86)\Microsoft Visual Studio\2019\Community\VC\Tools\MSVC\14.29.30133\atlmfc\include\afxwin1.inl
; File D:\git\src\IBK\IBK_DRFN\ProjSrc\SrcDrfn\Chart\ChartUtil\DlgCompSetup.cpp
; File C:\Program Files (x86)\Microsoft Visual Studio\2019\Community\VC\Tools\MSVC\14.29.30133\atlmfc\include\afxwin1.inl
; File D:\git\src\IBK\IBK_DRFN\ProjSrc\SrcDrfn\Chart\ChartUtil\DlgCompSetup.cpp
; File C:\Program Files (x86)\Microsoft Visual Studio\2019\Community\VC\Tools\MSVC\14.29.30133\atlmfc\include\afxwin2.inl
; File D:\git\src\IBK\IBK_DRFN\ProjSrc\SrcDrfn\Chart\ChartUtil\DlgCompSetup.cpp
; File C:\Program Files (x86)\Microsoft Visual Studio\2019\Community\VC\Tools\MSVC\14.29.30133\atlmfc\include\afxwin2.inl
; File D:\git\src\IBK\IBK_DRFN\ProjSrc\SrcDrfn\Chart\ChartUtil\DlgCompSetup.cpp
; File C:\Program Files (x86)\Microsoft Visual Studio\2019\Community\VC\Tools\MSVC\14.29.30133\atlmfc\include\afxwin2.inl
; File D:\git\src\IBK\IBK_DRFN\ProjSrc\SrcDrfn\Chart\ChartUtil\DlgCompSetup.cpp
; File C:\Program Files (x86)\Microsoft Visual Studio\2019\Community\VC\Tools\MSVC\14.29.30133\atlmfc\include\afxwin2.inl
; File D:\git\src\IBK\IBK_DRFN\ProjSrc\SrcDrfn\Chart\ChartUtil\DlgCompSetup.cpp
; File C:\Program Files (x86)\Microsoft Visual Studio\2019\Community\VC\Tools\MSVC\14.29.30133\atlmfc\include\afxwin2.inl
; File D:\git\src\IBK\IBK_DRFN\ProjSrc\SrcDrfn\Chart\ChartUtil\DlgCompSetup.cpp
; File C:\Program Files (x86)\Microsoft Visual Studio\2019\Community\VC\Tools\MSVC\14.29.30133\atlmfc\include\afxtempl.h
; File C:\Program Files (x86)\Microsoft Visual Studio\2019\Community\VC\Tools\MSVC\14.29.30133\atlmfc\include\afxwin2.inl
; File D:\git\src\IBK\IBK_DRFN\ProjSrc\SrcDrfn\Chart\ChartUtil\DlgCompSetup.cpp
; File C:\Program Files (x86)\Microsoft Visual Studio\2019\Community\VC\Tools\MSVC\14.29.30133\atlmfc\include\afxwin2.inl
; File D:\git\src\IBK\IBK_DRFN\ProjSrc\SrcDrfn\Chart\ChartUtil\DlgCompSetup.cpp
; File C:\Program Files (x86)\Microsoft Visual Studio\2019\Community\VC\Tools\MSVC\14.29.30133\atlmfc\include\afxwin2.inl
; File D:\git\src\IBK\IBK_DRFN\ProjSrc\SrcDrfn\Chart\ChartUtil\DlgCompSetup.cpp
; File C:\Program Files (x86)\Microsoft Visual Studio\2019\Community\VC\Tools\MSVC\14.29.30133\atlmfc\include\atlsimpstr.h
; File C:\Program Files (x86)\Microsoft Visual Studio\2019\Community\VC\Tools\MSVC\14.29.30133\atlmfc\include\afxwin2.inl
; File C:\Program Files (x86)\Microsoft Visual Studio\2019\Community\VC\Tools\MSVC\14.29.30133\atlmfc\include\atlsimpstr.h
; File C:\Program Files (x86)\Microsoft Visual Studio\2019\Community\VC\Tools\MSVC\14.29.30133\atlmfc\include\afxwin2.inl
; File C:\Program Files (x86)\Microsoft Visual Studio\2019\Community\VC\Tools\MSVC\14.29.30133\atlmfc\include\atlsimpstr.h
; File C:\Program Files (x86)\Microsoft Visual Studio\2019\Community\VC\Tools\MSVC\14.29.30133\atlmfc\include\afxwin2.inl
; File D:\git\src\IBK\IBK_DRFN\ProjSrc\SrcDrfn\Chart\ChartUtil\DlgCompSetup.cpp
; File C:\Program Files (x86)\Microsoft Visual Studio\2019\Community\VC\Tools\MSVC\14.29.30133\atlmfc\include\afxwin2.inl
; File D:\git\src\IBK\IBK_DRFN\ProjSrc\SrcDrfn\Chart\ChartUtil\DlgCompSetup.cpp
; File C:\Program Files (x86)\Microsoft Visual Studio\2019\Community\VC\Tools\MSVC\14.29.30133\atlmfc\include\afxwin2.inl
; File D:\git\src\IBK\IBK_DRFN\ProjSrc\SrcDrfn\Chart\ChartUtil\DlgCompSetup.cpp
; File C:\Program Files (x86)\Microsoft Visual Studio\2019\Community\VC\Tools\MSVC\14.29.30133\atlmfc\include\afxtempl.h
; File D:\git\src\IBK\IBK_DRFN\ProjSrc\SrcDrfn\Chart\ChartUtil\DlgCompSetup.cpp
; File C:\Program Files (x86)\Microsoft Visual Studio\2019\Community\VC\Tools\MSVC\14.29.30133\atlmfc\include\afxtempl.h
; File D:\git\src\IBK\IBK_DRFN\ProjSrc\SrcDrfn\Chart\ChartUtil\DlgCompSetup.cpp
; File C:\Program Files (x86)\Microsoft Visual Studio\2019\Community\VC\Tools\MSVC\14.29.30133\atlmfc\include\afxwin2.inl
; File D:\git\src\IBK\IBK_DRFN\ProjSrc\SrcDrfn\Chart\ChartUtil\DlgCompSetup.cpp
;	COMDAT ?OnInitDialog@CDlgCompSetup@@MAEHXZ
_TEXT	SEGMENT
_inData$2 = -44						; size = 20
$T3 = -24						; size = 4
$T4 = -24						; size = 4
_rString$5 = -20					; size = 4
_nCnt$1$ = -16						; size = 4
_szGroup$6 = -16					; size = 4
__$EHRec$ = -12						; size = 12
?OnInitDialog@CDlgCompSetup@@MAEHXZ PROC		; CDlgCompSetup::OnInitDialog, COMDAT
; _this$ = ecx

; 118  : {

  00000	55		 push	 ebp
  00001	8b ec		 mov	 ebp, esp
  00003	6a ff		 push	 -1
  00005	68 00 00 00 00	 push	 __ehhandler$?OnInitDialog@CDlgCompSetup@@MAEHXZ
  0000a	64 a1 00 00 00
	00		 mov	 eax, DWORD PTR fs:0
  00010	50		 push	 eax
  00011	83 ec 20	 sub	 esp, 32			; 00000020H
  00014	53		 push	 ebx
  00015	56		 push	 esi
  00016	57		 push	 edi
  00017	a1 00 00 00 00	 mov	 eax, DWORD PTR ___security_cookie
  0001c	33 c5		 xor	 eax, ebp
  0001e	50		 push	 eax
  0001f	8d 45 f4	 lea	 eax, DWORD PTR __$EHRec$[ebp]
  00022	64 a3 00 00 00
	00		 mov	 DWORD PTR fs:0, eax
  00028	8b f9		 mov	 edi, ecx

; 119  : 	CDialog::OnInitDialog();

  0002a	e8 00 00 00 00	 call	 ?OnInitDialog@CDialog@@UAEHXZ ; CDialog::OnInitDialog

; 120  : 
; 121  : 	IMainInfoManager* pMainInfo = (IMainInfoManager*)AfxGetPctrInterface(UUID_IMainInfoManager);

  0002f	6a 15		 push	 21			; 00000015H
  00031	e8 00 00 00 00	 call	 ?AfxGetPctrInterface@@YGJH@Z ; AfxGetPctrInterface

; 122  : 	if(pMainInfo)

  00036	85 c0		 test	 eax, eax
  00038	74 13		 je	 SHORT $LN2@OnInitDial

; 123  : 	{
; 124  : 		m_szRootPath = pMainInfo->GetRootDir();

  0003a	8b 08		 mov	 ecx, DWORD PTR [eax]
  0003c	50		 push	 eax
  0003d	ff 51 10	 call	 DWORD PTR [ecx+16]
  00040	50		 push	 eax
  00041	8d 8f e0 00 00
	00		 lea	 ecx, DWORD PTR [edi+224]
  00047	ff 15 00 00 00
	00		 call	 DWORD PTR __imp_??4?$CStringT@DV?$StrTraitMFC_DLL@DV?$ChTraitsCRT@D@ATL@@@@@ATL@@QAEAAV01@PBD@Z
$LN2@OnInitDial:

; 125  : 	}
; 126  : 	// TODO: Add extra initialization here
; 127  : 	m_edtCodeName.SetPromptText(_T("<>"));

  0004d	68 00 00 00 00	 push	 OFFSET ??_C@_08KMEBHNMN@?$DM?A?$LO?$LI?q?$LI?m?$DO@
  00052	8d 8f a0 04 00
	00		 lea	 ecx, DWORD PTR [edi+1184]
  00058	e8 00 00 00 00	 call	 ?SetPromptText@CXEditPrompt@@QAEXPBD@Z ; CXEditPrompt::SetPromptText

; 128  : 	m_edtCode.SetPromptText(_T("<>"));

  0005d	68 00 00 00 00	 push	 OFFSET ??_C@_0L@OLLFJJOD@?$DM?A?$LO?$LI?q?D?Z?$LF?e?$DO@
  00062	8d 8f 08 04 00
	00		 lea	 ecx, DWORD PTR [edi+1032]
  00068	e8 00 00 00 00	 call	 ?SetPromptText@CXEditPrompt@@QAEXPBD@Z ; CXEditPrompt::SetPromptText

; 525  : 	m_ListItem.InsertColumn(0, ""	, LVCFMT_LEFT	, 140);

  0006d	6a ff		 push	 -1
  0006f	68 8c 00 00 00	 push	 140			; 0000008cH
  00074	6a 00		 push	 0
  00076	68 00 00 00 00	 push	 OFFSET ??_C@_06BGMJNGKF@?A?$LO?$LI?q?$LI?m@
  0007b	6a 00		 push	 0
  0007d	8d 8f 98 01 00
	00		 lea	 ecx, DWORD PTR [edi+408]
  00083	e8 00 00 00 00	 call	 ?InsertColumn@CListCtrl@@QAEHHPBDHHH@Z ; CListCtrl::InsertColumn

; 526  : 	m_ListItem.InsertColumn(1, ""	, LVCFMT_CENTER	, 70);

  00088	6a ff		 push	 -1
  0008a	6a 46		 push	 70			; 00000046H
  0008c	6a 02		 push	 2
  0008e	68 00 00 00 00	 push	 OFFSET ??_C@_04IMDNCEFG@?D?Z?$LF?e@
  00093	6a 01		 push	 1
  00095	8d 8f 98 01 00
	00		 lea	 ecx, DWORD PTR [edi+408]
  0009b	e8 00 00 00 00	 call	 ?InsertColumn@CListCtrl@@QAEHHPBDHHH@Z ; CListCtrl::InsertColumn
; File C:\Program Files (x86)\Microsoft Visual Studio\2019\Community\VC\Tools\MSVC\14.29.30133\atlmfc\include\afxcmn2.inl

; 117  : 	{ ASSERT(::IsWindow(m_hWnd)); return (DWORD) ::SendMessage(m_hWnd, LVM_SETEXTENDEDLISTVIEWSTYLE, 0, (LPARAM) dwNewStyle); }

  000a0	8b 1d 00 00 00
	00		 mov	 ebx, DWORD PTR __imp__SendMessageA@16
  000a6	68 20 40 00 00	 push	 16416			; 00004020H
  000ab	6a 00		 push	 0
  000ad	68 36 10 00 00	 push	 4150			; 00001036H
  000b2	ff b7 b8 01 00
	00		 push	 DWORD PTR [edi+440]
  000b8	ff d3		 call	 ebx
; File D:\git\src\IBK\IBK_DRFN\ProjSrc\SrcDrfn\Chart\ChartUtil\DlgCompSetup.cpp

; 529  : 	m_ListCodes.InsertColumn(0, "", LVCFMT_LEFT	, 100);

  000ba	6a ff		 push	 -1
  000bc	6a 64		 push	 100			; 00000064H
  000be	6a 00		 push	 0
  000c0	68 00 00 00 00	 push	 OFFSET ??_C@_06BGMJNGKF@?A?$LO?$LI?q?$LI?m@
  000c5	6a 00		 push	 0
  000c7	8d 8f e8 00 00
	00		 lea	 ecx, DWORD PTR [edi+232]
  000cd	e8 00 00 00 00	 call	 ?InsertColumn@CListCtrl@@QAEHHPBDHHH@Z ; CListCtrl::InsertColumn

; 530  : 	m_ListCodes.InsertColumn(1, ""	, LVCFMT_CENTER	, 90);

  000d2	6a ff		 push	 -1
  000d4	6a 5a		 push	 90			; 0000005aH
  000d6	6a 02		 push	 2
  000d8	68 00 00 00 00	 push	 OFFSET ??_C@_04IMDNCEFG@?D?Z?$LF?e@
  000dd	6a 01		 push	 1
  000df	8d 8f e8 00 00
	00		 lea	 ecx, DWORD PTR [edi+232]
  000e5	e8 00 00 00 00	 call	 ?InsertColumn@CListCtrl@@QAEHHPBDHHH@Z ; CListCtrl::InsertColumn

; 531  : //	m_ListCodes.Init_ListCtrl();
; 532  : 	m_ListCodes.SetRowHeight(15);

  000ea	6a 0f		 push	 15			; 0000000fH
  000ec	8d 8f e8 00 00
	00		 lea	 ecx, DWORD PTR [edi+232]
  000f2	e8 00 00 00 00	 call	 ?SetRowHeight@CVirtualListCtrl@@QAEXF@Z ; CVirtualListCtrl::SetRowHeight
; File C:\Program Files (x86)\Microsoft Visual Studio\2019\Community\VC\Tools\MSVC\14.29.30133\atlmfc\include\afxcmn2.inl

; 117  : 	{ ASSERT(::IsWindow(m_hWnd)); return (DWORD) ::SendMessage(m_hWnd, LVM_SETEXTENDEDLISTVIEWSTYLE, 0, (LPARAM) dwNewStyle); }

  000f7	68 20 40 00 00	 push	 16416			; 00004020H
  000fc	6a 00		 push	 0
  000fe	68 36 10 00 00	 push	 4150			; 00001036H
  00103	ff b7 08 01 00
	00		 push	 DWORD PTR [edi+264]
  00109	ff d3		 call	 ebx
; File D:\git\src\IBK\IBK_DRFN\ProjSrc\SrcDrfn\Chart\ChartUtil\DlgCompSetup.cpp

; 538  : 	m_pTreeListMng = (ITreeListManager2*)AfxGetPctrInterface(UUID_ITreeListManager2);

  0010b	6a 1a		 push	 26			; 0000001aH
  0010d	e8 00 00 00 00	 call	 ?AfxGetPctrInterface@@YGJH@Z ; AfxGetPctrInterface
; File D:\git\src\IBK\IBK_DRFN\ProjSrc\SrcDrfn\inc\ITreeListMng.h

; 134  : 	CInputCodeList()

  00112	8d 4d d8	 lea	 ecx, DWORD PTR _inData$2[ebp+4]
; File D:\git\src\IBK\IBK_DRFN\ProjSrc\SrcDrfn\Chart\ChartUtil\DlgCompSetup.cpp

; 538  : 	m_pTreeListMng = (ITreeListManager2*)AfxGetPctrInterface(UUID_ITreeListManager2);

  00115	89 87 04 07 00
	00		 mov	 DWORD PTR [edi+1796], eax
; File D:\git\src\IBK\IBK_DRFN\ProjSrc\SrcDrfn\inc\ITreeListMng.h

; 134  : 	CInputCodeList()

  0011b	ff 15 00 00 00
	00		 call	 DWORD PTR __imp_??0?$CStringT@DV?$StrTraitMFC_DLL@DV?$ChTraitsCRT@D@ATL@@@@@ATL@@QAE@XZ
  00121	8d 4d dc	 lea	 ecx, DWORD PTR _inData$2[ebp+8]
  00124	c7 45 fc 00 00
	00 00		 mov	 DWORD PTR __$EHRec$[ebp+8], 0
  0012b	ff 15 00 00 00
	00		 call	 DWORD PTR __imp_??0?$CStringT@DV?$StrTraitMFC_DLL@DV?$ChTraitsCRT@D@ATL@@@@@ATL@@QAE@XZ

; 135  : 	{
; 136  : 		m_pTreeCtrl = NULL;
; 137  : 		m_szSection = "TREELIST";

  00131	68 00 00 00 00	 push	 OFFSET ??_C@_08KDNPGENH@TREELIST@
  00136	8d 4d dc	 lea	 ecx, DWORD PTR _inData$2[ebp+8]
  00139	c6 45 fc 01	 mov	 BYTE PTR __$EHRec$[ebp+8], 1
  0013d	c7 45 d4 00 00
	00 00		 mov	 DWORD PTR _inData$2[ebp], 0
  00144	ff 15 00 00 00
	00		 call	 DWORD PTR __imp_??4?$CStringT@DV?$StrTraitMFC_DLL@DV?$ChTraitsCRT@D@ATL@@@@@ATL@@QAEAAV01@PBD@Z

; 160  : 		m_nCtrlType = ICLE_CTLTYPE_TREE;

  0014a	c7 45 e4 00 00
	00 00		 mov	 DWORD PTR _inData$2[ebp+16], 0
; File D:\git\src\IBK\IBK_DRFN\ProjSrc\SrcDrfn\Chart\ChartUtil\DlgCompSetup.cpp

; 541  : 	inData.m_pTreeCtrl = &m_treeSearch;

  00151	8d 87 98 02 00
	00		 lea	 eax, DWORD PTR [edi+664]
  00157	c7 45 fc 02 00
	00 00		 mov	 DWORD PTR __$EHRec$[ebp+8], 2

; 542  : 	inData.m_pListCtrl = NULL;
; 543  : 	inData.m_szSection = "";

  0015e	68 00 00 00 00	 push	 OFFSET ??_C@_0L@HJJAEEML@?$LF?n?$LG?t?$LH?$PM?B?w?F?$KO@
  00163	8d 4d dc	 lea	 ecx, DWORD PTR _inData$2[ebp+8]
  00166	89 45 d4	 mov	 DWORD PTR _inData$2[ebp], eax
  00169	c7 45 e0 00 00
	00 00		 mov	 DWORD PTR _inData$2[ebp+12], 0
  00170	ff 15 00 00 00
	00		 call	 DWORD PTR __imp_??4?$CStringT@DV?$StrTraitMFC_DLL@DV?$ChTraitsCRT@D@ATL@@@@@ATL@@QAEAAV01@PBD@Z

; 544  : 
; 545  : 	if(m_pTreeListMng)

  00176	8b 8f 04 07 00
	00		 mov	 ecx, DWORD PTR [edi+1796]
  0017c	85 c9		 test	 ecx, ecx
  0017e	74 2b		 je	 SHORT $LN11@OnInitDial

; 546  : 	{
; 547  : 		m_dwTreeKey = m_pTreeListMng->LoadTreeList(&inData, "");

  00180	8b 01		 mov	 eax, DWORD PTR [ecx]
  00182	8d 55 d4	 lea	 edx, DWORD PTR _inData$2[ebp]
  00185	68 00 00 00 00	 push	 OFFSET ??_C@_0L@HJJAEEML@?$LF?n?$LG?t?$LH?$PM?B?w?F?$KO@
  0018a	52		 push	 edx
  0018b	51		 push	 ecx
  0018c	ff 50 08	 call	 DWORD PTR [eax+8]
  0018f	89 87 0c 07 00
	00		 mov	 DWORD PTR [edi+1804], eax

; 548  : 		m_pTreeListMng->SetBaseData("SCREENCODE", "4602");

  00195	8b 87 04 07 00
	00		 mov	 eax, DWORD PTR [edi+1796]
  0019b	68 00 00 00 00	 push	 OFFSET ??_C@_04HBCHAADI@4602@
  001a0	68 00 00 00 00	 push	 OFFSET ??_C@_0L@DIKICJIA@SCREENCODE@
  001a5	50		 push	 eax
  001a6	8b 08		 mov	 ecx, DWORD PTR [eax]
  001a8	ff 51 3c	 call	 DWORD PTR [ecx+60]
$LN11@OnInitDial:
  001ab	8d 4d dc	 lea	 ecx, DWORD PTR _inData$2[ebp+8]

; 549  : 	}
; 550  : }

  001ae	c7 45 fc ff ff
	ff ff		 mov	 DWORD PTR __$EHRec$[ebp+8], -1
  001b5	ff 15 00 00 00
	00		 call	 DWORD PTR __imp_??1?$CStringT@DV?$StrTraitMFC_DLL@DV?$ChTraitsCRT@D@ATL@@@@@ATL@@QAE@XZ
  001bb	8d 4d d8	 lea	 ecx, DWORD PTR _inData$2[ebp+4]
  001be	ff 15 00 00 00
	00		 call	 DWORD PTR __imp_??1?$CStringT@DV?$StrTraitMFC_DLL@DV?$ChTraitsCRT@D@ATL@@@@@ATL@@QAE@XZ

; 129  : 
; 130  : 	fnInitList();
; 131  : 	fnTreeLoad();
; 132  : 
; 133  : 	Initial_ThicknessComboBox( 0, 0, m_Thickness_Combo);	

  001c4	8d b7 38 05 00
	00		 lea	 esi, DWORD PTR [edi+1336]

; 422  : 	if( !Thickness_Combo.m_bitmap.GetSafeHandle()) Thickness_Combo.m_bitmap.LoadBitmap(IDB_LINE_THICKNESS);

  001ca	8d 86 80 00 00
	00		 lea	 eax, DWORD PTR [esi+128]
; File C:\Program Files (x86)\Microsoft Visual Studio\2019\Community\VC\Tools\MSVC\14.29.30133\atlmfc\include\afxwin1.inl

; 68   : 	{ return this == NULL ? NULL : m_hObject; }

  001d0	85 c0		 test	 eax, eax
  001d2	74 06		 je	 SHORT $LN166@OnInitDial
; File D:\git\src\IBK\IBK_DRFN\ProjSrc\SrcDrfn\Chart\ChartUtil\DlgCompSetup.cpp

; 422  : 	if( !Thickness_Combo.m_bitmap.GetSafeHandle()) Thickness_Combo.m_bitmap.LoadBitmap(IDB_LINE_THICKNESS);

  001d4	83 78 04 00	 cmp	 DWORD PTR [eax+4], 0
  001d8	75 24		 jne	 SHORT $LN32@OnInitDial
$LN166@OnInitDial:
; File C:\Program Files (x86)\Microsoft Visual Studio\2019\Community\VC\Tools\MSVC\14.29.30133\atlmfc\include\afxwin1.inl

; 212  : 	{ return Attach(::LoadBitmapW(AfxFindResourceHandle(

  001da	68 77 17 00 00	 push	 6007			; 00001777H
  001df	6a 02		 push	 2
  001e1	68 77 17 00 00	 push	 6007			; 00001777H
  001e6	e8 00 00 00 00	 call	 ?AfxFindResourceHandle@@YGPAUHINSTANCE__@@PBD0@Z ; AfxFindResourceHandle
  001eb	50		 push	 eax
  001ec	ff 15 00 00 00
	00		 call	 DWORD PTR __imp__LoadBitmapW@8
  001f2	50		 push	 eax
  001f3	8d 8e 80 00 00
	00		 lea	 ecx, DWORD PTR [esi+128]
  001f9	e8 00 00 00 00	 call	 ?Attach@CGdiObject@@QAEHPAX@Z ; CGdiObject::Attach
$LN32@OnInitDial:
; File D:\git\src\IBK\IBK_DRFN\ProjSrc\SrcDrfn\Chart\ChartUtil\DlgCompSetup.cpp

; 423  : 	AddLineType( &Thickness_Combo, 5 );

  001fe	6a 05		 push	 5
  00200	56		 push	 esi
  00201	8b cf		 mov	 ecx, edi
  00203	e8 00 00 00 00	 call	 ?AddLineType@CDlgCompSetup@@IAEXPAVCComboBox@@H@Z ; CDlgCompSetup::AddLineType
; File C:\Program Files (x86)\Microsoft Visual Studio\2019\Community\VC\Tools\MSVC\14.29.30133\atlmfc\include\afxwin2.inl

; 763  : 	{ ASSERT(::IsWindow(m_hWnd)); return (int)::SendMessage(m_hWnd, CB_GETCOUNT, 0, 0); }

  00208	6a 00		 push	 0
  0020a	6a 00		 push	 0
  0020c	68 46 01 00 00	 push	 326			; 00000146H
  00211	ff b7 58 05 00
	00		 push	 DWORD PTR [edi+1368]
; File D:\git\src\IBK\IBK_DRFN\ProjSrc\SrcDrfn\Chart\ChartUtil\DlgCompSetup.cpp

; 426  : 	for( int i = -1 ; i < Thickness_Combo.GetCount() ; i++ ) 

  00217	83 ce ff	 or	 esi, -1
; File C:\Program Files (x86)\Microsoft Visual Studio\2019\Community\VC\Tools\MSVC\14.29.30133\atlmfc\include\afxwin2.inl

; 763  : 	{ ASSERT(::IsWindow(m_hWnd)); return (int)::SendMessage(m_hWnd, CB_GETCOUNT, 0, 0); }

  0021a	ff d3		 call	 ebx
; File D:\git\src\IBK\IBK_DRFN\ProjSrc\SrcDrfn\Chart\ChartUtil\DlgCompSetup.cpp

; 426  : 	for( int i = -1 ; i < Thickness_Combo.GetCount() ; i++ ) 

  0021c	3b c6		 cmp	 eax, esi
  0021e	7e 26		 jle	 SHORT $LN29@OnInitDial
$LL30@OnInitDial:
; File C:\Program Files (x86)\Microsoft Visual Studio\2019\Community\VC\Tools\MSVC\14.29.30133\atlmfc\include\afxwin2.inl

; 819  : 	{ ASSERT(::IsWindow(m_hWnd)); return (int)::SendMessage(m_hWnd, CB_SETITEMHEIGHT, nIndex, MAKELONG(cyItemHeight, 0)); }

  00220	6a 0e		 push	 14			; 0000000eH
  00222	56		 push	 esi
  00223	68 53 01 00 00	 push	 339			; 00000153H
  00228	ff b7 58 05 00
	00		 push	 DWORD PTR [edi+1368]
  0022e	ff d3		 call	 ebx

; 763  : 	{ ASSERT(::IsWindow(m_hWnd)); return (int)::SendMessage(m_hWnd, CB_GETCOUNT, 0, 0); }

  00230	6a 00		 push	 0
  00232	6a 00		 push	 0
  00234	68 46 01 00 00	 push	 326			; 00000146H
  00239	ff b7 58 05 00
	00		 push	 DWORD PTR [edi+1368]
; File D:\git\src\IBK\IBK_DRFN\ProjSrc\SrcDrfn\Chart\ChartUtil\DlgCompSetup.cpp

; 426  : 	for( int i = -1 ; i < Thickness_Combo.GetCount() ; i++ ) 

  0023f	46		 inc	 esi
; File C:\Program Files (x86)\Microsoft Visual Studio\2019\Community\VC\Tools\MSVC\14.29.30133\atlmfc\include\afxwin2.inl

; 763  : 	{ ASSERT(::IsWindow(m_hWnd)); return (int)::SendMessage(m_hWnd, CB_GETCOUNT, 0, 0); }

  00240	ff d3		 call	 ebx
; File D:\git\src\IBK\IBK_DRFN\ProjSrc\SrcDrfn\Chart\ChartUtil\DlgCompSetup.cpp

; 426  : 	for( int i = -1 ; i < Thickness_Combo.GetCount() ; i++ ) 

  00242	3b f0		 cmp	 esi, eax
  00244	7c da		 jl	 SHORT $LL30@OnInitDial
$LN29@OnInitDial:
; File C:\Program Files (x86)\Microsoft Visual Studio\2019\Community\VC\Tools\MSVC\14.29.30133\atlmfc\include\afxwin2.inl

; 767  : 	{ ASSERT(::IsWindow(m_hWnd)); return (int)::SendMessage(m_hWnd, CB_SETCURSEL, nSelect, 0); }

  00246	6a 00		 push	 0
  00248	6a 00		 push	 0
  0024a	68 4e 01 00 00	 push	 334			; 0000014eH
  0024f	ff b7 58 05 00
	00		 push	 DWORD PTR [edi+1368]
  00255	ff d3		 call	 ebx
; File D:\git\src\IBK\IBK_DRFN\ProjSrc\SrcDrfn\Chart\ChartUtil\DlgCompSetup.cpp

; 134  : 	Initial_DrawStyleComboBox( 0, m_DrawStyle_Combo);

  00257	8d b7 c0 05 00
	00		 lea	 esi, DWORD PTR [edi+1472]

; 488  : 	if( Drawsytle_Combo.m_bitmap.GetSafeHandle()) Drawsytle_Combo.m_bitmap.DeleteObject();

  0025d	8d 86 80 00 00
	00		 lea	 eax, DWORD PTR [esi+128]
; File C:\Program Files (x86)\Microsoft Visual Studio\2019\Community\VC\Tools\MSVC\14.29.30133\atlmfc\include\afxwin1.inl

; 68   : 	{ return this == NULL ? NULL : m_hObject; }

  00263	85 c0		 test	 eax, eax
  00265	74 0d		 je	 SHORT $LN56@OnInitDial
; File D:\git\src\IBK\IBK_DRFN\ProjSrc\SrcDrfn\Chart\ChartUtil\DlgCompSetup.cpp

; 488  : 	if( Drawsytle_Combo.m_bitmap.GetSafeHandle()) Drawsytle_Combo.m_bitmap.DeleteObject();

  00267	83 78 04 00	 cmp	 DWORD PTR [eax+4], 0
  0026b	74 07		 je	 SHORT $LN56@OnInitDial
  0026d	8b c8		 mov	 ecx, eax
  0026f	e8 00 00 00 00	 call	 ?DeleteObject@CGdiObject@@QAEHXZ ; CGdiObject::DeleteObject
$LN56@OnInitDial:
; File C:\Program Files (x86)\Microsoft Visual Studio\2019\Community\VC\Tools\MSVC\14.29.30133\atlmfc\include\afxwin1.inl

; 212  : 	{ return Attach(::LoadBitmapW(AfxFindResourceHandle(

  00274	68 8c 17 00 00	 push	 6028			; 0000178cH
  00279	6a 02		 push	 2
  0027b	68 8c 17 00 00	 push	 6028			; 0000178cH
  00280	e8 00 00 00 00	 call	 ?AfxFindResourceHandle@@YGPAUHINSTANCE__@@PBD0@Z ; AfxFindResourceHandle
  00285	50		 push	 eax
  00286	ff 15 00 00 00
	00		 call	 DWORD PTR __imp__LoadBitmapW@8
  0028c	50		 push	 eax
  0028d	8d 8e 80 00 00
	00		 lea	 ecx, DWORD PTR [esi+128]
  00293	e8 00 00 00 00	 call	 ?Attach@CGdiObject@@QAEHPAX@Z ; CGdiObject::Attach
; File D:\git\src\IBK\IBK_DRFN\ProjSrc\SrcDrfn\Chart\ChartUtil\DlgCompSetup.cpp

; 490  : 	if (!Drawsytle_Combo.m_bitmap.LoadBitmap(nIDBitmap))

  00298	85 c0		 test	 eax, eax
  0029a	74 0a		 je	 SHORT $LN55@OnInitDial

; 491  : 		return;   // need this one image
; 492  : 	
; 493  : 	AddLineType(&Drawsytle_Combo, nCount);

  0029c	6a 05		 push	 5
  0029e	56		 push	 esi
  0029f	8b cf		 mov	 ecx, edi
  002a1	e8 00 00 00 00	 call	 ?AddLineType@CDlgCompSetup@@IAEXPAVCComboBox@@H@Z ; CDlgCompSetup::AddLineType
$LN55@OnInitDial:
; File C:\Program Files (x86)\Microsoft Visual Studio\2019\Community\VC\Tools\MSVC\14.29.30133\atlmfc\include\afxwin2.inl

; 763  : 	{ ASSERT(::IsWindow(m_hWnd)); return (int)::SendMessage(m_hWnd, CB_GETCOUNT, 0, 0); }

  002a6	6a 00		 push	 0
  002a8	6a 00		 push	 0
  002aa	68 46 01 00 00	 push	 326			; 00000146H
  002af	ff b7 e0 05 00
	00		 push	 DWORD PTR [edi+1504]
; File D:\git\src\IBK\IBK_DRFN\ProjSrc\SrcDrfn\Chart\ChartUtil\DlgCompSetup.cpp

; 471  : 	for( int i = -1 ; i < Drawsytle_Combo.GetCount() ; i++ ) 

  002b5	83 ce ff	 or	 esi, -1
; File C:\Program Files (x86)\Microsoft Visual Studio\2019\Community\VC\Tools\MSVC\14.29.30133\atlmfc\include\afxwin2.inl

; 763  : 	{ ASSERT(::IsWindow(m_hWnd)); return (int)::SendMessage(m_hWnd, CB_GETCOUNT, 0, 0); }

  002b8	ff d3		 call	 ebx
; File D:\git\src\IBK\IBK_DRFN\ProjSrc\SrcDrfn\Chart\ChartUtil\DlgCompSetup.cpp

; 471  : 	for( int i = -1 ; i < Drawsytle_Combo.GetCount() ; i++ ) 

  002ba	3b c6		 cmp	 eax, esi
  002bc	7e 28		 jle	 SHORT $LN48@OnInitDial
  002be	66 90		 npad	 2
$LL49@OnInitDial:
; File C:\Program Files (x86)\Microsoft Visual Studio\2019\Community\VC\Tools\MSVC\14.29.30133\atlmfc\include\afxwin2.inl

; 819  : 	{ ASSERT(::IsWindow(m_hWnd)); return (int)::SendMessage(m_hWnd, CB_SETITEMHEIGHT, nIndex, MAKELONG(cyItemHeight, 0)); }

  002c0	6a 0e		 push	 14			; 0000000eH
  002c2	56		 push	 esi
  002c3	68 53 01 00 00	 push	 339			; 00000153H
  002c8	ff b7 e0 05 00
	00		 push	 DWORD PTR [edi+1504]
  002ce	ff d3		 call	 ebx

; 763  : 	{ ASSERT(::IsWindow(m_hWnd)); return (int)::SendMessage(m_hWnd, CB_GETCOUNT, 0, 0); }

  002d0	6a 00		 push	 0
  002d2	6a 00		 push	 0
  002d4	68 46 01 00 00	 push	 326			; 00000146H
  002d9	ff b7 e0 05 00
	00		 push	 DWORD PTR [edi+1504]
; File D:\git\src\IBK\IBK_DRFN\ProjSrc\SrcDrfn\Chart\ChartUtil\DlgCompSetup.cpp

; 471  : 	for( int i = -1 ; i < Drawsytle_Combo.GetCount() ; i++ ) 

  002df	46		 inc	 esi
; File C:\Program Files (x86)\Microsoft Visual Studio\2019\Community\VC\Tools\MSVC\14.29.30133\atlmfc\include\afxwin2.inl

; 763  : 	{ ASSERT(::IsWindow(m_hWnd)); return (int)::SendMessage(m_hWnd, CB_GETCOUNT, 0, 0); }

  002e0	ff d3		 call	 ebx
; File D:\git\src\IBK\IBK_DRFN\ProjSrc\SrcDrfn\Chart\ChartUtil\DlgCompSetup.cpp

; 471  : 	for( int i = -1 ; i < Drawsytle_Combo.GetCount() ; i++ ) 

  002e2	3b f0		 cmp	 esi, eax
  002e4	7c da		 jl	 SHORT $LL49@OnInitDial
$LN48@OnInitDial:
; File C:\Program Files (x86)\Microsoft Visual Studio\2019\Community\VC\Tools\MSVC\14.29.30133\atlmfc\include\afxwin2.inl

; 767  : 	{ ASSERT(::IsWindow(m_hWnd)); return (int)::SendMessage(m_hWnd, CB_SETCURSEL, nSelect, 0); }

  002e6	6a 00		 push	 0
  002e8	6a 00		 push	 0
  002ea	68 4e 01 00 00	 push	 334			; 0000014eH
  002ef	ff b7 e0 05 00
	00		 push	 DWORD PTR [edi+1504]
  002f5	ff d3		 call	 ebx
; File D:\git\src\IBK\IBK_DRFN\ProjSrc\SrcDrfn\Chart\ChartUtil\DlgCompSetup.cpp

; 508  : 	m_nRComp	= m_dwInData->m_nBase;

  002f7	8b 8f ac 00 00
	00		 mov	 ecx, DWORD PTR [edi+172]

; 513  : 	for(POSITION pos=m_GroupList.GetHeadPosition(); pos;)

  002fd	8b b7 b4 00 00
	00		 mov	 esi, DWORD PTR [edi+180]
  00303	8b 41 20	 mov	 eax, DWORD PTR [ecx+32]
  00306	89 87 d4 06 00
	00		 mov	 DWORD PTR [edi+1748], eax
  0030c	8b 41 24	 mov	 eax, DWORD PTR [ecx+36]
  0030f	89 87 c8 06 00
	00		 mov	 DWORD PTR [edi+1736], eax
  00315	8b 41 2c	 mov	 eax, DWORD PTR [ecx+44]
  00318	89 87 d0 06 00
	00		 mov	 DWORD PTR [edi+1744], eax
  0031e	8b 41 28	 mov	 eax, DWORD PTR [ecx+40]
  00321	89 87 cc 06 00
	00		 mov	 DWORD PTR [edi+1740], eax
  00327	85 f6		 test	 esi, esi
  00329	74 1f		 je	 SHORT $LN73@OnInitDial
  0032b	0f 1f 44 00 00	 npad	 5
$LL72@OnInitDial:

; 514  : 	{
; 515  : 		CDlgCompGroupData* pGroupData = m_GroupList.GetNext(pos);

  00330	8b 46 08	 mov	 eax, DWORD PTR [esi+8]
; File C:\Program Files (x86)\Microsoft Visual Studio\2019\Community\VC\Tools\MSVC\14.29.30133\atlmfc\include\afxtempl.h

; 813  : 		rPosition = (POSITION) pNode->pNext;

  00333	8b 36		 mov	 esi, DWORD PTR [esi]
; File C:\Program Files (x86)\Microsoft Visual Studio\2019\Community\VC\Tools\MSVC\14.29.30133\atlmfc\include\afxwin2.inl

; 725  : 	{ ASSERT(::IsWindow(m_hWnd)); return (int)::SendMessage(m_hWnd, LB_ADDSTRING, 0, (LPARAM)lpszItem); }

  00335	ff 30		 push	 DWORD PTR [eax]
  00337	6a 00		 push	 0
  00339	68 80 01 00 00	 push	 384			; 00000180H
  0033e	ff b7 38 02 00
	00		 push	 DWORD PTR [edi+568]
  00344	ff d3		 call	 ebx
; File D:\git\src\IBK\IBK_DRFN\ProjSrc\SrcDrfn\Chart\ChartUtil\DlgCompSetup.cpp

; 513  : 	for(POSITION pos=m_GroupList.GetHeadPosition(); pos;)

  00346	85 f6		 test	 esi, esi
  00348	75 e6		 jne	 SHORT $LL72@OnInitDial
$LN73@OnInitDial:

; 135  : 
; 136  : 	InitFromLoadData();
; 137  : 
; 138  : 	UpdateData(FALSE);

  0034a	6a 00		 push	 0
  0034c	8b cf		 mov	 ecx, edi
  0034e	e8 00 00 00 00	 call	 ?UpdateData@CWnd@@QAEHH@Z ; CWnd::UpdateData

; 1010 : 	if(m_GroupList.GetCount()>0) return;

  00353	83 bf bc 00 00
	00 00		 cmp	 DWORD PTR [edi+188], 0
  0035a	7f 7c		 jg	 SHORT $LN82@OnInitDial

; 1012 : 	CString szGroup("");

  0035c	68 00 00 00 00	 push	 OFFSET ??_C@_08NHOKBKDK@?$LB?b?$LK?$LL?$LB?W?$LH?l@
  00361	8d 4d f0	 lea	 ecx, DWORD PTR _szGroup$6[ebp]
  00364	ff 15 00 00 00
	00		 call	 DWORD PTR __imp_??0?$CStringT@DV?$StrTraitMFC_DLL@DV?$ChTraitsCRT@D@ATL@@@@@ATL@@QAE@PBD@Z
; File C:\Program Files (x86)\Microsoft Visual Studio\2019\Community\VC\Tools\MSVC\14.29.30133\atlmfc\include\afxwin2.inl

; 725  : 	{ ASSERT(::IsWindow(m_hWnd)); return (int)::SendMessage(m_hWnd, LB_ADDSTRING, 0, (LPARAM)lpszItem); }

  0036a	ff 75 f0	 push	 DWORD PTR _szGroup$6[ebp]
; File D:\git\src\IBK\IBK_DRFN\ProjSrc\SrcDrfn\Chart\ChartUtil\DlgCompSetup.cpp

; 1012 : 	CString szGroup("");

  0036d	c7 45 fc 03 00
	00 00		 mov	 DWORD PTR __$EHRec$[ebp+8], 3
; File C:\Program Files (x86)\Microsoft Visual Studio\2019\Community\VC\Tools\MSVC\14.29.30133\atlmfc\include\afxwin2.inl

; 725  : 	{ ASSERT(::IsWindow(m_hWnd)); return (int)::SendMessage(m_hWnd, LB_ADDSTRING, 0, (LPARAM)lpszItem); }

  00374	6a 00		 push	 0
  00376	68 80 01 00 00	 push	 384			; 00000180H
  0037b	ff b7 38 02 00
	00		 push	 DWORD PTR [edi+568]
  00381	ff d3		 call	 ebx

; 668  : 	{ ASSERT(::IsWindow(m_hWnd)); return (int)::SendMessage(m_hWnd, LB_SETCURSEL, nSelect, 0); }

  00383	6a 00		 push	 0
  00385	50		 push	 eax
  00386	68 86 01 00 00	 push	 390			; 00000186H
  0038b	ff b7 38 02 00
	00		 push	 DWORD PTR [edi+568]
  00391	ff d3		 call	 ebx
; File D:\git\src\IBK\IBK_DRFN\ProjSrc\SrcDrfn\Chart\ChartUtil\DlgCompSetup.cpp

; 1017 : 	CDlgCompGroupData* pGroupData = new CDlgCompGroupData;

  00393	6a 20		 push	 32			; 00000020H
  00395	e8 00 00 00 00	 call	 ??2@YAPAXI@Z		; operator new
  0039a	83 c4 04	 add	 esp, 4
  0039d	89 45 e8	 mov	 DWORD PTR $T4[ebp], eax
  003a0	85 c0		 test	 eax, eax
  003a2	74 0b		 je	 SHORT $LN85@OnInitDial
  003a4	8b c8		 mov	 ecx, eax
  003a6	e8 00 00 00 00	 call	 ??0CDlgCompGroupData@@QAE@XZ
  003ab	8b f0		 mov	 esi, eax
  003ad	eb 02		 jmp	 SHORT $LN86@OnInitDial
$LN85@OnInitDial:
  003af	33 f6		 xor	 esi, esi
$LN86@OnInitDial:

; 1018 : 	pGroupData->m_szGroupName = szGroup;

  003b1	8d 45 f0	 lea	 eax, DWORD PTR _szGroup$6[ebp]
  003b4	8b ce		 mov	 ecx, esi
  003b6	50		 push	 eax
  003b7	ff 15 00 00 00
	00		 call	 DWORD PTR __imp_??4?$CStringT@DV?$StrTraitMFC_DLL@DV?$ChTraitsCRT@D@ATL@@@@@ATL@@QAEAAV01@ABV01@@Z

; 1019 : 	m_GroupList.AddTail(pGroupData);

  003bd	56		 push	 esi
  003be	8d 8f b0 00 00
	00		 lea	 ecx, DWORD PTR [edi+176]
  003c4	e8 00 00 00 00	 call	 ?AddTail@?$CList@PAVCDlgCompGroupData@@PAV1@@@QAEPAU__POSITION@@PAVCDlgCompGroupData@@@Z ; CList<CDlgCompGroupData *,CDlgCompGroupData *>::AddTail

; 1020 : 	m_pCurGroup = pGroupData;
; 1021 : }

  003c9	8d 4d f0	 lea	 ecx, DWORD PTR _szGroup$6[ebp]
  003cc	89 b7 cc 00 00
	00		 mov	 DWORD PTR [edi+204], esi
  003d2	ff 15 00 00 00
	00		 call	 DWORD PTR __imp_??1?$CStringT@DV?$StrTraitMFC_DLL@DV?$ChTraitsCRT@D@ATL@@@@@ATL@@QAE@XZ
$LN82@OnInitDial:
; File C:\Program Files (x86)\Microsoft Visual Studio\2019\Community\VC\Tools\MSVC\14.29.30133\atlmfc\include\atlsimpstr.h

; 377  : 		return( m_pszData );

  003d8	8b 87 ac 00 00
	00		 mov	 eax, DWORD PTR [edi+172]
; File C:\Program Files (x86)\Microsoft Visual Studio\2019\Community\VC\Tools\MSVC\14.29.30133\atlmfc\include\afxwin2.inl

; 664  : 	{ ASSERT(::IsWindow(m_hWnd)); return (int)::SendMessage(m_hWnd, LB_GETCOUNT, 0, 0); }

  003de	6a 00		 push	 0
  003e0	6a 00		 push	 0
  003e2	68 8b 01 00 00	 push	 395			; 0000018bH
; File C:\Program Files (x86)\Microsoft Visual Studio\2019\Community\VC\Tools\MSVC\14.29.30133\atlmfc\include\atlsimpstr.h

; 377  : 		return( m_pszData );

  003e7	8b 40 30	 mov	 eax, DWORD PTR [eax+48]
; File C:\Program Files (x86)\Microsoft Visual Studio\2019\Community\VC\Tools\MSVC\14.29.30133\atlmfc\include\afxwin2.inl

; 664  : 	{ ASSERT(::IsWindow(m_hWnd)); return (int)::SendMessage(m_hWnd, LB_GETCOUNT, 0, 0); }

  003ea	ff b7 38 02 00
	00		 push	 DWORD PTR [edi+568]
; File C:\Program Files (x86)\Microsoft Visual Studio\2019\Community\VC\Tools\MSVC\14.29.30133\atlmfc\include\atlsimpstr.h

; 377  : 		return( m_pszData );

  003f0	89 45 e8	 mov	 DWORD PTR $T3[ebp], eax
; File C:\Program Files (x86)\Microsoft Visual Studio\2019\Community\VC\Tools\MSVC\14.29.30133\atlmfc\include\afxwin2.inl

; 664  : 	{ ASSERT(::IsWindow(m_hWnd)); return (int)::SendMessage(m_hWnd, LB_GETCOUNT, 0, 0); }

  003f3	ff d3		 call	 ebx
; File D:\git\src\IBK\IBK_DRFN\ProjSrc\SrcDrfn\Chart\ChartUtil\DlgCompSetup.cpp

; 1027 : 	CString rString;

  003f5	8d 4d ec	 lea	 ecx, DWORD PTR _rString$5[ebp]
  003f8	89 45 f0	 mov	 DWORD PTR _nCnt$1$[ebp], eax
  003fb	ff 15 00 00 00
	00		 call	 DWORD PTR __imp_??0?$CStringT@DV?$StrTraitMFC_DLL@DV?$ChTraitsCRT@D@ATL@@@@@ATL@@QAE@XZ

; 1028 : 	for(int i=0; i<nCnt; i++)

  00401	33 f6		 xor	 esi, esi
  00403	c7 45 fc 04 00
	00 00		 mov	 DWORD PTR __$EHRec$[ebp+8], 4
  0040a	39 75 f0	 cmp	 DWORD PTR _nCnt$1$[ebp], esi
  0040d	0f 8e ee 00 00
	00		 jle	 $LN99@OnInitDial
  00413	8d 87 18 02 00
	00		 lea	 eax, DWORD PTR [edi+536]
  00419	0f 1f 80 00 00
	00 00		 npad	 7
$LL100@OnInitDial:

; 1029 : 	{
; 1030 : 		m_ListRP.GetText(i, rString);

  00420	8d 4d ec	 lea	 ecx, DWORD PTR _rString$5[ebp]
  00423	51		 push	 ecx
  00424	56		 push	 esi
  00425	8b c8		 mov	 ecx, eax
  00427	e8 00 00 00 00	 call	 ?GetText@CListBox@@QBEXHAAV?$CStringT@DV?$StrTraitMFC_DLL@DV?$ChTraitsCRT@D@ATL@@@@@ATL@@@Z ; CListBox::GetText

; 1031 : 		if(rString.Compare(szGroupName)==0)

  0042c	ff 75 e8	 push	 DWORD PTR $T3[ebp]
  0042f	8d 4d ec	 lea	 ecx, DWORD PTR _rString$5[ebp]
  00432	ff 15 00 00 00
	00		 call	 DWORD PTR __imp_?Compare@?$CStringT@DV?$StrTraitMFC_DLL@DV?$ChTraitsCRT@D@ATL@@@@@ATL@@QBEHPBD@Z
  00438	85 c0		 test	 eax, eax
  0043a	74 11		 je	 SHORT $LN145@OnInitDial

; 1028 : 	for(int i=0; i<nCnt; i++)

  0043c	46		 inc	 esi
  0043d	8d 87 18 02 00
	00		 lea	 eax, DWORD PTR [edi+536]
  00443	3b 75 f0	 cmp	 esi, DWORD PTR _nCnt$1$[ebp]
  00446	7c d8		 jl	 SHORT $LL100@OnInitDial

; 1031 : 		if(rString.Compare(szGroupName)==0)

  00448	e9 b4 00 00 00	 jmp	 $LN99@OnInitDial
$LN145@OnInitDial:
; File C:\Program Files (x86)\Microsoft Visual Studio\2019\Community\VC\Tools\MSVC\14.29.30133\atlmfc\include\afxwin2.inl

; 668  : 	{ ASSERT(::IsWindow(m_hWnd)); return (int)::SendMessage(m_hWnd, LB_SETCURSEL, nSelect, 0); }

  0044d	6a 00		 push	 0
  0044f	56		 push	 esi
  00450	68 86 01 00 00	 push	 390			; 00000186H
  00455	ff b7 38 02 00
	00		 push	 DWORD PTR [edi+568]
  0045b	ff d3		 call	 ebx
; File D:\git\src\IBK\IBK_DRFN\ProjSrc\SrcDrfn\Chart\ChartUtil\DlgCompSetup.cpp

; 1034 : 			fnSelectGroup(i);

  0045d	56		 push	 esi
  0045e	8b cf		 mov	 ecx, edi
  00460	e8 00 00 00 00	 call	 ?fnSelectGroup@CDlgCompSetup@@IAEXH@Z ; CDlgCompSetup::fnSelectGroup

; 1035 : 			fnSelectItem(m_pCurGroup, 0);

  00465	8b 87 cc 00 00
	00		 mov	 eax, DWORD PTR [edi+204]

; 620  : 	if(pGroupData==NULL)

  0046b	85 c0		 test	 eax, eax
  0046d	75 37		 jne	 SHORT $LN167@OnInitDial
; File C:\Program Files (x86)\Microsoft Visual Studio\2019\Community\VC\Tools\MSVC\14.29.30133\atlmfc\include\afxwin2.inl

; 666  : 	{ ASSERT(::IsWindow(m_hWnd)); return (int)::SendMessage(m_hWnd, LB_GETCURSEL, 0, 0); }

  0046f	50		 push	 eax
  00470	50		 push	 eax
  00471	68 88 01 00 00	 push	 392			; 00000188H
  00476	ff b7 38 02 00
	00		 push	 DWORD PTR [edi+568]
  0047c	ff d3		 call	 ebx
; File D:\git\src\IBK\IBK_DRFN\ProjSrc\SrcDrfn\Chart\ChartUtil\DlgCompSetup.cpp

; 623  : 		if(nGroup<0) return;

  0047e	85 c0		 test	 eax, eax
  00480	78 7f		 js	 SHORT $LN99@OnInitDial
; File C:\Program Files (x86)\Microsoft Visual Studio\2019\Community\VC\Tools\MSVC\14.29.30133\atlmfc\include\afxtempl.h

; 1133 : 	if (nIndex >= m_nCount || nIndex < 0)

  00482	3b 87 bc 00 00
	00		 cmp	 eax, DWORD PTR [edi+188]
  00488	7d 13		 jge	 SHORT $LN120@OnInitDial

; 1135 : 
; 1136 : 	CNode* pNode = m_pNodeHead;

  0048a	8b 8f b4 00 00
	00		 mov	 ecx, DWORD PTR [edi+180]

; 1137 : 	while (nIndex--)

  00490	85 c0		 test	 eax, eax
  00492	74 0b		 je	 SHORT $LN116@OnInitDial
$LL117@OnInitDial:

; 1138 : 	{
; 1139 : 		ASSERT(AfxIsValidAddress(pNode, sizeof(CNode)));
; 1140 : 		pNode = pNode->pNext;

  00494	8b 09		 mov	 ecx, DWORD PTR [ecx]
  00496	83 e8 01	 sub	 eax, 1
  00499	75 f9		 jne	 SHORT $LL117@OnInitDial

; 1141 : 	}
; 1142 : 	return (POSITION) pNode;

  0049b	eb 02		 jmp	 SHORT $LN116@OnInitDial
$LN120@OnInitDial:

; 1134 : 		return NULL;  // went too far

  0049d	33 c9		 xor	 ecx, ecx
$LN116@OnInitDial:
; File D:\git\src\IBK\IBK_DRFN\ProjSrc\SrcDrfn\Chart\ChartUtil\DlgCompSetup.cpp

; 626  : 		pGroupData = m_GroupList.GetAt(pos);

  0049f	8b 41 08	 mov	 eax, DWORD PTR [ecx+8]

; 627  : 	}
; 628  : 	if(pGroupData==NULL) return;

  004a2	85 c0		 test	 eax, eax
  004a4	74 5b		 je	 SHORT $LN99@OnInitDial
$LN167@OnInitDial:
; File C:\Program Files (x86)\Microsoft Visual Studio\2019\Community\VC\Tools\MSVC\14.29.30133\atlmfc\include\afxtempl.h

; 1133 : 	if (nIndex >= m_nCount || nIndex < 0)

  004a6	83 78 10 00	 cmp	 DWORD PTR [eax+16], 0
  004aa	7e 55		 jle	 SHORT $LN99@OnInitDial

; 1135 : 
; 1136 : 	CNode* pNode = m_pNodeHead;

  004ac	8b 70 08	 mov	 esi, DWORD PTR [eax+8]
; File D:\git\src\IBK\IBK_DRFN\ProjSrc\SrcDrfn\Chart\ChartUtil\DlgCompSetup.cpp

; 631  : 	if(!pos) return;

  004af	85 f6		 test	 esi, esi
  004b1	74 4e		 je	 SHORT $LN99@OnInitDial

; 632  : 
; 633  : 	CDlgCompSubItem* pItem = pGroupData->m_ItemList.GetAt(pos);

  004b3	8b 76 08	 mov	 esi, DWORD PTR [esi+8]

; 639  : 	if(!pItem) return;

  004b6	85 f6		 test	 esi, esi
  004b8	74 47		 je	 SHORT $LN99@OnInitDial

; 640  : 
; 641  : 	//    .
; 642  : 	m_pCurSubItem = pItem;

  004ba	89 b7 d0 00 00
	00		 mov	 DWORD PTR [edi+208], esi

; 960  : 	SetDlgItemText(IDC_TXTTITLE, pCurSubItem->m_szCodeName);

  004c0	8b cf		 mov	 ecx, edi
  004c2	ff 76 04	 push	 DWORD PTR [esi+4]
  004c5	68 79 17 00 00	 push	 6009			; 00001779H
  004ca	e8 00 00 00 00	 call	 ?SetDlgItemTextA@CWnd@@QAEXHPBD@Z ; CWnd::SetDlgItemTextA

; 961  : 	m_btnTextColor.SetColor(pCurSubItem->m_clr);

  004cf	ff 76 08	 push	 DWORD PTR [esi+8]
  004d2	8d 8f 18 03 00
	00		 lea	 ecx, DWORD PTR [edi+792]
  004d8	e8 00 00 00 00	 call	 ?SetColor@CXColourPicker@@QAEXK@Z ; CXColourPicker::SetColor
; File C:\Program Files (x86)\Microsoft Visual Studio\2019\Community\VC\Tools\MSVC\14.29.30133\atlmfc\include\afxwin2.inl

; 767  : 	{ ASSERT(::IsWindow(m_hWnd)); return (int)::SendMessage(m_hWnd, CB_SETCURSEL, nSelect, 0); }

  004dd	6a 00		 push	 0
  004df	ff 76 0c	 push	 DWORD PTR [esi+12]
  004e2	68 4e 01 00 00	 push	 334			; 0000014eH
  004e7	ff b7 e0 05 00
	00		 push	 DWORD PTR [edi+1504]
  004ed	ff d3		 call	 ebx
  004ef	6a 00		 push	 0
  004f1	ff 76 10	 push	 DWORD PTR [esi+16]
  004f4	68 4e 01 00 00	 push	 334			; 0000014eH
  004f9	ff b7 58 05 00
	00		 push	 DWORD PTR [edi+1368]
  004ff	ff d3		 call	 ebx
$LN99@OnInitDial:
; File D:\git\src\IBK\IBK_DRFN\ProjSrc\SrcDrfn\Chart\ChartUtil\DlgCompSetup.cpp

; 1039 : }

  00501	8d 4d ec	 lea	 ecx, DWORD PTR _rString$5[ebp]
  00504	c7 45 fc ff ff
	ff ff		 mov	 DWORD PTR __$EHRec$[ebp+8], -1
  0050b	ff 15 00 00 00
	00		 call	 DWORD PTR __imp_??1?$CStringT@DV?$StrTraitMFC_DLL@DV?$ChTraitsCRT@D@ATL@@@@@ATL@@QAE@XZ

; 139  : 	fnCheckNoGroup();
; 140  : 	fnInitSelctGroup(m_dwInData->m_szSelectGroup);	// 
; 141  : 
; 142  : 	InitGrid();

  00511	8b cf		 mov	 ecx, edi
  00513	e8 00 00 00 00	 call	 ?InitGrid@CDlgCompSetup@@IAEXXZ ; CDlgCompSetup::InitGrid

; 143  : 
; 144  : 
; 145  : 	return TRUE;  // return TRUE unless you set the focus to a control

  00518	b8 01 00 00 00	 mov	 eax, 1

; 146  : 	              // EXCEPTION: OCX Property Pages should return FALSE
; 147  : }

  0051d	8b 4d f4	 mov	 ecx, DWORD PTR __$EHRec$[ebp]
  00520	64 89 0d 00 00
	00 00		 mov	 DWORD PTR fs:0, ecx
  00527	59		 pop	 ecx
  00528	5f		 pop	 edi
  00529	5e		 pop	 esi
  0052a	5b		 pop	 ebx
  0052b	8b e5		 mov	 esp, ebp
  0052d	5d		 pop	 ebp
  0052e	c3		 ret	 0
_TEXT	ENDS
;	COMDAT text$x
text$x	SEGMENT
__unwindfunclet$?OnInitDialog@CDlgCompSetup@@MAEHXZ$2:
  00000	8d 4d d8	 lea	 ecx, DWORD PTR _inData$2[ebp+4]
  00003	ff 25 00 00 00
	00		 jmp	 DWORD PTR __imp_??1?$CStringT@DV?$StrTraitMFC_DLL@DV?$ChTraitsCRT@D@ATL@@@@@ATL@@QAE@XZ
__unwindfunclet$?OnInitDialog@CDlgCompSetup@@MAEHXZ$3:
  00009	8d 4d dc	 lea	 ecx, DWORD PTR _inData$2[ebp+8]
  0000c	ff 25 00 00 00
	00		 jmp	 DWORD PTR __imp_??1?$CStringT@DV?$StrTraitMFC_DLL@DV?$ChTraitsCRT@D@ATL@@@@@ATL@@QAE@XZ
__unwindfunclet$?OnInitDialog@CDlgCompSetup@@MAEHXZ$0:
  00012	8d 4d d4	 lea	 ecx, DWORD PTR _inData$2[ebp]
  00015	e9 00 00 00 00	 jmp	 ??1CInputCodeListEx@@QAE@XZ
__unwindfunclet$?OnInitDialog@CDlgCompSetup@@MAEHXZ$6:
  0001a	8d 4d f0	 lea	 ecx, DWORD PTR _szGroup$6[ebp]
  0001d	ff 25 00 00 00
	00		 jmp	 DWORD PTR __imp_??1?$CStringT@DV?$StrTraitMFC_DLL@DV?$ChTraitsCRT@D@ATL@@@@@ATL@@QAE@XZ
__unwindfunclet$?OnInitDialog@CDlgCompSetup@@MAEHXZ$8:
  00023	8d 4d ec	 lea	 ecx, DWORD PTR _rString$5[ebp]
  00026	ff 25 00 00 00
	00		 jmp	 DWORD PTR __imp_??1?$CStringT@DV?$StrTraitMFC_DLL@DV?$ChTraitsCRT@D@ATL@@@@@ATL@@QAE@XZ
  0002c	cc		 int	 3
  0002d	cc		 int	 3
  0002e	cc		 int	 3
  0002f	cc		 int	 3
  00030	cc		 int	 3
__ehhandler$?OnInitDialog@CDlgCompSetup@@MAEHXZ:
  00031	90		 npad	 1
  00032	90		 npad	 1
  00033	8b 54 24 08	 mov	 edx, DWORD PTR [esp+8]
  00037	8d 42 0c	 lea	 eax, DWORD PTR [edx+12]
  0003a	8b 4a d0	 mov	 ecx, DWORD PTR [edx-48]
  0003d	33 c8		 xor	 ecx, eax
  0003f	e8 00 00 00 00	 call	 @__security_check_cookie@4
  00044	b8 00 00 00 00	 mov	 eax, OFFSET __ehfuncinfo$?OnInitDialog@CDlgCompSetup@@MAEHXZ
  00049	e9 00 00 00 00	 jmp	 ___CxxFrameHandler3
text$x	ENDS
?OnInitDialog@CDlgCompSetup@@MAEHXZ ENDP		; CDlgCompSetup::OnInitDialog
; Function compile flags: /Ogtp
; File D:\git\src\IBK\IBK_DRFN\ProjSrc\SrcDrfn\Chart\ChartUtil\DlgCompSetup.cpp
; File C:\Program Files (x86)\Microsoft Visual Studio\2019\Community\VC\Tools\MSVC\14.29.30133\atlmfc\include\afxcmn.inl
; File D:\git\src\IBK\IBK_DRFN\ProjSrc\SrcDrfn\Chart\ChartUtil\DlgCompSetup.cpp
;	COMDAT ?fnCheckCode@CDlgCompSetup@@IAEHPBD0@Z
_TEXT	SEGMENT
$T2 = -20						; size = 4
_szCode$ = -16						; size = 4
__$EHRec$ = -12						; size = 12
__szCode$ = 8						; size = 4
__szCodeName$ = 12					; size = 4
?fnCheckCode@CDlgCompSetup@@IAEHPBD0@Z PROC		; CDlgCompSetup::fnCheckCode, COMDAT
; _this$ = ecx

; 1046 : {

  00000	55		 push	 ebp
  00001	8b ec		 mov	 ebp, esp
  00003	6a ff		 push	 -1
  00005	68 00 00 00 00	 push	 __ehhandler$?fnCheckCode@CDlgCompSetup@@IAEHPBD0@Z
  0000a	64 a1 00 00 00
	00		 mov	 eax, DWORD PTR fs:0
  00010	50		 push	 eax
  00011	83 ec 08	 sub	 esp, 8
  00014	53		 push	 ebx
  00015	56		 push	 esi
  00016	57		 push	 edi
  00017	a1 00 00 00 00	 mov	 eax, DWORD PTR ___security_cookie
  0001c	33 c5		 xor	 eax, ebp
  0001e	50		 push	 eax
  0001f	8d 45 f4	 lea	 eax, DWORD PTR __$EHRec$[ebp]
  00022	64 a3 00 00 00
	00		 mov	 DWORD PTR fs:0, eax
  00028	8b d9		 mov	 ebx, ecx
; File C:\Program Files (x86)\Microsoft Visual Studio\2019\Community\VC\Tools\MSVC\14.29.30133\atlmfc\include\afxcmn.inl

; 155  : 	{ ASSERT(::IsWindow(m_hWnd)); return (int) ::SendMessage(m_hWnd, LVM_GETITEMCOUNT, 0, 0L); }

  0002a	6a 00		 push	 0
  0002c	6a 00		 push	 0
  0002e	68 04 10 00 00	 push	 4100			; 00001004H
  00033	ff b3 b8 01 00
	00		 push	 DWORD PTR [ebx+440]
  00039	ff 15 00 00 00
	00		 call	 DWORD PTR __imp__SendMessageA@16
; File D:\git\src\IBK\IBK_DRFN\ProjSrc\SrcDrfn\Chart\ChartUtil\DlgCompSetup.cpp

; 1047 : 	int nCnt = m_ListItem.GetItemCount();

  0003f	8b f8		 mov	 edi, eax

; 1048 : 	if(nCnt==MAX_ITEM_CNT) return -2;

  00041	83 ff 0a	 cmp	 edi, 10			; 0000000aH
  00044	75 17		 jne	 SHORT $LN5@fnCheckCod
  00046	8d 47 f4	 lea	 eax, DWORD PTR [edi-12]

; 1057 : }

  00049	8b 4d f4	 mov	 ecx, DWORD PTR __$EHRec$[ebp]
  0004c	64 89 0d 00 00
	00 00		 mov	 DWORD PTR fs:0, ecx
  00053	59		 pop	 ecx
  00054	5f		 pop	 edi
  00055	5e		 pop	 esi
  00056	5b		 pop	 ebx
  00057	8b e5		 mov	 esp, ebp
  00059	5d		 pop	 ebp
  0005a	c2 08 00	 ret	 8
$LN5@fnCheckCod:

; 1049 : 
; 1050 : 	CString szCode;

  0005d	8d 4d f0	 lea	 ecx, DWORD PTR _szCode$[ebp]
  00060	ff 15 00 00 00
	00		 call	 DWORD PTR __imp_??0?$CStringT@DV?$StrTraitMFC_DLL@DV?$ChTraitsCRT@D@ATL@@@@@ATL@@QAE@XZ

; 1051 : 	for(int i=0; i<nCnt; i++)

  00066	33 f6		 xor	 esi, esi
  00068	c7 45 fc 00 00
	00 00		 mov	 DWORD PTR __$EHRec$[ebp+8], 0
  0006f	85 ff		 test	 edi, edi
  00071	7e 47		 jle	 SHORT $LN10@fnCheckCod
$LL4@fnCheckCod:

; 1052 : 	{
; 1053 : 		szCode = m_ListItem.GetItemText(i, 1);

  00073	6a 01		 push	 1
  00075	56		 push	 esi
  00076	8d 45 ec	 lea	 eax, DWORD PTR $T2[ebp]
  00079	50		 push	 eax
  0007a	8d 8b 98 01 00
	00		 lea	 ecx, DWORD PTR [ebx+408]
  00080	e8 00 00 00 00	 call	 ?GetItemText@CListCtrl@@QBE?AV?$CStringT@DV?$StrTraitMFC_DLL@DV?$ChTraitsCRT@D@ATL@@@@@ATL@@HH@Z ; CListCtrl::GetItemText
  00085	50		 push	 eax
  00086	8d 4d f0	 lea	 ecx, DWORD PTR _szCode$[ebp]
  00089	c6 45 fc 01	 mov	 BYTE PTR __$EHRec$[ebp+8], 1
  0008d	ff 15 00 00 00
	00		 call	 DWORD PTR __imp_??4?$CStringT@DV?$StrTraitMFC_DLL@DV?$ChTraitsCRT@D@ATL@@@@@ATL@@QAEAAV01@ABV01@@Z
  00093	8d 4d ec	 lea	 ecx, DWORD PTR $T2[ebp]
  00096	c6 45 fc 00	 mov	 BYTE PTR __$EHRec$[ebp+8], 0
  0009a	ff 15 00 00 00
	00		 call	 DWORD PTR __imp_??1?$CStringT@DV?$StrTraitMFC_DLL@DV?$ChTraitsCRT@D@ATL@@@@@ATL@@QAE@XZ

; 1054 : 		if(szCode.Compare(_szCode)==0) return -1;

  000a0	ff 75 08	 push	 DWORD PTR __szCode$[ebp]
  000a3	8d 4d f0	 lea	 ecx, DWORD PTR _szCode$[ebp]
  000a6	ff 15 00 00 00
	00		 call	 DWORD PTR __imp_?Compare@?$CStringT@DV?$StrTraitMFC_DLL@DV?$ChTraitsCRT@D@ATL@@@@@ATL@@QBEHPBD@Z
  000ac	85 c0		 test	 eax, eax
  000ae	74 07		 je	 SHORT $LN14@fnCheckCod

; 1051 : 	for(int i=0; i<nCnt; i++)

  000b0	46		 inc	 esi
  000b1	3b f7		 cmp	 esi, edi
  000b3	7c be		 jl	 SHORT $LL4@fnCheckCod

; 1054 : 		if(szCode.Compare(_szCode)==0) return -1;

  000b5	eb 03		 jmp	 SHORT $LN10@fnCheckCod
$LN14@fnCheckCod:
  000b7	83 cf ff	 or	 edi, -1
$LN10@fnCheckCod:

; 1055 : 	}
; 1056 : 	return nCnt;

  000ba	8d 4d f0	 lea	 ecx, DWORD PTR _szCode$[ebp]
  000bd	ff 15 00 00 00
	00		 call	 DWORD PTR __imp_??1?$CStringT@DV?$StrTraitMFC_DLL@DV?$ChTraitsCRT@D@ATL@@@@@ATL@@QAE@XZ
  000c3	8b c7		 mov	 eax, edi

; 1057 : }

  000c5	8b 4d f4	 mov	 ecx, DWORD PTR __$EHRec$[ebp]
  000c8	64 89 0d 00 00
	00 00		 mov	 DWORD PTR fs:0, ecx
  000cf	59		 pop	 ecx
  000d0	5f		 pop	 edi
  000d1	5e		 pop	 esi
  000d2	5b		 pop	 ebx
  000d3	8b e5		 mov	 esp, ebp
  000d5	5d		 pop	 ebp
  000d6	c2 08 00	 ret	 8
_TEXT	ENDS
;	COMDAT text$x
text$x	SEGMENT
__unwindfunclet$?fnCheckCode@CDlgCompSetup@@IAEHPBD0@Z$0:
  00000	8d 4d f0	 lea	 ecx, DWORD PTR _szCode$[ebp]
  00003	ff 25 00 00 00
	00		 jmp	 DWORD PTR __imp_??1?$CStringT@DV?$StrTraitMFC_DLL@DV?$ChTraitsCRT@D@ATL@@@@@ATL@@QAE@XZ
__unwindfunclet$?fnCheckCode@CDlgCompSetup@@IAEHPBD0@Z$1:
  00009	8d 4d ec	 lea	 ecx, DWORD PTR $T2[ebp]
  0000c	ff 25 00 00 00
	00		 jmp	 DWORD PTR __imp_??1?$CStringT@DV?$StrTraitMFC_DLL@DV?$ChTraitsCRT@D@ATL@@@@@ATL@@QAE@XZ
  00012	cc		 int	 3
  00013	cc		 int	 3
  00014	cc		 int	 3
  00015	cc		 int	 3
  00016	cc		 int	 3
__ehhandler$?fnCheckCode@CDlgCompSetup@@IAEHPBD0@Z:
  00017	90		 npad	 1
  00018	90		 npad	 1
  00019	8b 54 24 08	 mov	 edx, DWORD PTR [esp+8]
  0001d	8d 42 0c	 lea	 eax, DWORD PTR [edx+12]
  00020	8b 4a e8	 mov	 ecx, DWORD PTR [edx-24]
  00023	33 c8		 xor	 ecx, eax
  00025	e8 00 00 00 00	 call	 @__security_check_cookie@4
  0002a	b8 00 00 00 00	 mov	 eax, OFFSET __ehfuncinfo$?fnCheckCode@CDlgCompSetup@@IAEHPBD0@Z
  0002f	e9 00 00 00 00	 jmp	 ___CxxFrameHandler3
text$x	ENDS
?fnCheckCode@CDlgCompSetup@@IAEHPBD0@Z ENDP		; CDlgCompSetup::fnCheckCode
; Function compile flags: /Ogtp
; File D:\git\src\IBK\IBK_DRFN\ProjSrc\SrcDrfn\Chart\ChartUtil\DlgCompSetup.cpp
; File C:\Program Files (x86)\Microsoft Visual Studio\2019\Community\VC\Tools\MSVC\14.29.30133\atlmfc\include\afxwin1.inl
; File D:\git\src\IBK\IBK_DRFN\ProjSrc\SrcDrfn\Chart\ChartUtil\DlgCompSetup.cpp
; File C:\Program Files (x86)\Microsoft Visual Studio\2019\Community\VC\Tools\MSVC\14.29.30133\atlmfc\include\afxwin1.inl
; File D:\git\src\IBK\IBK_DRFN\ProjSrc\SrcDrfn\Chart\ChartUtil\DlgCompSetup.cpp
;	COMDAT ?RealLoadBitmap@CDlgCompSetup@@IAEXHHAAVCBitmapItemComboBox@@@Z
_TEXT	SEGMENT
_nCount$ = 8						; size = 4
_nIDBitmap$ = 12					; size = 4
_Drawsytle_Combo$ = 16					; size = 4
?RealLoadBitmap@CDlgCompSetup@@IAEXHHAAVCBitmapItemComboBox@@@Z PROC ; CDlgCompSetup::RealLoadBitmap, COMDAT
; _this$ = ecx

; 487  : {

  00000	55		 push	 ebp
  00001	8b ec		 mov	 ebp, esp
  00003	53		 push	 ebx
  00004	56		 push	 esi
  00005	57		 push	 edi

; 488  : 	if( Drawsytle_Combo.m_bitmap.GetSafeHandle()) Drawsytle_Combo.m_bitmap.DeleteObject();

  00006	8b 7d 10	 mov	 edi, DWORD PTR _Drawsytle_Combo$[ebp]
  00009	8b d9		 mov	 ebx, ecx
  0000b	8d b7 80 00 00
	00		 lea	 esi, DWORD PTR [edi+128]
; File C:\Program Files (x86)\Microsoft Visual Studio\2019\Community\VC\Tools\MSVC\14.29.30133\atlmfc\include\afxwin1.inl

; 68   : 	{ return this == NULL ? NULL : m_hObject; }

  00011	85 f6		 test	 esi, esi
  00013	74 0d		 je	 SHORT $LN2@RealLoadBi
; File D:\git\src\IBK\IBK_DRFN\ProjSrc\SrcDrfn\Chart\ChartUtil\DlgCompSetup.cpp

; 488  : 	if( Drawsytle_Combo.m_bitmap.GetSafeHandle()) Drawsytle_Combo.m_bitmap.DeleteObject();

  00015	83 7e 04 00	 cmp	 DWORD PTR [esi+4], 0
  00019	74 07		 je	 SHORT $LN2@RealLoadBi
  0001b	8b ce		 mov	 ecx, esi
  0001d	e8 00 00 00 00	 call	 ?DeleteObject@CGdiObject@@QAEHXZ ; CGdiObject::DeleteObject
$LN2@RealLoadBi:
; File C:\Program Files (x86)\Microsoft Visual Studio\2019\Community\VC\Tools\MSVC\14.29.30133\atlmfc\include\afxwin1.inl

; 212  : 	{ return Attach(::LoadBitmapW(AfxFindResourceHandle(

  00022	0f b7 45 0c	 movzx	 eax, WORD PTR _nIDBitmap$[ebp]
  00026	50		 push	 eax
  00027	6a 02		 push	 2
  00029	50		 push	 eax
  0002a	e8 00 00 00 00	 call	 ?AfxFindResourceHandle@@YGPAUHINSTANCE__@@PBD0@Z ; AfxFindResourceHandle
  0002f	50		 push	 eax
  00030	ff 15 00 00 00
	00		 call	 DWORD PTR __imp__LoadBitmapW@8
  00036	50		 push	 eax
  00037	8b ce		 mov	 ecx, esi
  00039	e8 00 00 00 00	 call	 ?Attach@CGdiObject@@QAEHPAX@Z ; CGdiObject::Attach
; File D:\git\src\IBK\IBK_DRFN\ProjSrc\SrcDrfn\Chart\ChartUtil\DlgCompSetup.cpp

; 490  : 	if (!Drawsytle_Combo.m_bitmap.LoadBitmap(nIDBitmap))

  0003e	85 c0		 test	 eax, eax
  00040	74 0b		 je	 SHORT $LN1@RealLoadBi

; 491  : 		return;   // need this one image
; 492  : 	
; 493  : 	AddLineType(&Drawsytle_Combo, nCount);

  00042	ff 75 08	 push	 DWORD PTR _nCount$[ebp]
  00045	8b cb		 mov	 ecx, ebx
  00047	57		 push	 edi
  00048	e8 00 00 00 00	 call	 ?AddLineType@CDlgCompSetup@@IAEXPAVCComboBox@@H@Z ; CDlgCompSetup::AddLineType
$LN1@RealLoadBi:

; 494  : }

  0004d	5f		 pop	 edi
  0004e	5e		 pop	 esi
  0004f	5b		 pop	 ebx
  00050	5d		 pop	 ebp
  00051	c2 0c 00	 ret	 12			; 0000000cH
?RealLoadBitmap@CDlgCompSetup@@IAEXHHAAVCBitmapItemComboBox@@@Z ENDP ; CDlgCompSetup::RealLoadBitmap
_TEXT	ENDS
; Function compile flags: /Ogtp
; File D:\git\src\IBK\IBK_DRFN\ProjSrc\SrcDrfn\Chart\ChartUtil\DlgCompSetup.cpp
; File C:\Program Files (x86)\Microsoft Visual Studio\2019\Community\VC\Tools\MSVC\14.29.30133\atlmfc\include\afxwin1.inl
; File D:\git\src\IBK\IBK_DRFN\ProjSrc\SrcDrfn\Chart\ChartUtil\DlgCompSetup.cpp
; File C:\Program Files (x86)\Microsoft Visual Studio\2019\Community\VC\Tools\MSVC\14.29.30133\atlmfc\include\afxwin1.inl
; File D:\git\src\IBK\IBK_DRFN\ProjSrc\SrcDrfn\Chart\ChartUtil\DlgCompSetup.cpp
;	COMDAT ?LoadBitmapToDrawStyleCombo@CDlgCompSetup@@IAEXHAAVCBitmapItemComboBox@@@Z
_TEXT	SEGMENT
_p_nSubGraphIndex$ = 8					; size = 4
_Drawsytle_Combo$ = 12					; size = 4
?LoadBitmapToDrawStyleCombo@CDlgCompSetup@@IAEXHAAVCBitmapItemComboBox@@@Z PROC ; CDlgCompSetup::LoadBitmapToDrawStyleCombo, COMDAT
; _this$ = ecx

; 479  : {

  00000	55		 push	 ebp
  00001	8b ec		 mov	 ebp, esp

; 480  : 	if( p_nSubGraphIndex < 0) return;

  00003	83 7d 08 00	 cmp	 DWORD PTR _p_nSubGraphIndex$[ebp], 0
  00007	53		 push	 ebx
  00008	8b d9		 mov	 ebx, ecx
  0000a	7c 4c		 jl	 SHORT $LN4@LoadBitmap

; 488  : 	if( Drawsytle_Combo.m_bitmap.GetSafeHandle()) Drawsytle_Combo.m_bitmap.DeleteObject();

  0000c	56		 push	 esi
  0000d	57		 push	 edi
  0000e	8b 7d 0c	 mov	 edi, DWORD PTR _Drawsytle_Combo$[ebp]
  00011	8d b7 80 00 00
	00		 lea	 esi, DWORD PTR [edi+128]
; File C:\Program Files (x86)\Microsoft Visual Studio\2019\Community\VC\Tools\MSVC\14.29.30133\atlmfc\include\afxwin1.inl

; 68   : 	{ return this == NULL ? NULL : m_hObject; }

  00017	85 f6		 test	 esi, esi
  00019	74 0d		 je	 SHORT $LN5@LoadBitmap
; File D:\git\src\IBK\IBK_DRFN\ProjSrc\SrcDrfn\Chart\ChartUtil\DlgCompSetup.cpp

; 488  : 	if( Drawsytle_Combo.m_bitmap.GetSafeHandle()) Drawsytle_Combo.m_bitmap.DeleteObject();

  0001b	83 7e 04 00	 cmp	 DWORD PTR [esi+4], 0
  0001f	74 07		 je	 SHORT $LN5@LoadBitmap
  00021	8b ce		 mov	 ecx, esi
  00023	e8 00 00 00 00	 call	 ?DeleteObject@CGdiObject@@QAEHXZ ; CGdiObject::DeleteObject
$LN5@LoadBitmap:
; File C:\Program Files (x86)\Microsoft Visual Studio\2019\Community\VC\Tools\MSVC\14.29.30133\atlmfc\include\afxwin1.inl

; 212  : 	{ return Attach(::LoadBitmapW(AfxFindResourceHandle(

  00028	68 8c 17 00 00	 push	 6028			; 0000178cH
  0002d	6a 02		 push	 2
  0002f	68 8c 17 00 00	 push	 6028			; 0000178cH
  00034	e8 00 00 00 00	 call	 ?AfxFindResourceHandle@@YGPAUHINSTANCE__@@PBD0@Z ; AfxFindResourceHandle
  00039	50		 push	 eax
  0003a	ff 15 00 00 00
	00		 call	 DWORD PTR __imp__LoadBitmapW@8
  00040	50		 push	 eax
  00041	8b ce		 mov	 ecx, esi
  00043	e8 00 00 00 00	 call	 ?Attach@CGdiObject@@QAEHPAX@Z ; CGdiObject::Attach
; File D:\git\src\IBK\IBK_DRFN\ProjSrc\SrcDrfn\Chart\ChartUtil\DlgCompSetup.cpp

; 490  : 	if (!Drawsytle_Combo.m_bitmap.LoadBitmap(nIDBitmap))

  00048	85 c0		 test	 eax, eax
  0004a	74 0a		 je	 SHORT $LN14@LoadBitmap

; 491  : 		return;   // need this one image
; 492  : 	
; 493  : 	AddLineType(&Drawsytle_Combo, nCount);

  0004c	6a 05		 push	 5
  0004e	57		 push	 edi
  0004f	8b cb		 mov	 ecx, ebx
  00051	e8 00 00 00 00	 call	 ?AddLineType@CDlgCompSetup@@IAEXPAVCComboBox@@H@Z ; CDlgCompSetup::AddLineType
$LN14@LoadBitmap:
  00056	5f		 pop	 edi
  00057	5e		 pop	 esi
$LN4@LoadBitmap:
  00058	5b		 pop	 ebx

; 481  : 
; 482  : 	// 1. Graph type   bitMap load.
; 483  : 	RealLoadBitmap( 5, IDB_LINE_STYLE, Drawsytle_Combo );
; 484  : }

  00059	5d		 pop	 ebp
  0005a	c2 08 00	 ret	 8
?LoadBitmapToDrawStyleCombo@CDlgCompSetup@@IAEXHAAVCBitmapItemComboBox@@@Z ENDP ; CDlgCompSetup::LoadBitmapToDrawStyleCombo
_TEXT	ENDS
; Function compile flags: /Ogtp
; File D:\git\src\IBK\IBK_DRFN\ProjSrc\SrcDrfn\Chart\ChartUtil\DlgCompSetup.cpp
; File C:\Program Files (x86)\Microsoft Visual Studio\2019\Community\VC\Tools\MSVC\14.29.30133\atlmfc\include\afxwin1.inl
; File D:\git\src\IBK\IBK_DRFN\ProjSrc\SrcDrfn\Chart\ChartUtil\DlgCompSetup.cpp
; File C:\Program Files (x86)\Microsoft Visual Studio\2019\Community\VC\Tools\MSVC\14.29.30133\atlmfc\include\afxwin1.inl
; File D:\git\src\IBK\IBK_DRFN\ProjSrc\SrcDrfn\Chart\ChartUtil\DlgCompSetup.cpp
; File C:\Program Files (x86)\Microsoft Visual Studio\2019\Community\VC\Tools\MSVC\14.29.30133\atlmfc\include\afxwin2.inl
; File D:\git\src\IBK\IBK_DRFN\ProjSrc\SrcDrfn\Chart\ChartUtil\DlgCompSetup.cpp
; File C:\Program Files (x86)\Microsoft Visual Studio\2019\Community\VC\Tools\MSVC\14.29.30133\atlmfc\include\afxwin2.inl
; File D:\git\src\IBK\IBK_DRFN\ProjSrc\SrcDrfn\Chart\ChartUtil\DlgCompSetup.cpp
; File C:\Program Files (x86)\Microsoft Visual Studio\2019\Community\VC\Tools\MSVC\14.29.30133\atlmfc\include\afxwin2.inl
; File D:\git\src\IBK\IBK_DRFN\ProjSrc\SrcDrfn\Chart\ChartUtil\DlgCompSetup.cpp
; File C:\Program Files (x86)\Microsoft Visual Studio\2019\Community\VC\Tools\MSVC\14.29.30133\atlmfc\include\afxwin2.inl
; File D:\git\src\IBK\IBK_DRFN\ProjSrc\SrcDrfn\Chart\ChartUtil\DlgCompSetup.cpp
; File C:\Program Files (x86)\Microsoft Visual Studio\2019\Community\VC\Tools\MSVC\14.29.30133\atlmfc\include\afxwin2.inl
; File D:\git\src\IBK\IBK_DRFN\ProjSrc\SrcDrfn\Chart\ChartUtil\DlgCompSetup.cpp
;	COMDAT ?Initial_DrawStyleComboBox@CDlgCompSetup@@IAEXHAAVCBitmapItemComboBox@@@Z
_TEXT	SEGMENT
_p_nSubGraphIndex$ = 8					; size = 4
_Drawsytle_Combo$ = 12					; size = 4
?Initial_DrawStyleComboBox@CDlgCompSetup@@IAEXHAAVCBitmapItemComboBox@@@Z PROC ; CDlgCompSetup::Initial_DrawStyleComboBox, COMDAT
; _this$ = ecx

; 464  : {

  00000	55		 push	 ebp
  00001	8b ec		 mov	 ebp, esp

; 465  : 	if( p_nSubGraphIndex < 0) return;

  00003	83 7d 08 00	 cmp	 DWORD PTR _p_nSubGraphIndex$[ebp], 0
  00007	53		 push	 ebx
  00008	8b d9		 mov	 ebx, ecx
  0000a	0f 8c 95 00 00
	00		 jl	 $LN1@Initial_Dr

; 488  : 	if( Drawsytle_Combo.m_bitmap.GetSafeHandle()) Drawsytle_Combo.m_bitmap.DeleteObject();

  00010	56		 push	 esi
  00011	57		 push	 edi
  00012	8b 7d 0c	 mov	 edi, DWORD PTR _Drawsytle_Combo$[ebp]
  00015	8d b7 80 00 00
	00		 lea	 esi, DWORD PTR [edi+128]
; File C:\Program Files (x86)\Microsoft Visual Studio\2019\Community\VC\Tools\MSVC\14.29.30133\atlmfc\include\afxwin1.inl

; 68   : 	{ return this == NULL ? NULL : m_hObject; }

  0001b	85 f6		 test	 esi, esi
  0001d	74 0d		 je	 SHORT $LN11@Initial_Dr
; File D:\git\src\IBK\IBK_DRFN\ProjSrc\SrcDrfn\Chart\ChartUtil\DlgCompSetup.cpp

; 488  : 	if( Drawsytle_Combo.m_bitmap.GetSafeHandle()) Drawsytle_Combo.m_bitmap.DeleteObject();

  0001f	83 7e 04 00	 cmp	 DWORD PTR [esi+4], 0
  00023	74 07		 je	 SHORT $LN11@Initial_Dr
  00025	8b ce		 mov	 ecx, esi
  00027	e8 00 00 00 00	 call	 ?DeleteObject@CGdiObject@@QAEHXZ ; CGdiObject::DeleteObject
$LN11@Initial_Dr:
; File C:\Program Files (x86)\Microsoft Visual Studio\2019\Community\VC\Tools\MSVC\14.29.30133\atlmfc\include\afxwin1.inl

; 212  : 	{ return Attach(::LoadBitmapW(AfxFindResourceHandle(

  0002c	68 8c 17 00 00	 push	 6028			; 0000178cH
  00031	6a 02		 push	 2
  00033	68 8c 17 00 00	 push	 6028			; 0000178cH
  00038	e8 00 00 00 00	 call	 ?AfxFindResourceHandle@@YGPAUHINSTANCE__@@PBD0@Z ; AfxFindResourceHandle
  0003d	50		 push	 eax
  0003e	ff 15 00 00 00
	00		 call	 DWORD PTR __imp__LoadBitmapW@8
  00044	50		 push	 eax
  00045	8b ce		 mov	 ecx, esi
  00047	e8 00 00 00 00	 call	 ?Attach@CGdiObject@@QAEHPAX@Z ; CGdiObject::Attach
; File D:\git\src\IBK\IBK_DRFN\ProjSrc\SrcDrfn\Chart\ChartUtil\DlgCompSetup.cpp

; 490  : 	if (!Drawsytle_Combo.m_bitmap.LoadBitmap(nIDBitmap))

  0004c	85 c0		 test	 eax, eax
  0004e	74 0a		 je	 SHORT $LN10@Initial_Dr

; 491  : 		return;   // need this one image
; 492  : 	
; 493  : 	AddLineType(&Drawsytle_Combo, nCount);

  00050	6a 05		 push	 5
  00052	57		 push	 edi
  00053	8b cb		 mov	 ecx, ebx
  00055	e8 00 00 00 00	 call	 ?AddLineType@CDlgCompSetup@@IAEXPAVCComboBox@@H@Z ; CDlgCompSetup::AddLineType
$LN10@Initial_Dr:
; File C:\Program Files (x86)\Microsoft Visual Studio\2019\Community\VC\Tools\MSVC\14.29.30133\atlmfc\include\afxwin2.inl

; 763  : 	{ ASSERT(::IsWindow(m_hWnd)); return (int)::SendMessage(m_hWnd, CB_GETCOUNT, 0, 0); }

  0005a	8b 1d 00 00 00
	00		 mov	 ebx, DWORD PTR __imp__SendMessageA@16
; File D:\git\src\IBK\IBK_DRFN\ProjSrc\SrcDrfn\Chart\ChartUtil\DlgCompSetup.cpp

; 471  : 	for( int i = -1 ; i < Drawsytle_Combo.GetCount() ; i++ ) 

  00060	83 ce ff	 or	 esi, -1
; File C:\Program Files (x86)\Microsoft Visual Studio\2019\Community\VC\Tools\MSVC\14.29.30133\atlmfc\include\afxwin2.inl

; 763  : 	{ ASSERT(::IsWindow(m_hWnd)); return (int)::SendMessage(m_hWnd, CB_GETCOUNT, 0, 0); }

  00063	6a 00		 push	 0
  00065	6a 00		 push	 0
  00067	68 46 01 00 00	 push	 326			; 00000146H
  0006c	ff 77 20	 push	 DWORD PTR [edi+32]
  0006f	ff d3		 call	 ebx
; File D:\git\src\IBK\IBK_DRFN\ProjSrc\SrcDrfn\Chart\ChartUtil\DlgCompSetup.cpp

; 471  : 	for( int i = -1 ; i < Drawsytle_Combo.GetCount() ; i++ ) 

  00071	3b c6		 cmp	 eax, esi
  00073	7e 20		 jle	 SHORT $LN3@Initial_Dr
$LL4@Initial_Dr:
; File C:\Program Files (x86)\Microsoft Visual Studio\2019\Community\VC\Tools\MSVC\14.29.30133\atlmfc\include\afxwin2.inl

; 819  : 	{ ASSERT(::IsWindow(m_hWnd)); return (int)::SendMessage(m_hWnd, CB_SETITEMHEIGHT, nIndex, MAKELONG(cyItemHeight, 0)); }

  00075	6a 0e		 push	 14			; 0000000eH
  00077	56		 push	 esi
  00078	68 53 01 00 00	 push	 339			; 00000153H
  0007d	ff 77 20	 push	 DWORD PTR [edi+32]
  00080	ff d3		 call	 ebx

; 763  : 	{ ASSERT(::IsWindow(m_hWnd)); return (int)::SendMessage(m_hWnd, CB_GETCOUNT, 0, 0); }

  00082	6a 00		 push	 0
  00084	6a 00		 push	 0
  00086	68 46 01 00 00	 push	 326			; 00000146H
  0008b	ff 77 20	 push	 DWORD PTR [edi+32]
; File D:\git\src\IBK\IBK_DRFN\ProjSrc\SrcDrfn\Chart\ChartUtil\DlgCompSetup.cpp

; 471  : 	for( int i = -1 ; i < Drawsytle_Combo.GetCount() ; i++ ) 

  0008e	46		 inc	 esi
; File C:\Program Files (x86)\Microsoft Visual Studio\2019\Community\VC\Tools\MSVC\14.29.30133\atlmfc\include\afxwin2.inl

; 763  : 	{ ASSERT(::IsWindow(m_hWnd)); return (int)::SendMessage(m_hWnd, CB_GETCOUNT, 0, 0); }

  0008f	ff d3		 call	 ebx
; File D:\git\src\IBK\IBK_DRFN\ProjSrc\SrcDrfn\Chart\ChartUtil\DlgCompSetup.cpp

; 471  : 	for( int i = -1 ; i < Drawsytle_Combo.GetCount() ; i++ ) 

  00091	3b f0		 cmp	 esi, eax
  00093	7c e0		 jl	 SHORT $LL4@Initial_Dr
$LN3@Initial_Dr:
; File C:\Program Files (x86)\Microsoft Visual Studio\2019\Community\VC\Tools\MSVC\14.29.30133\atlmfc\include\afxwin2.inl

; 767  : 	{ ASSERT(::IsWindow(m_hWnd)); return (int)::SendMessage(m_hWnd, CB_SETCURSEL, nSelect, 0); }

  00095	6a 00		 push	 0
  00097	6a 00		 push	 0
  00099	68 4e 01 00 00	 push	 334			; 0000014eH
  0009e	ff 77 20	 push	 DWORD PTR [edi+32]
  000a1	ff d3		 call	 ebx
  000a3	5f		 pop	 edi
  000a4	5e		 pop	 esi
$LN1@Initial_Dr:
  000a5	5b		 pop	 ebx
; File D:\git\src\IBK\IBK_DRFN\ProjSrc\SrcDrfn\Chart\ChartUtil\DlgCompSetup.cpp

; 476  : }

  000a6	5d		 pop	 ebp
  000a7	c2 08 00	 ret	 8
?Initial_DrawStyleComboBox@CDlgCompSetup@@IAEXHAAVCBitmapItemComboBox@@@Z ENDP ; CDlgCompSetup::Initial_DrawStyleComboBox
_TEXT	ENDS
; Function compile flags: /Ogtp
; File D:\git\src\IBK\IBK_DRFN\ProjSrc\SrcDrfn\Chart\ChartUtil\DlgCompSetup.cpp
; File C:\Program Files (x86)\Microsoft Visual Studio\2019\Community\VC\Tools\MSVC\14.29.30133\atlmfc\include\afxwin2.inl
; File D:\git\src\IBK\IBK_DRFN\ProjSrc\SrcDrfn\Chart\ChartUtil\DlgCompSetup.cpp
; File C:\Program Files (x86)\Microsoft Visual Studio\2019\Community\VC\Tools\MSVC\14.29.30133\atlmfc\include\afxwin2.inl
; File D:\git\src\IBK\IBK_DRFN\ProjSrc\SrcDrfn\Chart\ChartUtil\DlgCompSetup.cpp
; File C:\Program Files (x86)\Microsoft Visual Studio\2019\Community\VC\Tools\MSVC\14.29.30133\atlmfc\include\afxwin2.inl
; File D:\git\src\IBK\IBK_DRFN\ProjSrc\SrcDrfn\Chart\ChartUtil\DlgCompSetup.cpp
; File C:\Program Files (x86)\Microsoft Visual Studio\2019\Community\VC\Tools\MSVC\14.29.30133\atlmfc\include\afxwin2.inl
; File D:\git\src\IBK\IBK_DRFN\ProjSrc\SrcDrfn\Chart\ChartUtil\DlgCompSetup.cpp
;	COMDAT ?AddLineType@CDlgCompSetup@@IAEXPAVCComboBox@@H@Z
_TEXT	SEGMENT
_szType$ = -104						; size = 100
__$ArrayPad$ = -4					; size = 4
_pCombo$ = 8						; size = 4
_Type$ = 12						; size = 4
?AddLineType@CDlgCompSetup@@IAEXPAVCComboBox@@H@Z PROC	; CDlgCompSetup::AddLineType, COMDAT
; _this$ = ecx

; 443  : {

  00000	55		 push	 ebp
  00001	8b ec		 mov	 ebp, esp
  00003	83 ec 68	 sub	 esp, 104		; 00000068H
  00006	a1 00 00 00 00	 mov	 eax, DWORD PTR ___security_cookie
  0000b	33 c5		 xor	 eax, ebp
  0000d	89 45 fc	 mov	 DWORD PTR __$ArrayPad$[ebp], eax
  00010	53		 push	 ebx
; File C:\Program Files (x86)\Microsoft Visual Studio\2019\Community\VC\Tools\MSVC\14.29.30133\atlmfc\include\afxwin2.inl

; 801  : 	{ ASSERT(::IsWindow(m_hWnd)); ::SendMessage(m_hWnd, CB_RESETCONTENT, 0, 0); }

  00011	8b 1d 00 00 00
	00		 mov	 ebx, DWORD PTR __imp__SendMessageA@16
; File D:\git\src\IBK\IBK_DRFN\ProjSrc\SrcDrfn\Chart\ChartUtil\DlgCompSetup.cpp

; 443  : {

  00017	56		 push	 esi
  00018	57		 push	 edi
  00019	8b 7d 08	 mov	 edi, DWORD PTR _pCombo$[ebp]
; File C:\Program Files (x86)\Microsoft Visual Studio\2019\Community\VC\Tools\MSVC\14.29.30133\atlmfc\include\afxwin2.inl

; 801  : 	{ ASSERT(::IsWindow(m_hWnd)); ::SendMessage(m_hWnd, CB_RESETCONTENT, 0, 0); }

  0001c	6a 00		 push	 0
  0001e	6a 00		 push	 0
  00020	68 4b 01 00 00	 push	 331			; 0000014bH
  00025	ff 77 20	 push	 DWORD PTR [edi+32]
; File D:\git\src\IBK\IBK_DRFN\ProjSrc\SrcDrfn\Chart\ChartUtil\DlgCompSetup.cpp

; 446  : 		_T("0"),	_T("1"), 	_T("2"),	_T("3"),	_T("4"),	_T("5"),

  00028	c7 45 98 00 00
	00 00		 mov	 DWORD PTR _szType$[ebp], OFFSET ??_C@_01GBGANLPD@0@
  0002f	c7 45 9c 00 00
	00 00		 mov	 DWORD PTR _szType$[ebp+4], OFFSET ??_C@_01HIHLOKLC@1@
  00036	c7 45 a0 00 00
	00 00		 mov	 DWORD PTR _szType$[ebp+8], OFFSET ??_C@_01FDFGLJHB@2@
  0003d	c7 45 a4 00 00
	00 00		 mov	 DWORD PTR _szType$[ebp+12], OFFSET ??_C@_01EKENIIDA@3@
  00044	c7 45 a8 00 00
	00 00		 mov	 DWORD PTR _szType$[ebp+16], OFFSET ??_C@_01FAMBOPH@4@
  0004b	c7 45 ac 00 00
	00 00		 mov	 DWORD PTR _szType$[ebp+20], OFFSET ??_C@_01BMBHCPLG@5@

; 447  : 		_T("6"),	_T("7"),	_T("8"),	_T("9"),	_T("10"),	_T("11"),

  00052	c7 45 b0 00 00
	00 00		 mov	 DWORD PTR _szType$[ebp+24], OFFSET ??_C@_01DHDKHMHF@6@
  00059	c7 45 b4 00 00
	00 00		 mov	 DWORD PTR _szType$[ebp+28], OFFSET ??_C@_01COCBENDE@7@
  00060	c7 45 b8 00 00
	00 00		 mov	 DWORD PTR _szType$[ebp+32], OFFSET ??_C@_01KJLJFBPL@8@
  00067	c7 45 bc 00 00
	00 00		 mov	 DWORD PTR _szType$[ebp+36], OFFSET ??_C@_01LAKCGALK@9@
  0006e	c7 45 c0 00 00
	00 00		 mov	 DWORD PTR _szType$[ebp+40], OFFSET ??_C@_02PKFBJPLJ@10@
  00075	c7 45 c4 00 00
	00 00		 mov	 DWORD PTR _szType$[ebp+44], OFFSET ??_C@_02ODEKKOPI@11@

; 448  : 		_T("12"),	_T("13"),	_T("14"),	_T("15"),	_T("16"),	_T("17"),

  0007c	c7 45 c8 00 00
	00 00		 mov	 DWORD PTR _szType$[ebp+48], OFFSET ??_C@_02MIGHPNDL@12@
  00083	c7 45 cc 00 00
	00 00		 mov	 DWORD PTR _szType$[ebp+52], OFFSET ??_C@_02NBHMMMHK@13@
  0008a	c7 45 d0 00 00
	00 00		 mov	 DWORD PTR _szType$[ebp+56], OFFSET ??_C@_02JODNFKLN@14@
  00091	c7 45 d4 00 00
	00 00		 mov	 DWORD PTR _szType$[ebp+60], OFFSET ??_C@_02IHCGGLPM@15@
  00098	c7 45 d8 00 00
	00 00		 mov	 DWORD PTR _szType$[ebp+64], OFFSET ??_C@_02KMALDIDP@16@
  0009f	c7 45 dc 00 00
	00 00		 mov	 DWORD PTR _szType$[ebp+68], OFFSET ??_C@_02LFBAAJHO@17@

; 449  : 		_T("18"),	_T("19"),	_T("20"),	_T("21"),	_T("22"),	_T("23"),

  000a6	c7 45 e0 00 00
	00 00		 mov	 DWORD PTR _szType$[ebp+72], OFFSET ??_C@_02DCIIBFLB@18@
  000ad	c7 45 e4 00 00
	00 00		 mov	 DWORD PTR _szType$[ebp+76], OFFSET ??_C@_02CLJDCEPA@19@
  000b4	c7 45 e8 00 00
	00 00		 mov	 DWORD PTR _szType$[ebp+80], OFFSET ??_C@_02PIBHCBOA@20@
  000bb	c7 45 ec 00 00
	00 00		 mov	 DWORD PTR _szType$[ebp+84], OFFSET ??_C@_02OBAMBAKB@21@
  000c2	c7 45 f0 00 00
	00 00		 mov	 DWORD PTR _szType$[ebp+88], OFFSET ??_C@_02MKCBEDGC@22@
  000c9	c7 45 f4 00 00
	00 00		 mov	 DWORD PTR _szType$[ebp+92], OFFSET ??_C@_02NDDKHCCD@23@

; 450  : 		_T("24")

  000d0	c7 45 f8 00 00
	00 00		 mov	 DWORD PTR _szType$[ebp+96], OFFSET ??_C@_02JMHLOEOE@24@
; File C:\Program Files (x86)\Microsoft Visual Studio\2019\Community\VC\Tools\MSVC\14.29.30133\atlmfc\include\afxwin2.inl

; 801  : 	{ ASSERT(::IsWindow(m_hWnd)); ::SendMessage(m_hWnd, CB_RESETCONTENT, 0, 0); }

  000d7	ff d3		 call	 ebx
; File D:\git\src\IBK\IBK_DRFN\ProjSrc\SrcDrfn\Chart\ChartUtil\DlgCompSetup.cpp

; 443  : {

  000d9	33 f6		 xor	 esi, esi

; 459  : 	for( int i = 0 ; i < Type ; i++ )

  000db	39 75 0c	 cmp	 DWORD PTR _Type$[ebp], esi
  000de	7e 16		 jle	 SHORT $LN3@AddLineTyp
$LL4@AddLineTyp:
; File C:\Program Files (x86)\Microsoft Visual Studio\2019\Community\VC\Tools\MSVC\14.29.30133\atlmfc\include\afxwin2.inl

; 795  : 	{ ASSERT(::IsWindow(m_hWnd)); return (int)::SendMessage(m_hWnd, CB_ADDSTRING, 0, (LPARAM)lpszString); }

  000e0	ff 74 b5 98	 push	 DWORD PTR _szType$[ebp+esi*4]
  000e4	6a 00		 push	 0
  000e6	68 43 01 00 00	 push	 323			; 00000143H
  000eb	ff 77 20	 push	 DWORD PTR [edi+32]
  000ee	ff d3		 call	 ebx
; File D:\git\src\IBK\IBK_DRFN\ProjSrc\SrcDrfn\Chart\ChartUtil\DlgCompSetup.cpp

; 459  : 	for( int i = 0 ; i < Type ; i++ )

  000f0	46		 inc	 esi
  000f1	3b 75 0c	 cmp	 esi, DWORD PTR _Type$[ebp]
  000f4	7c ea		 jl	 SHORT $LL4@AddLineTyp
$LN3@AddLineTyp:

; 460  : 		pCombo->AddString( szType[ i ] );
; 461  : }

  000f6	8b 4d fc	 mov	 ecx, DWORD PTR __$ArrayPad$[ebp]
  000f9	5f		 pop	 edi
  000fa	5e		 pop	 esi
  000fb	33 cd		 xor	 ecx, ebp
  000fd	5b		 pop	 ebx
  000fe	e8 00 00 00 00	 call	 @__security_check_cookie@4
  00103	8b e5		 mov	 esp, ebp
  00105	5d		 pop	 ebp
  00106	c2 08 00	 ret	 8
?AddLineType@CDlgCompSetup@@IAEXPAVCComboBox@@H@Z ENDP	; CDlgCompSetup::AddLineType
_TEXT	ENDS
; Function compile flags: /Ogtp
; File D:\git\src\IBK\IBK_DRFN\ProjSrc\SrcDrfn\Chart\ChartUtil\DlgCompSetup.cpp
; File C:\Program Files (x86)\Microsoft Visual Studio\2019\Community\VC\Tools\MSVC\14.29.30133\atlmfc\include\afxwin1.inl
; File D:\git\src\IBK\IBK_DRFN\ProjSrc\SrcDrfn\Chart\ChartUtil\DlgCompSetup.cpp
; File C:\Program Files (x86)\Microsoft Visual Studio\2019\Community\VC\Tools\MSVC\14.29.30133\atlmfc\include\afxwin1.inl
; File D:\git\src\IBK\IBK_DRFN\ProjSrc\SrcDrfn\Chart\ChartUtil\DlgCompSetup.cpp
; File C:\Program Files (x86)\Microsoft Visual Studio\2019\Community\VC\Tools\MSVC\14.29.30133\atlmfc\include\afxwin2.inl
; File D:\git\src\IBK\IBK_DRFN\ProjSrc\SrcDrfn\Chart\ChartUtil\DlgCompSetup.cpp
; File C:\Program Files (x86)\Microsoft Visual Studio\2019\Community\VC\Tools\MSVC\14.29.30133\atlmfc\include\afxwin2.inl
; File D:\git\src\IBK\IBK_DRFN\ProjSrc\SrcDrfn\Chart\ChartUtil\DlgCompSetup.cpp
; File C:\Program Files (x86)\Microsoft Visual Studio\2019\Community\VC\Tools\MSVC\14.29.30133\atlmfc\include\afxwin2.inl
; File D:\git\src\IBK\IBK_DRFN\ProjSrc\SrcDrfn\Chart\ChartUtil\DlgCompSetup.cpp
; File C:\Program Files (x86)\Microsoft Visual Studio\2019\Community\VC\Tools\MSVC\14.29.30133\atlmfc\include\afxwin2.inl
; File D:\git\src\IBK\IBK_DRFN\ProjSrc\SrcDrfn\Chart\ChartUtil\DlgCompSetup.cpp
; File C:\Program Files (x86)\Microsoft Visual Studio\2019\Community\VC\Tools\MSVC\14.29.30133\atlmfc\include\afxwin2.inl
; File D:\git\src\IBK\IBK_DRFN\ProjSrc\SrcDrfn\Chart\ChartUtil\DlgCompSetup.cpp
;	COMDAT ?Initial_ThicknessComboBox@CDlgCompSetup@@IAEXHHAAVCBitmapItemComboBox@@@Z
_TEXT	SEGMENT
_p_nSubGraphIndex$ = 8					; size = 4
_idStatic$ = 12						; size = 4
_Thickness_Combo$ = 16					; size = 4
?Initial_ThicknessComboBox@CDlgCompSetup@@IAEXHHAAVCBitmapItemComboBox@@@Z PROC ; CDlgCompSetup::Initial_ThicknessComboBox, COMDAT
; _this$ = ecx

; 418  : {

  00000	55		 push	 ebp
  00001	8b ec		 mov	 ebp, esp

; 419  : 	if( p_nSubGraphIndex < 0) return;

  00003	83 7d 08 00	 cmp	 DWORD PTR _p_nSubGraphIndex$[ebp], 0
  00007	53		 push	 ebx
  00008	8b d9		 mov	 ebx, ecx
  0000a	0f 8c 90 00 00
	00		 jl	 $LN1@Initial_Th

; 422  : 	if( !Thickness_Combo.m_bitmap.GetSafeHandle()) Thickness_Combo.m_bitmap.LoadBitmap(IDB_LINE_THICKNESS);

  00010	56		 push	 esi
  00011	57		 push	 edi
  00012	8b 7d 10	 mov	 edi, DWORD PTR _Thickness_Combo$[ebp]
  00015	8d b7 80 00 00
	00		 lea	 esi, DWORD PTR [edi+128]
; File C:\Program Files (x86)\Microsoft Visual Studio\2019\Community\VC\Tools\MSVC\14.29.30133\atlmfc\include\afxwin1.inl

; 68   : 	{ return this == NULL ? NULL : m_hObject; }

  0001b	85 f6		 test	 esi, esi
  0001d	74 06		 je	 SHORT $LN24@Initial_Th
; File D:\git\src\IBK\IBK_DRFN\ProjSrc\SrcDrfn\Chart\ChartUtil\DlgCompSetup.cpp

; 422  : 	if( !Thickness_Combo.m_bitmap.GetSafeHandle()) Thickness_Combo.m_bitmap.LoadBitmap(IDB_LINE_THICKNESS);

  0001f	83 7e 04 00	 cmp	 DWORD PTR [esi+4], 0
  00023	75 20		 jne	 SHORT $LN6@Initial_Th
$LN24@Initial_Th:
; File C:\Program Files (x86)\Microsoft Visual Studio\2019\Community\VC\Tools\MSVC\14.29.30133\atlmfc\include\afxwin1.inl

; 212  : 	{ return Attach(::LoadBitmapW(AfxFindResourceHandle(

  00025	68 77 17 00 00	 push	 6007			; 00001777H
  0002a	6a 02		 push	 2
  0002c	68 77 17 00 00	 push	 6007			; 00001777H
  00031	e8 00 00 00 00	 call	 ?AfxFindResourceHandle@@YGPAUHINSTANCE__@@PBD0@Z ; AfxFindResourceHandle
  00036	50		 push	 eax
  00037	ff 15 00 00 00
	00		 call	 DWORD PTR __imp__LoadBitmapW@8
  0003d	50		 push	 eax
  0003e	8b ce		 mov	 ecx, esi
  00040	e8 00 00 00 00	 call	 ?Attach@CGdiObject@@QAEHPAX@Z ; CGdiObject::Attach
$LN6@Initial_Th:
; File D:\git\src\IBK\IBK_DRFN\ProjSrc\SrcDrfn\Chart\ChartUtil\DlgCompSetup.cpp

; 423  : 	AddLineType( &Thickness_Combo, 5 );

  00045	6a 05		 push	 5
  00047	57		 push	 edi
  00048	8b cb		 mov	 ecx, ebx
  0004a	e8 00 00 00 00	 call	 ?AddLineType@CDlgCompSetup@@IAEXPAVCComboBox@@H@Z ; CDlgCompSetup::AddLineType
; File C:\Program Files (x86)\Microsoft Visual Studio\2019\Community\VC\Tools\MSVC\14.29.30133\atlmfc\include\afxwin2.inl

; 763  : 	{ ASSERT(::IsWindow(m_hWnd)); return (int)::SendMessage(m_hWnd, CB_GETCOUNT, 0, 0); }

  0004f	8b 1d 00 00 00
	00		 mov	 ebx, DWORD PTR __imp__SendMessageA@16
; File D:\git\src\IBK\IBK_DRFN\ProjSrc\SrcDrfn\Chart\ChartUtil\DlgCompSetup.cpp

; 426  : 	for( int i = -1 ; i < Thickness_Combo.GetCount() ; i++ ) 

  00055	83 ce ff	 or	 esi, -1
; File C:\Program Files (x86)\Microsoft Visual Studio\2019\Community\VC\Tools\MSVC\14.29.30133\atlmfc\include\afxwin2.inl

; 763  : 	{ ASSERT(::IsWindow(m_hWnd)); return (int)::SendMessage(m_hWnd, CB_GETCOUNT, 0, 0); }

  00058	6a 00		 push	 0
  0005a	6a 00		 push	 0
  0005c	68 46 01 00 00	 push	 326			; 00000146H
  00061	ff 77 20	 push	 DWORD PTR [edi+32]
  00064	ff d3		 call	 ebx
; File D:\git\src\IBK\IBK_DRFN\ProjSrc\SrcDrfn\Chart\ChartUtil\DlgCompSetup.cpp

; 426  : 	for( int i = -1 ; i < Thickness_Combo.GetCount() ; i++ ) 

  00066	3b c6		 cmp	 eax, esi
  00068	7e 26		 jle	 SHORT $LN3@Initial_Th
  0006a	66 0f 1f 44 00
	00		 npad	 6
$LL4@Initial_Th:
; File C:\Program Files (x86)\Microsoft Visual Studio\2019\Community\VC\Tools\MSVC\14.29.30133\atlmfc\include\afxwin2.inl

; 819  : 	{ ASSERT(::IsWindow(m_hWnd)); return (int)::SendMessage(m_hWnd, CB_SETITEMHEIGHT, nIndex, MAKELONG(cyItemHeight, 0)); }

  00070	6a 0e		 push	 14			; 0000000eH
  00072	56		 push	 esi
  00073	68 53 01 00 00	 push	 339			; 00000153H
  00078	ff 77 20	 push	 DWORD PTR [edi+32]
  0007b	ff d3		 call	 ebx

; 763  : 	{ ASSERT(::IsWindow(m_hWnd)); return (int)::SendMessage(m_hWnd, CB_GETCOUNT, 0, 0); }

  0007d	6a 00		 push	 0
  0007f	6a 00		 push	 0
  00081	68 46 01 00 00	 push	 326			; 00000146H
  00086	ff 77 20	 push	 DWORD PTR [edi+32]
; File D:\git\src\IBK\IBK_DRFN\ProjSrc\SrcDrfn\Chart\ChartUtil\DlgCompSetup.cpp

; 426  : 	for( int i = -1 ; i < Thickness_Combo.GetCount() ; i++ ) 

  00089	46		 inc	 esi
; File C:\Program Files (x86)\Microsoft Visual Studio\2019\Community\VC\Tools\MSVC\14.29.30133\atlmfc\include\afxwin2.inl

; 763  : 	{ ASSERT(::IsWindow(m_hWnd)); return (int)::SendMessage(m_hWnd, CB_GETCOUNT, 0, 0); }

  0008a	ff d3		 call	 ebx
; File D:\git\src\IBK\IBK_DRFN\ProjSrc\SrcDrfn\Chart\ChartUtil\DlgCompSetup.cpp

; 426  : 	for( int i = -1 ; i < Thickness_Combo.GetCount() ; i++ ) 

  0008c	3b f0		 cmp	 esi, eax
  0008e	7c e0		 jl	 SHORT $LL4@Initial_Th
$LN3@Initial_Th:
; File C:\Program Files (x86)\Microsoft Visual Studio\2019\Community\VC\Tools\MSVC\14.29.30133\atlmfc\include\afxwin2.inl

; 767  : 	{ ASSERT(::IsWindow(m_hWnd)); return (int)::SendMessage(m_hWnd, CB_SETCURSEL, nSelect, 0); }

  00090	6a 00		 push	 0
  00092	6a 00		 push	 0
  00094	68 4e 01 00 00	 push	 334			; 0000014eH
  00099	ff 77 20	 push	 DWORD PTR [edi+32]
  0009c	ff d3		 call	 ebx
  0009e	5f		 pop	 edi
  0009f	5e		 pop	 esi
$LN1@Initial_Th:
  000a0	5b		 pop	 ebx
; File D:\git\src\IBK\IBK_DRFN\ProjSrc\SrcDrfn\Chart\ChartUtil\DlgCompSetup.cpp

; 440  : }

  000a1	5d		 pop	 ebp
  000a2	c2 0c 00	 ret	 12			; 0000000cH
?Initial_ThicknessComboBox@CDlgCompSetup@@IAEXHHAAVCBitmapItemComboBox@@@Z ENDP ; CDlgCompSetup::Initial_ThicknessComboBox
_TEXT	ENDS
; Function compile flags: /Ogtp
; File D:\git\src\IBK\IBK_DRFN\ProjSrc\SrcDrfn\Chart\ChartUtil\DlgCompSetup.cpp
; File C:\Program Files (x86)\Microsoft Visual Studio\2019\Community\VC\Tools\MSVC\14.29.30133\atlmfc\include\afxwin2.inl
; File D:\git\src\IBK\IBK_DRFN\ProjSrc\SrcDrfn\Chart\ChartUtil\DlgCompSetup.cpp
; File C:\Program Files (x86)\Microsoft Visual Studio\2019\Community\VC\Tools\MSVC\14.29.30133\atlmfc\include\afxwin2.inl
; File D:\git\src\IBK\IBK_DRFN\ProjSrc\SrcDrfn\Chart\ChartUtil\DlgCompSetup.cpp
; File C:\Program Files (x86)\Microsoft Visual Studio\2019\Community\VC\Tools\MSVC\14.29.30133\atlmfc\include\atlsimpstr.h
; File D:\git\src\IBK\IBK_DRFN\ProjSrc\SrcDrfn\Chart\ChartUtil\DlgCompSetup.cpp
; File C:\Program Files (x86)\Microsoft Visual Studio\2019\Community\VC\Tools\MSVC\14.29.30133\atlmfc\include\afxcmn.inl
; File D:\git\src\IBK\IBK_DRFN\ProjSrc\SrcDrfn\Chart\ChartUtil\DlgCompSetup.cpp
; File C:\Program Files (x86)\Microsoft Visual Studio\2019\Community\VC\Tools\MSVC\14.29.30133\atlmfc\include\afxcmn.inl
; File D:\git\src\IBK\IBK_DRFN\ProjSrc\SrcDrfn\Chart\ChartUtil\DlgCompSetup.cpp
; File C:\Program Files (x86)\Microsoft Visual Studio\2019\Community\VC\Tools\MSVC\14.29.30133\atlmfc\include\afxwin2.inl
; File D:\git\src\IBK\IBK_DRFN\ProjSrc\SrcDrfn\Chart\ChartUtil\DlgCompSetup.cpp
;	COMDAT ?PreTranslateMessage@CDlgCompSetup@@MAEHPAUtagMSG@@@Z
_TEXT	SEGMENT
$T2 = -24						; size = 4
_nCnt$1$ = -20						; size = 4
_rString$3 = -16					; size = 4
__$EHRec$ = -12						; size = 12
_szIn$4 = 8						; size = 4
_pMsg$ = 8						; size = 4
?PreTranslateMessage@CDlgCompSetup@@MAEHPAUtagMSG@@@Z PROC ; CDlgCompSetup::PreTranslateMessage, COMDAT
; _this$ = ecx

; 1346 : {

  00000	55		 push	 ebp
  00001	8b ec		 mov	 ebp, esp
  00003	6a ff		 push	 -1
  00005	68 00 00 00 00	 push	 __ehhandler$?PreTranslateMessage@CDlgCompSetup@@MAEHPAUtagMSG@@@Z
  0000a	64 a1 00 00 00
	00		 mov	 eax, DWORD PTR fs:0
  00010	50		 push	 eax
  00011	83 ec 0c	 sub	 esp, 12			; 0000000cH
  00014	53		 push	 ebx
  00015	56		 push	 esi
  00016	57		 push	 edi
  00017	a1 00 00 00 00	 mov	 eax, DWORD PTR ___security_cookie
  0001c	33 c5		 xor	 eax, ebp
  0001e	50		 push	 eax
  0001f	8d 45 f4	 lea	 eax, DWORD PTR __$EHRec$[ebp]
  00022	64 a3 00 00 00
	00		 mov	 DWORD PTR fs:0, eax
  00028	8b f9		 mov	 edi, ecx

; 1347 : 	switch (pMsg->message)

  0002a	8b 5d 08	 mov	 ebx, DWORD PTR _pMsg$[ebp]
  0002d	81 7b 04 00 01
	00 00		 cmp	 DWORD PTR [ebx+4], 256	; 00000100H
  00034	0f 85 7c 01 00
	00		 jne	 $LN13@PreTransla

; 1348 : 	{
; 1349 : 		case WM_KEYDOWN:
; 1350 : 		{
; 1351 : 			if(pMsg->hwnd)

  0003a	8b 03		 mov	 eax, DWORD PTR [ebx]
  0003c	85 c0		 test	 eax, eax
  0003e	0f 84 72 01 00
	00		 je	 $LN13@PreTransla

; 1352 : 			{
; 1353 : 				//switch (pMsg->wParam)			case VK_RETURN:
; 1354 : 				CWnd* pWnd = CWnd::FromHandle(pMsg->hwnd);

  00044	50		 push	 eax
  00045	e8 00 00 00 00	 call	 ?FromHandle@CWnd@@SGPAV1@PAUHWND__@@@Z ; CWnd::FromHandle

; 1355 : 				if(pWnd)

  0004a	85 c0		 test	 eax, eax
  0004c	0f 84 64 01 00
	00		 je	 $LN13@PreTransla
; File C:\Program Files (x86)\Microsoft Visual Studio\2019\Community\VC\Tools\MSVC\14.29.30133\atlmfc\include\afxwin2.inl

; 25   : 	{ return this == NULL ? NULL : m_hWnd; }

  00052	8b 48 20	 mov	 ecx, DWORD PTR [eax+32]
; File D:\git\src\IBK\IBK_DRFN\ProjSrc\SrcDrfn\Chart\ChartUtil\DlgCompSetup.cpp

; 1359 : 					if(hFocus==m_edtCode.GetSafeHwnd())

  00055	8d b7 08 04 00
	00		 lea	 esi, DWORD PTR [edi+1032]
; File C:\Program Files (x86)\Microsoft Visual Studio\2019\Community\VC\Tools\MSVC\14.29.30133\atlmfc\include\afxwin2.inl

; 25   : 	{ return this == NULL ? NULL : m_hWnd; }

  0005b	85 f6		 test	 esi, esi
  0005d	75 04		 jne	 SHORT $LN21@PreTransla
  0005f	33 c0		 xor	 eax, eax
  00061	eb 03		 jmp	 SHORT $LN22@PreTransla
$LN21@PreTransla:
  00063	8b 46 20	 mov	 eax, DWORD PTR [esi+32]
$LN22@PreTransla:
; File D:\git\src\IBK\IBK_DRFN\ProjSrc\SrcDrfn\Chart\ChartUtil\DlgCompSetup.cpp

; 1359 : 					if(hFocus==m_edtCode.GetSafeHwnd())

  00066	3b c8		 cmp	 ecx, eax
  00068	0f 85 e9 00 00
	00		 jne	 $LN7@PreTransla

; 1399 : 	CString szIn;

  0006e	8d 4d 08	 lea	 ecx, DWORD PTR _szIn$4[ebp]
  00071	ff 15 00 00 00
	00		 call	 DWORD PTR __imp_??0?$CStringT@DV?$StrTraitMFC_DLL@DV?$ChTraitsCRT@D@ATL@@@@@ATL@@QAE@XZ

; 1400 : 	m_edtCode.GetWindowText(szIn);

  00077	8d 45 08	 lea	 eax, DWORD PTR _szIn$4[ebp]
  0007a	c7 45 fc 00 00
	00 00		 mov	 DWORD PTR __$EHRec$[ebp+8], 0
  00081	50		 push	 eax
  00082	8b ce		 mov	 ecx, esi
  00084	e8 00 00 00 00	 call	 ?GetWindowTextA@CXEditPrompt@@QBEXAAV?$CStringT@DV?$StrTraitMFC_DLL@DV?$ChTraitsCRT@D@ATL@@@@@ATL@@@Z ; CXEditPrompt::GetWindowTextA
; File C:\Program Files (x86)\Microsoft Visual Studio\2019\Community\VC\Tools\MSVC\14.29.30133\atlmfc\include\atlsimpstr.h

; 519  : 		return( GetData()->nDataLength );

  00089	8b 45 08	 mov	 eax, DWORD PTR _szIn$4[ebp]
; File D:\git\src\IBK\IBK_DRFN\ProjSrc\SrcDrfn\Chart\ChartUtil\DlgCompSetup.cpp

; 1402 : 	if(szIn.GetLength()==0) return;

  0008c	83 78 f4 00	 cmp	 DWORD PTR [eax-12], 0
  00090	0f 84 af 00 00
	00		 je	 $LN54@PreTransla
; File C:\Program Files (x86)\Microsoft Visual Studio\2019\Community\VC\Tools\MSVC\14.29.30133\atlmfc\include\afxcmn.inl

; 155  : 	{ ASSERT(::IsWindow(m_hWnd)); return (int) ::SendMessage(m_hWnd, LVM_GETITEMCOUNT, 0, 0L); }

  00096	6a 00		 push	 0
  00098	6a 00		 push	 0
  0009a	68 04 10 00 00	 push	 4100			; 00001004H
  0009f	ff b7 08 01 00
	00		 push	 DWORD PTR [edi+264]
  000a5	ff 15 00 00 00
	00		 call	 DWORD PTR __imp__SendMessageA@16
; File D:\git\src\IBK\IBK_DRFN\ProjSrc\SrcDrfn\Chart\ChartUtil\DlgCompSetup.cpp

; 1406 : 	CString rString;

  000ab	8d 4d f0	 lea	 ecx, DWORD PTR _rString$3[ebp]
  000ae	89 45 ec	 mov	 DWORD PTR _nCnt$1$[ebp], eax
  000b1	ff 15 00 00 00
	00		 call	 DWORD PTR __imp_??0?$CStringT@DV?$StrTraitMFC_DLL@DV?$ChTraitsCRT@D@ATL@@@@@ATL@@QAE@XZ

; 1407 : 	for(int i=0; i<nCnt; i++)

  000b7	33 f6		 xor	 esi, esi
  000b9	c6 45 fc 01	 mov	 BYTE PTR __$EHRec$[ebp+8], 1
  000bd	39 75 ec	 cmp	 DWORD PTR _nCnt$1$[ebp], esi
  000c0	7e 7a		 jle	 SHORT $LN25@PreTransla
  000c2	8d 87 e8 00 00
	00		 lea	 eax, DWORD PTR [edi+232]
$LL26@PreTransla:

; 1408 : 	{
; 1409 : 		rString = m_ListCodes.GetItemText(i, 1);

  000c8	6a 01		 push	 1
  000ca	56		 push	 esi
  000cb	8d 4d e8	 lea	 ecx, DWORD PTR $T2[ebp]
  000ce	51		 push	 ecx
  000cf	8b c8		 mov	 ecx, eax
  000d1	e8 00 00 00 00	 call	 ?GetItemText@CListCtrl@@QBE?AV?$CStringT@DV?$StrTraitMFC_DLL@DV?$ChTraitsCRT@D@ATL@@@@@ATL@@HH@Z ; CListCtrl::GetItemText
  000d6	50		 push	 eax
  000d7	8d 4d f0	 lea	 ecx, DWORD PTR _rString$3[ebp]
  000da	c6 45 fc 02	 mov	 BYTE PTR __$EHRec$[ebp+8], 2
  000de	ff 15 00 00 00
	00		 call	 DWORD PTR __imp_??4?$CStringT@DV?$StrTraitMFC_DLL@DV?$ChTraitsCRT@D@ATL@@@@@ATL@@QAEAAV01@ABV01@@Z
  000e4	8d 4d e8	 lea	 ecx, DWORD PTR $T2[ebp]
  000e7	c6 45 fc 01	 mov	 BYTE PTR __$EHRec$[ebp+8], 1
  000eb	ff 15 00 00 00
	00		 call	 DWORD PTR __imp_??1?$CStringT@DV?$StrTraitMFC_DLL@DV?$ChTraitsCRT@D@ATL@@@@@ATL@@QAE@XZ

; 1410 : 		if(rString.Find(szIn)==0)

  000f1	6a 00		 push	 0
  000f3	ff 75 08	 push	 DWORD PTR _szIn$4[ebp]
  000f6	8d 4d f0	 lea	 ecx, DWORD PTR _rString$3[ebp]
  000f9	ff 15 00 00 00
	00		 call	 DWORD PTR __imp_?Find@?$CStringT@DV?$StrTraitMFC_DLL@DV?$ChTraitsCRT@D@ATL@@@@@ATL@@QBEHPBDH@Z
  000ff	85 c0		 test	 eax, eax
  00101	74 0e		 je	 SHORT $LN48@PreTransla

; 1407 : 	for(int i=0; i<nCnt; i++)

  00103	46		 inc	 esi
  00104	8d 87 e8 00 00
	00		 lea	 eax, DWORD PTR [edi+232]
  0010a	3b 75 ec	 cmp	 esi, DWORD PTR _nCnt$1$[ebp]
  0010d	7c b9		 jl	 SHORT $LL26@PreTransla

; 1410 : 		if(rString.Find(szIn)==0)

  0010f	eb 2b		 jmp	 SHORT $LN25@PreTransla
$LN48@PreTransla:
; File C:\Program Files (x86)\Microsoft Visual Studio\2019\Community\VC\Tools\MSVC\14.29.30133\atlmfc\include\afxcmn.inl

; 193  : 	{ ASSERT(::IsWindow(m_hWnd)); return (BOOL) ::SendMessage(m_hWnd, LVM_ENSUREVISIBLE, nItem, MAKELPARAM(bPartialOK, 0)); }

  00111	6a 00		 push	 0
  00113	56		 push	 esi
  00114	68 13 10 00 00	 push	 4115			; 00001013H
  00119	ff b7 08 01 00
	00		 push	 DWORD PTR [edi+264]
  0011f	ff 15 00 00 00
	00		 call	 DWORD PTR __imp__SendMessageA@16
; File D:\git\src\IBK\IBK_DRFN\ProjSrc\SrcDrfn\Chart\ChartUtil\DlgCompSetup.cpp

; 1414 : 			DoSelectionClear();

  00125	8b cf		 mov	 ecx, edi
  00127	e8 00 00 00 00	 call	 ?DoSelectionClear@CDlgCompSetup@@IAEXXZ ; CDlgCompSetup::DoSelectionClear

; 1415 : 			m_ListCodes.SetItemState(i, flag, flag);

  0012c	6a 03		 push	 3
  0012e	6a 03		 push	 3
  00130	56		 push	 esi
  00131	8d 8f e8 00 00
	00		 lea	 ecx, DWORD PTR [edi+232]
  00137	e8 00 00 00 00	 call	 ?SetItemState@CListCtrl@@QAEHHII@Z ; CListCtrl::SetItemState
$LN25@PreTransla:

; 1416 : 			break;
; 1417 : 		}
; 1418 : 	}
; 1419 : }

  0013c	8d 4d f0	 lea	 ecx, DWORD PTR _rString$3[ebp]
  0013f	ff 15 00 00 00
	00		 call	 DWORD PTR __imp_??1?$CStringT@DV?$StrTraitMFC_DLL@DV?$ChTraitsCRT@D@ATL@@@@@ATL@@QAE@XZ
$LN54@PreTransla:

; 1360 : 					{
; 1361 : 						DoFindEdtCode();
; 1362 : 						if(pMsg->wParam==VK_RETURN)

  00145	8d 4d 08	 lea	 ecx, DWORD PTR _szIn$4[ebp]
  00148	c7 45 fc ff ff
	ff ff		 mov	 DWORD PTR __$EHRec$[ebp+8], -1
  0014f	ff 15 00 00 00
	00		 call	 DWORD PTR __imp_??1?$CStringT@DV?$StrTraitMFC_DLL@DV?$ChTraitsCRT@D@ATL@@@@@ATL@@QAE@XZ
  00155	eb 1a		 jmp	 SHORT $LN56@PreTransla
$LN7@PreTransla:

; 1373 : 					else if(hFocus==m_edtCodeName.GetSafeHwnd())

  00157	8d 87 a0 04 00
	00		 lea	 eax, DWORD PTR [edi+1184]
; File C:\Program Files (x86)\Microsoft Visual Studio\2019\Community\VC\Tools\MSVC\14.29.30133\atlmfc\include\afxwin2.inl

; 25   : 	{ return this == NULL ? NULL : m_hWnd; }

  0015d	85 c0		 test	 eax, eax
  0015f	74 03		 je	 SHORT $LN46@PreTransla
$LN45@PreTransla:
  00161	8b 40 20	 mov	 eax, DWORD PTR [eax+32]
$LN46@PreTransla:
; File D:\git\src\IBK\IBK_DRFN\ProjSrc\SrcDrfn\Chart\ChartUtil\DlgCompSetup.cpp

; 1373 : 					else if(hFocus==m_edtCodeName.GetSafeHwnd())

  00164	3b c8		 cmp	 ecx, eax
  00166	75 4e		 jne	 SHORT $LN13@PreTransla

; 1374 : 					{
; 1375 : 						DoFindEdtName();

  00168	6a 00		 push	 0
  0016a	8b cf		 mov	 ecx, edi
  0016c	e8 00 00 00 00	 call	 ?DoFindEdtName@CDlgCompSetup@@IAEXPBD@Z ; CDlgCompSetup::DoFindEdtName
$LN56@PreTransla:

; 1376 : 						if(pMsg->wParam==VK_RETURN)
; 1377 : 						{
; 1378 : 							OnBtnleft();

  00171	83 7b 08 0d	 cmp	 DWORD PTR [ebx+8], 13	; 0000000dH
  00175	8b cf		 mov	 ecx, edi
  00177	75 1e		 jne	 SHORT $LN12@PreTransla
  00179	e8 00 00 00 00	 call	 ?OnBtnleft@CDlgCompSetup@@IAEXXZ ; CDlgCompSetup::OnBtnleft

; 1379 : 							return 1L;

  0017e	b8 01 00 00 00	 mov	 eax, 1

; 1394 : }

  00183	8b 4d f4	 mov	 ecx, DWORD PTR __$EHRec$[ebp]
  00186	64 89 0d 00 00
	00 00		 mov	 DWORD PTR fs:0, ecx
  0018d	59		 pop	 ecx
  0018e	5f		 pop	 edi
  0018f	5e		 pop	 esi
  00190	5b		 pop	 ebx
  00191	8b e5		 mov	 esp, ebp
  00193	5d		 pop	 ebp
  00194	c2 04 00	 ret	 4
$LN12@PreTransla:

; 1380 : 						}
; 1381 : 						else
; 1382 : 						{
; 1383 : 							CDialog::PreTranslateMessage(pMsg);

  00197	53		 push	 ebx
  00198	e8 00 00 00 00	 call	 ?PreTranslateMessage@CDialog@@UAEHPAUtagMSG@@@Z ; CDialog::PreTranslateMessage

; 1384 : 							return 1L;

  0019d	b8 01 00 00 00	 mov	 eax, 1

; 1394 : }

  001a2	8b 4d f4	 mov	 ecx, DWORD PTR __$EHRec$[ebp]
  001a5	64 89 0d 00 00
	00 00		 mov	 DWORD PTR fs:0, ecx
  001ac	59		 pop	 ecx
  001ad	5f		 pop	 edi
  001ae	5e		 pop	 esi
  001af	5b		 pop	 ebx
  001b0	8b e5		 mov	 esp, ebp
  001b2	5d		 pop	 ebp
  001b3	c2 04 00	 ret	 4
$LN13@PreTransla:

; 1385 : 						}
; 1386 : 					}
; 1387 : 				}
; 1388 : 			}
; 1389 : 		}
; 1390 : 		break;
; 1391 : 	}
; 1392 : 	
; 1393 : 	return CDialog::PreTranslateMessage(pMsg);

  001b6	53		 push	 ebx
  001b7	8b cf		 mov	 ecx, edi
  001b9	e8 00 00 00 00	 call	 ?PreTranslateMessage@CDialog@@UAEHPAUtagMSG@@@Z ; CDialog::PreTranslateMessage

; 1394 : }

  001be	8b 4d f4	 mov	 ecx, DWORD PTR __$EHRec$[ebp]
  001c1	64 89 0d 00 00
	00 00		 mov	 DWORD PTR fs:0, ecx
  001c8	59		 pop	 ecx
  001c9	5f		 pop	 edi
  001ca	5e		 pop	 esi
  001cb	5b		 pop	 ebx
  001cc	8b e5		 mov	 esp, ebp
  001ce	5d		 pop	 ebp
  001cf	c2 04 00	 ret	 4
_TEXT	ENDS
;	COMDAT text$x
text$x	SEGMENT
__unwindfunclet$?PreTranslateMessage@CDlgCompSetup@@MAEHPAUtagMSG@@@Z$0:
  00000	8d 4d 08	 lea	 ecx, DWORD PTR _szIn$4[ebp]
  00003	ff 25 00 00 00
	00		 jmp	 DWORD PTR __imp_??1?$CStringT@DV?$StrTraitMFC_DLL@DV?$ChTraitsCRT@D@ATL@@@@@ATL@@QAE@XZ
__unwindfunclet$?PreTranslateMessage@CDlgCompSetup@@MAEHPAUtagMSG@@@Z$1:
  00009	8d 4d f0	 lea	 ecx, DWORD PTR _rString$3[ebp]
  0000c	ff 25 00 00 00
	00		 jmp	 DWORD PTR __imp_??1?$CStringT@DV?$StrTraitMFC_DLL@DV?$ChTraitsCRT@D@ATL@@@@@ATL@@QAE@XZ
__unwindfunclet$?PreTranslateMessage@CDlgCompSetup@@MAEHPAUtagMSG@@@Z$2:
  00012	8d 4d e8	 lea	 ecx, DWORD PTR $T2[ebp]
  00015	ff 25 00 00 00
	00		 jmp	 DWORD PTR __imp_??1?$CStringT@DV?$StrTraitMFC_DLL@DV?$ChTraitsCRT@D@ATL@@@@@ATL@@QAE@XZ
  0001b	cc		 int	 3
  0001c	cc		 int	 3
  0001d	cc		 int	 3
  0001e	cc		 int	 3
  0001f	cc		 int	 3
__ehhandler$?PreTranslateMessage@CDlgCompSetup@@MAEHPAUtagMSG@@@Z:
  00020	90		 npad	 1
  00021	90		 npad	 1
  00022	8b 54 24 08	 mov	 edx, DWORD PTR [esp+8]
  00026	8d 42 0c	 lea	 eax, DWORD PTR [edx+12]
  00029	8b 4a e4	 mov	 ecx, DWORD PTR [edx-28]
  0002c	33 c8		 xor	 ecx, eax
  0002e	e8 00 00 00 00	 call	 @__security_check_cookie@4
  00033	b8 00 00 00 00	 mov	 eax, OFFSET __ehfuncinfo$?PreTranslateMessage@CDlgCompSetup@@MAEHPAUtagMSG@@@Z
  00038	e9 00 00 00 00	 jmp	 ___CxxFrameHandler3
text$x	ENDS
?PreTranslateMessage@CDlgCompSetup@@MAEHPAUtagMSG@@@Z ENDP ; CDlgCompSetup::PreTranslateMessage
; Function compile flags: /Ogtp
; File D:\git\src\IBK\IBK_DRFN\ProjSrc\SrcDrfn\Chart\ChartUtil\DlgCompSetup.cpp
; File C:\Program Files (x86)\Microsoft Visual Studio\2019\Community\VC\Tools\MSVC\14.29.30133\atlmfc\include\atlsimpstr.h
; File D:\git\src\IBK\IBK_DRFN\ProjSrc\SrcDrfn\Chart\ChartUtil\DlgCompSetup.cpp
; File C:\Program Files (x86)\Microsoft Visual Studio\2019\Community\VC\Tools\MSVC\14.29.30133\atlmfc\include\atlsimpstr.h
; File D:\git\src\IBK\IBK_DRFN\ProjSrc\SrcDrfn\Chart\ChartUtil\DlgCompSetup.cpp
;	COMDAT ?WindowProc@CDlgCompSetup@@MAEJIIJ@Z
_TEXT	SEGMENT
__$EHRec$ = -12						; size = 12
_strCodeSelected$2 = 8					; size = 4
_strCodeSelected$3 = 8					; size = 4
_message$ = 8						; size = 4
$T4 = 12						; size = 4
$T5 = 12						; size = 4
_wParam$ = 12						; size = 4
_str$6 = 16						; size = 4
_str$7 = 16						; size = 4
_lParam$ = 16						; size = 4
?WindowProc@CDlgCompSetup@@MAEJIIJ@Z PROC		; CDlgCompSetup::WindowProc, COMDAT
; _this$ = ecx

; 1288 : {

  00000	55		 push	 ebp
  00001	8b ec		 mov	 ebp, esp
  00003	6a ff		 push	 -1
  00005	68 00 00 00 00	 push	 __ehhandler$?WindowProc@CDlgCompSetup@@MAEJIIJ@Z
  0000a	64 a1 00 00 00
	00		 mov	 eax, DWORD PTR fs:0
  00010	50		 push	 eax
  00011	53		 push	 ebx
  00012	56		 push	 esi
  00013	57		 push	 edi
  00014	a1 00 00 00 00	 mov	 eax, DWORD PTR ___security_cookie
  00019	33 c5		 xor	 eax, ebp
  0001b	50		 push	 eax
  0001c	8d 45 f4	 lea	 eax, DWORD PTR __$EHRec$[ebp]
  0001f	64 a3 00 00 00
	00		 mov	 DWORD PTR fs:0, eax
  00025	8b f9		 mov	 edi, ecx

; 1289 : 	switch(message)

  00027	8b 55 08	 mov	 edx, DWORD PTR _message$[ebp]
  0002a	8b 75 10	 mov	 esi, DWORD PTR _lParam$[ebp]
  0002d	83 fa 4e	 cmp	 edx, 78			; 0000004eH
  00030	0f 85 a0 01 00
	00		 jne	 $LN11@WindowProc

; 1290 : 	{
; 1291 : 		case WM_NOTIFY:
; 1292 : 			{
; 1293 : 				NM_GRIDVIEW *pNmgv = (NM_GRIDVIEW *)lParam;
; 1294 : 				int nCode = pNmgv->hdr.code;

  00036	8b 46 08	 mov	 eax, DWORD PTR [esi+8]

; 1295 : 				
; 1296 : 				if(nCode == GVN_SELCHANGING)			// Left button click

  00039	83 f8 9c	 cmp	 eax, -100		; ffffff9cH
  0003c	0f 85 cb 00 00
	00		 jne	 $LN5@WindowProc

; 1297 : 				{
; 1298 : 					if(pNmgv->hdr.hwndFrom == m_pGridCtrl->m_hWnd) //       

  00042	8b 8f dc 06 00
	00		 mov	 ecx, DWORD PTR [edi+1756]
  00048	8b 06		 mov	 eax, DWORD PTR [esi]
  0004a	3b 41 20	 cmp	 eax, DWORD PTR [ecx+32]
  0004d	0f 85 83 01 00
	00		 jne	 $LN11@WindowProc

; 1299 : 					{
; 1300 : 						CString str;

  00053	8d 4d 10	 lea	 ecx, DWORD PTR _str$7[ebp]
  00056	ff 15 00 00 00
	00		 call	 DWORD PTR __imp_??0?$CStringT@DV?$StrTraitMFC_DLL@DV?$ChTraitsCRT@D@ATL@@@@@ATL@@QAE@XZ

; 1301 : 						str = m_pGridCtrl->GetItemText(pNmgv->iClickRow, pNmgv->iClickCol);

  0005c	ff 76 18	 push	 DWORD PTR [esi+24]
  0005f	8b 8f dc 06 00
	00		 mov	 ecx, DWORD PTR [edi+1756]
  00065	8d 5e 18	 lea	 ebx, DWORD PTR [esi+24]
  00068	ff 76 14	 push	 DWORD PTR [esi+20]
  0006b	83 c6 14	 add	 esi, 20			; 00000014H
  0006e	c7 45 fc 00 00
	00 00		 mov	 DWORD PTR __$EHRec$[ebp+8], 0
  00075	8d 45 0c	 lea	 eax, DWORD PTR $T5[ebp]
  00078	50		 push	 eax
  00079	e8 00 00 00 00	 call	 ?GetItemText@CExGridCtrl@@QAE?AV?$CStringT@DV?$StrTraitMFC_DLL@DV?$ChTraitsCRT@D@ATL@@@@@ATL@@HH@Z ; CExGridCtrl::GetItemText
  0007e	50		 push	 eax
  0007f	8d 4d 10	 lea	 ecx, DWORD PTR _str$7[ebp]
  00082	c6 45 fc 01	 mov	 BYTE PTR __$EHRec$[ebp+8], 1
  00086	ff 15 00 00 00
	00		 call	 DWORD PTR __imp_??4?$CStringT@DV?$StrTraitMFC_DLL@DV?$ChTraitsCRT@D@ATL@@@@@ATL@@QAEAAV01@ABV01@@Z
  0008c	8d 4d 0c	 lea	 ecx, DWORD PTR $T5[ebp]
  0008f	c6 45 fc 00	 mov	 BYTE PTR __$EHRec$[ebp+8], 0
  00093	ff 15 00 00 00
	00		 call	 DWORD PTR __imp_??1?$CStringT@DV?$StrTraitMFC_DLL@DV?$ChTraitsCRT@D@ATL@@@@@ATL@@QAE@XZ

; 1302 : 
; 1303 : 						//   return
; 1304 : 						if (str.Find("X") >= 0)						

  00099	6a 00		 push	 0
  0009b	68 00 00 00 00	 push	 OFFSET ??_C@_01MMEEDKFM@X@
  000a0	8d 4d 10	 lea	 ecx, DWORD PTR _str$7[ebp]
  000a3	ff 15 00 00 00
	00		 call	 DWORD PTR __imp_?Find@?$CStringT@DV?$StrTraitMFC_DLL@DV?$ChTraitsCRT@D@ATL@@@@@ATL@@QBEHPBDH@Z
  000a9	85 c0		 test	 eax, eax
  000ab	79 3e		 jns	 SHORT $LN22@WindowProc

; 1305 : 							return TRUE;
; 1306 : 
; 1307 : 						CString strCodeSelected;

  000ad	8d 4d 08	 lea	 ecx, DWORD PTR _strCodeSelected$3[ebp]
  000b0	ff 15 00 00 00
	00		 call	 DWORD PTR __imp_??0?$CStringT@DV?$StrTraitMFC_DLL@DV?$ChTraitsCRT@D@ATL@@@@@ATL@@QAE@XZ

; 1308 : 						GetCodeInfo(1, pNmgv->iClickRow, pNmgv->iClickCol, strCodeSelected);

  000b6	8d 45 08	 lea	 eax, DWORD PTR _strCodeSelected$3[ebp]
  000b9	c6 45 fc 02	 mov	 BYTE PTR __$EHRec$[ebp+8], 2
  000bd	50		 push	 eax
  000be	53		 push	 ebx
  000bf	56		 push	 esi
  000c0	6a 01		 push	 1
  000c2	8b cf		 mov	 ecx, edi
  000c4	e8 00 00 00 00	 call	 ?GetCodeInfo@CDlgCompSetup@@IAEHHAAH0AAV?$CStringT@DV?$StrTraitMFC_DLL@DV?$ChTraitsCRT@D@ATL@@@@@ATL@@@Z ; CDlgCompSetup::GetCodeInfo
; File C:\Program Files (x86)\Microsoft Visual Studio\2019\Community\VC\Tools\MSVC\14.29.30133\atlmfc\include\atlsimpstr.h

; 533  : 		return( GetLength() == 0 );

  000c9	8b 45 08	 mov	 eax, DWORD PTR _strCodeSelected$3[ebp]
  000cc	83 78 f4 00	 cmp	 DWORD PTR [eax-12], 0
; File D:\git\src\IBK\IBK_DRFN\ProjSrc\SrcDrfn\Chart\ChartUtil\DlgCompSetup.cpp

; 1309 : 						if(!strCodeSelected.IsEmpty())

  000d0	74 10		 je	 SHORT $LN9@WindowProc

; 1310 : 						{
; 1311 : 							m_szGridSelCode = strCodeSelected;

  000d2	8d 45 08	 lea	 eax, DWORD PTR _strCodeSelected$3[ebp]
  000d5	50		 push	 eax
  000d6	8d 8f 10 07 00
	00		 lea	 ecx, DWORD PTR [edi+1808]
  000dc	ff 15 00 00 00
	00		 call	 DWORD PTR __imp_??4?$CStringT@DV?$StrTraitMFC_DLL@DV?$ChTraitsCRT@D@ATL@@@@@ATL@@QAEAAV01@ABV01@@Z
$LN9@WindowProc:

; 1343 : }

  000e2	8d 4d 08	 lea	 ecx, DWORD PTR _strCodeSelected$3[ebp]
  000e5	ff 15 00 00 00
	00		 call	 DWORD PTR __imp_??1?$CStringT@DV?$StrTraitMFC_DLL@DV?$ChTraitsCRT@D@ATL@@@@@ATL@@QAE@XZ
$LN22@WindowProc:
  000eb	8d 4d 10	 lea	 ecx, DWORD PTR _str$7[ebp]
  000ee	ff 15 00 00 00
	00		 call	 DWORD PTR __imp_??1?$CStringT@DV?$StrTraitMFC_DLL@DV?$ChTraitsCRT@D@ATL@@@@@ATL@@QAE@XZ
  000f4	b8 01 00 00 00	 mov	 eax, 1
  000f9	8b 4d f4	 mov	 ecx, DWORD PTR __$EHRec$[ebp]
  000fc	64 89 0d 00 00
	00 00		 mov	 DWORD PTR fs:0, ecx
  00103	59		 pop	 ecx
  00104	5f		 pop	 edi
  00105	5e		 pop	 esi
  00106	5b		 pop	 ebx
  00107	8b e5		 mov	 esp, ebp
  00109	5d		 pop	 ebp
  0010a	c2 0c 00	 ret	 12			; 0000000cH
$LN5@WindowProc:

; 1312 : 						}
; 1313 : 						return TRUE;
; 1314 : 					}
; 1315 : 				}
; 1316 : 				else if(nCode == NM_DBLCLK)			// Left button click

  0010d	83 f8 fd	 cmp	 eax, -3			; fffffffdH
  00110	0f 85 c0 00 00
	00		 jne	 $LN11@WindowProc

; 1317 : 				{
; 1318 : 					if(pNmgv->hdr.hwndFrom == m_pGridCtrl->m_hWnd) //       

  00116	8b 8f dc 06 00
	00		 mov	 ecx, DWORD PTR [edi+1756]
  0011c	8b 06		 mov	 eax, DWORD PTR [esi]
  0011e	3b 41 20	 cmp	 eax, DWORD PTR [ecx+32]
  00121	0f 85 af 00 00
	00		 jne	 $LN11@WindowProc

; 1319 : 					{
; 1320 : 						CString str;

  00127	8d 4d 10	 lea	 ecx, DWORD PTR _str$6[ebp]
  0012a	ff 15 00 00 00
	00		 call	 DWORD PTR __imp_??0?$CStringT@DV?$StrTraitMFC_DLL@DV?$ChTraitsCRT@D@ATL@@@@@ATL@@QAE@XZ

; 1321 : 						str = m_pGridCtrl->GetItemText(pNmgv->iClickRow,pNmgv->iClickCol);

  00130	ff 76 18	 push	 DWORD PTR [esi+24]
  00133	8b 8f dc 06 00
	00		 mov	 ecx, DWORD PTR [edi+1756]
  00139	8d 5e 18	 lea	 ebx, DWORD PTR [esi+24]
  0013c	ff 76 14	 push	 DWORD PTR [esi+20]
  0013f	83 c6 14	 add	 esi, 20			; 00000014H
  00142	c7 45 fc 03 00
	00 00		 mov	 DWORD PTR __$EHRec$[ebp+8], 3
  00149	8d 45 0c	 lea	 eax, DWORD PTR $T4[ebp]
  0014c	50		 push	 eax
  0014d	e8 00 00 00 00	 call	 ?GetItemText@CExGridCtrl@@QAE?AV?$CStringT@DV?$StrTraitMFC_DLL@DV?$ChTraitsCRT@D@ATL@@@@@ATL@@HH@Z ; CExGridCtrl::GetItemText
  00152	50		 push	 eax
  00153	8d 4d 10	 lea	 ecx, DWORD PTR _str$6[ebp]
  00156	c6 45 fc 04	 mov	 BYTE PTR __$EHRec$[ebp+8], 4
  0015a	ff 15 00 00 00
	00		 call	 DWORD PTR __imp_??4?$CStringT@DV?$StrTraitMFC_DLL@DV?$ChTraitsCRT@D@ATL@@@@@ATL@@QAEAAV01@ABV01@@Z
  00160	8d 4d 0c	 lea	 ecx, DWORD PTR $T4[ebp]
  00163	c6 45 fc 03	 mov	 BYTE PTR __$EHRec$[ebp+8], 3
  00167	ff 15 00 00 00
	00		 call	 DWORD PTR __imp_??1?$CStringT@DV?$StrTraitMFC_DLL@DV?$ChTraitsCRT@D@ATL@@@@@ATL@@QAE@XZ

; 1322 : 						
; 1323 : 						//   return
; 1324 : 						if (str.Find("X") >= 0)						

  0016d	6a 00		 push	 0
  0016f	68 00 00 00 00	 push	 OFFSET ??_C@_01MMEEDKFM@X@
  00174	8d 4d 10	 lea	 ecx, DWORD PTR _str$6[ebp]
  00177	ff 15 00 00 00
	00		 call	 DWORD PTR __imp_?Find@?$CStringT@DV?$StrTraitMFC_DLL@DV?$ChTraitsCRT@D@ATL@@@@@ATL@@QBEHPBDH@Z
  0017d	85 c0		 test	 eax, eax
  0017f	0f 89 66 ff ff
	ff		 jns	 $LN22@WindowProc

; 1325 : 							return TRUE;
; 1326 : 						
; 1327 : 						CString strCodeSelected;

  00185	8d 4d 08	 lea	 ecx, DWORD PTR _strCodeSelected$2[ebp]
  00188	ff 15 00 00 00
	00		 call	 DWORD PTR __imp_??0?$CStringT@DV?$StrTraitMFC_DLL@DV?$ChTraitsCRT@D@ATL@@@@@ATL@@QAE@XZ

; 1328 : 						GetCodeInfo(1, pNmgv->iClickRow, pNmgv->iClickCol, strCodeSelected);

  0018e	8d 45 08	 lea	 eax, DWORD PTR _strCodeSelected$2[ebp]
  00191	c6 45 fc 05	 mov	 BYTE PTR __$EHRec$[ebp+8], 5
  00195	50		 push	 eax
  00196	53		 push	 ebx
  00197	56		 push	 esi
  00198	6a 01		 push	 1
  0019a	8b cf		 mov	 ecx, edi
  0019c	e8 00 00 00 00	 call	 ?GetCodeInfo@CDlgCompSetup@@IAEHHAAH0AAV?$CStringT@DV?$StrTraitMFC_DLL@DV?$ChTraitsCRT@D@ATL@@@@@ATL@@@Z ; CDlgCompSetup::GetCodeInfo
; File C:\Program Files (x86)\Microsoft Visual Studio\2019\Community\VC\Tools\MSVC\14.29.30133\atlmfc\include\atlsimpstr.h

; 533  : 		return( GetLength() == 0 );

  001a1	8b 45 08	 mov	 eax, DWORD PTR _strCodeSelected$2[ebp]
  001a4	83 78 f4 00	 cmp	 DWORD PTR [eax-12], 0
; File D:\git\src\IBK\IBK_DRFN\ProjSrc\SrcDrfn\Chart\ChartUtil\DlgCompSetup.cpp

; 1329 : 						if(!strCodeSelected.IsEmpty())

  001a8	0f 84 34 ff ff
	ff		 je	 $LN9@WindowProc

; 1330 : 						{
; 1331 : 							m_szGridSelCode = strCodeSelected;

  001ae	8d 45 08	 lea	 eax, DWORD PTR _strCodeSelected$2[ebp]
  001b1	50		 push	 eax
  001b2	8d 8f 10 07 00
	00		 lea	 ecx, DWORD PTR [edi+1808]
  001b8	ff 15 00 00 00
	00		 call	 DWORD PTR __imp_??4?$CStringT@DV?$StrTraitMFC_DLL@DV?$ChTraitsCRT@D@ATL@@@@@ATL@@QAEAAV01@ABV01@@Z

; 1332 : 							DoGridAddToItem(m_szGridSelCode, m_szGridSelCodeName);

  001be	ff b7 14 07 00
	00		 push	 DWORD PTR [edi+1812]
  001c4	8b cf		 mov	 ecx, edi
  001c6	ff b7 10 07 00
	00		 push	 DWORD PTR [edi+1808]
  001cc	e8 00 00 00 00	 call	 ?DoGridAddToItem@CDlgCompSetup@@IAEXPBD0@Z ; CDlgCompSetup::DoGridAddToItem

; 1333 : 						}
; 1334 : 						return TRUE;

  001d1	e9 0c ff ff ff	 jmp	 $LN9@WindowProc
$LN11@WindowProc:

; 1335 : 					}
; 1336 : 				}
; 1337 : 			}
; 1338 : 			break;
; 1339 : 		default:
; 1340 : 			break;
; 1341 : 	}
; 1342 : 	return CDialog::WindowProc(message, wParam, lParam);

  001d6	56		 push	 esi
  001d7	ff 75 0c	 push	 DWORD PTR _wParam$[ebp]
  001da	8b cf		 mov	 ecx, edi
  001dc	52		 push	 edx
  001dd	e8 00 00 00 00	 call	 ?WindowProc@CWnd@@MAEJIIJ@Z ; CWnd::WindowProc

; 1343 : }

  001e2	8b 4d f4	 mov	 ecx, DWORD PTR __$EHRec$[ebp]
  001e5	64 89 0d 00 00
	00 00		 mov	 DWORD PTR fs:0, ecx
  001ec	59		 pop	 ecx
  001ed	5f		 pop	 edi
  001ee	5e		 pop	 esi
  001ef	5b		 pop	 ebx
  001f0	8b e5		 mov	 esp, ebp
  001f2	5d		 pop	 ebp
  001f3	c2 0c 00	 ret	 12			; 0000000cH
_TEXT	ENDS
;	COMDAT text$x
text$x	SEGMENT
__unwindfunclet$?WindowProc@CDlgCompSetup@@MAEJIIJ@Z$0:
  00000	8d 4d 10	 lea	 ecx, DWORD PTR _str$7[ebp]
  00003	ff 25 00 00 00
	00		 jmp	 DWORD PTR __imp_??1?$CStringT@DV?$StrTraitMFC_DLL@DV?$ChTraitsCRT@D@ATL@@@@@ATL@@QAE@XZ
__unwindfunclet$?WindowProc@CDlgCompSetup@@MAEJIIJ@Z$1:
  00009	8d 4d 0c	 lea	 ecx, DWORD PTR $T5[ebp]
  0000c	ff 25 00 00 00
	00		 jmp	 DWORD PTR __imp_??1?$CStringT@DV?$StrTraitMFC_DLL@DV?$ChTraitsCRT@D@ATL@@@@@ATL@@QAE@XZ
__unwindfunclet$?WindowProc@CDlgCompSetup@@MAEJIIJ@Z$2:
  00012	8d 4d 08	 lea	 ecx, DWORD PTR _strCodeSelected$3[ebp]
  00015	ff 25 00 00 00
	00		 jmp	 DWORD PTR __imp_??1?$CStringT@DV?$StrTraitMFC_DLL@DV?$ChTraitsCRT@D@ATL@@@@@ATL@@QAE@XZ
__unwindfunclet$?WindowProc@CDlgCompSetup@@MAEJIIJ@Z$3:
  0001b	8d 4d 10	 lea	 ecx, DWORD PTR _str$6[ebp]
  0001e	ff 25 00 00 00
	00		 jmp	 DWORD PTR __imp_??1?$CStringT@DV?$StrTraitMFC_DLL@DV?$ChTraitsCRT@D@ATL@@@@@ATL@@QAE@XZ
__unwindfunclet$?WindowProc@CDlgCompSetup@@MAEJIIJ@Z$4:
  00024	8d 4d 0c	 lea	 ecx, DWORD PTR $T4[ebp]
  00027	ff 25 00 00 00
	00		 jmp	 DWORD PTR __imp_??1?$CStringT@DV?$StrTraitMFC_DLL@DV?$ChTraitsCRT@D@ATL@@@@@ATL@@QAE@XZ
__unwindfunclet$?WindowProc@CDlgCompSetup@@MAEJIIJ@Z$5:
  0002d	8d 4d 08	 lea	 ecx, DWORD PTR _strCodeSelected$2[ebp]
  00030	ff 25 00 00 00
	00		 jmp	 DWORD PTR __imp_??1?$CStringT@DV?$StrTraitMFC_DLL@DV?$ChTraitsCRT@D@ATL@@@@@ATL@@QAE@XZ
  00036	cc		 int	 3
  00037	cc		 int	 3
  00038	cc		 int	 3
  00039	cc		 int	 3
  0003a	cc		 int	 3
__ehhandler$?WindowProc@CDlgCompSetup@@MAEJIIJ@Z:
  0003b	90		 npad	 1
  0003c	90		 npad	 1
  0003d	8b 54 24 08	 mov	 edx, DWORD PTR [esp+8]
  00041	8d 42 0c	 lea	 eax, DWORD PTR [edx+12]
  00044	8b 4a f0	 mov	 ecx, DWORD PTR [edx-16]
  00047	33 c8		 xor	 ecx, eax
  00049	e8 00 00 00 00	 call	 @__security_check_cookie@4
  0004e	b8 00 00 00 00	 mov	 eax, OFFSET __ehfuncinfo$?WindowProc@CDlgCompSetup@@MAEJIIJ@Z
  00053	e9 00 00 00 00	 jmp	 ___CxxFrameHandler3
text$x	ENDS
?WindowProc@CDlgCompSetup@@MAEJIIJ@Z ENDP		; CDlgCompSetup::WindowProc
; Function compile flags: /Ogtp
; File D:\git\src\IBK\IBK_DRFN\ProjSrc\SrcDrfn\Chart\ChartUtil\DlgCompSetup.cpp
;	COMDAT ?DoDataExchange@CDlgCompSetup@@MAEXPAVCDataExchange@@@Z
_TEXT	SEGMENT
_pDX$ = 8						; size = 4
?DoDataExchange@CDlgCompSetup@@MAEXPAVCDataExchange@@@Z PROC ; CDlgCompSetup::DoDataExchange, COMDAT
; _this$ = ecx

; 62   : {

  00000	55		 push	 ebp
  00001	8b ec		 mov	 ebp, esp
  00003	53		 push	 ebx
  00004	56		 push	 esi
  00005	8b d9		 mov	 ebx, ecx
  00007	57		 push	 edi

; 63   : 	CDialog::DoDataExchange(pDX);
; 64   : 	//{{AFX_DATA_MAP(CDlgCompSetup)
; 65   : 	DDX_Control(pDX, IDC_LISTCODES, m_ListCodes);

  00008	8b 7d 08	 mov	 edi, DWORD PTR _pDX$[ebp]
  0000b	8d 83 e8 00 00
	00		 lea	 eax, DWORD PTR [ebx+232]
  00011	50		 push	 eax
  00012	68 8a 17 00 00	 push	 6026			; 0000178aH
  00017	57		 push	 edi
  00018	e8 00 00 00 00	 call	 ?DDX_Control@@YGXPAVCDataExchange@@HAAVCWnd@@@Z ; DDX_Control

; 66   : 	DDX_Control(pDX, IDC_LISTITEM, m_ListItem);

  0001d	8d 83 98 01 00
	00		 lea	 eax, DWORD PTR [ebx+408]
  00023	50		 push	 eax
  00024	68 74 17 00 00	 push	 6004			; 00001774H
  00029	57		 push	 edi
  0002a	e8 00 00 00 00	 call	 ?DDX_Control@@YGXPAVCDataExchange@@HAAVCWnd@@@Z ; DDX_Control

; 67   : 	DDX_Control(pDX, IDC_LISTGRP, m_ListRP);

  0002f	8d 83 18 02 00
	00		 lea	 eax, DWORD PTR [ebx+536]
  00035	50		 push	 eax
  00036	68 70 17 00 00	 push	 6000			; 00001770H
  0003b	57		 push	 edi
  0003c	e8 00 00 00 00	 call	 ?DDX_Control@@YGXPAVCDataExchange@@HAAVCWnd@@@Z ; DDX_Control

; 68   : 	DDX_Control(pDX, IDC_TREESEARCH, m_treeSearch);

  00041	8d 83 98 02 00
	00		 lea	 eax, DWORD PTR [ebx+664]
  00047	50		 push	 eax
  00048	68 86 17 00 00	 push	 6022			; 00001786H
  0004d	57		 push	 edi
  0004e	e8 00 00 00 00	 call	 ?DDX_Control@@YGXPAVCDataExchange@@HAAVCWnd@@@Z ; DDX_Control

; 69   : 	DDX_Control(pDX, IDC_TEXT_COLOR, m_btnTextColor);

  00053	8d 83 18 03 00
	00		 lea	 eax, DWORD PTR [ebx+792]
  00059	50		 push	 eax
  0005a	68 8b 17 00 00	 push	 6027			; 0000178bH
  0005f	57		 push	 edi
  00060	e8 00 00 00 00	 call	 ?DDX_Control@@YGXPAVCDataExchange@@HAAVCWnd@@@Z ; DDX_Control

; 70   : 	DDX_Control(pDX, IDC_EDTCODE2, m_edtCode);

  00065	8d 83 08 04 00
	00		 lea	 eax, DWORD PTR [ebx+1032]
  0006b	50		 push	 eax
  0006c	68 89 17 00 00	 push	 6025			; 00001789H
  00071	57		 push	 edi
  00072	e8 00 00 00 00	 call	 ?DDX_Control@@YGXPAVCDataExchange@@HAAVCWnd@@@Z ; DDX_Control

; 71   : 	DDX_Control(pDX, IDC_EDTCODE, m_edtCodeName);

  00077	8d 83 a0 04 00
	00		 lea	 eax, DWORD PTR [ebx+1184]
  0007d	50		 push	 eax
  0007e	68 87 17 00 00	 push	 6023			; 00001787H
  00083	57		 push	 edi
  00084	e8 00 00 00 00	 call	 ?DDX_Control@@YGXPAVCDataExchange@@HAAVCWnd@@@Z ; DDX_Control

; 72   : 	DDX_Control(pDX, IDC_THICKNESS, m_Thickness_Combo);

  00089	8d 83 38 05 00
	00		 lea	 eax, DWORD PTR [ebx+1336]
  0008f	50		 push	 eax
  00090	68 7c 17 00 00	 push	 6012			; 0000177cH
  00095	57		 push	 edi
  00096	e8 00 00 00 00	 call	 ?DDX_Control@@YGXPAVCDataExchange@@HAAVCWnd@@@Z ; DDX_Control

; 73   : 	DDX_Control(pDX, IDC_DRAWSTYLE, m_DrawStyle_Combo);

  0009b	8d 83 c0 05 00
	00		 lea	 eax, DWORD PTR [ebx+1472]
  000a1	50		 push	 eax
  000a2	68 7b 17 00 00	 push	 6011			; 0000177bH
  000a7	57		 push	 edi
  000a8	e8 00 00 00 00	 call	 ?DDX_Control@@YGXPAVCDataExchange@@HAAVCWnd@@@Z ; DDX_Control

; 74   : 	DDX_Control(pDX, IDC_CMBSEL, m_CmbSel_Combo);

  000ad	8d 83 48 06 00
	00		 lea	 eax, DWORD PTR [ebx+1608]
  000b3	50		 push	 eax
  000b4	68 88 17 00 00	 push	 6024			; 00001788H
  000b9	57		 push	 edi
  000ba	e8 00 00 00 00	 call	 ?DDX_Control@@YGXPAVCDataExchange@@HAAVCWnd@@@Z ; DDX_Control

; 75   : 	DDX_Text(pDX, IDC_EDTTIME, m_nTime);

  000bf	8d b3 c8 06 00
	00		 lea	 esi, DWORD PTR [ebx+1736]
  000c5	56		 push	 esi
  000c6	68 80 17 00 00	 push	 6016			; 00001780H
  000cb	57		 push	 edi
  000cc	e8 00 00 00 00	 call	 ?DDX_Text@@YGXPAVCDataExchange@@HAAH@Z ; DDX_Text

; 76   : 	DDV_MinMaxInt(pDX, m_nTime, 0, 3600);

  000d1	68 10 0e 00 00	 push	 3600			; 00000e10H
  000d6	6a 00		 push	 0
  000d8	ff 36		 push	 DWORD PTR [esi]
  000da	57		 push	 edi
  000db	e8 00 00 00 00	 call	 ?DDV_MinMaxInt@@YGXPAVCDataExchange@@HHH@Z ; DDV_MinMaxInt

; 77   : 	DDX_Check(pDX, IDC_CHKSHOW, m_bCurShow);

  000e0	8d 83 cc 06 00
	00		 lea	 eax, DWORD PTR [ebx+1740]
  000e6	50		 push	 eax
  000e7	68 81 17 00 00	 push	 6017			; 00001781H
  000ec	57		 push	 edi
  000ed	e8 00 00 00 00	 call	 ?DDX_Check@@YGXPAVCDataExchange@@HAAH@Z ; DDX_Check

; 78   : 	DDX_Text(pDX, IDC_EDTPERIOD, m_nPeriodType);

  000f2	8d b3 d0 06 00
	00		 lea	 esi, DWORD PTR [ebx+1744]
  000f8	56		 push	 esi
  000f9	68 82 17 00 00	 push	 6018			; 00001782H
  000fe	57		 push	 edi
  000ff	e8 00 00 00 00	 call	 ?DDX_Text@@YGXPAVCDataExchange@@HAAH@Z ; DDX_Text

; 79   : 	DDV_MinMaxInt(pDX, m_nPeriodType, 1, 300);

  00104	68 2c 01 00 00	 push	 300			; 0000012cH
  00109	6a 01		 push	 1
  0010b	ff 36		 push	 DWORD PTR [esi]
  0010d	57		 push	 edi
  0010e	e8 00 00 00 00	 call	 ?DDV_MinMaxInt@@YGXPAVCDataExchange@@HHH@Z ; DDV_MinMaxInt

; 80   : 	DDX_Radio(pDX, IDC_RCOMP1, m_nRComp);

  00113	8d 83 d4 06 00
	00		 lea	 eax, DWORD PTR [ebx+1748]
  00119	50		 push	 eax
  0011a	68 7d 17 00 00	 push	 6013			; 0000177dH
  0011f	57		 push	 edi
  00120	e8 00 00 00 00	 call	 ?DDX_Radio@@YGXPAVCDataExchange@@HAAH@Z ; DDX_Radio

; 81   : 	//}}AFX_DATA_MAP
; 82   : 	DDX_ColorPicker(pDX, IDC_TEXT_COLOR, m_rgbText);

  00125	8d 83 d8 06 00
	00		 lea	 eax, DWORD PTR [ebx+1752]
  0012b	50		 push	 eax
  0012c	68 8b 17 00 00	 push	 6027			; 0000178bH
  00131	57		 push	 edi
  00132	e8 00 00 00 00	 call	 ?DDX_ColorPicker@@YGXPAVCDataExchange@@HAAK@Z ; DDX_ColorPicker
  00137	5f		 pop	 edi
  00138	5e		 pop	 esi
  00139	5b		 pop	 ebx

; 83   : }

  0013a	5d		 pop	 ebp
  0013b	c2 04 00	 ret	 4
?DoDataExchange@CDlgCompSetup@@MAEXPAVCDataExchange@@@Z ENDP ; CDlgCompSetup::DoDataExchange
_TEXT	ENDS
; Function compile flags: /Ogtp
; File D:\git\src\IBK\IBK_DRFN\ProjSrc\SrcDrfn\Chart\ChartUtil\DlgCompSetup.cpp
;	COMDAT ?SetInOutData@CDlgCompSetup@@QAEXJJ@Z
_TEXT	SEGMENT
_dwInData$ = 8						; size = 4
_dwOutData$ = 12					; size = 4
?SetInOutData@CDlgCompSetup@@QAEXJJ@Z PROC		; CDlgCompSetup::SetInOutData, COMDAT
; _this$ = ecx

; 497  : {

  00000	55		 push	 ebp
  00001	8b ec		 mov	 ebp, esp

; 498  : 	m_dwInData = (STDlgCompData*)dwInData;
; 499  : 	m_dwOutData = dwOutData;

  00003	8b 45 0c	 mov	 eax, DWORD PTR _dwOutData$[ebp]
  00006	56		 push	 esi
  00007	57		 push	 edi
  00008	8b 7d 08	 mov	 edi, DWORD PTR _dwInData$[ebp]
  0000b	89 81 d4 00 00
	00		 mov	 DWORD PTR [ecx+212], eax

; 500  : 
; 501  : 	//if(m_dwInData->m_GroupList.GetCount()>0)
; 502  : 		m_dwInData->m_pFn->CopyGroupList((long)&m_dwInData->m_GroupList, (long)&m_GroupList);

  00011	8d 81 b0 00 00
	00		 lea	 eax, DWORD PTR [ecx+176]
  00017	89 b9 ac 00 00
	00		 mov	 DWORD PTR [ecx+172], edi
  0001d	50		 push	 eax
  0001e	8b 57 44	 mov	 edx, DWORD PTR [edi+68]
  00021	57		 push	 edi
  00022	52		 push	 edx
  00023	8b 32		 mov	 esi, DWORD PTR [edx]
  00025	ff 56 20	 call	 DWORD PTR [esi+32]
  00028	5f		 pop	 edi
  00029	5e		 pop	 esi

; 503  : 	//m_dwInData->m_pFn->CopyGroupList((long)&m_dwInData->m_GroupList, (long)&m_GroupList);
; 504  : }

  0002a	5d		 pop	 ebp
  0002b	c2 08 00	 ret	 8
?SetInOutData@CDlgCompSetup@@QAEXJJ@Z ENDP		; CDlgCompSetup::SetInOutData
_TEXT	ENDS
; Function compile flags: /Ogtp
; File D:\git\src\IBK\IBK_DRFN\ProjSrc\SrcDrfn\Chart\ChartUtil\DlgCompSetup.cpp
;	COMDAT ?GetCurSubItemList@CDlgCompSetup@@QAEPAV?$CList@PAVCDlgCompSubItem@@PAV1@@@XZ
_TEXT	SEGMENT
?GetCurSubItemList@CDlgCompSetup@@QAEPAV?$CList@PAVCDlgCompSubItem@@PAV1@@@XZ PROC ; CDlgCompSetup::GetCurSubItemList, COMDAT
; _this$ = ecx

; 579  : 	if(m_pCurGroup)

  00000	8b 81 cc 00 00
	00		 mov	 eax, DWORD PTR [ecx+204]
  00006	85 c0		 test	 eax, eax
  00008	74 04		 je	 SHORT $LN2@GetCurSubI

; 580  : 		return &m_pCurGroup->m_ItemList;

  0000a	83 c0 04	 add	 eax, 4

; 582  : }

  0000d	c3		 ret	 0
$LN2@GetCurSubI:

; 581  : 	return NULL;

  0000e	33 c0		 xor	 eax, eax

; 582  : }

  00010	c3		 ret	 0
?GetCurSubItemList@CDlgCompSetup@@QAEPAV?$CList@PAVCDlgCompSubItem@@PAV1@@@XZ ENDP ; CDlgCompSetup::GetCurSubItemList
_TEXT	ENDS
; Function compile flags: /Ogtp
; File D:\git\src\IBK\IBK_DRFN\ProjSrc\SrcDrfn\Chart\ChartUtil\DlgCompSetup.cpp
; File C:\Program Files (x86)\Microsoft Visual Studio\2019\Community\VC\Tools\MSVC\14.29.30133\atlmfc\include\afxtempl.h
; File D:\git\src\IBK\IBK_DRFN\ProjSrc\SrcDrfn\Chart\ChartUtil\DlgCompSetup.cpp
; File C:\Program Files (x86)\Microsoft Visual Studio\2019\Community\VC\Tools\MSVC\14.29.30133\atlmfc\include\afxcmn.inl
; File D:\git\src\IBK\IBK_DRFN\ProjSrc\SrcDrfn\Chart\ChartUtil\DlgCompSetup.cpp
; File C:\Program Files (x86)\Microsoft Visual Studio\2019\Community\VC\Tools\MSVC\14.29.30133\atlmfc\include\afxcmn.inl
; File D:\git\src\IBK\IBK_DRFN\ProjSrc\SrcDrfn\Chart\ChartUtil\DlgCompSetup.cpp
; File C:\Program Files (x86)\Microsoft Visual Studio\2019\Community\VC\Tools\MSVC\14.29.30133\atlmfc\include\afxwin2.inl
; File D:\git\src\IBK\IBK_DRFN\ProjSrc\SrcDrfn\Chart\ChartUtil\DlgCompSetup.cpp
; File C:\Program Files (x86)\Microsoft Visual Studio\2019\Community\VC\Tools\MSVC\14.29.30133\atlmfc\include\afxwin2.inl
; File D:\git\src\IBK\IBK_DRFN\ProjSrc\SrcDrfn\Chart\ChartUtil\DlgCompSetup.cpp
; File C:\Program Files (x86)\Microsoft Visual Studio\2019\Community\VC\Tools\MSVC\14.29.30133\atlmfc\include\afxcmn.inl
; File D:\git\src\IBK\IBK_DRFN\ProjSrc\SrcDrfn\Chart\ChartUtil\DlgCompSetup.cpp
; File C:\Program Files (x86)\Microsoft Visual Studio\2019\Community\VC\Tools\MSVC\14.29.30133\atlmfc\include\afxcmn.inl
; File D:\git\src\IBK\IBK_DRFN\ProjSrc\SrcDrfn\Chart\ChartUtil\DlgCompSetup.cpp
; File C:\Program Files (x86)\Microsoft Visual Studio\2019\Community\VC\Tools\MSVC\14.29.30133\atlmfc\include\afxwin2.inl
; File D:\git\src\IBK\IBK_DRFN\ProjSrc\SrcDrfn\Chart\ChartUtil\DlgCompSetup.cpp
; File C:\Program Files (x86)\Microsoft Visual Studio\2019\Community\VC\Tools\MSVC\14.29.30133\atlmfc\include\afxwin2.inl
; File D:\git\src\IBK\IBK_DRFN\ProjSrc\SrcDrfn\Chart\ChartUtil\DlgCompSetup.cpp
; File C:\Program Files (x86)\Microsoft Visual Studio\2019\Community\VC\Tools\MSVC\14.29.30133\atlmfc\include\afxtempl.h
; File D:\git\src\IBK\IBK_DRFN\ProjSrc\SrcDrfn\Chart\Chart_Common\CallPutHelper.h
; File D:\git\src\IBK\IBK_DRFN\ProjSrc\SrcDrfn\Chart\ChartUtil\DlgCompSetup.cpp
;	COMDAT ??0CDlgCompSetup@@QAE@PAVCWnd@@@Z
_TEXT	SEGMENT
_this$ = -16						; size = 4
__$EHRec$ = -12						; size = 12
_this$ = 8						; size = 4
_this$ = 8						; size = 4
_this$ = 8						; size = 4
_this$ = 8						; size = 4
_pParent$ = 8						; size = 4
??0CDlgCompSetup@@QAE@PAVCWnd@@@Z PROC			; CDlgCompSetup::CDlgCompSetup, COMDAT
; _this$ = ecx

; 35   : {

  00000	55		 push	 ebp
  00001	8b ec		 mov	 ebp, esp
  00003	6a ff		 push	 -1
  00005	68 00 00 00 00	 push	 __ehhandler$??0CDlgCompSetup@@QAE@PAVCWnd@@@Z
  0000a	64 a1 00 00 00
	00		 mov	 eax, DWORD PTR fs:0
  00010	50		 push	 eax
  00011	51		 push	 ecx
  00012	56		 push	 esi
  00013	57		 push	 edi
  00014	a1 00 00 00 00	 mov	 eax, DWORD PTR ___security_cookie
  00019	33 c5		 xor	 eax, ebp
  0001b	50		 push	 eax
  0001c	8d 45 f4	 lea	 eax, DWORD PTR __$EHRec$[ebp]
  0001f	64 a3 00 00 00
	00		 mov	 DWORD PTR fs:0, eax
  00025	8b f9		 mov	 edi, ecx
  00027	89 7d f0	 mov	 DWORD PTR _this$[ebp], edi

; 34   : 	: CDialog(CDlgCompSetup::IDD, pParent)

  0002a	ff 75 08	 push	 DWORD PTR _pParent$[ebp]
  0002d	68 70 17 00 00	 push	 6000			; 00001770H
  00032	e8 00 00 00 00	 call	 ??0CDialog@@QAE@IPAVCWnd@@@Z ; CDialog::CDialog

; 35   : {

  00037	c7 07 00 00 00
	00		 mov	 DWORD PTR [edi], OFFSET ??_7CDlgCompSetup@@6B@
  0003d	c7 45 fc 00 00
	00 00		 mov	 DWORD PTR __$EHRec$[ebp+8], 0
; File C:\Program Files (x86)\Microsoft Visual Studio\2019\Community\VC\Tools\MSVC\14.29.30133\atlmfc\include\afxtempl.h

; 851  : {

  00044	c7 87 b0 00 00
	00 00 00 00 00	 mov	 DWORD PTR [edi+176], OFFSET ??_7?$CList@PAVCDlgCompGroupData@@PAV1@@@6B@

; 852  : 	ASSERT(nBlockSize > 0);
; 853  : 
; 854  : 	m_nCount = 0;

  0004e	c7 87 bc 00 00
	00 00 00 00 00	 mov	 DWORD PTR [edi+188], 0

; 855  : 	m_pNodeHead = m_pNodeTail = m_pNodeFree = NULL;

  00058	c7 87 c0 00 00
	00 00 00 00 00	 mov	 DWORD PTR [edi+192], 0
  00062	c7 87 b8 00 00
	00 00 00 00 00	 mov	 DWORD PTR [edi+184], 0
  0006c	c7 87 b4 00 00
	00 00 00 00 00	 mov	 DWORD PTR [edi+180], 0

; 856  : 	m_pBlocks = NULL;

  00076	c7 87 c4 00 00
	00 00 00 00 00	 mov	 DWORD PTR [edi+196], 0

; 857  : 	m_nBlockSize = nBlockSize;

  00080	c7 87 c8 00 00
	00 0a 00 00 00	 mov	 DWORD PTR [edi+200], 10	; 0000000aH
; File D:\git\src\IBK\IBK_DRFN\ProjSrc\SrcDrfn\Chart\ChartUtil\DlgCompSetup.cpp

; 35   : {

  0008a	8d 8f e0 00 00
	00		 lea	 ecx, DWORD PTR [edi+224]
  00090	ff 15 00 00 00
	00		 call	 DWORD PTR __imp_??0?$CStringT@DV?$StrTraitMFC_DLL@DV?$ChTraitsCRT@D@ATL@@@@@ATL@@QAE@XZ
  00096	8d 8f e8 00 00
	00		 lea	 ecx, DWORD PTR [edi+232]
  0009c	c6 45 fc 02	 mov	 BYTE PTR __$EHRec$[ebp+8], 2
  000a0	e8 00 00 00 00	 call	 ??0CVirtualListCtrl@@QAE@XZ ; CVirtualListCtrl::CVirtualListCtrl
  000a5	8d b7 98 01 00
	00		 lea	 esi, DWORD PTR [edi+408]
  000ab	c6 45 fc 03	 mov	 BYTE PTR __$EHRec$[ebp+8], 3
; File C:\Program Files (x86)\Microsoft Visual Studio\2019\Community\VC\Tools\MSVC\14.29.30133\atlmfc\include\afxcmn.inl

; 141  : 	{ }

  000af	8b ce		 mov	 ecx, esi
; File D:\git\src\IBK\IBK_DRFN\ProjSrc\SrcDrfn\Chart\ChartUtil\DlgCompSetup.cpp

; 35   : {

  000b1	89 75 08	 mov	 DWORD PTR _this$[ebp], esi
; File C:\Program Files (x86)\Microsoft Visual Studio\2019\Community\VC\Tools\MSVC\14.29.30133\atlmfc\include\afxcmn.inl

; 141  : 	{ }

  000b4	e8 00 00 00 00	 call	 ??0CWnd@@QAE@XZ		; CWnd::CWnd
  000b9	c7 06 00 00 00
	00		 mov	 DWORD PTR [esi], OFFSET ??_7CListCtrl@@6B@
; File D:\git\src\IBK\IBK_DRFN\ProjSrc\SrcDrfn\Chart\ChartUtil\DlgCompSetup.cpp

; 35   : {

  000bf	8d b7 18 02 00
	00		 lea	 esi, DWORD PTR [edi+536]
  000c5	c6 45 fc 04	 mov	 BYTE PTR __$EHRec$[ebp+8], 4
; File C:\Program Files (x86)\Microsoft Visual Studio\2019\Community\VC\Tools\MSVC\14.29.30133\atlmfc\include\afxwin2.inl

; 662  : 	{ }

  000c9	8b ce		 mov	 ecx, esi
; File D:\git\src\IBK\IBK_DRFN\ProjSrc\SrcDrfn\Chart\ChartUtil\DlgCompSetup.cpp

; 35   : {

  000cb	89 75 08	 mov	 DWORD PTR _this$[ebp], esi
; File C:\Program Files (x86)\Microsoft Visual Studio\2019\Community\VC\Tools\MSVC\14.29.30133\atlmfc\include\afxwin2.inl

; 662  : 	{ }

  000ce	e8 00 00 00 00	 call	 ??0CWnd@@QAE@XZ		; CWnd::CWnd
  000d3	c7 06 00 00 00
	00		 mov	 DWORD PTR [esi], OFFSET ??_7CListBox@@6B@
; File D:\git\src\IBK\IBK_DRFN\ProjSrc\SrcDrfn\Chart\ChartUtil\DlgCompSetup.cpp

; 35   : {

  000d9	8d b7 98 02 00
	00		 lea	 esi, DWORD PTR [edi+664]
  000df	c6 45 fc 05	 mov	 BYTE PTR __$EHRec$[ebp+8], 5
; File C:\Program Files (x86)\Microsoft Visual Studio\2019\Community\VC\Tools\MSVC\14.29.30133\atlmfc\include\afxcmn.inl

; 264  : 	{ }

  000e3	8b ce		 mov	 ecx, esi
; File D:\git\src\IBK\IBK_DRFN\ProjSrc\SrcDrfn\Chart\ChartUtil\DlgCompSetup.cpp

; 35   : {

  000e5	89 75 08	 mov	 DWORD PTR _this$[ebp], esi
; File C:\Program Files (x86)\Microsoft Visual Studio\2019\Community\VC\Tools\MSVC\14.29.30133\atlmfc\include\afxcmn.inl

; 264  : 	{ }

  000e8	e8 00 00 00 00	 call	 ??0CWnd@@QAE@XZ		; CWnd::CWnd
  000ed	c7 06 00 00 00
	00		 mov	 DWORD PTR [esi], OFFSET ??_7CTreeCtrl@@6B@
; File D:\git\src\IBK\IBK_DRFN\ProjSrc\SrcDrfn\Chart\ChartUtil\DlgCompSetup.cpp

; 35   : {

  000f3	8d 8f 18 03 00
	00		 lea	 ecx, DWORD PTR [edi+792]
  000f9	c6 45 fc 06	 mov	 BYTE PTR __$EHRec$[ebp+8], 6
  000fd	e8 00 00 00 00	 call	 ??0CXColourPicker@@QAE@XZ ; CXColourPicker::CXColourPicker
  00102	8d 8f 08 04 00
	00		 lea	 ecx, DWORD PTR [edi+1032]
  00108	c6 45 fc 07	 mov	 BYTE PTR __$EHRec$[ebp+8], 7
  0010c	e8 00 00 00 00	 call	 ??0CXEditPrompt@@QAE@XZ	; CXEditPrompt::CXEditPrompt
  00111	8d 8f a0 04 00
	00		 lea	 ecx, DWORD PTR [edi+1184]
  00117	c6 45 fc 08	 mov	 BYTE PTR __$EHRec$[ebp+8], 8
  0011b	e8 00 00 00 00	 call	 ??0CXEditPrompt@@QAE@XZ	; CXEditPrompt::CXEditPrompt
  00120	8d 8f 38 05 00
	00		 lea	 ecx, DWORD PTR [edi+1336]
  00126	c6 45 fc 09	 mov	 BYTE PTR __$EHRec$[ebp+8], 9
  0012a	e8 00 00 00 00	 call	 ??0CBitmapItemComboBox@@QAE@XZ ; CBitmapItemComboBox::CBitmapItemComboBox
  0012f	8d 8f c0 05 00
	00		 lea	 ecx, DWORD PTR [edi+1472]
  00135	c6 45 fc 0a	 mov	 BYTE PTR __$EHRec$[ebp+8], 10 ; 0000000aH
  00139	e8 00 00 00 00	 call	 ??0CBitmapItemComboBox@@QAE@XZ ; CBitmapItemComboBox::CBitmapItemComboBox
  0013e	8d b7 48 06 00
	00		 lea	 esi, DWORD PTR [edi+1608]
  00144	c6 45 fc 0b	 mov	 BYTE PTR __$EHRec$[ebp+8], 11 ; 0000000bH
; File C:\Program Files (x86)\Microsoft Visual Studio\2019\Community\VC\Tools\MSVC\14.29.30133\atlmfc\include\afxwin2.inl

; 761  : 	{ }

  00148	8b ce		 mov	 ecx, esi
; File D:\git\src\IBK\IBK_DRFN\ProjSrc\SrcDrfn\Chart\ChartUtil\DlgCompSetup.cpp

; 35   : {

  0014a	89 75 08	 mov	 DWORD PTR _this$[ebp], esi
; File C:\Program Files (x86)\Microsoft Visual Studio\2019\Community\VC\Tools\MSVC\14.29.30133\atlmfc\include\afxwin2.inl

; 761  : 	{ }

  0014d	e8 00 00 00 00	 call	 ??0CWnd@@QAE@XZ		; CWnd::CWnd
  00152	c7 06 00 00 00
	00		 mov	 DWORD PTR [esi], OFFSET ??_7CComboBox@@6B@
; File D:\git\src\IBK\IBK_DRFN\ProjSrc\SrcDrfn\Chart\ChartUtil\DlgCompSetup.cpp

; 35   : {

  00158	8d 8f 10 07 00
	00		 lea	 ecx, DWORD PTR [edi+1808]
; File C:\Program Files (x86)\Microsoft Visual Studio\2019\Community\VC\Tools\MSVC\14.29.30133\atlmfc\include\afxtempl.h

; 851  : {

  0015e	c7 87 e0 06 00
	00 00 00 00 00	 mov	 DWORD PTR [edi+1760], OFFSET ??_7?$CList@PAVCCallPutIMonthData@@PAV1@@@6B@

; 852  : 	ASSERT(nBlockSize > 0);
; 853  : 
; 854  : 	m_nCount = 0;

  00168	c7 87 ec 06 00
	00 00 00 00 00	 mov	 DWORD PTR [edi+1772], 0

; 855  : 	m_pNodeHead = m_pNodeTail = m_pNodeFree = NULL;

  00172	c7 87 f0 06 00
	00 00 00 00 00	 mov	 DWORD PTR [edi+1776], 0
  0017c	c7 87 e8 06 00
	00 00 00 00 00	 mov	 DWORD PTR [edi+1768], 0
  00186	c7 87 e4 06 00
	00 00 00 00 00	 mov	 DWORD PTR [edi+1764], 0

; 856  : 	m_pBlocks = NULL;

  00190	c7 87 f4 06 00
	00 00 00 00 00	 mov	 DWORD PTR [edi+1780], 0

; 857  : 	m_nBlockSize = nBlockSize;

  0019a	c7 87 f8 06 00
	00 0a 00 00 00	 mov	 DWORD PTR [edi+1784], 10 ; 0000000aH
; File D:\git\src\IBK\IBK_DRFN\ProjSrc\SrcDrfn\Chart\Chart_Common\CallPutHelper.h

; 145  : 		m_pCurMontList = NULL;

  001a4	c7 87 fc 06 00
	00 00 00 00 00	 mov	 DWORD PTR [edi+1788], 0
  001ae	c7 87 08 07 00
	00 00 00 00 00	 mov	 DWORD PTR [edi+1800], OFFSET ??_7CTLMCallback@CDlgCompSetup@@6B@
; File D:\git\src\IBK\IBK_DRFN\ProjSrc\SrcDrfn\Chart\ChartUtil\DlgCompSetup.cpp

; 35   : {

  001b8	ff 15 00 00 00
	00		 call	 DWORD PTR __imp_??0?$CStringT@DV?$StrTraitMFC_DLL@DV?$ChTraitsCRT@D@ATL@@@@@ATL@@QAE@XZ
  001be	8d 8f 14 07 00
	00		 lea	 ecx, DWORD PTR [edi+1812]
  001c4	ff 15 00 00 00
	00		 call	 DWORD PTR __imp_??0?$CStringT@DV?$StrTraitMFC_DLL@DV?$ChTraitsCRT@D@ATL@@@@@ATL@@QAE@XZ

; 36   : 	//{{AFX_DATA_INIT(CDlgCompSetup)
; 37   : 	m_nTime = 0;
; 38   : 	m_bCurShow = FALSE;
; 39   : 	m_nPeriodType = 0;
; 40   : 	m_nRComp = -1;
; 41   : 	//}}AFX_DATA_INIT
; 42   : 
; 43   : 	m_dwInData=NULL;
; 44   : 	m_dwOutData=NULL;
; 45   : 	m_rgbText = GetSysColor(COLOR_WINDOWTEXT);

  001ca	6a 08		 push	 8
  001cc	c7 87 c8 06 00
	00 00 00 00 00	 mov	 DWORD PTR [edi+1736], 0
  001d6	c7 87 cc 06 00
	00 00 00 00 00	 mov	 DWORD PTR [edi+1740], 0
  001e0	c7 87 d0 06 00
	00 00 00 00 00	 mov	 DWORD PTR [edi+1744], 0
  001ea	c7 87 d4 06 00
	00 ff ff ff ff	 mov	 DWORD PTR [edi+1748], -1
  001f4	c7 87 ac 00 00
	00 00 00 00 00	 mov	 DWORD PTR [edi+172], 0
  001fe	c7 87 d4 00 00
	00 00 00 00 00	 mov	 DWORD PTR [edi+212], 0
  00208	ff 15 00 00 00
	00		 call	 DWORD PTR __imp__GetSysColor@4
  0020e	89 87 d8 06 00
	00		 mov	 DWORD PTR [edi+1752], eax

; 46   : 	m_pTreeListMng = NULL;
; 47   : 
; 48   : 	m_pCurGroup = NULL;
; 49   : 	m_pCurSubItem = NULL;
; 50   : 
; 51   : 	m_nListItemSel = -1;
; 52   : 	m_nListCodeSel = -1;
; 53   : 
; 54   : 	m_bModifyFlag=FALSE;
; 55   : 
; 56   : 	m_nCtrlType = 0;
; 57   : 	m_pGridCtrl = NULL;
; 58   : }

  00214	8b c7		 mov	 eax, edi
  00216	c7 87 04 07 00
	00 00 00 00 00	 mov	 DWORD PTR [edi+1796], 0
  00220	c7 87 cc 00 00
	00 00 00 00 00	 mov	 DWORD PTR [edi+204], 0
  0022a	c7 87 d0 00 00
	00 00 00 00 00	 mov	 DWORD PTR [edi+208], 0
  00234	c7 87 d8 00 00
	00 ff ff ff ff	 mov	 DWORD PTR [edi+216], -1
  0023e	c7 87 dc 00 00
	00 ff ff ff ff	 mov	 DWORD PTR [edi+220], -1
  00248	c7 87 00 07 00
	00 00 00 00 00	 mov	 DWORD PTR [edi+1792], 0
  00252	c7 87 18 07 00
	00 00 00 00 00	 mov	 DWORD PTR [edi+1816], 0
  0025c	c7 87 dc 06 00
	00 00 00 00 00	 mov	 DWORD PTR [edi+1756], 0
  00266	8b 4d f4	 mov	 ecx, DWORD PTR __$EHRec$[ebp]
  00269	64 89 0d 00 00
	00 00		 mov	 DWORD PTR fs:0, ecx
  00270	59		 pop	 ecx
  00271	5f		 pop	 edi
  00272	5e		 pop	 esi
  00273	8b e5		 mov	 esp, ebp
  00275	5d		 pop	 ebp
  00276	c2 04 00	 ret	 4
_TEXT	ENDS
;	COMDAT text$x
text$x	SEGMENT
__unwindfunclet$??0CDlgCompSetup@@QAE@PAVCWnd@@@Z$0:
  00000	8b 4d f0	 mov	 ecx, DWORD PTR _this$[ebp]
  00003	e9 00 00 00 00	 jmp	 ??1CDialog@@UAE@XZ	; CDialog::~CDialog
__unwindfunclet$??0CDlgCompSetup@@QAE@PAVCWnd@@@Z$1:
  00008	8b 4d f0	 mov	 ecx, DWORD PTR _this$[ebp]
  0000b	81 c1 b0 00 00
	00		 add	 ecx, 176		; 000000b0H
  00011	e9 00 00 00 00	 jmp	 ??1?$CList@PAVCDlgCompGroupData@@PAV1@@@UAE@XZ ; CList<CDlgCompGroupData *,CDlgCompGroupData *>::~CList<CDlgCompGroupData *,CDlgCompGroupData *>
__unwindfunclet$??0CDlgCompSetup@@QAE@PAVCWnd@@@Z$2:
  00016	8b 4d f0	 mov	 ecx, DWORD PTR _this$[ebp]
  00019	81 c1 e0 00 00
	00		 add	 ecx, 224		; 000000e0H
  0001f	ff 25 00 00 00
	00		 jmp	 DWORD PTR __imp_??1?$CStringT@DV?$StrTraitMFC_DLL@DV?$ChTraitsCRT@D@ATL@@@@@ATL@@QAE@XZ
__unwindfunclet$??0CDlgCompSetup@@QAE@PAVCWnd@@@Z$3:
  00025	8b 4d f0	 mov	 ecx, DWORD PTR _this$[ebp]
  00028	81 c1 e8 00 00
	00		 add	 ecx, 232		; 000000e8H
  0002e	e9 00 00 00 00	 jmp	 ??1CVirtualListCtrl@@UAE@XZ ; CVirtualListCtrl::~CVirtualListCtrl
__unwindfunclet$??0CDlgCompSetup@@QAE@PAVCWnd@@@Z$4:
  00033	8b 4d f0	 mov	 ecx, DWORD PTR _this$[ebp]
  00036	81 c1 98 01 00
	00		 add	 ecx, 408		; 00000198H
  0003c	e9 00 00 00 00	 jmp	 ??1CListCtrl@@UAE@XZ	; CListCtrl::~CListCtrl
__unwindfunclet$??0CDlgCompSetup@@QAE@PAVCWnd@@@Z$5:
  00041	8b 4d f0	 mov	 ecx, DWORD PTR _this$[ebp]
  00044	81 c1 18 02 00
	00		 add	 ecx, 536		; 00000218H
  0004a	e9 00 00 00 00	 jmp	 ??1CListBox@@UAE@XZ	; CListBox::~CListBox
__unwindfunclet$??0CDlgCompSetup@@QAE@PAVCWnd@@@Z$6:
  0004f	8b 4d f0	 mov	 ecx, DWORD PTR _this$[ebp]
  00052	81 c1 98 02 00
	00		 add	 ecx, 664		; 00000298H
  00058	e9 00 00 00 00	 jmp	 ??1CTreeCtrl@@UAE@XZ	; CTreeCtrl::~CTreeCtrl
__unwindfunclet$??0CDlgCompSetup@@QAE@PAVCWnd@@@Z$7:
  0005d	8b 4d f0	 mov	 ecx, DWORD PTR _this$[ebp]
  00060	81 c1 18 03 00
	00		 add	 ecx, 792		; 00000318H
  00066	e9 00 00 00 00	 jmp	 ??1CXColourPicker@@UAE@XZ ; CXColourPicker::~CXColourPicker
__unwindfunclet$??0CDlgCompSetup@@QAE@PAVCWnd@@@Z$8:
  0006b	8b 4d f0	 mov	 ecx, DWORD PTR _this$[ebp]
  0006e	81 c1 08 04 00
	00		 add	 ecx, 1032		; 00000408H
  00074	e9 00 00 00 00	 jmp	 ??1CXEditPrompt@@UAE@XZ	; CXEditPrompt::~CXEditPrompt
__unwindfunclet$??0CDlgCompSetup@@QAE@PAVCWnd@@@Z$9:
  00079	8b 4d f0	 mov	 ecx, DWORD PTR _this$[ebp]
  0007c	81 c1 a0 04 00
	00		 add	 ecx, 1184		; 000004a0H
  00082	e9 00 00 00 00	 jmp	 ??1CXEditPrompt@@UAE@XZ	; CXEditPrompt::~CXEditPrompt
__unwindfunclet$??0CDlgCompSetup@@QAE@PAVCWnd@@@Z$10:
  00087	8b 4d f0	 mov	 ecx, DWORD PTR _this$[ebp]
  0008a	81 c1 38 05 00
	00		 add	 ecx, 1336		; 00000538H
  00090	e9 00 00 00 00	 jmp	 ??1CBitmapItemComboBox@@UAE@XZ ; CBitmapItemComboBox::~CBitmapItemComboBox
__unwindfunclet$??0CDlgCompSetup@@QAE@PAVCWnd@@@Z$11:
  00095	8b 4d f0	 mov	 ecx, DWORD PTR _this$[ebp]
  00098	81 c1 c0 05 00
	00		 add	 ecx, 1472		; 000005c0H
  0009e	e9 00 00 00 00	 jmp	 ??1CBitmapItemComboBox@@UAE@XZ ; CBitmapItemComboBox::~CBitmapItemComboBox
  000a3	cc		 int	 3
  000a4	cc		 int	 3
  000a5	cc		 int	 3
  000a6	cc		 int	 3
  000a7	cc		 int	 3
__ehhandler$??0CDlgCompSetup@@QAE@PAVCWnd@@@Z:
  000a8	90		 npad	 1
  000a9	90		 npad	 1
  000aa	8b 54 24 08	 mov	 edx, DWORD PTR [esp+8]
  000ae	8d 42 0c	 lea	 eax, DWORD PTR [edx+12]
  000b1	8b 4a f0	 mov	 ecx, DWORD PTR [edx-16]
  000b4	33 c8		 xor	 ecx, eax
  000b6	e8 00 00 00 00	 call	 @__security_check_cookie@4
  000bb	b8 00 00 00 00	 mov	 eax, OFFSET __ehfuncinfo$??0CDlgCompSetup@@QAE@PAVCWnd@@@Z
  000c0	e9 00 00 00 00	 jmp	 ___CxxFrameHandler3
text$x	ENDS
??0CDlgCompSetup@@QAE@PAVCWnd@@@Z ENDP			; CDlgCompSetup::CDlgCompSetup
; Function compile flags: /Ogtp
; File D:\git\src\IBK\IBK_DRFN\ProjSrc\SrcDrfn\Chart\Chart_Common\CallPutHelper.h
; File C:\Program Files (x86)\Microsoft Visual Studio\2019\Community\VC\Tools\MSVC\14.29.30133\atlmfc\include\afxtempl.h
; File D:\git\src\IBK\IBK_DRFN\ProjSrc\SrcDrfn\Chart\Chart_Common\CallPutHelper.h
; File C:\Program Files (x86)\Microsoft Visual Studio\2019\Community\VC\Tools\MSVC\14.29.30133\atlmfc\include\afxtempl.h
; File D:\git\src\IBK\IBK_DRFN\ProjSrc\SrcDrfn\Chart\Chart_Common\CallPutHelper.h
; File C:\Program Files (x86)\Microsoft Visual Studio\2019\Community\VC\Tools\MSVC\14.29.30133\atlmfc\include\afxtempl.h
; File D:\git\src\IBK\IBK_DRFN\ProjSrc\SrcDrfn\Chart\Chart_Common\CallPutHelper.h
; File C:\Program Files (x86)\Microsoft Visual Studio\2019\Community\VC\Tools\MSVC\14.29.30133\atlmfc\include\afxtempl.h
; File D:\git\src\IBK\IBK_DRFN\ProjSrc\SrcDrfn\Chart\Chart_Common\CallPutHelper.h
; File C:\Program Files (x86)\Microsoft Visual Studio\2019\Community\VC\Tools\MSVC\14.29.30133\atlmfc\include\afxtempl.h
; File D:\git\src\IBK\IBK_DRFN\ProjSrc\SrcDrfn\Chart\Chart_Common\CallPutHelper.h
;	COMDAT ?ClearList@CCallPutIHelper@@QAEXXZ
_TEXT	SEGMENT
_this$1$ = -20						; size = 4
_pos$1$ = -16						; size = 4
__$EHRec$ = -12						; size = 12
?ClearList@CCallPutIHelper@@QAEXXZ PROC			; CCallPutIHelper::ClearList, COMDAT
; _this$ = ecx

; 292  : {

  00000	55		 push	 ebp
  00001	8b ec		 mov	 ebp, esp
  00003	6a ff		 push	 -1
  00005	68 00 00 00 00	 push	 __ehhandler$?ClearList@CCallPutIHelper@@QAEXXZ
  0000a	64 a1 00 00 00
	00		 mov	 eax, DWORD PTR fs:0
  00010	50		 push	 eax
  00011	83 ec 08	 sub	 esp, 8
  00014	53		 push	 ebx
  00015	56		 push	 esi
  00016	57		 push	 edi
  00017	a1 00 00 00 00	 mov	 eax, DWORD PTR ___security_cookie
  0001c	33 c5		 xor	 eax, ebp
  0001e	50		 push	 eax
  0001f	8d 45 f4	 lea	 eax, DWORD PTR __$EHRec$[ebp]
  00022	64 a3 00 00 00
	00		 mov	 DWORD PTR fs:0, eax
  00028	8b d9		 mov	 ebx, ecx
  0002a	89 5d ec	 mov	 DWORD PTR _this$1$[ebp], ebx

; 293  : 	CCallPutIMonthData* pMonthData = NULL;
; 294  : 	for(POSITION pos=m_ListData.GetHeadPosition(); pos;)

  0002d	8b 7b 04	 mov	 edi, DWORD PTR [ebx+4]
  00030	85 ff		 test	 edi, edi
  00032	0f 84 d9 00 00
	00		 je	 $LN46@ClearList
$LL2@ClearList:

; 295  : 		delete m_ListData.GetNext(pos);

  00038	8b 5f 08	 mov	 ebx, DWORD PTR [edi+8]
; File C:\Program Files (x86)\Microsoft Visual Studio\2019\Community\VC\Tools\MSVC\14.29.30133\atlmfc\include\afxtempl.h

; 813  : 		rPosition = (POSITION) pNode->pNext;

  0003b	8b 3f		 mov	 edi, DWORD PTR [edi]
  0003d	89 7d f0	 mov	 DWORD PTR _pos$1$[ebp], edi
; File D:\git\src\IBK\IBK_DRFN\ProjSrc\SrcDrfn\Chart\Chart_Common\CallPutHelper.h

; 295  : 		delete m_ListData.GetNext(pos);

  00040	85 db		 test	 ebx, ebx
  00042	0f 84 be 00 00
	00		 je	 $LN11@ClearList

; 78   : 	for(POSITION pos=m_ListData.GetHeadPosition(); pos;)

  00048	8b 73 08	 mov	 esi, DWORD PTR [ebx+8]

; 67   : 	{

  0004b	c7 45 fc 00 00
	00 00		 mov	 DWORD PTR __$EHRec$[ebp+8], 0

; 78   : 	for(POSITION pos=m_ListData.GetHeadPosition(); pos;)

  00052	85 f6		 test	 esi, esi
  00054	74 35		 je	 SHORT $LN33@ClearList
$LL17@ClearList:

; 79   : 		delete m_ListData.GetNext(pos);

  00056	8b 7e 08	 mov	 edi, DWORD PTR [esi+8]
; File C:\Program Files (x86)\Microsoft Visual Studio\2019\Community\VC\Tools\MSVC\14.29.30133\atlmfc\include\afxtempl.h

; 813  : 		rPosition = (POSITION) pNode->pNext;

  00059	8b 36		 mov	 esi, DWORD PTR [esi]
; File D:\git\src\IBK\IBK_DRFN\ProjSrc\SrcDrfn\Chart\Chart_Common\CallPutHelper.h

; 79   : 		delete m_ListData.GetNext(pos);

  0005b	85 ff		 test	 edi, edi
  0005d	74 25		 je	 SHORT $LN26@ClearList
  0005f	8d 4f 10	 lea	 ecx, DWORD PTR [edi+16]
  00062	ff 15 00 00 00
	00		 call	 DWORD PTR __imp_??1?$CStringT@DV?$StrTraitMFC_DLL@DV?$ChTraitsCRT@D@ATL@@@@@ATL@@QAE@XZ
  00068	8d 4f 0c	 lea	 ecx, DWORD PTR [edi+12]
  0006b	ff 15 00 00 00
	00		 call	 DWORD PTR __imp_??1?$CStringT@DV?$StrTraitMFC_DLL@DV?$ChTraitsCRT@D@ATL@@@@@ATL@@QAE@XZ
  00071	8b cf		 mov	 ecx, edi
  00073	ff 15 00 00 00
	00		 call	 DWORD PTR __imp_??1?$CStringT@DV?$StrTraitMFC_DLL@DV?$ChTraitsCRT@D@ATL@@@@@ATL@@QAE@XZ
  00079	6a 14		 push	 20			; 00000014H
  0007b	57		 push	 edi
  0007c	e8 00 00 00 00	 call	 ??3@YAXPAXI@Z		; operator delete
  00081	83 c4 08	 add	 esp, 8
$LN26@ClearList:

; 70   : 
; 71   : 	BOOL fnDataToList(ST_OPTION_ITEM_DATA* pstItemData);
; 72   : 	void ClearList();
; 73   : };
; 74   : 
; 75   : inline void CCallPutIMonthData::ClearList()
; 76   : {
; 77   : 	CCallPutItemData* pItemData = NULL;
; 78   : 	for(POSITION pos=m_ListData.GetHeadPosition(); pos;)

  00084	85 f6		 test	 esi, esi
  00086	75 ce		 jne	 SHORT $LL17@ClearList
  00088	8b 7d f0	 mov	 edi, DWORD PTR _pos$1$[ebp]
$LN33@ClearList:
; File C:\Program Files (x86)\Microsoft Visual Studio\2019\Community\VC\Tools\MSVC\14.29.30133\atlmfc\include\afxtempl.h

; 872  : 	m_pBlocks->FreeDataChain();

  0008b	8b 4b 18	 mov	 ecx, DWORD PTR [ebx+24]
  0008e	c7 43 10 00 00
	00 00		 mov	 DWORD PTR [ebx+16], 0
  00095	c7 43 14 00 00
	00 00		 mov	 DWORD PTR [ebx+20], 0
  0009c	c7 43 0c 00 00
	00 00		 mov	 DWORD PTR [ebx+12], 0
  000a3	c7 43 08 00 00
	00 00		 mov	 DWORD PTR [ebx+8], 0
  000aa	e8 00 00 00 00	 call	 ?FreeDataChain@CPlex@@QAEXXZ ; CPlex::FreeDataChain

; 873  : 	m_pBlocks = NULL;

  000af	c7 43 18 00 00
	00 00		 mov	 DWORD PTR [ebx+24], 0

; 872  : 	m_pBlocks->FreeDataChain();

  000b6	8b 4b 18	 mov	 ecx, DWORD PTR [ebx+24]

; 878  : {

  000b9	c6 45 fc 01	 mov	 BYTE PTR __$EHRec$[ebp+8], 1
  000bd	c7 43 04 00 00
	00 00		 mov	 DWORD PTR [ebx+4], OFFSET ??_7?$CList@PAVCCallPutItemData@@PAV1@@@6B@

; 870  : 	m_nCount = 0;

  000c4	c7 43 10 00 00
	00 00		 mov	 DWORD PTR [ebx+16], 0

; 871  : 	m_pNodeHead = m_pNodeTail = m_pNodeFree = NULL;

  000cb	c7 43 14 00 00
	00 00		 mov	 DWORD PTR [ebx+20], 0
  000d2	c7 43 0c 00 00
	00 00		 mov	 DWORD PTR [ebx+12], 0
  000d9	c7 43 08 00 00
	00 00		 mov	 DWORD PTR [ebx+8], 0

; 872  : 	m_pBlocks->FreeDataChain();

  000e0	e8 00 00 00 00	 call	 ?FreeDataChain@CPlex@@QAEXXZ ; CPlex::FreeDataChain
; File D:\git\src\IBK\IBK_DRFN\ProjSrc\SrcDrfn\Chart\Chart_Common\CallPutHelper.h

; 69   : 	}

  000e5	8b cb		 mov	 ecx, ebx
; File C:\Program Files (x86)\Microsoft Visual Studio\2019\Community\VC\Tools\MSVC\14.29.30133\atlmfc\include\afxtempl.h

; 873  : 	m_pBlocks = NULL;

  000e7	c7 43 18 00 00
	00 00		 mov	 DWORD PTR [ebx+24], 0
; File D:\git\src\IBK\IBK_DRFN\ProjSrc\SrcDrfn\Chart\Chart_Common\CallPutHelper.h

; 69   : 	}

  000ee	ff 15 00 00 00
	00		 call	 DWORD PTR __imp_??1?$CStringT@DV?$StrTraitMFC_DLL@DV?$ChTraitsCRT@D@ATL@@@@@ATL@@QAE@XZ
  000f4	6a 20		 push	 32			; 00000020H
  000f6	53		 push	 ebx
  000f7	c7 45 fc ff ff
	ff ff		 mov	 DWORD PTR __$EHRec$[ebp+8], -1
  000fe	e8 00 00 00 00	 call	 ??3@YAXPAXI@Z		; operator delete
  00103	83 c4 08	 add	 esp, 8
$LN11@ClearList:

; 293  : 	CCallPutIMonthData* pMonthData = NULL;
; 294  : 	for(POSITION pos=m_ListData.GetHeadPosition(); pos;)

  00106	85 ff		 test	 edi, edi
  00108	0f 85 2a ff ff
	ff		 jne	 $LL2@ClearList
  0010e	8b 5d ec	 mov	 ebx, DWORD PTR _this$1$[ebp]
$LN46@ClearList:
; File C:\Program Files (x86)\Microsoft Visual Studio\2019\Community\VC\Tools\MSVC\14.29.30133\atlmfc\include\afxtempl.h

; 872  : 	m_pBlocks->FreeDataChain();

  00111	8b 4b 14	 mov	 ecx, DWORD PTR [ebx+20]
  00114	c7 43 0c 00 00
	00 00		 mov	 DWORD PTR [ebx+12], 0
  0011b	c7 43 10 00 00
	00 00		 mov	 DWORD PTR [ebx+16], 0
  00122	c7 43 08 00 00
	00 00		 mov	 DWORD PTR [ebx+8], 0
  00129	c7 43 04 00 00
	00 00		 mov	 DWORD PTR [ebx+4], 0
  00130	e8 00 00 00 00	 call	 ?FreeDataChain@CPlex@@QAEXXZ ; CPlex::FreeDataChain

; 873  : 	m_pBlocks = NULL;

  00135	c7 43 14 00 00
	00 00		 mov	 DWORD PTR [ebx+20], 0
; File D:\git\src\IBK\IBK_DRFN\ProjSrc\SrcDrfn\Chart\Chart_Common\CallPutHelper.h

; 298  : 	m_pCurMontList = NULL;

  0013c	c7 43 1c 00 00
	00 00		 mov	 DWORD PTR [ebx+28], 0

; 299  : }

  00143	8b 4d f4	 mov	 ecx, DWORD PTR __$EHRec$[ebp]
  00146	64 89 0d 00 00
	00 00		 mov	 DWORD PTR fs:0, ecx
  0014d	59		 pop	 ecx
  0014e	5f		 pop	 edi
  0014f	5e		 pop	 esi
  00150	5b		 pop	 ebx
  00151	8b e5		 mov	 esp, ebp
  00153	5d		 pop	 ebp
  00154	c3		 ret	 0
  00155	cc		 int	 3
  00156	cc		 int	 3
  00157	cc		 int	 3
  00158	cc		 int	 3
  00159	cc		 int	 3
_TEXT	ENDS
;	COMDAT text$x
text$x	SEGMENT
__ehhandler$?ClearList@CCallPutIHelper@@QAEXXZ:
  00000	90		 npad	 1
  00001	90		 npad	 1
  00002	8b 54 24 08	 mov	 edx, DWORD PTR [esp+8]
  00006	8d 42 0c	 lea	 eax, DWORD PTR [edx+12]
  00009	8b 4a e8	 mov	 ecx, DWORD PTR [edx-24]
  0000c	33 c8		 xor	 ecx, eax
  0000e	e8 00 00 00 00	 call	 @__security_check_cookie@4
  00013	b8 00 00 00 00	 mov	 eax, OFFSET __ehfuncinfo$?ClearList@CCallPutIHelper@@QAEXXZ
  00018	e9 00 00 00 00	 jmp	 ___CxxFrameHandler3
text$x	ENDS
?ClearList@CCallPutIHelper@@QAEXXZ ENDP			; CCallPutIHelper::ClearList
; Function compile flags: /Ogtp
; File D:\git\src\IBK\IBK_DRFN\ProjSrc\SrcDrfn\Chart\Chart_Common\CallPutHelper.h
; File D:\git\src\IBK\IBK_DRFN\ProjSrc\SrcDrfn\inc\ITreeListMng.h
; File D:\git\src\IBK\IBK_DRFN\ProjSrc\SrcDrfn\Chart\Chart_Common\CallPutHelper.h
; File C:\Program Files (x86)\Microsoft Visual Studio\2019\Community\VC\Tools\MSVC\14.29.30133\atlmfc\include\afxtempl.h
; File D:\git\src\IBK\IBK_DRFN\ProjSrc\SrcDrfn\Chart\Chart_Common\CallPutHelper.h
; File C:\Program Files (x86)\Microsoft Visual Studio\2019\Community\VC\Tools\MSVC\14.29.30133\atlmfc\include\atlsimpstr.h
; File D:\git\src\IBK\IBK_DRFN\ProjSrc\SrcDrfn\Chart\Chart_Common\CallPutHelper.h
; File C:\Program Files (x86)\Microsoft Visual Studio\2019\Community\VC\Tools\MSVC\14.29.30133\atlmfc\include\afxtempl.h
; File D:\git\src\IBK\IBK_DRFN\ProjSrc\SrcDrfn\Chart\Chart_Common\CallPutHelper.h
; File C:\Program Files (x86)\Microsoft Visual Studio\2019\Community\VC\Tools\MSVC\14.29.30133\atlmfc\include\afxtempl.h
; File D:\git\src\IBK\IBK_DRFN\ProjSrc\SrcDrfn\Chart\Chart_Common\CallPutHelper.h
;	COMDAT ?Parsing@CCallPutIHelper@@QAEXPAV?$CList@VCCodeTypeA@@V1@@@H@Z
_TEXT	SEGMENT
$T2 = -88						; size = 4
_strCallPut$ = -84					; size = 4
_pos$1$ = -80						; size = 4
_this$GSCopy$1$ = -76					; size = 4
_typeA$ = -72						; size = 16
_szOpName$ = -56					; size = 4
_strOptName$ = -52					; size = 4
_stItemData$ = -48					; size = 29
__$ArrayPad$ = -16					; size = 4
__$EHRec$ = -12						; size = 12
_pCodeType$ = 8						; size = 4
_nCodeType$ = 12					; size = 4
?Parsing@CCallPutIHelper@@QAEXPAV?$CList@VCCodeTypeA@@V1@@@H@Z PROC ; CCallPutIHelper::Parsing, COMDAT
; _this$ = ecx

; 157  : {

  00000	55		 push	 ebp
  00001	8b ec		 mov	 ebp, esp
  00003	6a ff		 push	 -1
  00005	68 00 00 00 00	 push	 __ehhandler$?Parsing@CCallPutIHelper@@QAEXPAV?$CList@VCCodeTypeA@@V1@@@H@Z
  0000a	64 a1 00 00 00
	00		 mov	 eax, DWORD PTR fs:0
  00010	50		 push	 eax
  00011	83 ec 4c	 sub	 esp, 76			; 0000004cH
  00014	a1 00 00 00 00	 mov	 eax, DWORD PTR ___security_cookie
  00019	33 c5		 xor	 eax, ebp
  0001b	89 45 f0	 mov	 DWORD PTR __$ArrayPad$[ebp], eax
  0001e	56		 push	 esi
  0001f	57		 push	 edi
  00020	50		 push	 eax
  00021	8d 45 f4	 lea	 eax, DWORD PTR __$EHRec$[ebp]
  00024	64 a3 00 00 00
	00		 mov	 DWORD PTR fs:0, eax
  0002a	8b f9		 mov	 edi, ecx
  0002c	89 7d b4	 mov	 DWORD PTR _this$GSCopy$1$[ebp], edi

; 158  : 	if(nCodeType == 0)

  0002f	83 7d 0c 00	 cmp	 DWORD PTR _nCodeType$[ebp], 0
  00033	8b 75 08	 mov	 esi, DWORD PTR _pCodeType$[ebp]
  00036	0f 84 53 02 00
	00		 je	 $LN78@Parsing
  0003c	8d 4d c0	 lea	 ecx, DWORD PTR _typeA$[ebp+8]
  0003f	c7 45 b8 00 00
	00 00		 mov	 DWORD PTR _typeA$[ebp], OFFSET ??_7CCodeTypeBase@@6B@
  00046	ff 15 00 00 00
	00		 call	 DWORD PTR __imp_??0?$CStringT@DV?$StrTraitMFC_DLL@DV?$ChTraitsCRT@D@ATL@@@@@ATL@@QAE@XZ
  0004c	8d 4d c4	 lea	 ecx, DWORD PTR _typeA$[ebp+12]
  0004f	ff 15 00 00 00
	00		 call	 DWORD PTR __imp_??0?$CStringT@DV?$StrTraitMFC_DLL@DV?$ChTraitsCRT@D@ATL@@@@@ATL@@QAE@XZ
; File D:\git\src\IBK\IBK_DRFN\ProjSrc\SrcDrfn\inc\ITreeListMng.h

; 350  : 	CCodeTypeA() {}

  00055	c7 45 b8 00 00
	00 00		 mov	 DWORD PTR _typeA$[ebp], OFFSET ??_7CCodeTypeA@@6B@
; File D:\git\src\IBK\IBK_DRFN\ProjSrc\SrcDrfn\Chart\Chart_Common\CallPutHelper.h

; 162  : 	CString szOpName ;

  0005c	8d 4d c8	 lea	 ecx, DWORD PTR _szOpName$[ebp]
  0005f	c7 45 fc 00 00
	00 00		 mov	 DWORD PTR __$EHRec$[ebp+8], 0
  00066	ff 15 00 00 00
	00		 call	 DWORD PTR __imp_??0?$CStringT@DV?$StrTraitMFC_DLL@DV?$ChTraitsCRT@D@ATL@@@@@ATL@@QAE@XZ

; 163  : 	ST_OPTION_ITEM_DATA stItemData;
; 164  : 	ST_OPTION_ITEM_DATA* pstItemData = &stItemData;
; 165  : 	char* pszOpName;
; 166  : 	CString strOptName;

  0006c	8d 4d cc	 lea	 ecx, DWORD PTR _strOptName$[ebp]
  0006f	ff 15 00 00 00
	00		 call	 DWORD PTR __imp_??0?$CStringT@DV?$StrTraitMFC_DLL@DV?$ChTraitsCRT@D@ATL@@@@@ATL@@QAE@XZ

; 167  : 	int nPosOptName = -1;
; 168  : 	CString strCallPut;

  00075	8d 4d ac	 lea	 ecx, DWORD PTR _strCallPut$[ebp]
  00078	ff 15 00 00 00
	00		 call	 DWORD PTR __imp_??0?$CStringT@DV?$StrTraitMFC_DLL@DV?$ChTraitsCRT@D@ATL@@@@@ATL@@QAE@XZ

; 169  : 	int nPosCallPut = -1;
; 170  : 	for(POSITION pos = pCodeType->GetHeadPosition(); pos;)

  0007e	8b 46 04	 mov	 eax, DWORD PTR [esi+4]
  00081	c6 45 fc 03	 mov	 BYTE PTR __$EHRec$[ebp+8], 3
  00085	85 c0		 test	 eax, eax
  00087	0f 84 d5 01 00
	00		 je	 $LN3@Parsing
  0008d	0f 1f 00	 npad	 3
$LL2@Parsing:
; File C:\Program Files (x86)\Microsoft Visual Studio\2019\Community\VC\Tools\MSVC\14.29.30133\atlmfc\include\afxtempl.h

; 811  : 	{ CNode* pNode = (CNode*) rPosition;

  00090	8d 30		 lea	 esi, DWORD PTR [eax]

; 813  : 		rPosition = (POSITION) pNode->pNext;

  00092	8b 00		 mov	 eax, DWORD PTR [eax]
  00094	89 45 b0	 mov	 DWORD PTR _pos$1$[ebp], eax
  00097	8d 4d c0	 lea	 ecx, DWORD PTR _typeA$[ebp+8]
  0009a	8a 46 0c	 mov	 al, BYTE PTR [esi+12]
  0009d	88 45 bc	 mov	 BYTE PTR _typeA$[ebp+4], al
; File D:\git\src\IBK\IBK_DRFN\ProjSrc\SrcDrfn\Chart\Chart_Common\CallPutHelper.h

; 172  : 		typeA = pCodeType->GetNext(pos);

  000a0	8d 46 10	 lea	 eax, DWORD PTR [esi+16]
  000a3	50		 push	 eax
  000a4	ff 15 00 00 00
	00		 call	 DWORD PTR __imp_??4?$CStringT@DV?$StrTraitMFC_DLL@DV?$ChTraitsCRT@D@ATL@@@@@ATL@@QAEAAV01@ABV01@@Z
  000aa	8d 46 14	 lea	 eax, DWORD PTR [esi+20]
  000ad	50		 push	 eax
  000ae	8d 4d c4	 lea	 ecx, DWORD PTR _typeA$[ebp+12]
  000b1	ff 15 00 00 00
	00		 call	 DWORD PTR __imp_??4?$CStringT@DV?$StrTraitMFC_DLL@DV?$ChTraitsCRT@D@ATL@@@@@ATL@@QAEAAV01@ABV01@@Z

; 173  : 		szOpName = typeA.m_szhname;

  000b7	8d 45 c4	 lea	 eax, DWORD PTR _typeA$[ebp+12]
  000ba	50		 push	 eax
  000bb	8d 4d c8	 lea	 ecx, DWORD PTR _szOpName$[ebp]
  000be	ff 15 00 00 00
	00		 call	 DWORD PTR __imp_??4?$CStringT@DV?$StrTraitMFC_DLL@DV?$ChTraitsCRT@D@ATL@@@@@ATL@@QAEAAV01@ABV01@@Z
; File C:\Program Files (x86)\Microsoft Visual Studio\2019\Community\VC\Tools\MSVC\14.29.30133\atlmfc\include\atlsimpstr.h

; 377  : 		return( m_pszData );

  000c4	8b 75 c8	 mov	 esi, DWORD PTR _szOpName$[ebp]
; File D:\git\src\IBK\IBK_DRFN\ProjSrc\SrcDrfn\Chart\Chart_Common\CallPutHelper.h

; 175  : 		strOptName = (LPSTR)(LPCSTR)szOpName;

  000c7	8d 4d cc	 lea	 ecx, DWORD PTR _strOptName$[ebp]
  000ca	56		 push	 esi
  000cb	ff 15 00 00 00
	00		 call	 DWORD PTR __imp_??4?$CStringT@DV?$StrTraitMFC_DLL@DV?$ChTraitsCRT@D@ATL@@@@@ATL@@QAEAAV01@PBD@Z

; 176  : 		nPosOptName = strOptName.Find("");

  000d1	6a 00		 push	 0
  000d3	68 00 00 00 00	 push	 OFFSET ??_C@_04HOGOKFCN@?$LP?y?$LJ?$LA@
  000d8	8d 4d cc	 lea	 ecx, DWORD PTR _strOptName$[ebp]
  000db	ff 15 00 00 00
	00		 call	 DWORD PTR __imp_?Find@?$CStringT@DV?$StrTraitMFC_DLL@DV?$ChTraitsCRT@D@ATL@@@@@ATL@@QBEHPBDH@Z

; 177  : 		nPosCallPut = strOptName.Find("Call");

  000e1	6a 00		 push	 0
  000e3	68 00 00 00 00	 push	 OFFSET ??_C@_04CNJBKMPC@Call@
  000e8	8d 4d cc	 lea	 ecx, DWORD PTR _strOptName$[ebp]
  000eb	ff 15 00 00 00
	00		 call	 DWORD PTR __imp_?Find@?$CStringT@DV?$StrTraitMFC_DLL@DV?$ChTraitsCRT@D@ATL@@@@@ATL@@QBEHPBDH@Z

; 178  : 		if(nCodeType == 1)			// kospi200

  000f1	8b 45 0c	 mov	 eax, DWORD PTR _nCodeType$[ebp]
  000f4	83 f8 01	 cmp	 eax, 1
  000f7	75 48		 jne	 SHORT $LN6@Parsing

; 179  : 		{
; 180  : // @Solomon-->
; 181  : 			memset(pstItemData, 0x00, sizeof(ST_OPTION_ITEM_DATA));
; 182  : 			memcpy(pstItemData, strOptName, strOptName.GetLength());

  000f9	8b 45 cc	 mov	 eax, DWORD PTR _strOptName$[ebp]
  000fc	0f 57 c0	 xorps	 xmm0, xmm0
  000ff	0f 11 45 d0	 movups	 XMMWORD PTR _stItemData$[ebp], xmm0
  00103	c7 45 e8 00 00
	00 00		 mov	 DWORD PTR _stItemData$[ebp+24], 0
  0010a	66 0f d6 45 e0	 movq	 QWORD PTR _stItemData$[ebp+16], xmm0
  0010f	c6 45 ec 00	 mov	 BYTE PTR _stItemData$[ebp+28], 0
  00113	ff 70 f4	 push	 DWORD PTR [eax-12]
  00116	50		 push	 eax
  00117	8d 45 d0	 lea	 eax, DWORD PTR _stItemData$[ebp]
  0011a	50		 push	 eax
  0011b	e8 00 00 00 00	 call	 _memcpy

; 183  : 			memcpy(pstItemData->szD, (LPSTR)(LPCSTR)typeA.m_szcode, typeA.m_szcode.GetLength());

  00120	8b 45 c0	 mov	 eax, DWORD PTR _typeA$[ebp+8]
  00123	ff 70 f4	 push	 DWORD PTR [eax-12]
  00126	50		 push	 eax
  00127	8d 45 e4	 lea	 eax, DWORD PTR _stItemData$[ebp+20]
  0012a	50		 push	 eax
  0012b	e8 00 00 00 00	 call	 _memcpy
  00130	83 c4 18	 add	 esp, 24			; 00000018H

; 184  : 			pstItemData->szA[ 1] = 0;

  00133	c6 45 d1 00	 mov	 BYTE PTR _stItemData$[ebp+1], 0

; 185  : 			pstItemData->szB[ 6] = 0;

  00137	c6 45 d8 00	 mov	 BYTE PTR _stItemData$[ebp+8], 0

; 186  : 			pstItemData->szC[10] = 0;

  0013b	c6 45 e3 00	 mov	 BYTE PTR _stItemData$[ebp+19], 0

; 187  : 
; 188  : // 				if(nPosOptName == 1)
; 189  : // 				{
; 190  : // 	//				INIT_KOSPI200OPTION_ITEMDATA1(pstItemData, pszOpName);
; 191  : // 					memset(pstItemData, 0x00, sizeof(ST_OPTION_ITEM_DATA));
; 192  : // 					if(nPosCallPut > 0)	// call
; 193  : // 					{
; 194  : // 						memcpy(pstItemData->szA, &pszOpName[6], 1);
; 195  : // 						memcpy(pstItemData->szB, &pszOpName[0], 5);
; 196  : // 						memcpy(pstItemData->szC, &pszOpName[11], 5);					
; 197  : // 					}
; 198  : // 					else				// put
; 199  : // 					{
; 200  : // 						memcpy(pstItemData->szA, &pszOpName[6], 1);
; 201  : // 						memcpy(pstItemData->szB, &pszOpName[0], 5);
; 202  : // 						memcpy(pstItemData->szC, &pszOpName[10], 5);					
; 203  : // 					}
; 204  : // 					memcpy(pstItemData->szD, (LPSTR)(LPCSTR)typeA.m_szcode, typeA.m_szcode.GetLength());
; 205  : // 				}
; 206  : // 				else if(nPosOptName == 2)
; 207  : // 				{
; 208  : // 	//				INIT_KOSPI200OPTION_ITEMDATA2(pstItemData, pszOpName);
; 209  : // 					memset(pstItemData, 0x00, sizeof(ST_OPTION_ITEM_DATA));
; 210  : // 					if(nPosCallPut > 0)	// call
; 211  : // 					{
; 212  : // 						memcpy(pstItemData->szA, &pszOpName[7], 1);
; 213  : // 						memcpy(pstItemData->szB, &pszOpName[0], 6);
; 214  : // 						memcpy(pstItemData->szC, &pszOpName[12], 5);					
; 215  : // 					}
; 216  : // 					else				// put
; 217  : // 					{
; 218  : // 						memcpy(pstItemData->szA, &pszOpName[7], 1);
; 219  : // 						memcpy(pstItemData->szB, &pszOpName[0], 6);
; 220  : // 						memcpy(pstItemData->szC, &pszOpName[11], 5);					
; 221  : // 					}
; 222  : // 					memcpy(pstItemData->szD, (LPSTR)(LPCSTR)typeA.m_szcode, typeA.m_szcode.GetLength());
; 223  : // 				}
; 224  : // 	// @Solomon<--
; 225  : 		}

  0013f	eb 5a		 jmp	 SHORT $LN10@Parsing
$LN6@Parsing:

; 226  : 		else if(nCodeType == 2)		// 

  00141	83 f8 02	 cmp	 eax, 2
  00144	74 05		 je	 SHORT $LN88@Parsing

; 227  : 		{
; 228  : 			INIT_JOPTION_ITEMDATA(pstItemData, pszOpName);
; 229  : 			memcpy(pstItemData->szD, (LPSTR)(LPCSTR)typeA.m_szcode, typeA.m_szcode.GetLength());
; 230  : 		}
; 231  : 		else if(nCodeType == 3)		// 

  00146	83 f8 03	 cmp	 eax, 3
  00149	75 50		 jne	 SHORT $LN10@Parsing
$LN88@Parsing:

; 244  : 	if( m_pCurMontList && m_pCurMontList->m_szKey.Compare(pstItemData->szB)==0)

  0014b	c7 45 e8 00 00
	00 00		 mov	 DWORD PTR _stItemData$[ebp+24], 0
  00152	0f 57 c0	 xorps	 xmm0, xmm0
  00155	0f 11 45 d0	 movups	 XMMWORD PTR _stItemData$[ebp], xmm0
  00159	c6 45 ec 00	 mov	 BYTE PTR _stItemData$[ebp+28], 0
  0015d	66 0f d6 45 e0	 movq	 QWORD PTR _stItemData$[ebp+16], xmm0
  00162	8a 46 0b	 mov	 al, BYTE PTR [esi+11]
  00165	88 45 d0	 mov	 BYTE PTR _stItemData$[ebp], al
  00168	8b 46 0d	 mov	 eax, DWORD PTR [esi+13]
  0016b	89 45 d2	 mov	 DWORD PTR _stItemData$[ebp+2], eax
  0016e	0f b7 46 11	 movzx	 eax, WORD PTR [esi+17]
  00172	66 89 45 d6	 mov	 WORD PTR _stItemData$[ebp+6], ax
  00176	f3 0f 7e 46 14	 movq	 xmm0, QWORD PTR [esi+20]
  0017b	66 0f d6 45 d9	 movq	 QWORD PTR _stItemData$[ebp+9], xmm0
  00180	0f b7 46 1c	 movzx	 eax, WORD PTR [esi+28]
  00184	66 89 45 e1	 mov	 WORD PTR _stItemData$[ebp+17], ax
  00188	8b 45 c0	 mov	 eax, DWORD PTR _typeA$[ebp+8]
  0018b	ff 70 f4	 push	 DWORD PTR [eax-12]
  0018e	50		 push	 eax
  0018f	8d 45 e4	 lea	 eax, DWORD PTR _stItemData$[ebp+20]
  00192	50		 push	 eax
  00193	e8 00 00 00 00	 call	 _memcpy
  00198	83 c4 0c	 add	 esp, 12			; 0000000cH
$LN10@Parsing:
  0019b	8b 4f 1c	 mov	 ecx, DWORD PTR [edi+28]
  0019e	85 c9		 test	 ecx, ecx
  001a0	74 16		 je	 SHORT $LN56@Parsing
  001a2	8d 45 d2	 lea	 eax, DWORD PTR _stItemData$[ebp+2]
  001a5	50		 push	 eax
  001a6	ff 15 00 00 00
	00		 call	 DWORD PTR __imp_?Compare@?$CStringT@DV?$StrTraitMFC_DLL@DV?$ChTraitsCRT@D@ATL@@@@@ATL@@QBEHPBD@Z
  001ac	85 c0		 test	 eax, eax
  001ae	75 08		 jne	 SHORT $LN56@Parsing

; 245  : 	{
; 246  : 		return m_pCurMontList->fnDataToList(pstItemData);

  001b0	8b 4f 1c	 mov	 ecx, DWORD PTR [edi+28]
  001b3	e9 96 00 00 00	 jmp	 $LN89@Parsing
$LN56@Parsing:

; 275  : 	for(POSITION pos=m_ListData.GetHeadPosition(); pos;)

  001b8	8b 7f 04	 mov	 edi, DWORD PTR [edi+4]
  001bb	85 ff		 test	 edi, edi
  001bd	74 1a		 je	 SHORT $LN61@Parsing
  001bf	90		 npad	 1
$LL60@Parsing:

; 276  : 	{
; 277  : 		CCallPutIMonthData* pItem = m_ListData.GetNext(pos);

  001c0	8b 77 08	 mov	 esi, DWORD PTR [edi+8]

; 278  : 		if( pItem->m_szKey.Compare(pstItemData->szB)==0)

  001c3	8d 45 d2	 lea	 eax, DWORD PTR _stItemData$[ebp+2]
; File C:\Program Files (x86)\Microsoft Visual Studio\2019\Community\VC\Tools\MSVC\14.29.30133\atlmfc\include\afxtempl.h

; 813  : 		rPosition = (POSITION) pNode->pNext;

  001c6	8b 3f		 mov	 edi, DWORD PTR [edi]
; File D:\git\src\IBK\IBK_DRFN\ProjSrc\SrcDrfn\Chart\Chart_Common\CallPutHelper.h

; 278  : 		if( pItem->m_szKey.Compare(pstItemData->szB)==0)

  001c8	8b ce		 mov	 ecx, esi
  001ca	50		 push	 eax
  001cb	ff 15 00 00 00
	00		 call	 DWORD PTR __imp_?Compare@?$CStringT@DV?$StrTraitMFC_DLL@DV?$ChTraitsCRT@D@ATL@@@@@ATL@@QBEHPBD@Z
  001d1	85 c0		 test	 eax, eax
  001d3	74 52		 je	 SHORT $LN82@Parsing

; 254  : 	}
; 255  : 	return FALSE;
; 256  : }
; 257  : 
; 258  : //   .
; 259  : inline CCallPutIMonthData* CCallPutIHelper::FindItemData(LPCSTR szMonth)
; 260  : {
; 261  : 	for(POSITION pos=m_ListData.GetHeadPosition(); pos;)
; 262  : 	{
; 263  : 		CCallPutIMonthData* pItem = m_ListData.GetNext(pos);
; 264  : 		if( pItem->m_szKey.Compare(szMonth)==0)
; 265  : 		{
; 266  : 			return pItem;
; 267  : 		}
; 268  : 	}
; 269  : 	return NULL;
; 270  : }
; 271  : 
; 272  : //     .
; 273  : inline CCallPutIMonthData* CCallPutIHelper::FindItemData(ST_OPTION_ITEM_DATA* pstItemData)
; 274  : {
; 275  : 	for(POSITION pos=m_ListData.GetHeadPosition(); pos;)

  001d5	85 ff		 test	 edi, edi
  001d7	75 e7		 jne	 SHORT $LL60@Parsing
$LN61@Parsing:

; 284  : 	CCallPutIMonthData* pItem = new CCallPutIMonthData;

  001d9	6a 20		 push	 32			; 00000020H
  001db	e8 00 00 00 00	 call	 ??2@YAPAXI@Z		; operator new
  001e0	8b f0		 mov	 esi, eax
  001e2	83 c4 04	 add	 esp, 4
  001e5	89 75 a8	 mov	 DWORD PTR $T2[ebp], esi
  001e8	85 f6		 test	 esi, esi
  001ea	74 40		 je	 SHORT $LN65@Parsing
  001ec	8b ce		 mov	 ecx, esi
  001ee	ff 15 00 00 00
	00		 call	 DWORD PTR __imp_??0?$CStringT@DV?$StrTraitMFC_DLL@DV?$ChTraitsCRT@D@ATL@@@@@ATL@@QAE@XZ
; File C:\Program Files (x86)\Microsoft Visual Studio\2019\Community\VC\Tools\MSVC\14.29.30133\atlmfc\include\afxtempl.h

; 851  : {

  001f4	c7 46 04 00 00
	00 00		 mov	 DWORD PTR [esi+4], OFFSET ??_7?$CList@PAVCCallPutItemData@@PAV1@@@6B@

; 852  : 	ASSERT(nBlockSize > 0);
; 853  : 
; 854  : 	m_nCount = 0;

  001fb	c7 46 10 00 00
	00 00		 mov	 DWORD PTR [esi+16], 0

; 855  : 	m_pNodeHead = m_pNodeTail = m_pNodeFree = NULL;

  00202	c7 46 14 00 00
	00 00		 mov	 DWORD PTR [esi+20], 0
  00209	c7 46 0c 00 00
	00 00		 mov	 DWORD PTR [esi+12], 0
  00210	c7 46 08 00 00
	00 00		 mov	 DWORD PTR [esi+8], 0

; 856  : 	m_pBlocks = NULL;

  00217	c7 46 18 00 00
	00 00		 mov	 DWORD PTR [esi+24], 0

; 857  : 	m_nBlockSize = nBlockSize;

  0021e	c7 46 1c 0a 00
	00 00		 mov	 DWORD PTR [esi+28], 10	; 0000000aH
; File D:\git\src\IBK\IBK_DRFN\ProjSrc\SrcDrfn\Chart\Chart_Common\CallPutHelper.h

; 284  : 	CCallPutIMonthData* pItem = new CCallPutIMonthData;

  00225	eb 07		 jmp	 SHORT $LN66@Parsing
$LN82@Parsing:

; 279  : 		{
; 280  : 			return pItem;

  00227	8b 7d b4	 mov	 edi, DWORD PTR _this$GSCopy$1$[ebp]
  0022a	eb 19		 jmp	 SHORT $LN59@Parsing
$LN65@Parsing:

; 284  : 	CCallPutIMonthData* pItem = new CCallPutIMonthData;

  0022c	33 f6		 xor	 esi, esi
$LN66@Parsing:

; 285  : 	pItem->m_szKey = pstItemData->szB;

  0022e	8d 45 d2	 lea	 eax, DWORD PTR _stItemData$[ebp+2]
  00231	8b ce		 mov	 ecx, esi
  00233	50		 push	 eax
  00234	ff 15 00 00 00
	00		 call	 DWORD PTR __imp_??4?$CStringT@DV?$StrTraitMFC_DLL@DV?$ChTraitsCRT@D@ATL@@@@@ATL@@QAEAAV01@PBD@Z

; 286  : 
; 287  : 	m_ListData.AddTail(pItem);

  0023a	8b 7d b4	 mov	 edi, DWORD PTR _this$GSCopy$1$[ebp]
  0023d	8b cf		 mov	 ecx, edi
  0023f	56		 push	 esi
  00240	e8 00 00 00 00	 call	 ?AddTail@?$CList@PAVCCallPutIMonthData@@PAV1@@@QAEPAU__POSITION@@PAVCCallPutIMonthData@@@Z ; CList<CCallPutIMonthData *,CCallPutIMonthData *>::AddTail
$LN59@Parsing:

; 250  : 	if(pItemData)

  00245	85 f6		 test	 esi, esi
  00247	74 0e		 je	 SHORT $LN57@Parsing

; 251  : 	{
; 252  : 		m_pCurMontList = pItemData;

  00249	89 77 1c	 mov	 DWORD PTR [edi+28], esi

; 253  : 		return m_pCurMontList->fnDataToList(pstItemData);

  0024c	8b ce		 mov	 ecx, esi
$LN89@Parsing:

; 169  : 	int nPosCallPut = -1;
; 170  : 	for(POSITION pos = pCodeType->GetHeadPosition(); pos;)

  0024e	8d 45 d0	 lea	 eax, DWORD PTR _stItemData$[ebp]
  00251	50		 push	 eax
  00252	e8 00 00 00 00	 call	 ?fnDataToList@CCallPutIMonthData@@QAEHPAUST_OPTION_ITEM_DATA@@@Z ; CCallPutIMonthData::fnDataToList
$LN57@Parsing:
  00257	8b 45 b0	 mov	 eax, DWORD PTR _pos$1$[ebp]
  0025a	85 c0		 test	 eax, eax
  0025c	0f 85 2e fe ff
	ff		 jne	 $LL2@Parsing
$LN3@Parsing:

; 232  : 		{
; 233  : 			INIT_JOPTION_ITEMDATA(pstItemData, pszOpName);
; 234  : 			memcpy(pstItemData->szD, (LPSTR)(LPCSTR)typeA.m_szcode, typeA.m_szcode.GetLength());
; 235  : 		}
; 236  : 
; 237  : 		fnDataToList(pstItemData);
; 238  : 	}
; 239  : }

  00262	8d 4d ac	 lea	 ecx, DWORD PTR _strCallPut$[ebp]
  00265	ff 15 00 00 00
	00		 call	 DWORD PTR __imp_??1?$CStringT@DV?$StrTraitMFC_DLL@DV?$ChTraitsCRT@D@ATL@@@@@ATL@@QAE@XZ
  0026b	8d 4d cc	 lea	 ecx, DWORD PTR _strOptName$[ebp]
  0026e	ff 15 00 00 00
	00		 call	 DWORD PTR __imp_??1?$CStringT@DV?$StrTraitMFC_DLL@DV?$ChTraitsCRT@D@ATL@@@@@ATL@@QAE@XZ
  00274	8d 4d c8	 lea	 ecx, DWORD PTR _szOpName$[ebp]
  00277	ff 15 00 00 00
	00		 call	 DWORD PTR __imp_??1?$CStringT@DV?$StrTraitMFC_DLL@DV?$ChTraitsCRT@D@ATL@@@@@ATL@@QAE@XZ
  0027d	8d 4d c4	 lea	 ecx, DWORD PTR _typeA$[ebp+12]
  00280	ff 15 00 00 00
	00		 call	 DWORD PTR __imp_??1?$CStringT@DV?$StrTraitMFC_DLL@DV?$ChTraitsCRT@D@ATL@@@@@ATL@@QAE@XZ
  00286	8d 4d c0	 lea	 ecx, DWORD PTR _typeA$[ebp+8]
  00289	ff 15 00 00 00
	00		 call	 DWORD PTR __imp_??1?$CStringT@DV?$StrTraitMFC_DLL@DV?$ChTraitsCRT@D@ATL@@@@@ATL@@QAE@XZ
$LN78@Parsing:
  0028f	8b 4d f4	 mov	 ecx, DWORD PTR __$EHRec$[ebp]
  00292	64 89 0d 00 00
	00 00		 mov	 DWORD PTR fs:0, ecx
  00299	59		 pop	 ecx
  0029a	5f		 pop	 edi
  0029b	5e		 pop	 esi
  0029c	8b 4d f0	 mov	 ecx, DWORD PTR __$ArrayPad$[ebp]
  0029f	33 cd		 xor	 ecx, ebp
  002a1	e8 00 00 00 00	 call	 @__security_check_cookie@4
  002a6	8b e5		 mov	 esp, ebp
  002a8	5d		 pop	 ebp
  002a9	c2 08 00	 ret	 8
_TEXT	ENDS
;	COMDAT text$x
text$x	SEGMENT
__unwindfunclet$?Parsing@CCallPutIHelper@@QAEXPAV?$CList@VCCodeTypeA@@V1@@@H@Z$0:
  00000	8d 4d b8	 lea	 ecx, DWORD PTR _typeA$[ebp]
  00003	e9 00 00 00 00	 jmp	 ??1CCodeTypeA@@QAE@XZ
__unwindfunclet$?Parsing@CCallPutIHelper@@QAEXPAV?$CList@VCCodeTypeA@@V1@@@H@Z$1:
  00008	8d 4d c8	 lea	 ecx, DWORD PTR _szOpName$[ebp]
  0000b	ff 25 00 00 00
	00		 jmp	 DWORD PTR __imp_??1?$CStringT@DV?$StrTraitMFC_DLL@DV?$ChTraitsCRT@D@ATL@@@@@ATL@@QAE@XZ
__unwindfunclet$?Parsing@CCallPutIHelper@@QAEXPAV?$CList@VCCodeTypeA@@V1@@@H@Z$2:
  00011	8d 4d cc	 lea	 ecx, DWORD PTR _strOptName$[ebp]
  00014	ff 25 00 00 00
	00		 jmp	 DWORD PTR __imp_??1?$CStringT@DV?$StrTraitMFC_DLL@DV?$ChTraitsCRT@D@ATL@@@@@ATL@@QAE@XZ
__unwindfunclet$?Parsing@CCallPutIHelper@@QAEXPAV?$CList@VCCodeTypeA@@V1@@@H@Z$3:
  0001a	8d 4d ac	 lea	 ecx, DWORD PTR _strCallPut$[ebp]
  0001d	ff 25 00 00 00
	00		 jmp	 DWORD PTR __imp_??1?$CStringT@DV?$StrTraitMFC_DLL@DV?$ChTraitsCRT@D@ATL@@@@@ATL@@QAE@XZ
  00023	cc		 int	 3
  00024	cc		 int	 3
  00025	cc		 int	 3
  00026	cc		 int	 3
  00027	cc		 int	 3
__ehhandler$?Parsing@CCallPutIHelper@@QAEXPAV?$CList@VCCodeTypeA@@V1@@@H@Z:
  00028	90		 npad	 1
  00029	90		 npad	 1
  0002a	8b 54 24 08	 mov	 edx, DWORD PTR [esp+8]
  0002e	8d 42 0c	 lea	 eax, DWORD PTR [edx+12]
  00031	8b 4a a8	 mov	 ecx, DWORD PTR [edx-88]
  00034	33 c8		 xor	 ecx, eax
  00036	e8 00 00 00 00	 call	 @__security_check_cookie@4
  0003b	8b 4a fc	 mov	 ecx, DWORD PTR [edx-4]
  0003e	33 c8		 xor	 ecx, eax
  00040	e8 00 00 00 00	 call	 @__security_check_cookie@4
  00045	b8 00 00 00 00	 mov	 eax, OFFSET __ehfuncinfo$?Parsing@CCallPutIHelper@@QAEXPAV?$CList@VCCodeTypeA@@V1@@@H@Z
  0004a	e9 00 00 00 00	 jmp	 ___CxxFrameHandler3
text$x	ENDS
?Parsing@CCallPutIHelper@@QAEXPAV?$CList@VCCodeTypeA@@V1@@@H@Z ENDP ; CCallPutIHelper::Parsing
; Function compile flags: /Ogtp
; File C:\Program Files (x86)\Microsoft Visual Studio\2019\Community\VC\Tools\MSVC\14.29.30133\atlmfc\include\afxtempl.h
; File C:\Program Files (x86)\Microsoft Visual Studio\2019\Community\VC\Tools\MSVC\14.29.30133\atlmfc\include\afx.inl
;	COMDAT ??_G?$CList@PAVCCallPutIMonthData@@PAV1@@@UAEPAXI@Z
_TEXT	SEGMENT
__$EHRec$ = -12						; size = 12
___flags$ = 8						; size = 4
??_G?$CList@PAVCCallPutIMonthData@@PAV1@@@UAEPAXI@Z PROC ; CList<CCallPutIMonthData *,CCallPutIMonthData *>::`scalar deleting destructor', COMDAT
; _this$ = ecx
  00000	55		 push	 ebp
  00001	8b ec		 mov	 ebp, esp
  00003	6a ff		 push	 -1
  00005	68 00 00 00 00	 push	 __ehhandler$??_G?$CList@PAVCCallPutIMonthData@@PAV1@@@UAEPAXI@Z
  0000a	64 a1 00 00 00
	00		 mov	 eax, DWORD PTR fs:0
  00010	50		 push	 eax
  00011	56		 push	 esi
  00012	a1 00 00 00 00	 mov	 eax, DWORD PTR ___security_cookie
  00017	33 c5		 xor	 eax, ebp
  00019	50		 push	 eax
  0001a	8d 45 f4	 lea	 eax, DWORD PTR __$EHRec$[ebp]
  0001d	64 a3 00 00 00
	00		 mov	 DWORD PTR fs:0, eax
  00023	8b f1		 mov	 esi, ecx
; File C:\Program Files (x86)\Microsoft Visual Studio\2019\Community\VC\Tools\MSVC\14.29.30133\atlmfc\include\afxtempl.h

; 872  : 	m_pBlocks->FreeDataChain();

  00025	8b 4e 14	 mov	 ecx, DWORD PTR [esi+20]

; 878  : {

  00028	c7 45 fc 00 00
	00 00		 mov	 DWORD PTR __$EHRec$[ebp+8], 0
  0002f	c7 06 00 00 00
	00		 mov	 DWORD PTR [esi], OFFSET ??_7?$CList@PAVCCallPutIMonthData@@PAV1@@@6B@

; 870  : 	m_nCount = 0;

  00035	c7 46 0c 00 00
	00 00		 mov	 DWORD PTR [esi+12], 0

; 871  : 	m_pNodeHead = m_pNodeTail = m_pNodeFree = NULL;

  0003c	c7 46 10 00 00
	00 00		 mov	 DWORD PTR [esi+16], 0
  00043	c7 46 08 00 00
	00 00		 mov	 DWORD PTR [esi+8], 0
  0004a	c7 46 04 00 00
	00 00		 mov	 DWORD PTR [esi+4], 0

; 872  : 	m_pBlocks->FreeDataChain();

  00051	e8 00 00 00 00	 call	 ?FreeDataChain@CPlex@@QAEXXZ ; CPlex::FreeDataChain

; 873  : 	m_pBlocks = NULL;

  00056	8b 45 08	 mov	 eax, DWORD PTR ___flags$[ebp]
  00059	c7 46 14 00 00
	00 00		 mov	 DWORD PTR [esi+20], 0
  00060	a8 01		 test	 al, 1
  00062	74 2c		 je	 SHORT $LN22@scalar
  00064	a8 04		 test	 al, 4
  00066	75 1d		 jne	 SHORT $LN3@scalar
; File C:\Program Files (x86)\Microsoft Visual Studio\2019\Community\VC\Tools\MSVC\14.29.30133\atlmfc\include\afx.inl

; 112  : 	{ ::operator delete(p); }

  00068	56		 push	 esi
  00069	e8 00 00 00 00	 call	 ??3@YAXPAX@Z		; operator delete
  0006e	83 c4 04	 add	 esp, 4
  00071	8b c6		 mov	 eax, esi
  00073	8b 4d f4	 mov	 ecx, DWORD PTR __$EHRec$[ebp]
  00076	64 89 0d 00 00
	00 00		 mov	 DWORD PTR fs:0, ecx
  0007d	59		 pop	 ecx
  0007e	5e		 pop	 esi
  0007f	8b e5		 mov	 esp, ebp
  00081	5d		 pop	 ebp
  00082	c2 04 00	 ret	 4
$LN3@scalar:
  00085	6a 1c		 push	 28			; 0000001cH
  00087	56		 push	 esi
  00088	e8 00 00 00 00	 call	 ?__global_delete@@YAXPAXI@Z ; __global_delete
  0008d	83 c4 08	 add	 esp, 8
$LN22@scalar:
  00090	8b c6		 mov	 eax, esi
  00092	8b 4d f4	 mov	 ecx, DWORD PTR __$EHRec$[ebp]
  00095	64 89 0d 00 00
	00 00		 mov	 DWORD PTR fs:0, ecx
  0009c	59		 pop	 ecx
  0009d	5e		 pop	 esi
  0009e	8b e5		 mov	 esp, ebp
  000a0	5d		 pop	 ebp
  000a1	c2 04 00	 ret	 4
  000a4	cc		 int	 3
  000a5	cc		 int	 3
  000a6	cc		 int	 3
  000a7	cc		 int	 3
  000a8	cc		 int	 3
_TEXT	ENDS
;	COMDAT text$x
text$x	SEGMENT
__ehhandler$??_G?$CList@PAVCCallPutIMonthData@@PAV1@@@UAEPAXI@Z:
  00000	90		 npad	 1
  00001	90		 npad	 1
  00002	8b 54 24 08	 mov	 edx, DWORD PTR [esp+8]
  00006	8d 42 0c	 lea	 eax, DWORD PTR [edx+12]
  00009	8b 4a f8	 mov	 ecx, DWORD PTR [edx-8]
  0000c	33 c8		 xor	 ecx, eax
  0000e	e8 00 00 00 00	 call	 @__security_check_cookie@4
  00013	b8 00 00 00 00	 mov	 eax, OFFSET __ehfuncinfo$??_G?$CList@PAVCCallPutIMonthData@@PAV1@@@UAEPAXI@Z
  00018	e9 00 00 00 00	 jmp	 ___CxxFrameHandler3
text$x	ENDS
??_G?$CList@PAVCCallPutIMonthData@@PAV1@@@UAEPAXI@Z ENDP ; CList<CCallPutIMonthData *,CCallPutIMonthData *>::`scalar deleting destructor'
; Function compile flags: /Ogtp
; File C:\Program Files (x86)\Microsoft Visual Studio\2019\Community\VC\Tools\MSVC\14.29.30133\atlmfc\include\afxtempl.h
; File C:\Program Files (x86)\Microsoft Visual Studio\2019\Community\VC\Tools\MSVC\14.29.30133\atlmfc\include\afx.inl
; File C:\Program Files (x86)\Microsoft Visual Studio\2019\Community\VC\Tools\MSVC\14.29.30133\atlmfc\include\afxtempl.h
; File C:\Program Files (x86)\Microsoft Visual Studio\2019\Community\VC\Tools\MSVC\14.29.30133\atlmfc\include\afx.inl
; File C:\Program Files (x86)\Microsoft Visual Studio\2019\Community\VC\Tools\MSVC\14.29.30133\atlmfc\include\afxtempl.h
; File C:\Program Files (x86)\Microsoft Visual Studio\2019\Community\VC\Tools\MSVC\14.29.30133\atlmfc\include\afx.inl
; File C:\Program Files (x86)\Microsoft Visual Studio\2019\Community\VC\Tools\MSVC\14.29.30133\atlmfc\include\afxtempl.h
; File C:\Program Files (x86)\Microsoft Visual Studio\2019\Community\VC\Tools\MSVC\14.29.30133\atlmfc\include\afx.inl
; File C:\Program Files (x86)\Microsoft Visual Studio\2019\Community\VC\Tools\MSVC\14.29.30133\atlmfc\include\afxtempl.h
; File C:\Program Files (x86)\Microsoft Visual Studio\2019\Community\VC\Tools\MSVC\14.29.30133\atlmfc\include\afx.inl
; File C:\Program Files (x86)\Microsoft Visual Studio\2019\Community\VC\Tools\MSVC\14.29.30133\atlmfc\include\afxtempl.h
; File C:\Program Files (x86)\Microsoft Visual Studio\2019\Community\VC\Tools\MSVC\14.29.30133\atlmfc\include\afx.inl
; File C:\Program Files (x86)\Microsoft Visual Studio\2019\Community\VC\Tools\MSVC\14.29.30133\atlmfc\include\afxtempl.h
;	COMDAT ?Serialize@?$CList@PAVCCallPutIMonthData@@PAV1@@@UAEXAAVCArchive@@@Z
_TEXT	SEGMENT
_nNewCount$1$ = -16					; size = 4
_newData$1 = -12					; size = 4
_pData$1$ = -8						; size = 4
_pNode$1$ = -8						; size = 4
_nElementsLeft$1$ = -4					; size = 4
_this$1$ = -4						; size = 4
_ar$ = 8						; size = 4
?Serialize@?$CList@PAVCCallPutIMonthData@@PAV1@@@UAEXAAVCArchive@@@Z PROC ; CList<CCallPutIMonthData *,CCallPutIMonthData *>::Serialize, COMDAT
; _this$ = ecx

; 1169 : {

  00000	55		 push	 ebp
  00001	8b ec		 mov	 ebp, esp
  00003	83 ec 10	 sub	 esp, 16			; 00000010H
  00006	53		 push	 ebx
  00007	8b d9		 mov	 ebx, ecx
; File C:\Program Files (x86)\Microsoft Visual Studio\2019\Community\VC\Tools\MSVC\14.29.30133\atlmfc\include\afx.inl

; 212  : 	{ return (m_nMode & CArchive::load) == 0; }

  00009	8b 4d 08	 mov	 ecx, DWORD PTR _ar$[ebp]
; File C:\Program Files (x86)\Microsoft Visual Studio\2019\Community\VC\Tools\MSVC\14.29.30133\atlmfc\include\afxtempl.h

; 1169 : {

  0000c	56		 push	 esi
  0000d	57		 push	 edi
  0000e	89 5d fc	 mov	 DWORD PTR _this$1$[ebp], ebx
; File C:\Program Files (x86)\Microsoft Visual Studio\2019\Community\VC\Tools\MSVC\14.29.30133\atlmfc\include\afx.inl

; 212  : 	{ return (m_nMode & CArchive::load) == 0; }

  00011	8b 41 18	 mov	 eax, DWORD PTR [ecx+24]
  00014	f7 d0		 not	 eax
  00016	a8 01		 test	 al, 1
; File C:\Program Files (x86)\Microsoft Visual Studio\2019\Community\VC\Tools\MSVC\14.29.30133\atlmfc\include\afxtempl.h

; 1174 : 	if (ar.IsStoring())

  00018	0f 84 ae 00 00
	00		 je	 $LN7@Serialize

; 1175 : 	{
; 1176 : 		ar.WriteCount(m_nCount);

  0001e	ff 73 0c	 push	 DWORD PTR [ebx+12]
  00021	e8 00 00 00 00	 call	 ?WriteCount@CArchive@@QAEXK@Z ; CArchive::WriteCount

; 1177 : 		for (CNode* pNode = m_pNodeHead; pNode != NULL; pNode = pNode->pNext)

  00026	8b 43 04	 mov	 eax, DWORD PTR [ebx+4]
  00029	89 45 f8	 mov	 DWORD PTR _pNode$1$[ebp], eax
  0002c	85 c0		 test	 eax, eax
  0002e	0f 84 43 01 00
	00		 je	 $LN68@Serialize
$LL4@Serialize:

; 1178 : 		{
; 1179 : 			ASSERT(AfxIsValidAddress(pNode, sizeof(CNode)));
; 1180 : 			TYPE* pData;
; 1181 : 			/*
; 1182 : 			 * in some cases the & operator might be overloaded, and we cannot use it to obtain
; 1183 : 			 * the address of a given object.  We then use the following trick to get the address
; 1184 : 			 */
; 1185 : 			pData = reinterpret_cast< TYPE* >( &reinterpret_cast< int& >( static_cast< TYPE& >( pNode->data ) ) );

  00034	8d 70 08	 lea	 esi, DWORD PTR [eax+8]

; 68   : 	ENSURE(nCount == 0 || pElements != NULL);

  00037	85 f6		 test	 esi, esi
  00039	0f 84 4a 01 00
	00		 je	 $LN60@Serialize
; File C:\Program Files (x86)\Microsoft Visual Studio\2019\Community\VC\Tools\MSVC\14.29.30133\atlmfc\include\afx.inl

; 212  : 	{ return (m_nMode & CArchive::load) == 0; }

  0003f	8b 4d 08	 mov	 ecx, DWORD PTR _ar$[ebp]
  00042	8b 41 18	 mov	 eax, DWORD PTR [ecx+24]
  00045	f7 d0		 not	 eax
  00047	a8 01		 test	 al, 1
; File C:\Program Files (x86)\Microsoft Visual Studio\2019\Community\VC\Tools\MSVC\14.29.30133\atlmfc\include\afxtempl.h

; 73   : 	if (ar.IsStoring())

  00049	74 33		 je	 SHORT $LN21@Serialize

; 74   : 	{
; 75   : 		TYPE* pData;
; 76   : 		UINT_PTR nElementsLeft;
; 77   : 
; 78   : 		nElementsLeft = nCount;

  0004b	b8 01 00 00 00	 mov	 eax, 1
  00050	89 45 fc	 mov	 DWORD PTR _nElementsLeft$1$[ebp], eax
$LL16@Serialize:

; 80   : 		while( nElementsLeft > 0 )
; 81   : 		{
; 82   : 			UINT nElementsToWrite;
; 83   : 
; 84   : 			nElementsToWrite = UINT(__min(nElementsLeft, INT_MAX/sizeof(TYPE)));

  00053	bb ff ff ff 1f	 mov	 ebx, 536870911		; 1fffffffH
  00058	3b c3		 cmp	 eax, ebx
  0005a	0f 42 d8	 cmovb	 ebx, eax

; 85   : 			ar.Write(pData, nElementsToWrite*sizeof(TYPE));

  0005d	8d 3c 9d 00 00
	00 00		 lea	 edi, DWORD PTR [ebx*4]
  00064	57		 push	 edi
  00065	56		 push	 esi
  00066	e8 00 00 00 00	 call	 ?Write@CArchive@@QAEXPBXI@Z ; CArchive::Write

; 86   : 			nElementsLeft -= nElementsToWrite;

  0006b	8b 45 fc	 mov	 eax, DWORD PTR _nElementsLeft$1$[ebp]

; 87   : 			pData += nElementsToWrite;

  0006e	03 f7		 add	 esi, edi
  00070	8b 4d 08	 mov	 ecx, DWORD PTR _ar$[ebp]
  00073	2b c3		 sub	 eax, ebx
  00075	89 45 fc	 mov	 DWORD PTR _nElementsLeft$1$[ebp], eax
  00078	85 c0		 test	 eax, eax
  0007a	75 d7		 jne	 SHORT $LL16@Serialize

; 88   : 		}
; 89   : 	}

  0007c	eb 35		 jmp	 SHORT $LN2@Serialize
$LN21@Serialize:

; 90   : 	else
; 91   : 	{
; 92   : 		TYPE* pData;
; 93   : 		UINT_PTR nElementsLeft;
; 94   : 
; 95   : 		nElementsLeft = nCount;

  0007e	bf 01 00 00 00	 mov	 edi, 1
$LL18@Serialize:

; 98   : 		{
; 99   : 			UINT nElementsToRead;
; 100  : 
; 101  : 			nElementsToRead = UINT(__min(nElementsLeft, INT_MAX/sizeof(TYPE)));

  00083	bb ff ff ff 1f	 mov	 ebx, 536870911		; 1fffffffH
  00088	3b fb		 cmp	 edi, ebx
  0008a	0f 42 df	 cmovb	 ebx, edi

; 102  : 			ar.EnsureRead(pData, nElementsToRead*sizeof(TYPE));

  0008d	8d 04 9d 00 00
	00 00		 lea	 eax, DWORD PTR [ebx*4]
; File C:\Program Files (x86)\Microsoft Visual Studio\2019\Community\VC\Tools\MSVC\14.29.30133\atlmfc\include\afx.inl

; 399  : 	UINT nRead=Read(lpBuf, nCount);

  00094	50		 push	 eax
  00095	56		 push	 esi
  00096	e8 00 00 00 00	 call	 ?Read@CArchive@@QAEIPAXI@Z ; CArchive::Read

; 400  : 	if(nRead!=nCount)

  0009b	8d 0c 9d 00 00
	00 00		 lea	 ecx, DWORD PTR [ebx*4]
  000a2	3b c1		 cmp	 eax, ecx
  000a4	0f 85 d6 00 00
	00		 jne	 $LN59@Serialize
; File C:\Program Files (x86)\Microsoft Visual Studio\2019\Community\VC\Tools\MSVC\14.29.30133\atlmfc\include\afxtempl.h

; 97   : 		while( nElementsLeft > 0 )

  000aa	03 f1		 add	 esi, ecx
  000ac	8b 4d 08	 mov	 ecx, DWORD PTR _ar$[ebp]

; 103  : 			nElementsLeft -= nElementsToRead;

  000af	2b fb		 sub	 edi, ebx
  000b1	75 d0		 jne	 SHORT $LL18@Serialize
$LN2@Serialize:

; 1177 : 		for (CNode* pNode = m_pNodeHead; pNode != NULL; pNode = pNode->pNext)

  000b3	8b 45 f8	 mov	 eax, DWORD PTR _pNode$1$[ebp]
  000b6	8b 00		 mov	 eax, DWORD PTR [eax]
  000b8	89 45 f8	 mov	 DWORD PTR _pNode$1$[ebp], eax
  000bb	85 c0		 test	 eax, eax
  000bd	0f 85 71 ff ff
	ff		 jne	 $LL4@Serialize

; 1197 : 		}
; 1198 : 	}
; 1199 : }

  000c3	5f		 pop	 edi
  000c4	5e		 pop	 esi
  000c5	5b		 pop	 ebx
  000c6	8b e5		 mov	 esp, ebp
  000c8	5d		 pop	 ebp
  000c9	c2 04 00	 ret	 4
$LN7@Serialize:

; 1186 : 			SerializeElements<TYPE>(ar, pData, 1);
; 1187 : 		}
; 1188 : 	}
; 1189 : 	else
; 1190 : 	{
; 1191 : 		DWORD_PTR nNewCount = ar.ReadCount();

  000cc	e8 00 00 00 00	 call	 ?ReadCount@CArchive@@QAEKXZ ; CArchive::ReadCount

; 1192 : 		while (nNewCount--)

  000d1	85 c0		 test	 eax, eax
  000d3	0f 84 9e 00 00
	00		 je	 $LN68@Serialize
  000d9	0f 1f 80 00 00
	00 00		 npad	 7
$LL5@Serialize:
  000e0	48		 dec	 eax
  000e1	89 45 f0	 mov	 DWORD PTR _nNewCount$1$[ebp], eax
; File C:\Program Files (x86)\Microsoft Visual Studio\2019\Community\VC\Tools\MSVC\14.29.30133\atlmfc\include\afx.inl

; 212  : 	{ return (m_nMode & CArchive::load) == 0; }

  000e4	8b 45 08	 mov	 eax, DWORD PTR _ar$[ebp]
  000e7	8b 48 18	 mov	 ecx, DWORD PTR [eax+24]
  000ea	f7 d1		 not	 ecx
  000ec	f6 c1 01	 test	 cl, 1
; File C:\Program Files (x86)\Microsoft Visual Studio\2019\Community\VC\Tools\MSVC\14.29.30133\atlmfc\include\afxtempl.h

; 73   : 	if (ar.IsStoring())

  000ef	74 3a		 je	 SHORT $LN42@Serialize

; 79   : 		pData = pElements;

  000f1	8d 4d f4	 lea	 ecx, DWORD PTR _newData$1[ebp]
  000f4	bb 01 00 00 00	 mov	 ebx, 1
  000f9	89 4d f8	 mov	 DWORD PTR _pData$1$[ebp], ecx
  000fc	0f 1f 40 00	 npad	 4
$LL37@Serialize:

; 80   : 		while( nElementsLeft > 0 )
; 81   : 		{
; 82   : 			UINT nElementsToWrite;
; 83   : 
; 84   : 			nElementsToWrite = UINT(__min(nElementsLeft, INT_MAX/sizeof(TYPE)));

  00100	bf ff ff ff 1f	 mov	 edi, 536870911		; 1fffffffH
  00105	3b df		 cmp	 ebx, edi
  00107	0f 42 fb	 cmovb	 edi, ebx

; 85   : 			ar.Write(pData, nElementsToWrite*sizeof(TYPE));

  0010a	8d 34 bd 00 00
	00 00		 lea	 esi, DWORD PTR [edi*4]
  00111	56		 push	 esi
  00112	51		 push	 ecx
  00113	8b c8		 mov	 ecx, eax
  00115	e8 00 00 00 00	 call	 ?Write@CArchive@@QAEXPBXI@Z ; CArchive::Write

; 87   : 			pData += nElementsToWrite;

  0011a	8b 4d f8	 mov	 ecx, DWORD PTR _pData$1$[ebp]
  0011d	8b 45 08	 mov	 eax, DWORD PTR _ar$[ebp]
  00120	03 ce		 add	 ecx, esi
  00122	89 4d f8	 mov	 DWORD PTR _pData$1$[ebp], ecx
  00125	2b df		 sub	 ebx, edi
  00127	75 d7		 jne	 SHORT $LL37@Serialize

; 88   : 		}
; 89   : 	}

  00129	eb 36		 jmp	 SHORT $LN40@Serialize
$LN42@Serialize:

; 90   : 	else
; 91   : 	{
; 92   : 		TYPE* pData;
; 93   : 		UINT_PTR nElementsLeft;
; 94   : 
; 95   : 		nElementsLeft = nCount;

  0012b	be 01 00 00 00	 mov	 esi, 1

; 96   : 		pData = pElements;

  00130	8d 5d f4	 lea	 ebx, DWORD PTR _newData$1[ebp]
$LL39@Serialize:

; 98   : 		{
; 99   : 			UINT nElementsToRead;
; 100  : 
; 101  : 			nElementsToRead = UINT(__min(nElementsLeft, INT_MAX/sizeof(TYPE)));

  00133	bf ff ff ff 1f	 mov	 edi, 536870911		; 1fffffffH
  00138	3b f7		 cmp	 esi, edi
  0013a	0f 42 fe	 cmovb	 edi, esi

; 102  : 			ar.EnsureRead(pData, nElementsToRead*sizeof(TYPE));

  0013d	8d 0c bd 00 00
	00 00		 lea	 ecx, DWORD PTR [edi*4]
; File C:\Program Files (x86)\Microsoft Visual Studio\2019\Community\VC\Tools\MSVC\14.29.30133\atlmfc\include\afx.inl

; 399  : 	UINT nRead=Read(lpBuf, nCount);

  00144	51		 push	 ecx
  00145	53		 push	 ebx
  00146	8b c8		 mov	 ecx, eax
  00148	e8 00 00 00 00	 call	 ?Read@CArchive@@QAEIPAXI@Z ; CArchive::Read

; 400  : 	if(nRead!=nCount)

  0014d	8d 0c bd 00 00
	00 00		 lea	 ecx, DWORD PTR [edi*4]
  00154	3b c1		 cmp	 eax, ecx
  00156	75 28		 jne	 SHORT $LN59@Serialize
; File C:\Program Files (x86)\Microsoft Visual Studio\2019\Community\VC\Tools\MSVC\14.29.30133\atlmfc\include\afxtempl.h

; 104  : 			pData += nElementsToRead;

  00158	8b 45 08	 mov	 eax, DWORD PTR _ar$[ebp]
  0015b	03 d9		 add	 ebx, ecx
  0015d	2b f7		 sub	 esi, edi
  0015f	75 d2		 jne	 SHORT $LL39@Serialize
$LN40@Serialize:

; 1193 : 		{
; 1194 : 			TYPE newData[1];
; 1195 : 			SerializeElements<TYPE>(ar, newData, 1);
; 1196 : 			AddTail(newData[0]);

  00161	ff 75 f4	 push	 DWORD PTR _newData$1[ebp]
  00164	8b 4d fc	 mov	 ecx, DWORD PTR _this$1$[ebp]
  00167	e8 00 00 00 00	 call	 ?AddTail@?$CList@PAVCCallPutIMonthData@@PAV1@@@QAEPAU__POSITION@@PAVCCallPutIMonthData@@@Z ; CList<CCallPutIMonthData *,CCallPutIMonthData *>::AddTail
  0016c	8b 45 f0	 mov	 eax, DWORD PTR _nNewCount$1$[ebp]
  0016f	85 c0		 test	 eax, eax
  00171	0f 85 69 ff ff
	ff		 jne	 $LL5@Serialize
$LN68@Serialize:
  00177	5f		 pop	 edi

; 1197 : 		}
; 1198 : 	}
; 1199 : }

  00178	5e		 pop	 esi
  00179	5b		 pop	 ebx
  0017a	8b e5		 mov	 esp, ebp
  0017c	5d		 pop	 ebp
  0017d	c2 04 00	 ret	 4
$LN59@Serialize:
  00180	6a 00		 push	 0
  00182	6a 03		 push	 3
  00184	e8 00 00 00 00	 call	 ?AfxThrowArchiveException@@YGXHPBD@Z ; AfxThrowArchiveException
$LN60@Serialize:

; 68   : 	ENSURE(nCount == 0 || pElements != NULL);

  00189	e8 00 00 00 00	 call	 ?AfxThrowInvalidArgException@@YGXXZ ; AfxThrowInvalidArgException
$LN85@Serialize:
  0018e	cc		 int	 3
?Serialize@?$CList@PAVCCallPutIMonthData@@PAV1@@@UAEXAAVCArchive@@@Z ENDP ; CList<CCallPutIMonthData *,CCallPutIMonthData *>::Serialize
_TEXT	ENDS
; Function compile flags: /Ogtp
; File C:\Program Files (x86)\Microsoft Visual Studio\2019\Community\VC\Tools\MSVC\14.29.30133\atlmfc\include\afxtempl.h
;	COMDAT ??1?$CList@PAVCCallPutIMonthData@@PAV1@@@UAE@XZ
_TEXT	SEGMENT
__$EHRec$ = -12						; size = 12
??1?$CList@PAVCCallPutIMonthData@@PAV1@@@UAE@XZ PROC	; CList<CCallPutIMonthData *,CCallPutIMonthData *>::~CList<CCallPutIMonthData *,CCallPutIMonthData *>, COMDAT
; _this$ = ecx

; 878  : {

  00000	55		 push	 ebp
  00001	8b ec		 mov	 ebp, esp
  00003	6a ff		 push	 -1
  00005	68 00 00 00 00	 push	 __ehhandler$??1?$CList@PAVCCallPutIMonthData@@PAV1@@@UAE@XZ
  0000a	64 a1 00 00 00
	00		 mov	 eax, DWORD PTR fs:0
  00010	50		 push	 eax
  00011	56		 push	 esi
  00012	a1 00 00 00 00	 mov	 eax, DWORD PTR ___security_cookie
  00017	33 c5		 xor	 eax, ebp
  00019	50		 push	 eax
  0001a	8d 45 f4	 lea	 eax, DWORD PTR __$EHRec$[ebp]
  0001d	64 a3 00 00 00
	00		 mov	 DWORD PTR fs:0, eax
  00023	8b f1		 mov	 esi, ecx

; 872  : 	m_pBlocks->FreeDataChain();

  00025	8b 4e 14	 mov	 ecx, DWORD PTR [esi+20]

; 878  : {

  00028	c7 06 00 00 00
	00		 mov	 DWORD PTR [esi], OFFSET ??_7?$CList@PAVCCallPutIMonthData@@PAV1@@@6B@

; 870  : 	m_nCount = 0;

  0002e	c7 46 0c 00 00
	00 00		 mov	 DWORD PTR [esi+12], 0

; 871  : 	m_pNodeHead = m_pNodeTail = m_pNodeFree = NULL;

  00035	c7 46 10 00 00
	00 00		 mov	 DWORD PTR [esi+16], 0
  0003c	c7 46 08 00 00
	00 00		 mov	 DWORD PTR [esi+8], 0
  00043	c7 46 04 00 00
	00 00		 mov	 DWORD PTR [esi+4], 0

; 872  : 	m_pBlocks->FreeDataChain();

  0004a	e8 00 00 00 00	 call	 ?FreeDataChain@CPlex@@QAEXXZ ; CPlex::FreeDataChain

; 873  : 	m_pBlocks = NULL;

  0004f	c7 46 14 00 00
	00 00		 mov	 DWORD PTR [esi+20], 0

; 879  : 	RemoveAll();
; 880  : 	ASSERT(m_nCount == 0);
; 881  : }

  00056	8b 4d f4	 mov	 ecx, DWORD PTR __$EHRec$[ebp]
  00059	64 89 0d 00 00
	00 00		 mov	 DWORD PTR fs:0, ecx
  00060	59		 pop	 ecx
  00061	5e		 pop	 esi
  00062	8b e5		 mov	 esp, ebp
  00064	5d		 pop	 ebp
  00065	c3		 ret	 0
  00066	cc		 int	 3
  00067	cc		 int	 3
  00068	cc		 int	 3
  00069	cc		 int	 3
  0006a	cc		 int	 3
_TEXT	ENDS
;	COMDAT text$x
text$x	SEGMENT
__ehhandler$??1?$CList@PAVCCallPutIMonthData@@PAV1@@@UAE@XZ:
  00000	90		 npad	 1
  00001	90		 npad	 1
  00002	8b 54 24 08	 mov	 edx, DWORD PTR [esp+8]
  00006	8d 42 0c	 lea	 eax, DWORD PTR [edx+12]
  00009	8b 4a f8	 mov	 ecx, DWORD PTR [edx-8]
  0000c	33 c8		 xor	 ecx, eax
  0000e	e8 00 00 00 00	 call	 @__security_check_cookie@4
  00013	b8 00 00 00 00	 mov	 eax, OFFSET __ehfuncinfo$??1?$CList@PAVCCallPutIMonthData@@PAV1@@@UAE@XZ
  00018	e9 00 00 00 00	 jmp	 ___CxxFrameHandler3
text$x	ENDS
??1?$CList@PAVCCallPutIMonthData@@PAV1@@@UAE@XZ ENDP	; CList<CCallPutIMonthData *,CCallPutIMonthData *>::~CList<CCallPutIMonthData *,CCallPutIMonthData *>
; Function compile flags: /Ogtp
; File C:\Program Files (x86)\Microsoft Visual Studio\2019\Community\VC\Tools\MSVC\14.29.30133\atlmfc\include\afxtempl.h
;	COMDAT ?NewNode@?$CList@PAVCCallPutIMonthData@@PAV1@@@IAEPAUCNode@1@PAU21@0@Z
_TEXT	SEGMENT
_pPrev$ = 8						; size = 4
_pNext$ = 12						; size = 4
?NewNode@?$CList@PAVCCallPutIMonthData@@PAV1@@@IAEPAUCNode@1@PAU21@0@Z PROC ; CList<CCallPutIMonthData *,CCallPutIMonthData *>::NewNode, COMDAT
; _this$ = ecx

; 901  : {

  00000	55		 push	 ebp
  00001	8b ec		 mov	 ebp, esp
  00003	56		 push	 esi
  00004	8b f1		 mov	 esi, ecx

; 902  : 	if (m_pNodeFree == NULL)

  00006	83 7e 10 00	 cmp	 DWORD PTR [esi+16], 0
  0000a	75 34		 jne	 SHORT $LN7@NewNode

; 903  : 	{
; 904  : 		// add another block
; 905  : 		CPlex* pNewBlock = CPlex::Create(m_pBlocks, m_nBlockSize,

  0000c	6a 0c		 push	 12			; 0000000cH
  0000e	ff 76 18	 push	 DWORD PTR [esi+24]
  00011	8d 46 14	 lea	 eax, DWORD PTR [esi+20]
  00014	50		 push	 eax
  00015	e8 00 00 00 00	 call	 ?Create@CPlex@@SGPAU1@AAPAU1@II@Z ; CPlex::Create

; 906  : 				 sizeof(CNode));
; 907  : 
; 908  : 		// chain them into free list
; 909  : 		CNode* pNode = (CNode*) pNewBlock->data();
; 910  : 		// free in reverse order to make it easier to debug
; 911  : 		pNode += m_nBlockSize - 1;

  0001a	8b 56 18	 mov	 edx, DWORD PTR [esi+24]
  0001d	83 c0 08	 add	 eax, 8
  00020	8d 0c 52	 lea	 ecx, DWORD PTR [edx+edx*2]
  00023	8d 04 88	 lea	 eax, DWORD PTR [eax+ecx*4]
  00026	83 c0 f4	 add	 eax, -12		; fffffff4H

; 912  : 		for (INT_PTR i = m_nBlockSize-1; i >= 0; i--, pNode--)

  00029	83 c2 ff	 add	 edx, -1
  0002c	78 12		 js	 SHORT $LN7@NewNode
  0002e	66 90		 npad	 2
$LL4@NewNode:

; 913  : 		{
; 914  : 			pNode->pNext = m_pNodeFree;

  00030	8b 4e 10	 mov	 ecx, DWORD PTR [esi+16]
  00033	89 08		 mov	 DWORD PTR [eax], ecx

; 915  : 			m_pNodeFree = pNode;

  00035	89 46 10	 mov	 DWORD PTR [esi+16], eax
  00038	83 e8 0c	 sub	 eax, 12			; 0000000cH
  0003b	83 ea 01	 sub	 edx, 1
  0003e	79 f0		 jns	 SHORT $LL4@NewNode
$LN7@NewNode:

; 916  : 		}
; 917  : 	}
; 918  : 	ENSURE(m_pNodeFree != NULL);  // we must have something

  00040	8b 46 10	 mov	 eax, DWORD PTR [esi+16]
  00043	85 c0		 test	 eax, eax
  00045	74 18		 je	 SHORT $LN17@NewNode

; 919  : 
; 920  : 	CList::CNode* pNode = m_pNodeFree;
; 921  : 	m_pNodeFree = m_pNodeFree->pNext;

  00047	8b 08		 mov	 ecx, DWORD PTR [eax]
  00049	89 4e 10	 mov	 DWORD PTR [esi+16], ecx

; 922  : 	pNode->pPrev = pPrev;

  0004c	8b 4d 08	 mov	 ecx, DWORD PTR _pPrev$[ebp]
  0004f	89 48 04	 mov	 DWORD PTR [eax+4], ecx

; 923  : 	pNode->pNext = pNext;

  00052	8b 4d 0c	 mov	 ecx, DWORD PTR _pNext$[ebp]
  00055	89 08		 mov	 DWORD PTR [eax], ecx

; 924  : 	m_nCount++;

  00057	ff 46 0c	 inc	 DWORD PTR [esi+12]

; 925  : 	ASSERT(m_nCount > 0);  // make sure we don't overflow
; 926  : 
; 927  : #pragma push_macro("new")
; 928  : #undef new
; 929  : 	::new( (void*)( &pNode->data ) ) TYPE;
; 930  : #pragma pop_macro("new")
; 931  : 	return pNode;

  0005a	5e		 pop	 esi

; 932  : }

  0005b	5d		 pop	 ebp
  0005c	c2 08 00	 ret	 8
$LN17@NewNode:

; 916  : 		}
; 917  : 	}
; 918  : 	ENSURE(m_pNodeFree != NULL);  // we must have something

  0005f	e8 00 00 00 00	 call	 ?AfxThrowInvalidArgException@@YGXXZ ; AfxThrowInvalidArgException
$LN15@NewNode:
  00064	cc		 int	 3
?NewNode@?$CList@PAVCCallPutIMonthData@@PAV1@@@IAEPAUCNode@1@PAU21@0@Z ENDP ; CList<CCallPutIMonthData *,CCallPutIMonthData *>::NewNode
_TEXT	ENDS
; Function compile flags: /Ogtp
; File C:\Program Files (x86)\Microsoft Visual Studio\2019\Community\VC\Tools\MSVC\14.29.30133\atlmfc\include\afxtempl.h
;	COMDAT ?RemoveAll@?$CList@PAVCCallPutIMonthData@@PAV1@@@QAEXXZ
_TEXT	SEGMENT
?RemoveAll@?$CList@PAVCCallPutIMonthData@@PAV1@@@QAEXXZ PROC ; CList<CCallPutIMonthData *,CCallPutIMonthData *>::RemoveAll, COMDAT
; _this$ = ecx

; 862  : {

  00000	56		 push	 esi
  00001	8b f1		 mov	 esi, ecx

; 863  : 	ASSERT_VALID(this);
; 864  : 
; 865  : 	// destroy elements
; 866  : 	CNode* pNode;
; 867  : 	for (pNode = m_pNodeHead; pNode != NULL; pNode = pNode->pNext)
; 868  : 		pNode->data.~TYPE();
; 869  : 
; 870  : 	m_nCount = 0;
; 871  : 	m_pNodeHead = m_pNodeTail = m_pNodeFree = NULL;
; 872  : 	m_pBlocks->FreeDataChain();

  00003	8b 4e 14	 mov	 ecx, DWORD PTR [esi+20]
  00006	c7 46 0c 00 00
	00 00		 mov	 DWORD PTR [esi+12], 0
  0000d	c7 46 10 00 00
	00 00		 mov	 DWORD PTR [esi+16], 0
  00014	c7 46 08 00 00
	00 00		 mov	 DWORD PTR [esi+8], 0
  0001b	c7 46 04 00 00
	00 00		 mov	 DWORD PTR [esi+4], 0
  00022	e8 00 00 00 00	 call	 ?FreeDataChain@CPlex@@QAEXXZ ; CPlex::FreeDataChain

; 873  : 	m_pBlocks = NULL;

  00027	c7 46 14 00 00
	00 00		 mov	 DWORD PTR [esi+20], 0
  0002e	5e		 pop	 esi

; 874  : }

  0002f	c3		 ret	 0
?RemoveAll@?$CList@PAVCCallPutIMonthData@@PAV1@@@QAEXXZ ENDP ; CList<CCallPutIMonthData *,CCallPutIMonthData *>::RemoveAll
_TEXT	ENDS
; Function compile flags: /Ogtp
; File C:\Program Files (x86)\Microsoft Visual Studio\2019\Community\VC\Tools\MSVC\14.29.30133\atlmfc\include\afxtempl.h
;	COMDAT ?AddTail@?$CList@PAVCCallPutIMonthData@@PAV1@@@QAEPAU__POSITION@@PAVCCallPutIMonthData@@@Z
_TEXT	SEGMENT
_newElement$ = 8					; size = 4
?AddTail@?$CList@PAVCCallPutIMonthData@@PAV1@@@QAEPAU__POSITION@@PAVCCallPutIMonthData@@@Z PROC ; CList<CCallPutIMonthData *,CCallPutIMonthData *>::AddTail, COMDAT
; _this$ = ecx

; 965  : {

  00000	55		 push	 ebp
  00001	8b ec		 mov	 ebp, esp
  00003	56		 push	 esi
  00004	8b f1		 mov	 esi, ecx
  00006	57		 push	 edi

; 902  : 	if (m_pNodeFree == NULL)

  00007	83 7e 10 00	 cmp	 DWORD PTR [esi+16], 0

; 966  : 	ASSERT_VALID(this);
; 967  : 
; 968  : 	CNode* pNewNode = NewNode(m_pNodeTail, NULL);

  0000b	8b 7e 08	 mov	 edi, DWORD PTR [esi+8]

; 902  : 	if (m_pNodeFree == NULL)

  0000e	75 32		 jne	 SHORT $LN11@AddTail

; 903  : 	{
; 904  : 		// add another block
; 905  : 		CPlex* pNewBlock = CPlex::Create(m_pBlocks, m_nBlockSize,

  00010	6a 0c		 push	 12			; 0000000cH
  00012	ff 76 18	 push	 DWORD PTR [esi+24]
  00015	8d 46 14	 lea	 eax, DWORD PTR [esi+20]
  00018	50		 push	 eax
  00019	e8 00 00 00 00	 call	 ?Create@CPlex@@SGPAU1@AAPAU1@II@Z ; CPlex::Create

; 906  : 				 sizeof(CNode));
; 907  : 
; 908  : 		// chain them into free list
; 909  : 		CNode* pNode = (CNode*) pNewBlock->data();
; 910  : 		// free in reverse order to make it easier to debug
; 911  : 		pNode += m_nBlockSize - 1;

  0001e	8b 56 18	 mov	 edx, DWORD PTR [esi+24]
  00021	83 c0 08	 add	 eax, 8
  00024	8d 4a ff	 lea	 ecx, DWORD PTR [edx-1]

; 912  : 		for (INT_PTR i = m_nBlockSize-1; i >= 0; i--, pNode--)

  00027	83 c2 ff	 add	 edx, -1
  0002a	8d 0c 49	 lea	 ecx, DWORD PTR [ecx+ecx*2]
  0002d	8d 0c 88	 lea	 ecx, DWORD PTR [eax+ecx*4]
  00030	78 10		 js	 SHORT $LN11@AddTail
$LL8@AddTail:

; 913  : 		{
; 914  : 			pNode->pNext = m_pNodeFree;

  00032	8b 46 10	 mov	 eax, DWORD PTR [esi+16]
  00035	89 01		 mov	 DWORD PTR [ecx], eax

; 915  : 			m_pNodeFree = pNode;

  00037	89 4e 10	 mov	 DWORD PTR [esi+16], ecx
  0003a	83 e9 0c	 sub	 ecx, 12			; 0000000cH
  0003d	83 ea 01	 sub	 edx, 1
  00040	79 f0		 jns	 SHORT $LL8@AddTail
$LN11@AddTail:

; 916  : 		}
; 917  : 	}
; 918  : 	ENSURE(m_pNodeFree != NULL);  // we must have something

  00042	8b 4e 10	 mov	 ecx, DWORD PTR [esi+16]
  00045	85 c9		 test	 ecx, ecx
  00047	74 39		 je	 SHORT $LN22@AddTail

; 919  : 
; 920  : 	CList::CNode* pNode = m_pNodeFree;
; 921  : 	m_pNodeFree = m_pNodeFree->pNext;

  00049	8b 01		 mov	 eax, DWORD PTR [ecx]
  0004b	89 46 10	 mov	 DWORD PTR [esi+16], eax

; 969  : 	pNewNode->data = newElement;

  0004e	8b 45 08	 mov	 eax, DWORD PTR _newElement$[ebp]

; 922  : 	pNode->pPrev = pPrev;

  00051	89 79 04	 mov	 DWORD PTR [ecx+4], edi

; 923  : 	pNode->pNext = pNext;

  00054	c7 01 00 00 00
	00		 mov	 DWORD PTR [ecx], 0

; 924  : 	m_nCount++;

  0005a	ff 46 0c	 inc	 DWORD PTR [esi+12]

; 969  : 	pNewNode->data = newElement;

  0005d	89 41 08	 mov	 DWORD PTR [ecx+8], eax

; 970  : 	if (m_pNodeTail != NULL)

  00060	8b 46 08	 mov	 eax, DWORD PTR [esi+8]
  00063	85 c0		 test	 eax, eax
  00065	74 0d		 je	 SHORT $LN2@AddTail

; 971  : 		m_pNodeTail->pNext = pNewNode;

  00067	89 08		 mov	 DWORD PTR [eax], ecx

; 972  : 	else
; 973  : 		m_pNodeHead = pNewNode;
; 974  : 	m_pNodeTail = pNewNode;
; 975  : 	return (POSITION) pNewNode;

  00069	8b c1		 mov	 eax, ecx
  0006b	5f		 pop	 edi
  0006c	89 4e 08	 mov	 DWORD PTR [esi+8], ecx
  0006f	5e		 pop	 esi

; 976  : }

  00070	5d		 pop	 ebp
  00071	c2 04 00	 ret	 4
$LN2@AddTail:

; 972  : 	else
; 973  : 		m_pNodeHead = pNewNode;
; 974  : 	m_pNodeTail = pNewNode;
; 975  : 	return (POSITION) pNewNode;

  00074	5f		 pop	 edi
  00075	89 4e 04	 mov	 DWORD PTR [esi+4], ecx
  00078	8b c1		 mov	 eax, ecx
  0007a	89 4e 08	 mov	 DWORD PTR [esi+8], ecx
  0007d	5e		 pop	 esi

; 976  : }

  0007e	5d		 pop	 ebp
  0007f	c2 04 00	 ret	 4
$LN22@AddTail:

; 918  : 	ENSURE(m_pNodeFree != NULL);  // we must have something

  00082	e8 00 00 00 00	 call	 ?AfxThrowInvalidArgException@@YGXXZ ; AfxThrowInvalidArgException
$LN20@AddTail:
  00087	cc		 int	 3
?AddTail@?$CList@PAVCCallPutIMonthData@@PAV1@@@QAEPAU__POSITION@@PAVCCallPutIMonthData@@@Z ENDP ; CList<CCallPutIMonthData *,CCallPutIMonthData *>::AddTail
_TEXT	ENDS
; Function compile flags: /Ogtp
; File C:\Program Files (x86)\Microsoft Visual Studio\2019\Community\VC\Tools\MSVC\14.29.30133\atlmfc\include\afxtempl.h
;	COMDAT ??0?$CList@PAVCCallPutIMonthData@@PAV1@@@QAE@H@Z
_TEXT	SEGMENT
_nBlockSize$ = 8					; size = 4
??0?$CList@PAVCCallPutIMonthData@@PAV1@@@QAE@H@Z PROC	; CList<CCallPutIMonthData *,CCallPutIMonthData *>::CList<CCallPutIMonthData *,CCallPutIMonthData *>, COMDAT
; _this$ = ecx

; 851  : {

  00000	55		 push	 ebp
  00001	8b ec		 mov	 ebp, esp

; 852  : 	ASSERT(nBlockSize > 0);
; 853  : 
; 854  : 	m_nCount = 0;
; 855  : 	m_pNodeHead = m_pNodeTail = m_pNodeFree = NULL;
; 856  : 	m_pBlocks = NULL;
; 857  : 	m_nBlockSize = nBlockSize;

  00003	8b 45 08	 mov	 eax, DWORD PTR _nBlockSize$[ebp]
  00006	89 41 18	 mov	 DWORD PTR [ecx+24], eax

; 858  : }

  00009	8b c1		 mov	 eax, ecx
  0000b	c7 01 00 00 00
	00		 mov	 DWORD PTR [ecx], OFFSET ??_7?$CList@PAVCCallPutIMonthData@@PAV1@@@6B@
  00011	c7 41 0c 00 00
	00 00		 mov	 DWORD PTR [ecx+12], 0
  00018	c7 41 10 00 00
	00 00		 mov	 DWORD PTR [ecx+16], 0
  0001f	c7 41 08 00 00
	00 00		 mov	 DWORD PTR [ecx+8], 0
  00026	c7 41 04 00 00
	00 00		 mov	 DWORD PTR [ecx+4], 0
  0002d	c7 41 14 00 00
	00 00		 mov	 DWORD PTR [ecx+20], 0
  00034	5d		 pop	 ebp
  00035	c2 04 00	 ret	 4
??0?$CList@PAVCCallPutIMonthData@@PAV1@@@QAE@H@Z ENDP	; CList<CCallPutIMonthData *,CCallPutIMonthData *>::CList<CCallPutIMonthData *,CCallPutIMonthData *>
_TEXT	ENDS
; Function compile flags: /Ogtp
; File D:\git\src\IBK\IBK_DRFN\ProjSrc\SrcDrfn\Chart\Chart_Common\CallPutHelper.h
; File C:\Program Files (x86)\Microsoft Visual Studio\2019\Community\VC\Tools\MSVC\14.29.30133\atlmfc\include\afxtempl.h
; File D:\git\src\IBK\IBK_DRFN\ProjSrc\SrcDrfn\Chart\Chart_Common\CallPutHelper.h
;	COMDAT ?fnDataToList@CCallPutIMonthData@@QAEHPAUST_OPTION_ITEM_DATA@@@Z
_TEXT	SEGMENT
_this$1$ = -4						; size = 4
$T1 = 8							; size = 4
_pstItemData$ = 8					; size = 4
?fnDataToList@CCallPutIMonthData@@QAEHPAUST_OPTION_ITEM_DATA@@@Z PROC ; CCallPutIMonthData::fnDataToList, COMDAT
; _this$ = ecx

; 86   : {

  00000	55		 push	 ebp
  00001	8b ec		 mov	 ebp, esp
  00003	51		 push	 ecx
  00004	53		 push	 ebx

; 87   : 	//   
; 88   : 	for(POSITION pos=m_ListData.GetHeadPosition(); pos;)

  00005	8b 5d 08	 mov	 ebx, DWORD PTR _pstItemData$[ebp]
  00008	56		 push	 esi
  00009	57		 push	 edi
  0000a	8b f9		 mov	 edi, ecx
  0000c	89 7d fc	 mov	 DWORD PTR _this$1$[ebp], edi
  0000f	8d 4b 09	 lea	 ecx, DWORD PTR [ebx+9]
  00012	8b 77 08	 mov	 esi, DWORD PTR [edi+8]
  00015	85 f6		 test	 esi, esi
  00017	74 23		 je	 SHORT $LN23@fnDataToLi
  00019	0f 1f 80 00 00
	00 00		 npad	 7
$LL2@fnDataToLi:

; 89   : 	{
; 90   : 		CCallPutItemData* pItem = m_ListData.GetNext(pos);

  00020	8b 7e 08	 mov	 edi, DWORD PTR [esi+8]
; File C:\Program Files (x86)\Microsoft Visual Studio\2019\Community\VC\Tools\MSVC\14.29.30133\atlmfc\include\afxtempl.h

; 813  : 		rPosition = (POSITION) pNode->pNext;

  00023	8b 36		 mov	 esi, DWORD PTR [esi]
; File D:\git\src\IBK\IBK_DRFN\ProjSrc\SrcDrfn\Chart\Chart_Common\CallPutHelper.h

; 91   : 		if(pItem->m_szPrice.Compare(pstItemData->szC)==0)

  00025	51		 push	 ecx
  00026	8b cf		 mov	 ecx, edi
  00028	ff 15 00 00 00
	00		 call	 DWORD PTR __imp_?Compare@?$CStringT@DV?$StrTraitMFC_DLL@DV?$ChTraitsCRT@D@ATL@@@@@ATL@@QBEHPBD@Z
  0002e	85 c0		 test	 eax, eax
  00030	74 47		 je	 SHORT $LN21@fnDataToLi

; 87   : 	//   
; 88   : 	for(POSITION pos=m_ListData.GetHeadPosition(); pos;)

  00032	8d 4b 09	 lea	 ecx, DWORD PTR [ebx+9]
  00035	85 f6		 test	 esi, esi
  00037	75 e7		 jne	 SHORT $LL2@fnDataToLi

; 91   : 		if(pItem->m_szPrice.Compare(pstItemData->szC)==0)

  00039	8b 7d fc	 mov	 edi, DWORD PTR _this$1$[ebp]
$LN23@fnDataToLi:

; 104  : 		}
; 105  : 	}
; 106  : 
; 107  : 	//   .
; 108  : 	CCallPutItemData* pItem = new CCallPutItemData;

  0003c	6a 14		 push	 20			; 00000014H
  0003e	e8 00 00 00 00	 call	 ??2@YAPAXI@Z		; operator new
  00043	8b f0		 mov	 esi, eax
  00045	83 c4 04	 add	 esp, 4
  00048	89 75 08	 mov	 DWORD PTR $T1[ebp], esi
  0004b	85 f6		 test	 esi, esi
  0004d	74 78		 je	 SHORT $LN13@fnDataToLi

; 17   : 	CCallPutItemData()

  0004f	8b ce		 mov	 ecx, esi
  00051	ff 15 00 00 00
	00		 call	 DWORD PTR __imp_??0?$CStringT@DV?$StrTraitMFC_DLL@DV?$ChTraitsCRT@D@ATL@@@@@ATL@@QAE@XZ
  00057	8d 4e 0c	 lea	 ecx, DWORD PTR [esi+12]
  0005a	ff 15 00 00 00
	00		 call	 DWORD PTR __imp_??0?$CStringT@DV?$StrTraitMFC_DLL@DV?$ChTraitsCRT@D@ATL@@@@@ATL@@QAE@XZ
  00060	8d 4e 10	 lea	 ecx, DWORD PTR [esi+16]
  00063	ff 15 00 00 00
	00		 call	 DWORD PTR __imp_??0?$CStringT@DV?$StrTraitMFC_DLL@DV?$ChTraitsCRT@D@ATL@@@@@ATL@@QAE@XZ

; 18   : 	{
; 19   : 		m_isCall = FALSE;

  00069	c7 46 04 00 00
	00 00		 mov	 DWORD PTR [esi+4], 0

; 20   : 		m_isPut = FALSE;

  00070	c7 46 08 00 00
	00 00		 mov	 DWORD PTR [esi+8], 0

; 104  : 		}
; 105  : 	}
; 106  : 
; 107  : 	//   .
; 108  : 	CCallPutItemData* pItem = new CCallPutItemData;

  00077	eb 50		 jmp	 SHORT $LN14@fnDataToLi
$LN21@fnDataToLi:

; 92   : 		{
; 93   : 			if(pstItemData->szA[0]=='C')

  00079	8a 03		 mov	 al, BYTE PTR [ebx]
  0007b	3c 43		 cmp	 al, 67			; 00000043H
  0007d	75 22		 jne	 SHORT $LN6@fnDataToLi

; 99   : 			{
; 100  : 				pItem->m_isPut = TRUE;
; 101  : 				pItem->m_strPutCode = pstItemData->szD;
; 102  : 			}
; 103  : 			return TRUE;

  0007f	8d 43 14	 lea	 eax, DWORD PTR [ebx+20]
  00082	c7 47 04 01 00
	00 00		 mov	 DWORD PTR [edi+4], 1
  00089	8d 4f 0c	 lea	 ecx, DWORD PTR [edi+12]
  0008c	50		 push	 eax
  0008d	ff 15 00 00 00
	00		 call	 DWORD PTR __imp_??4?$CStringT@DV?$StrTraitMFC_DLL@DV?$ChTraitsCRT@D@ATL@@@@@ATL@@QAEAAV01@PBD@Z
  00093	5f		 pop	 edi

; 123  : 
; 124  : 	return TRUE;
; 125  : }

  00094	5e		 pop	 esi
  00095	b8 01 00 00 00	 mov	 eax, 1
  0009a	5b		 pop	 ebx
  0009b	8b e5		 mov	 esp, ebp
  0009d	5d		 pop	 ebp
  0009e	c2 04 00	 ret	 4
$LN6@fnDataToLi:

; 94   : 			{
; 95   : 				pItem->m_isCall = TRUE;
; 96   : 				pItem->m_strCallCode = pstItemData->szD;
; 97   : 			}
; 98   : 			else if(pstItemData->szA[0]=='P')

  000a1	3c 50		 cmp	 al, 80			; 00000050H
  000a3	75 63		 jne	 SHORT $LN8@fnDataToLi

; 99   : 			{
; 100  : 				pItem->m_isPut = TRUE;
; 101  : 				pItem->m_strPutCode = pstItemData->szD;
; 102  : 			}
; 103  : 			return TRUE;

  000a5	8d 43 14	 lea	 eax, DWORD PTR [ebx+20]
  000a8	c7 47 08 01 00
	00 00		 mov	 DWORD PTR [edi+8], 1
  000af	8d 4f 10	 lea	 ecx, DWORD PTR [edi+16]
  000b2	50		 push	 eax
  000b3	ff 15 00 00 00
	00		 call	 DWORD PTR __imp_??4?$CStringT@DV?$StrTraitMFC_DLL@DV?$ChTraitsCRT@D@ATL@@@@@ATL@@QAEAAV01@PBD@Z
  000b9	5f		 pop	 edi

; 123  : 
; 124  : 	return TRUE;
; 125  : }

  000ba	5e		 pop	 esi
  000bb	b8 01 00 00 00	 mov	 eax, 1
  000c0	5b		 pop	 ebx
  000c1	8b e5		 mov	 esp, ebp
  000c3	5d		 pop	 ebp
  000c4	c2 04 00	 ret	 4
$LN13@fnDataToLi:

; 104  : 		}
; 105  : 	}
; 106  : 
; 107  : 	//   .
; 108  : 	CCallPutItemData* pItem = new CCallPutItemData;

  000c7	33 f6		 xor	 esi, esi
$LN14@fnDataToLi:

; 109  : 	pItem->m_szPrice = pstItemData->szC;

  000c9	8d 43 09	 lea	 eax, DWORD PTR [ebx+9]
  000cc	8b ce		 mov	 ecx, esi
  000ce	50		 push	 eax
  000cf	ff 15 00 00 00
	00		 call	 DWORD PTR __imp_??4?$CStringT@DV?$StrTraitMFC_DLL@DV?$ChTraitsCRT@D@ATL@@@@@ATL@@QAEAAV01@PBD@Z

; 110  : 
; 111  : 	if(pstItemData->szA[0]=='C')

  000d5	8a 03		 mov	 al, BYTE PTR [ebx]
  000d7	3c 43		 cmp	 al, 67			; 00000043H
  000d9	75 0c		 jne	 SHORT $LN9@fnDataToLi

; 112  : 	{
; 113  : 		pItem->m_isCall = TRUE;

  000db	c7 46 04 01 00
	00 00		 mov	 DWORD PTR [esi+4], 1

; 114  : 		pItem->m_strCallCode = pstItemData->szD;

  000e2	8d 4e 0c	 lea	 ecx, DWORD PTR [esi+12]

; 115  : 	}

  000e5	eb 0e		 jmp	 SHORT $LN26@fnDataToLi
$LN9@fnDataToLi:

; 116  : 	else if(pstItemData->szA[0]=='P')

  000e7	3c 50		 cmp	 al, 80			; 00000050H
  000e9	75 14		 jne	 SHORT $LN11@fnDataToLi

; 117  : 	{
; 118  : 		pItem->m_isPut = TRUE;

  000eb	c7 46 08 01 00
	00 00		 mov	 DWORD PTR [esi+8], 1

; 119  : 		pItem->m_strPutCode = pstItemData->szD;

  000f2	8d 4e 10	 lea	 ecx, DWORD PTR [esi+16]
$LN26@fnDataToLi:

; 120  : 	}
; 121  : 
; 122  : 	m_ListData.AddTail(pItem);

  000f5	8d 43 14	 lea	 eax, DWORD PTR [ebx+20]
  000f8	50		 push	 eax
  000f9	ff 15 00 00 00
	00		 call	 DWORD PTR __imp_??4?$CStringT@DV?$StrTraitMFC_DLL@DV?$ChTraitsCRT@D@ATL@@@@@ATL@@QAEAAV01@PBD@Z
$LN11@fnDataToLi:
  000ff	56		 push	 esi
  00100	8d 4f 04	 lea	 ecx, DWORD PTR [edi+4]
  00103	e8 00 00 00 00	 call	 ?AddTail@?$CList@PAVCCallPutItemData@@PAV1@@@QAEPAU__POSITION@@PAVCCallPutItemData@@@Z ; CList<CCallPutItemData *,CCallPutItemData *>::AddTail
$LN8@fnDataToLi:

; 123  : 
; 124  : 	return TRUE;
; 125  : }

  00108	5f		 pop	 edi
  00109	5e		 pop	 esi
  0010a	b8 01 00 00 00	 mov	 eax, 1
  0010f	5b		 pop	 ebx
  00110	8b e5		 mov	 esp, ebp
  00112	5d		 pop	 ebp
  00113	c2 04 00	 ret	 4
?fnDataToList@CCallPutIMonthData@@QAEHPAUST_OPTION_ITEM_DATA@@@Z ENDP ; CCallPutIMonthData::fnDataToList
_TEXT	ENDS
; Function compile flags: /Ogtp
; File C:\Program Files (x86)\Microsoft Visual Studio\2019\Community\VC\Tools\MSVC\14.29.30133\atlmfc\include\afxtempl.h
; File C:\Program Files (x86)\Microsoft Visual Studio\2019\Community\VC\Tools\MSVC\14.29.30133\atlmfc\include\afx.inl
;	COMDAT ??_G?$CList@PAVCCallPutItemData@@PAV1@@@UAEPAXI@Z
_TEXT	SEGMENT
__$EHRec$ = -12						; size = 12
___flags$ = 8						; size = 4
??_G?$CList@PAVCCallPutItemData@@PAV1@@@UAEPAXI@Z PROC	; CList<CCallPutItemData *,CCallPutItemData *>::`scalar deleting destructor', COMDAT
; _this$ = ecx
  00000	55		 push	 ebp
  00001	8b ec		 mov	 ebp, esp
  00003	6a ff		 push	 -1
  00005	68 00 00 00 00	 push	 __ehhandler$??_G?$CList@PAVCCallPutItemData@@PAV1@@@UAEPAXI@Z
  0000a	64 a1 00 00 00
	00		 mov	 eax, DWORD PTR fs:0
  00010	50		 push	 eax
  00011	56		 push	 esi
  00012	a1 00 00 00 00	 mov	 eax, DWORD PTR ___security_cookie
  00017	33 c5		 xor	 eax, ebp
  00019	50		 push	 eax
  0001a	8d 45 f4	 lea	 eax, DWORD PTR __$EHRec$[ebp]
  0001d	64 a3 00 00 00
	00		 mov	 DWORD PTR fs:0, eax
  00023	8b f1		 mov	 esi, ecx
; File C:\Program Files (x86)\Microsoft Visual Studio\2019\Community\VC\Tools\MSVC\14.29.30133\atlmfc\include\afxtempl.h

; 872  : 	m_pBlocks->FreeDataChain();

  00025	8b 4e 14	 mov	 ecx, DWORD PTR [esi+20]

; 878  : {

  00028	c7 45 fc 00 00
	00 00		 mov	 DWORD PTR __$EHRec$[ebp+8], 0
  0002f	c7 06 00 00 00
	00		 mov	 DWORD PTR [esi], OFFSET ??_7?$CList@PAVCCallPutItemData@@PAV1@@@6B@

; 870  : 	m_nCount = 0;

  00035	c7 46 0c 00 00
	00 00		 mov	 DWORD PTR [esi+12], 0

; 871  : 	m_pNodeHead = m_pNodeTail = m_pNodeFree = NULL;

  0003c	c7 46 10 00 00
	00 00		 mov	 DWORD PTR [esi+16], 0
  00043	c7 46 08 00 00
	00 00		 mov	 DWORD PTR [esi+8], 0
  0004a	c7 46 04 00 00
	00 00		 mov	 DWORD PTR [esi+4], 0

; 872  : 	m_pBlocks->FreeDataChain();

  00051	e8 00 00 00 00	 call	 ?FreeDataChain@CPlex@@QAEXXZ ; CPlex::FreeDataChain

; 873  : 	m_pBlocks = NULL;

  00056	8b 45 08	 mov	 eax, DWORD PTR ___flags$[ebp]
  00059	c7 46 14 00 00
	00 00		 mov	 DWORD PTR [esi+20], 0
  00060	a8 01		 test	 al, 1
  00062	74 2c		 je	 SHORT $LN22@scalar
  00064	a8 04		 test	 al, 4
  00066	75 1d		 jne	 SHORT $LN3@scalar
; File C:\Program Files (x86)\Microsoft Visual Studio\2019\Community\VC\Tools\MSVC\14.29.30133\atlmfc\include\afx.inl

; 112  : 	{ ::operator delete(p); }

  00068	56		 push	 esi
  00069	e8 00 00 00 00	 call	 ??3@YAXPAX@Z		; operator delete
  0006e	83 c4 04	 add	 esp, 4
  00071	8b c6		 mov	 eax, esi
  00073	8b 4d f4	 mov	 ecx, DWORD PTR __$EHRec$[ebp]
  00076	64 89 0d 00 00
	00 00		 mov	 DWORD PTR fs:0, ecx
  0007d	59		 pop	 ecx
  0007e	5e		 pop	 esi
  0007f	8b e5		 mov	 esp, ebp
  00081	5d		 pop	 ebp
  00082	c2 04 00	 ret	 4
$LN3@scalar:
  00085	6a 1c		 push	 28			; 0000001cH
  00087	56		 push	 esi
  00088	e8 00 00 00 00	 call	 ?__global_delete@@YAXPAXI@Z ; __global_delete
  0008d	83 c4 08	 add	 esp, 8
$LN22@scalar:
  00090	8b c6		 mov	 eax, esi
  00092	8b 4d f4	 mov	 ecx, DWORD PTR __$EHRec$[ebp]
  00095	64 89 0d 00 00
	00 00		 mov	 DWORD PTR fs:0, ecx
  0009c	59		 pop	 ecx
  0009d	5e		 pop	 esi
  0009e	8b e5		 mov	 esp, ebp
  000a0	5d		 pop	 ebp
  000a1	c2 04 00	 ret	 4
  000a4	cc		 int	 3
  000a5	cc		 int	 3
  000a6	cc		 int	 3
  000a7	cc		 int	 3
  000a8	cc		 int	 3
_TEXT	ENDS
;	COMDAT text$x
text$x	SEGMENT
__ehhandler$??_G?$CList@PAVCCallPutItemData@@PAV1@@@UAEPAXI@Z:
  00000	90		 npad	 1
  00001	90		 npad	 1
  00002	8b 54 24 08	 mov	 edx, DWORD PTR [esp+8]
  00006	8d 42 0c	 lea	 eax, DWORD PTR [edx+12]
  00009	8b 4a f8	 mov	 ecx, DWORD PTR [edx-8]
  0000c	33 c8		 xor	 ecx, eax
  0000e	e8 00 00 00 00	 call	 @__security_check_cookie@4
  00013	b8 00 00 00 00	 mov	 eax, OFFSET __ehfuncinfo$??_G?$CList@PAVCCallPutItemData@@PAV1@@@UAEPAXI@Z
  00018	e9 00 00 00 00	 jmp	 ___CxxFrameHandler3
text$x	ENDS
??_G?$CList@PAVCCallPutItemData@@PAV1@@@UAEPAXI@Z ENDP	; CList<CCallPutItemData *,CCallPutItemData *>::`scalar deleting destructor'
; Function compile flags: /Ogtp
; File C:\Program Files (x86)\Microsoft Visual Studio\2019\Community\VC\Tools\MSVC\14.29.30133\atlmfc\include\afxtempl.h
; File C:\Program Files (x86)\Microsoft Visual Studio\2019\Community\VC\Tools\MSVC\14.29.30133\atlmfc\include\afx.inl
; File C:\Program Files (x86)\Microsoft Visual Studio\2019\Community\VC\Tools\MSVC\14.29.30133\atlmfc\include\afxtempl.h
; File C:\Program Files (x86)\Microsoft Visual Studio\2019\Community\VC\Tools\MSVC\14.29.30133\atlmfc\include\afx.inl
; File C:\Program Files (x86)\Microsoft Visual Studio\2019\Community\VC\Tools\MSVC\14.29.30133\atlmfc\include\afxtempl.h
; File C:\Program Files (x86)\Microsoft Visual Studio\2019\Community\VC\Tools\MSVC\14.29.30133\atlmfc\include\afx.inl
; File C:\Program Files (x86)\Microsoft Visual Studio\2019\Community\VC\Tools\MSVC\14.29.30133\atlmfc\include\afxtempl.h
; File C:\Program Files (x86)\Microsoft Visual Studio\2019\Community\VC\Tools\MSVC\14.29.30133\atlmfc\include\afx.inl
; File C:\Program Files (x86)\Microsoft Visual Studio\2019\Community\VC\Tools\MSVC\14.29.30133\atlmfc\include\afxtempl.h
; File C:\Program Files (x86)\Microsoft Visual Studio\2019\Community\VC\Tools\MSVC\14.29.30133\atlmfc\include\afx.inl
; File C:\Program Files (x86)\Microsoft Visual Studio\2019\Community\VC\Tools\MSVC\14.29.30133\atlmfc\include\afxtempl.h
; File C:\Program Files (x86)\Microsoft Visual Studio\2019\Community\VC\Tools\MSVC\14.29.30133\atlmfc\include\afx.inl
; File C:\Program Files (x86)\Microsoft Visual Studio\2019\Community\VC\Tools\MSVC\14.29.30133\atlmfc\include\afxtempl.h
;	COMDAT ?Serialize@?$CList@PAVCCallPutItemData@@PAV1@@@UAEXAAVCArchive@@@Z
_TEXT	SEGMENT
_nNewCount$1$ = -16					; size = 4
_newData$1 = -12					; size = 4
_pData$1$ = -8						; size = 4
_pNode$1$ = -8						; size = 4
_nElementsLeft$1$ = -4					; size = 4
_this$1$ = -4						; size = 4
_ar$ = 8						; size = 4
?Serialize@?$CList@PAVCCallPutItemData@@PAV1@@@UAEXAAVCArchive@@@Z PROC ; CList<CCallPutItemData *,CCallPutItemData *>::Serialize, COMDAT
; _this$ = ecx

; 1169 : {

  00000	55		 push	 ebp
  00001	8b ec		 mov	 ebp, esp
  00003	83 ec 10	 sub	 esp, 16			; 00000010H
  00006	53		 push	 ebx
  00007	8b d9		 mov	 ebx, ecx
; File C:\Program Files (x86)\Microsoft Visual Studio\2019\Community\VC\Tools\MSVC\14.29.30133\atlmfc\include\afx.inl

; 212  : 	{ return (m_nMode & CArchive::load) == 0; }

  00009	8b 4d 08	 mov	 ecx, DWORD PTR _ar$[ebp]
; File C:\Program Files (x86)\Microsoft Visual Studio\2019\Community\VC\Tools\MSVC\14.29.30133\atlmfc\include\afxtempl.h

; 1169 : {

  0000c	56		 push	 esi
  0000d	57		 push	 edi
  0000e	89 5d fc	 mov	 DWORD PTR _this$1$[ebp], ebx
; File C:\Program Files (x86)\Microsoft Visual Studio\2019\Community\VC\Tools\MSVC\14.29.30133\atlmfc\include\afx.inl

; 212  : 	{ return (m_nMode & CArchive::load) == 0; }

  00011	8b 41 18	 mov	 eax, DWORD PTR [ecx+24]
  00014	f7 d0		 not	 eax
  00016	a8 01		 test	 al, 1
; File C:\Program Files (x86)\Microsoft Visual Studio\2019\Community\VC\Tools\MSVC\14.29.30133\atlmfc\include\afxtempl.h

; 1174 : 	if (ar.IsStoring())

  00018	0f 84 ae 00 00
	00		 je	 $LN7@Serialize

; 1175 : 	{
; 1176 : 		ar.WriteCount(m_nCount);

  0001e	ff 73 0c	 push	 DWORD PTR [ebx+12]
  00021	e8 00 00 00 00	 call	 ?WriteCount@CArchive@@QAEXK@Z ; CArchive::WriteCount

; 1177 : 		for (CNode* pNode = m_pNodeHead; pNode != NULL; pNode = pNode->pNext)

  00026	8b 43 04	 mov	 eax, DWORD PTR [ebx+4]
  00029	89 45 f8	 mov	 DWORD PTR _pNode$1$[ebp], eax
  0002c	85 c0		 test	 eax, eax
  0002e	0f 84 43 01 00
	00		 je	 $LN68@Serialize
$LL4@Serialize:

; 1178 : 		{
; 1179 : 			ASSERT(AfxIsValidAddress(pNode, sizeof(CNode)));
; 1180 : 			TYPE* pData;
; 1181 : 			/*
; 1182 : 			 * in some cases the & operator might be overloaded, and we cannot use it to obtain
; 1183 : 			 * the address of a given object.  We then use the following trick to get the address
; 1184 : 			 */
; 1185 : 			pData = reinterpret_cast< TYPE* >( &reinterpret_cast< int& >( static_cast< TYPE& >( pNode->data ) ) );

  00034	8d 70 08	 lea	 esi, DWORD PTR [eax+8]

; 68   : 	ENSURE(nCount == 0 || pElements != NULL);

  00037	85 f6		 test	 esi, esi
  00039	0f 84 4a 01 00
	00		 je	 $LN60@Serialize
; File C:\Program Files (x86)\Microsoft Visual Studio\2019\Community\VC\Tools\MSVC\14.29.30133\atlmfc\include\afx.inl

; 212  : 	{ return (m_nMode & CArchive::load) == 0; }

  0003f	8b 4d 08	 mov	 ecx, DWORD PTR _ar$[ebp]
  00042	8b 41 18	 mov	 eax, DWORD PTR [ecx+24]
  00045	f7 d0		 not	 eax
  00047	a8 01		 test	 al, 1
; File C:\Program Files (x86)\Microsoft Visual Studio\2019\Community\VC\Tools\MSVC\14.29.30133\atlmfc\include\afxtempl.h

; 73   : 	if (ar.IsStoring())

  00049	74 33		 je	 SHORT $LN21@Serialize

; 74   : 	{
; 75   : 		TYPE* pData;
; 76   : 		UINT_PTR nElementsLeft;
; 77   : 
; 78   : 		nElementsLeft = nCount;

  0004b	b8 01 00 00 00	 mov	 eax, 1
  00050	89 45 fc	 mov	 DWORD PTR _nElementsLeft$1$[ebp], eax
$LL16@Serialize:

; 80   : 		while( nElementsLeft > 0 )
; 81   : 		{
; 82   : 			UINT nElementsToWrite;
; 83   : 
; 84   : 			nElementsToWrite = UINT(__min(nElementsLeft, INT_MAX/sizeof(TYPE)));

  00053	bb ff ff ff 1f	 mov	 ebx, 536870911		; 1fffffffH
  00058	3b c3		 cmp	 eax, ebx
  0005a	0f 42 d8	 cmovb	 ebx, eax

; 85   : 			ar.Write(pData, nElementsToWrite*sizeof(TYPE));

  0005d	8d 3c 9d 00 00
	00 00		 lea	 edi, DWORD PTR [ebx*4]
  00064	57		 push	 edi
  00065	56		 push	 esi
  00066	e8 00 00 00 00	 call	 ?Write@CArchive@@QAEXPBXI@Z ; CArchive::Write

; 86   : 			nElementsLeft -= nElementsToWrite;

  0006b	8b 45 fc	 mov	 eax, DWORD PTR _nElementsLeft$1$[ebp]

; 87   : 			pData += nElementsToWrite;

  0006e	03 f7		 add	 esi, edi
  00070	8b 4d 08	 mov	 ecx, DWORD PTR _ar$[ebp]
  00073	2b c3		 sub	 eax, ebx
  00075	89 45 fc	 mov	 DWORD PTR _nElementsLeft$1$[ebp], eax
  00078	85 c0		 test	 eax, eax
  0007a	75 d7		 jne	 SHORT $LL16@Serialize

; 88   : 		}
; 89   : 	}

  0007c	eb 35		 jmp	 SHORT $LN2@Serialize
$LN21@Serialize:

; 90   : 	else
; 91   : 	{
; 92   : 		TYPE* pData;
; 93   : 		UINT_PTR nElementsLeft;
; 94   : 
; 95   : 		nElementsLeft = nCount;

  0007e	bf 01 00 00 00	 mov	 edi, 1
$LL18@Serialize:

; 98   : 		{
; 99   : 			UINT nElementsToRead;
; 100  : 
; 101  : 			nElementsToRead = UINT(__min(nElementsLeft, INT_MAX/sizeof(TYPE)));

  00083	bb ff ff ff 1f	 mov	 ebx, 536870911		; 1fffffffH
  00088	3b fb		 cmp	 edi, ebx
  0008a	0f 42 df	 cmovb	 ebx, edi

; 102  : 			ar.EnsureRead(pData, nElementsToRead*sizeof(TYPE));

  0008d	8d 04 9d 00 00
	00 00		 lea	 eax, DWORD PTR [ebx*4]
; File C:\Program Files (x86)\Microsoft Visual Studio\2019\Community\VC\Tools\MSVC\14.29.30133\atlmfc\include\afx.inl

; 399  : 	UINT nRead=Read(lpBuf, nCount);

  00094	50		 push	 eax
  00095	56		 push	 esi
  00096	e8 00 00 00 00	 call	 ?Read@CArchive@@QAEIPAXI@Z ; CArchive::Read

; 400  : 	if(nRead!=nCount)

  0009b	8d 0c 9d 00 00
	00 00		 lea	 ecx, DWORD PTR [ebx*4]
  000a2	3b c1		 cmp	 eax, ecx
  000a4	0f 85 d6 00 00
	00		 jne	 $LN59@Serialize
; File C:\Program Files (x86)\Microsoft Visual Studio\2019\Community\VC\Tools\MSVC\14.29.30133\atlmfc\include\afxtempl.h

; 97   : 		while( nElementsLeft > 0 )

  000aa	03 f1		 add	 esi, ecx
  000ac	8b 4d 08	 mov	 ecx, DWORD PTR _ar$[ebp]

; 103  : 			nElementsLeft -= nElementsToRead;

  000af	2b fb		 sub	 edi, ebx
  000b1	75 d0		 jne	 SHORT $LL18@Serialize
$LN2@Serialize:

; 1177 : 		for (CNode* pNode = m_pNodeHead; pNode != NULL; pNode = pNode->pNext)

  000b3	8b 45 f8	 mov	 eax, DWORD PTR _pNode$1$[ebp]
  000b6	8b 00		 mov	 eax, DWORD PTR [eax]
  000b8	89 45 f8	 mov	 DWORD PTR _pNode$1$[ebp], eax
  000bb	85 c0		 test	 eax, eax
  000bd	0f 85 71 ff ff
	ff		 jne	 $LL4@Serialize

; 1197 : 		}
; 1198 : 	}
; 1199 : }

  000c3	5f		 pop	 edi
  000c4	5e		 pop	 esi
  000c5	5b		 pop	 ebx
  000c6	8b e5		 mov	 esp, ebp
  000c8	5d		 pop	 ebp
  000c9	c2 04 00	 ret	 4
$LN7@Serialize:

; 1186 : 			SerializeElements<TYPE>(ar, pData, 1);
; 1187 : 		}
; 1188 : 	}
; 1189 : 	else
; 1190 : 	{
; 1191 : 		DWORD_PTR nNewCount = ar.ReadCount();

  000cc	e8 00 00 00 00	 call	 ?ReadCount@CArchive@@QAEKXZ ; CArchive::ReadCount

; 1192 : 		while (nNewCount--)

  000d1	85 c0		 test	 eax, eax
  000d3	0f 84 9e 00 00
	00		 je	 $LN68@Serialize
  000d9	0f 1f 80 00 00
	00 00		 npad	 7
$LL5@Serialize:
  000e0	48		 dec	 eax
  000e1	89 45 f0	 mov	 DWORD PTR _nNewCount$1$[ebp], eax
; File C:\Program Files (x86)\Microsoft Visual Studio\2019\Community\VC\Tools\MSVC\14.29.30133\atlmfc\include\afx.inl

; 212  : 	{ return (m_nMode & CArchive::load) == 0; }

  000e4	8b 45 08	 mov	 eax, DWORD PTR _ar$[ebp]
  000e7	8b 48 18	 mov	 ecx, DWORD PTR [eax+24]
  000ea	f7 d1		 not	 ecx
  000ec	f6 c1 01	 test	 cl, 1
; File C:\Program Files (x86)\Microsoft Visual Studio\2019\Community\VC\Tools\MSVC\14.29.30133\atlmfc\include\afxtempl.h

; 73   : 	if (ar.IsStoring())

  000ef	74 3a		 je	 SHORT $LN42@Serialize

; 79   : 		pData = pElements;

  000f1	8d 4d f4	 lea	 ecx, DWORD PTR _newData$1[ebp]
  000f4	bb 01 00 00 00	 mov	 ebx, 1
  000f9	89 4d f8	 mov	 DWORD PTR _pData$1$[ebp], ecx
  000fc	0f 1f 40 00	 npad	 4
$LL37@Serialize:

; 80   : 		while( nElementsLeft > 0 )
; 81   : 		{
; 82   : 			UINT nElementsToWrite;
; 83   : 
; 84   : 			nElementsToWrite = UINT(__min(nElementsLeft, INT_MAX/sizeof(TYPE)));

  00100	bf ff ff ff 1f	 mov	 edi, 536870911		; 1fffffffH
  00105	3b df		 cmp	 ebx, edi
  00107	0f 42 fb	 cmovb	 edi, ebx

; 85   : 			ar.Write(pData, nElementsToWrite*sizeof(TYPE));

  0010a	8d 34 bd 00 00
	00 00		 lea	 esi, DWORD PTR [edi*4]
  00111	56		 push	 esi
  00112	51		 push	 ecx
  00113	8b c8		 mov	 ecx, eax
  00115	e8 00 00 00 00	 call	 ?Write@CArchive@@QAEXPBXI@Z ; CArchive::Write

; 87   : 			pData += nElementsToWrite;

  0011a	8b 4d f8	 mov	 ecx, DWORD PTR _pData$1$[ebp]
  0011d	8b 45 08	 mov	 eax, DWORD PTR _ar$[ebp]
  00120	03 ce		 add	 ecx, esi
  00122	89 4d f8	 mov	 DWORD PTR _pData$1$[ebp], ecx
  00125	2b df		 sub	 ebx, edi
  00127	75 d7		 jne	 SHORT $LL37@Serialize

; 88   : 		}
; 89   : 	}

  00129	eb 36		 jmp	 SHORT $LN40@Serialize
$LN42@Serialize:

; 90   : 	else
; 91   : 	{
; 92   : 		TYPE* pData;
; 93   : 		UINT_PTR nElementsLeft;
; 94   : 
; 95   : 		nElementsLeft = nCount;

  0012b	be 01 00 00 00	 mov	 esi, 1

; 96   : 		pData = pElements;

  00130	8d 5d f4	 lea	 ebx, DWORD PTR _newData$1[ebp]
$LL39@Serialize:

; 98   : 		{
; 99   : 			UINT nElementsToRead;
; 100  : 
; 101  : 			nElementsToRead = UINT(__min(nElementsLeft, INT_MAX/sizeof(TYPE)));

  00133	bf ff ff ff 1f	 mov	 edi, 536870911		; 1fffffffH
  00138	3b f7		 cmp	 esi, edi
  0013a	0f 42 fe	 cmovb	 edi, esi

; 102  : 			ar.EnsureRead(pData, nElementsToRead*sizeof(TYPE));

  0013d	8d 0c bd 00 00
	00 00		 lea	 ecx, DWORD PTR [edi*4]
; File C:\Program Files (x86)\Microsoft Visual Studio\2019\Community\VC\Tools\MSVC\14.29.30133\atlmfc\include\afx.inl

; 399  : 	UINT nRead=Read(lpBuf, nCount);

  00144	51		 push	 ecx
  00145	53		 push	 ebx
  00146	8b c8		 mov	 ecx, eax
  00148	e8 00 00 00 00	 call	 ?Read@CArchive@@QAEIPAXI@Z ; CArchive::Read

; 400  : 	if(nRead!=nCount)

  0014d	8d 0c bd 00 00
	00 00		 lea	 ecx, DWORD PTR [edi*4]
  00154	3b c1		 cmp	 eax, ecx
  00156	75 28		 jne	 SHORT $LN59@Serialize
; File C:\Program Files (x86)\Microsoft Visual Studio\2019\Community\VC\Tools\MSVC\14.29.30133\atlmfc\include\afxtempl.h

; 104  : 			pData += nElementsToRead;

  00158	8b 45 08	 mov	 eax, DWORD PTR _ar$[ebp]
  0015b	03 d9		 add	 ebx, ecx
  0015d	2b f7		 sub	 esi, edi
  0015f	75 d2		 jne	 SHORT $LL39@Serialize
$LN40@Serialize:

; 1193 : 		{
; 1194 : 			TYPE newData[1];
; 1195 : 			SerializeElements<TYPE>(ar, newData, 1);
; 1196 : 			AddTail(newData[0]);

  00161	ff 75 f4	 push	 DWORD PTR _newData$1[ebp]
  00164	8b 4d fc	 mov	 ecx, DWORD PTR _this$1$[ebp]
  00167	e8 00 00 00 00	 call	 ?AddTail@?$CList@PAVCCallPutItemData@@PAV1@@@QAEPAU__POSITION@@PAVCCallPutItemData@@@Z ; CList<CCallPutItemData *,CCallPutItemData *>::AddTail
  0016c	8b 45 f0	 mov	 eax, DWORD PTR _nNewCount$1$[ebp]
  0016f	85 c0		 test	 eax, eax
  00171	0f 85 69 ff ff
	ff		 jne	 $LL5@Serialize
$LN68@Serialize:
  00177	5f		 pop	 edi

; 1197 : 		}
; 1198 : 	}
; 1199 : }

  00178	5e		 pop	 esi
  00179	5b		 pop	 ebx
  0017a	8b e5		 mov	 esp, ebp
  0017c	5d		 pop	 ebp
  0017d	c2 04 00	 ret	 4
$LN59@Serialize:
  00180	6a 00		 push	 0
  00182	6a 03		 push	 3
  00184	e8 00 00 00 00	 call	 ?AfxThrowArchiveException@@YGXHPBD@Z ; AfxThrowArchiveException
$LN60@Serialize:

; 68   : 	ENSURE(nCount == 0 || pElements != NULL);

  00189	e8 00 00 00 00	 call	 ?AfxThrowInvalidArgException@@YGXXZ ; AfxThrowInvalidArgException
$LN85@Serialize:
  0018e	cc		 int	 3
?Serialize@?$CList@PAVCCallPutItemData@@PAV1@@@UAEXAAVCArchive@@@Z ENDP ; CList<CCallPutItemData *,CCallPutItemData *>::Serialize
_TEXT	ENDS
; Function compile flags: /Ogtp
; File C:\Program Files (x86)\Microsoft Visual Studio\2019\Community\VC\Tools\MSVC\14.29.30133\atlmfc\include\afxtempl.h
;	COMDAT ??1?$CList@PAVCCallPutItemData@@PAV1@@@UAE@XZ
_TEXT	SEGMENT
__$EHRec$ = -12						; size = 12
??1?$CList@PAVCCallPutItemData@@PAV1@@@UAE@XZ PROC	; CList<CCallPutItemData *,CCallPutItemData *>::~CList<CCallPutItemData *,CCallPutItemData *>, COMDAT
; _this$ = ecx

; 878  : {

  00000	55		 push	 ebp
  00001	8b ec		 mov	 ebp, esp
  00003	6a ff		 push	 -1
  00005	68 00 00 00 00	 push	 __ehhandler$??1?$CList@PAVCCallPutItemData@@PAV1@@@UAE@XZ
  0000a	64 a1 00 00 00
	00		 mov	 eax, DWORD PTR fs:0
  00010	50		 push	 eax
  00011	56		 push	 esi
  00012	a1 00 00 00 00	 mov	 eax, DWORD PTR ___security_cookie
  00017	33 c5		 xor	 eax, ebp
  00019	50		 push	 eax
  0001a	8d 45 f4	 lea	 eax, DWORD PTR __$EHRec$[ebp]
  0001d	64 a3 00 00 00
	00		 mov	 DWORD PTR fs:0, eax
  00023	8b f1		 mov	 esi, ecx

; 872  : 	m_pBlocks->FreeDataChain();

  00025	8b 4e 14	 mov	 ecx, DWORD PTR [esi+20]

; 878  : {

  00028	c7 06 00 00 00
	00		 mov	 DWORD PTR [esi], OFFSET ??_7?$CList@PAVCCallPutItemData@@PAV1@@@6B@

; 870  : 	m_nCount = 0;

  0002e	c7 46 0c 00 00
	00 00		 mov	 DWORD PTR [esi+12], 0

; 871  : 	m_pNodeHead = m_pNodeTail = m_pNodeFree = NULL;

  00035	c7 46 10 00 00
	00 00		 mov	 DWORD PTR [esi+16], 0
  0003c	c7 46 08 00 00
	00 00		 mov	 DWORD PTR [esi+8], 0
  00043	c7 46 04 00 00
	00 00		 mov	 DWORD PTR [esi+4], 0

; 872  : 	m_pBlocks->FreeDataChain();

  0004a	e8 00 00 00 00	 call	 ?FreeDataChain@CPlex@@QAEXXZ ; CPlex::FreeDataChain

; 873  : 	m_pBlocks = NULL;

  0004f	c7 46 14 00 00
	00 00		 mov	 DWORD PTR [esi+20], 0

; 879  : 	RemoveAll();
; 880  : 	ASSERT(m_nCount == 0);
; 881  : }

  00056	8b 4d f4	 mov	 ecx, DWORD PTR __$EHRec$[ebp]
  00059	64 89 0d 00 00
	00 00		 mov	 DWORD PTR fs:0, ecx
  00060	59		 pop	 ecx
  00061	5e		 pop	 esi
  00062	8b e5		 mov	 esp, ebp
  00064	5d		 pop	 ebp
  00065	c3		 ret	 0
  00066	cc		 int	 3
  00067	cc		 int	 3
  00068	cc		 int	 3
  00069	cc		 int	 3
  0006a	cc		 int	 3
_TEXT	ENDS
;	COMDAT text$x
text$x	SEGMENT
__ehhandler$??1?$CList@PAVCCallPutItemData@@PAV1@@@UAE@XZ:
  00000	90		 npad	 1
  00001	90		 npad	 1
  00002	8b 54 24 08	 mov	 edx, DWORD PTR [esp+8]
  00006	8d 42 0c	 lea	 eax, DWORD PTR [edx+12]
  00009	8b 4a f8	 mov	 ecx, DWORD PTR [edx-8]
  0000c	33 c8		 xor	 ecx, eax
  0000e	e8 00 00 00 00	 call	 @__security_check_cookie@4
  00013	b8 00 00 00 00	 mov	 eax, OFFSET __ehfuncinfo$??1?$CList@PAVCCallPutItemData@@PAV1@@@UAE@XZ
  00018	e9 00 00 00 00	 jmp	 ___CxxFrameHandler3
text$x	ENDS
??1?$CList@PAVCCallPutItemData@@PAV1@@@UAE@XZ ENDP	; CList<CCallPutItemData *,CCallPutItemData *>::~CList<CCallPutItemData *,CCallPutItemData *>
; Function compile flags: /Ogtp
; File C:\Program Files (x86)\Microsoft Visual Studio\2019\Community\VC\Tools\MSVC\14.29.30133\atlmfc\include\afxtempl.h
;	COMDAT ?NewNode@?$CList@PAVCCallPutItemData@@PAV1@@@IAEPAUCNode@1@PAU21@0@Z
_TEXT	SEGMENT
_pPrev$ = 8						; size = 4
_pNext$ = 12						; size = 4
?NewNode@?$CList@PAVCCallPutItemData@@PAV1@@@IAEPAUCNode@1@PAU21@0@Z PROC ; CList<CCallPutItemData *,CCallPutItemData *>::NewNode, COMDAT
; _this$ = ecx

; 901  : {

  00000	55		 push	 ebp
  00001	8b ec		 mov	 ebp, esp
  00003	56		 push	 esi
  00004	8b f1		 mov	 esi, ecx

; 902  : 	if (m_pNodeFree == NULL)

  00006	83 7e 10 00	 cmp	 DWORD PTR [esi+16], 0
  0000a	75 34		 jne	 SHORT $LN7@NewNode

; 903  : 	{
; 904  : 		// add another block
; 905  : 		CPlex* pNewBlock = CPlex::Create(m_pBlocks, m_nBlockSize,

  0000c	6a 0c		 push	 12			; 0000000cH
  0000e	ff 76 18	 push	 DWORD PTR [esi+24]
  00011	8d 46 14	 lea	 eax, DWORD PTR [esi+20]
  00014	50		 push	 eax
  00015	e8 00 00 00 00	 call	 ?Create@CPlex@@SGPAU1@AAPAU1@II@Z ; CPlex::Create

; 906  : 				 sizeof(CNode));
; 907  : 
; 908  : 		// chain them into free list
; 909  : 		CNode* pNode = (CNode*) pNewBlock->data();
; 910  : 		// free in reverse order to make it easier to debug
; 911  : 		pNode += m_nBlockSize - 1;

  0001a	8b 56 18	 mov	 edx, DWORD PTR [esi+24]
  0001d	83 c0 08	 add	 eax, 8
  00020	8d 0c 52	 lea	 ecx, DWORD PTR [edx+edx*2]
  00023	8d 04 88	 lea	 eax, DWORD PTR [eax+ecx*4]
  00026	83 c0 f4	 add	 eax, -12		; fffffff4H

; 912  : 		for (INT_PTR i = m_nBlockSize-1; i >= 0; i--, pNode--)

  00029	83 c2 ff	 add	 edx, -1
  0002c	78 12		 js	 SHORT $LN7@NewNode
  0002e	66 90		 npad	 2
$LL4@NewNode:

; 913  : 		{
; 914  : 			pNode->pNext = m_pNodeFree;

  00030	8b 4e 10	 mov	 ecx, DWORD PTR [esi+16]
  00033	89 08		 mov	 DWORD PTR [eax], ecx

; 915  : 			m_pNodeFree = pNode;

  00035	89 46 10	 mov	 DWORD PTR [esi+16], eax
  00038	83 e8 0c	 sub	 eax, 12			; 0000000cH
  0003b	83 ea 01	 sub	 edx, 1
  0003e	79 f0		 jns	 SHORT $LL4@NewNode
$LN7@NewNode:

; 916  : 		}
; 917  : 	}
; 918  : 	ENSURE(m_pNodeFree != NULL);  // we must have something

  00040	8b 46 10	 mov	 eax, DWORD PTR [esi+16]
  00043	85 c0		 test	 eax, eax
  00045	74 18		 je	 SHORT $LN17@NewNode

; 919  : 
; 920  : 	CList::CNode* pNode = m_pNodeFree;
; 921  : 	m_pNodeFree = m_pNodeFree->pNext;

  00047	8b 08		 mov	 ecx, DWORD PTR [eax]
  00049	89 4e 10	 mov	 DWORD PTR [esi+16], ecx

; 922  : 	pNode->pPrev = pPrev;

  0004c	8b 4d 08	 mov	 ecx, DWORD PTR _pPrev$[ebp]
  0004f	89 48 04	 mov	 DWORD PTR [eax+4], ecx

; 923  : 	pNode->pNext = pNext;

  00052	8b 4d 0c	 mov	 ecx, DWORD PTR _pNext$[ebp]
  00055	89 08		 mov	 DWORD PTR [eax], ecx

; 924  : 	m_nCount++;

  00057	ff 46 0c	 inc	 DWORD PTR [esi+12]

; 925  : 	ASSERT(m_nCount > 0);  // make sure we don't overflow
; 926  : 
; 927  : #pragma push_macro("new")
; 928  : #undef new
; 929  : 	::new( (void*)( &pNode->data ) ) TYPE;
; 930  : #pragma pop_macro("new")
; 931  : 	return pNode;

  0005a	5e		 pop	 esi

; 932  : }

  0005b	5d		 pop	 ebp
  0005c	c2 08 00	 ret	 8
$LN17@NewNode:

; 916  : 		}
; 917  : 	}
; 918  : 	ENSURE(m_pNodeFree != NULL);  // we must have something

  0005f	e8 00 00 00 00	 call	 ?AfxThrowInvalidArgException@@YGXXZ ; AfxThrowInvalidArgException
$LN15@NewNode:
  00064	cc		 int	 3
?NewNode@?$CList@PAVCCallPutItemData@@PAV1@@@IAEPAUCNode@1@PAU21@0@Z ENDP ; CList<CCallPutItemData *,CCallPutItemData *>::NewNode
_TEXT	ENDS
; Function compile flags: /Ogtp
; File C:\Program Files (x86)\Microsoft Visual Studio\2019\Community\VC\Tools\MSVC\14.29.30133\atlmfc\include\afxtempl.h
;	COMDAT ?RemoveAll@?$CList@PAVCCallPutItemData@@PAV1@@@QAEXXZ
_TEXT	SEGMENT
?RemoveAll@?$CList@PAVCCallPutItemData@@PAV1@@@QAEXXZ PROC ; CList<CCallPutItemData *,CCallPutItemData *>::RemoveAll, COMDAT
; _this$ = ecx

; 862  : {

  00000	56		 push	 esi
  00001	8b f1		 mov	 esi, ecx

; 863  : 	ASSERT_VALID(this);
; 864  : 
; 865  : 	// destroy elements
; 866  : 	CNode* pNode;
; 867  : 	for (pNode = m_pNodeHead; pNode != NULL; pNode = pNode->pNext)
; 868  : 		pNode->data.~TYPE();
; 869  : 
; 870  : 	m_nCount = 0;
; 871  : 	m_pNodeHead = m_pNodeTail = m_pNodeFree = NULL;
; 872  : 	m_pBlocks->FreeDataChain();

  00003	8b 4e 14	 mov	 ecx, DWORD PTR [esi+20]
  00006	c7 46 0c 00 00
	00 00		 mov	 DWORD PTR [esi+12], 0
  0000d	c7 46 10 00 00
	00 00		 mov	 DWORD PTR [esi+16], 0
  00014	c7 46 08 00 00
	00 00		 mov	 DWORD PTR [esi+8], 0
  0001b	c7 46 04 00 00
	00 00		 mov	 DWORD PTR [esi+4], 0
  00022	e8 00 00 00 00	 call	 ?FreeDataChain@CPlex@@QAEXXZ ; CPlex::FreeDataChain

; 873  : 	m_pBlocks = NULL;

  00027	c7 46 14 00 00
	00 00		 mov	 DWORD PTR [esi+20], 0
  0002e	5e		 pop	 esi

; 874  : }

  0002f	c3		 ret	 0
?RemoveAll@?$CList@PAVCCallPutItemData@@PAV1@@@QAEXXZ ENDP ; CList<CCallPutItemData *,CCallPutItemData *>::RemoveAll
_TEXT	ENDS
; Function compile flags: /Ogtp
; File C:\Program Files (x86)\Microsoft Visual Studio\2019\Community\VC\Tools\MSVC\14.29.30133\atlmfc\include\afxtempl.h
;	COMDAT ?AddTail@?$CList@PAVCCallPutItemData@@PAV1@@@QAEPAU__POSITION@@PAVCCallPutItemData@@@Z
_TEXT	SEGMENT
_newElement$ = 8					; size = 4
?AddTail@?$CList@PAVCCallPutItemData@@PAV1@@@QAEPAU__POSITION@@PAVCCallPutItemData@@@Z PROC ; CList<CCallPutItemData *,CCallPutItemData *>::AddTail, COMDAT
; _this$ = ecx

; 965  : {

  00000	55		 push	 ebp
  00001	8b ec		 mov	 ebp, esp
  00003	56		 push	 esi
  00004	8b f1		 mov	 esi, ecx
  00006	57		 push	 edi

; 902  : 	if (m_pNodeFree == NULL)

  00007	83 7e 10 00	 cmp	 DWORD PTR [esi+16], 0

; 966  : 	ASSERT_VALID(this);
; 967  : 
; 968  : 	CNode* pNewNode = NewNode(m_pNodeTail, NULL);

  0000b	8b 7e 08	 mov	 edi, DWORD PTR [esi+8]

; 902  : 	if (m_pNodeFree == NULL)

  0000e	75 32		 jne	 SHORT $LN11@AddTail

; 903  : 	{
; 904  : 		// add another block
; 905  : 		CPlex* pNewBlock = CPlex::Create(m_pBlocks, m_nBlockSize,

  00010	6a 0c		 push	 12			; 0000000cH
  00012	ff 76 18	 push	 DWORD PTR [esi+24]
  00015	8d 46 14	 lea	 eax, DWORD PTR [esi+20]
  00018	50		 push	 eax
  00019	e8 00 00 00 00	 call	 ?Create@CPlex@@SGPAU1@AAPAU1@II@Z ; CPlex::Create

; 906  : 				 sizeof(CNode));
; 907  : 
; 908  : 		// chain them into free list
; 909  : 		CNode* pNode = (CNode*) pNewBlock->data();
; 910  : 		// free in reverse order to make it easier to debug
; 911  : 		pNode += m_nBlockSize - 1;

  0001e	8b 56 18	 mov	 edx, DWORD PTR [esi+24]
  00021	83 c0 08	 add	 eax, 8
  00024	8d 4a ff	 lea	 ecx, DWORD PTR [edx-1]

; 912  : 		for (INT_PTR i = m_nBlockSize-1; i >= 0; i--, pNode--)

  00027	83 c2 ff	 add	 edx, -1
  0002a	8d 0c 49	 lea	 ecx, DWORD PTR [ecx+ecx*2]
  0002d	8d 0c 88	 lea	 ecx, DWORD PTR [eax+ecx*4]
  00030	78 10		 js	 SHORT $LN11@AddTail
$LL8@AddTail:

; 913  : 		{
; 914  : 			pNode->pNext = m_pNodeFree;

  00032	8b 46 10	 mov	 eax, DWORD PTR [esi+16]
  00035	89 01		 mov	 DWORD PTR [ecx], eax

; 915  : 			m_pNodeFree = pNode;

  00037	89 4e 10	 mov	 DWORD PTR [esi+16], ecx
  0003a	83 e9 0c	 sub	 ecx, 12			; 0000000cH
  0003d	83 ea 01	 sub	 edx, 1
  00040	79 f0		 jns	 SHORT $LL8@AddTail
$LN11@AddTail:

; 916  : 		}
; 917  : 	}
; 918  : 	ENSURE(m_pNodeFree != NULL);  // we must have something

  00042	8b 4e 10	 mov	 ecx, DWORD PTR [esi+16]
  00045	85 c9		 test	 ecx, ecx
  00047	74 39		 je	 SHORT $LN22@AddTail

; 919  : 
; 920  : 	CList::CNode* pNode = m_pNodeFree;
; 921  : 	m_pNodeFree = m_pNodeFree->pNext;

  00049	8b 01		 mov	 eax, DWORD PTR [ecx]
  0004b	89 46 10	 mov	 DWORD PTR [esi+16], eax

; 969  : 	pNewNode->data = newElement;

  0004e	8b 45 08	 mov	 eax, DWORD PTR _newElement$[ebp]

; 922  : 	pNode->pPrev = pPrev;

  00051	89 79 04	 mov	 DWORD PTR [ecx+4], edi

; 923  : 	pNode->pNext = pNext;

  00054	c7 01 00 00 00
	00		 mov	 DWORD PTR [ecx], 0

; 924  : 	m_nCount++;

  0005a	ff 46 0c	 inc	 DWORD PTR [esi+12]

; 969  : 	pNewNode->data = newElement;

  0005d	89 41 08	 mov	 DWORD PTR [ecx+8], eax

; 970  : 	if (m_pNodeTail != NULL)

  00060	8b 46 08	 mov	 eax, DWORD PTR [esi+8]
  00063	85 c0		 test	 eax, eax
  00065	74 0d		 je	 SHORT $LN2@AddTail

; 971  : 		m_pNodeTail->pNext = pNewNode;

  00067	89 08		 mov	 DWORD PTR [eax], ecx

; 972  : 	else
; 973  : 		m_pNodeHead = pNewNode;
; 974  : 	m_pNodeTail = pNewNode;
; 975  : 	return (POSITION) pNewNode;

  00069	8b c1		 mov	 eax, ecx
  0006b	5f		 pop	 edi
  0006c	89 4e 08	 mov	 DWORD PTR [esi+8], ecx
  0006f	5e		 pop	 esi

; 976  : }

  00070	5d		 pop	 ebp
  00071	c2 04 00	 ret	 4
$LN2@AddTail:

; 972  : 	else
; 973  : 		m_pNodeHead = pNewNode;
; 974  : 	m_pNodeTail = pNewNode;
; 975  : 	return (POSITION) pNewNode;

  00074	5f		 pop	 edi
  00075	89 4e 04	 mov	 DWORD PTR [esi+4], ecx
  00078	8b c1		 mov	 eax, ecx
  0007a	89 4e 08	 mov	 DWORD PTR [esi+8], ecx
  0007d	5e		 pop	 esi

; 976  : }

  0007e	5d		 pop	 ebp
  0007f	c2 04 00	 ret	 4
$LN22@AddTail:

; 918  : 	ENSURE(m_pNodeFree != NULL);  // we must have something

  00082	e8 00 00 00 00	 call	 ?AfxThrowInvalidArgException@@YGXXZ ; AfxThrowInvalidArgException
$LN20@AddTail:
  00087	cc		 int	 3
?AddTail@?$CList@PAVCCallPutItemData@@PAV1@@@QAEPAU__POSITION@@PAVCCallPutItemData@@@Z ENDP ; CList<CCallPutItemData *,CCallPutItemData *>::AddTail
_TEXT	ENDS
; Function compile flags: /Ogtp
; File C:\Program Files (x86)\Microsoft Visual Studio\2019\Community\VC\Tools\MSVC\14.29.30133\atlmfc\include\afxtempl.h
;	COMDAT ??0?$CList@PAVCCallPutItemData@@PAV1@@@QAE@H@Z
_TEXT	SEGMENT
_nBlockSize$ = 8					; size = 4
??0?$CList@PAVCCallPutItemData@@PAV1@@@QAE@H@Z PROC	; CList<CCallPutItemData *,CCallPutItemData *>::CList<CCallPutItemData *,CCallPutItemData *>, COMDAT
; _this$ = ecx

; 851  : {

  00000	55		 push	 ebp
  00001	8b ec		 mov	 ebp, esp

; 852  : 	ASSERT(nBlockSize > 0);
; 853  : 
; 854  : 	m_nCount = 0;
; 855  : 	m_pNodeHead = m_pNodeTail = m_pNodeFree = NULL;
; 856  : 	m_pBlocks = NULL;
; 857  : 	m_nBlockSize = nBlockSize;

  00003	8b 45 08	 mov	 eax, DWORD PTR _nBlockSize$[ebp]
  00006	89 41 18	 mov	 DWORD PTR [ecx+24], eax

; 858  : }

  00009	8b c1		 mov	 eax, ecx
  0000b	c7 01 00 00 00
	00		 mov	 DWORD PTR [ecx], OFFSET ??_7?$CList@PAVCCallPutItemData@@PAV1@@@6B@
  00011	c7 41 0c 00 00
	00 00		 mov	 DWORD PTR [ecx+12], 0
  00018	c7 41 10 00 00
	00 00		 mov	 DWORD PTR [ecx+16], 0
  0001f	c7 41 08 00 00
	00 00		 mov	 DWORD PTR [ecx+8], 0
  00026	c7 41 04 00 00
	00 00		 mov	 DWORD PTR [ecx+4], 0
  0002d	c7 41 14 00 00
	00 00		 mov	 DWORD PTR [ecx+20], 0
  00034	5d		 pop	 ebp
  00035	c2 04 00	 ret	 4
??0?$CList@PAVCCallPutItemData@@PAV1@@@QAE@H@Z ENDP	; CList<CCallPutItemData *,CCallPutItemData *>::CList<CCallPutItemData *,CCallPutItemData *>
_TEXT	ENDS
; Function compile flags: /Ogtp
;	COMDAT ??1_GV_ITEM@@QAE@XZ
_TEXT	SEGMENT
??1_GV_ITEM@@QAE@XZ PROC				; _GV_ITEM::~_GV_ITEM, COMDAT
; _this$ = ecx
  00000	83 c1 64	 add	 ecx, 100		; 00000064H
  00003	ff 25 00 00 00
	00		 jmp	 DWORD PTR __imp_??1?$CStringT@DV?$StrTraitMFC_DLL@DV?$ChTraitsCRT@D@ATL@@@@@ATL@@QAE@XZ
??1_GV_ITEM@@QAE@XZ ENDP				; _GV_ITEM::~_GV_ITEM
_TEXT	ENDS
; Function compile flags: /Ogtp
; File C:\Program Files (x86)\Microsoft Visual Studio\2019\Community\VC\Tools\MSVC\14.29.30133\atlmfc\include\afxtempl.h
;	COMDAT ?SetAtGrow@?$CArray@PAU__MASTERCODE@@PAU1@@@QAEXHPAU__MASTERCODE@@@Z
_TEXT	SEGMENT
_nIndex$ = 8						; size = 4
_newElement$ = 12					; size = 4
?SetAtGrow@?$CArray@PAU__MASTERCODE@@PAU1@@@QAEXHPAU__MASTERCODE@@@Z PROC ; CArray<__MASTERCODE *,__MASTERCODE *>::SetAtGrow, COMDAT
; _this$ = ecx

; 534  : {

  00000	55		 push	 ebp
  00001	8b ec		 mov	 ebp, esp
  00003	56		 push	 esi

; 535  : 	ASSERT_VALID(this);
; 536  : 	ASSERT(nIndex >= 0);
; 537  : 
; 538  : 	if(nIndex < 0)

  00004	8b 75 08	 mov	 esi, DWORD PTR _nIndex$[ebp]
  00007	57		 push	 edi
  00008	8b f9		 mov	 edi, ecx
  0000a	85 f6		 test	 esi, esi
  0000c	78 1f		 js	 SHORT $LN7@SetAtGrow

; 540  : 
; 541  : 	if (nIndex >= m_nSize)

  0000e	3b 77 08	 cmp	 esi, DWORD PTR [edi+8]
  00011	7c 0b		 jl	 SHORT $LN3@SetAtGrow

; 542  : 		SetSize(nIndex+1, -1);

  00013	6a ff		 push	 -1
  00015	8d 46 01	 lea	 eax, DWORD PTR [esi+1]
  00018	50		 push	 eax
  00019	e8 00 00 00 00	 call	 ?SetSize@?$CArray@PAU__MASTERCODE@@PAU1@@@QAEXHH@Z ; CArray<__MASTERCODE *,__MASTERCODE *>::SetSize
$LN3@SetAtGrow:

; 543  : 	m_pData[nIndex] = newElement;

  0001e	8b 4f 04	 mov	 ecx, DWORD PTR [edi+4]
  00021	8b 45 0c	 mov	 eax, DWORD PTR _newElement$[ebp]
  00024	5f		 pop	 edi
  00025	89 04 b1	 mov	 DWORD PTR [ecx+esi*4], eax
  00028	5e		 pop	 esi

; 544  : }

  00029	5d		 pop	 ebp
  0002a	c2 08 00	 ret	 8
$LN7@SetAtGrow:

; 539  : 		AfxThrowInvalidArgException();

  0002d	e8 00 00 00 00	 call	 ?AfxThrowInvalidArgException@@YGXXZ ; AfxThrowInvalidArgException
$LN5@SetAtGrow:
  00032	cc		 int	 3
?SetAtGrow@?$CArray@PAU__MASTERCODE@@PAU1@@@QAEXHPAU__MASTERCODE@@@Z ENDP ; CArray<__MASTERCODE *,__MASTERCODE *>::SetAtGrow
_TEXT	ENDS
; Function compile flags: /Ogtp
; File C:\Program Files (x86)\Microsoft Visual Studio\2019\Community\VC\Tools\MSVC\14.29.30133\atlmfc\include\afxtempl.h
; File C:\Program Files (x86)\Windows Kits\10\Include\10.0.22000.0\ucrt\corecrt_memcpy_s.h
; File C:\Program Files (x86)\Microsoft Visual Studio\2019\Community\VC\Tools\MSVC\14.29.30133\atlmfc\include\atlchecked.h
; File C:\Program Files (x86)\Microsoft Visual Studio\2019\Community\VC\Tools\MSVC\14.29.30133\atlmfc\include\afxtempl.h
; File C:\Program Files (x86)\Windows Kits\10\Include\10.0.22000.0\ucrt\corecrt_memcpy_s.h
; File C:\Program Files (x86)\Microsoft Visual Studio\2019\Community\VC\Tools\MSVC\14.29.30133\atlmfc\include\atlchecked.h
; File C:\Program Files (x86)\Windows Kits\10\Include\10.0.22000.0\ucrt\corecrt_memcpy_s.h
; File C:\Program Files (x86)\Microsoft Visual Studio\2019\Community\VC\Tools\MSVC\14.29.30133\atlmfc\include\afxtempl.h
;	COMDAT ?SetSize@?$CArray@PAU__MASTERCODE@@PAU1@@@QAEXHH@Z
_TEXT	SEGMENT
__N$1$ = -4						; size = 4
__S2$1$ = 8						; size = 4
_nNewSize$ = 8						; size = 4
_pNewData$1$ = 12					; size = 4
_nGrowBy$ = 12						; size = 4
?SetSize@?$CArray@PAU__MASTERCODE@@PAU1@@@QAEXHH@Z PROC	; CArray<__MASTERCODE *,__MASTERCODE *>::SetSize, COMDAT
; _this$ = ecx

; 368  : {

  00000	55		 push	 ebp
  00001	8b ec		 mov	 ebp, esp
  00003	51		 push	 ecx
  00004	53		 push	 ebx
  00005	56		 push	 esi

; 369  : 	ASSERT_VALID(this);
; 370  : 	ASSERT(nNewSize >= 0);
; 371  : 
; 372  : 	if(nNewSize < 0 )

  00006	8b 75 08	 mov	 esi, DWORD PTR _nNewSize$[ebp]
  00009	8b d9		 mov	 ebx, ecx
  0000b	57		 push	 edi
  0000c	85 f6		 test	 esi, esi
  0000e	0f 88 c2 01 00
	00		 js	 $LN70@SetSize

; 373  : 		AfxThrowInvalidArgException();
; 374  : 
; 375  : 	if (nGrowBy >= 0)

  00014	8b 45 0c	 mov	 eax, DWORD PTR _nGrowBy$[ebp]
  00017	85 c0		 test	 eax, eax
  00019	78 03		 js	 SHORT $LN69@SetSize

; 376  : 		m_nGrowBy = nGrowBy;  // set new size

  0001b	89 43 10	 mov	 DWORD PTR [ebx+16], eax
$LN69@SetSize:

; 377  : 
; 378  : 	if (nNewSize == 0)

  0001e	8b 4b 04	 mov	 ecx, DWORD PTR [ebx+4]
  00021	85 f6		 test	 esi, esi
  00023	75 27		 jne	 SHORT $LN19@SetSize

; 379  : 	{
; 380  : 		// shrink to nothing
; 381  : 		if (m_pData != NULL)

  00025	85 c9		 test	 ecx, ecx
  00027	74 0c		 je	 SHORT $LN21@SetSize

; 382  : 		{
; 383  : 			for( int i = 0; i < m_nSize; i++ )
; 384  : 				(m_pData + i)->~TYPE();
; 385  : 			delete[] (BYTE*)m_pData;

  00029	51		 push	 ecx
  0002a	e8 00 00 00 00	 call	 ??_V@YAXPAX@Z		; operator delete[]
  0002f	83 c4 04	 add	 esp, 4

; 386  : 			m_pData = NULL;

  00032	89 73 04	 mov	 DWORD PTR [ebx+4], esi
$LN21@SetSize:

; 472  : 		m_nSize = nNewSize;
; 473  : 		m_nMaxSize = nNewMax;
; 474  : 	}
; 475  : }

  00035	5f		 pop	 edi
  00036	5e		 pop	 esi
  00037	c7 43 0c 00 00
	00 00		 mov	 DWORD PTR [ebx+12], 0
  0003e	c7 43 08 00 00
	00 00		 mov	 DWORD PTR [ebx+8], 0
  00045	5b		 pop	 ebx
  00046	8b e5		 mov	 esp, ebp
  00048	5d		 pop	 ebp
  00049	c2 08 00	 ret	 8
$LN19@SetSize:

; 387  : 		}
; 388  : 		m_nSize = m_nMaxSize = 0;
; 389  : 	}
; 390  : 	else if (m_pData == NULL)

  0004c	85 c9		 test	 ecx, ecx
  0004e	75 36		 jne	 SHORT $LN22@SetSize

; 391  : 	{
; 392  : 		// create buffer big enough to hold number of requested elements or
; 393  : 		// m_nGrowBy elements, whichever is larger.
; 394  : #ifdef SIZE_T_MAX
; 395  : 		ASSERT(nNewSize <= SIZE_T_MAX/sizeof(TYPE));    // no overflow
; 396  : #endif
; 397  : 		size_t nAllocSize = __max(nNewSize, m_nGrowBy);

  00050	8b 7b 10	 mov	 edi, DWORD PTR [ebx+16]
  00053	3b f7		 cmp	 esi, edi
  00055	0f 4f fe	 cmovg	 edi, esi

; 398  : 		m_pData = (TYPE*) new BYTE[(size_t)nAllocSize * sizeof(TYPE)];

  00058	8d 34 bd 00 00
	00 00		 lea	 esi, DWORD PTR [edi*4]
  0005f	56		 push	 esi
  00060	e8 00 00 00 00	 call	 ??_U@YAPAXI@Z		; operator new[]

; 399  : 		memset((void*)m_pData, 0, (size_t)nAllocSize * sizeof(TYPE));

  00065	56		 push	 esi
  00066	6a 00		 push	 0
  00068	50		 push	 eax
  00069	89 43 04	 mov	 DWORD PTR [ebx+4], eax
  0006c	e8 00 00 00 00	 call	 _memset

; 400  : 		for( int i = 0; i < nNewSize; i++ )
; 401  : #pragma push_macro("new")
; 402  : #undef new
; 403  : 			::new( (void*)( m_pData + i ) ) TYPE;
; 404  : #pragma pop_macro("new")
; 405  : 		m_nSize = nNewSize;

  00071	8b 45 08	 mov	 eax, DWORD PTR _nNewSize$[ebp]
  00074	83 c4 10	 add	 esp, 16			; 00000010H

; 472  : 		m_nSize = nNewSize;
; 473  : 		m_nMaxSize = nNewMax;
; 474  : 	}
; 475  : }

  00077	89 7b 0c	 mov	 DWORD PTR [ebx+12], edi
  0007a	89 43 08	 mov	 DWORD PTR [ebx+8], eax
  0007d	5f		 pop	 edi
  0007e	5e		 pop	 esi
  0007f	5b		 pop	 ebx
  00080	8b e5		 mov	 esp, ebp
  00082	5d		 pop	 ebp
  00083	c2 08 00	 ret	 8
$LN22@SetSize:

; 406  : 		m_nMaxSize = nAllocSize;
; 407  : 	}
; 408  : 	else if (nNewSize <= m_nMaxSize)

  00086	8b 7b 0c	 mov	 edi, DWORD PTR [ebx+12]
  00089	3b f7		 cmp	 esi, edi
  0008b	7f 29		 jg	 SHORT $LN24@SetSize

; 409  : 	{
; 410  : 		// it fits
; 411  : 		if (nNewSize > m_nSize)

  0008d	8b 53 08	 mov	 edx, DWORD PTR [ebx+8]
  00090	3b f2		 cmp	 esi, edx
  00092	7e 16		 jle	 SHORT $LN26@SetSize

; 412  : 		{
; 413  : 			// initialize the new elements
; 414  : 			memset((void*)(m_pData + m_nSize), 0, (size_t)(nNewSize-m_nSize) * sizeof(TYPE));

  00094	8b c6		 mov	 eax, esi
  00096	2b c2		 sub	 eax, edx
  00098	c1 e0 02	 shl	 eax, 2
  0009b	50		 push	 eax
  0009c	8d 04 91	 lea	 eax, DWORD PTR [ecx+edx*4]
  0009f	6a 00		 push	 0
  000a1	50		 push	 eax
  000a2	e8 00 00 00 00	 call	 _memset
  000a7	83 c4 0c	 add	 esp, 12			; 0000000cH
$LN26@SetSize:

; 415  : 			for( int i = 0; i < nNewSize-m_nSize; i++ )
; 416  : #pragma push_macro("new")
; 417  : #undef new
; 418  : 				::new( (void*)( m_pData + m_nSize + i ) ) TYPE;
; 419  : #pragma pop_macro("new")
; 420  : 		}
; 421  : 		else if (m_nSize > nNewSize)
; 422  : 		{
; 423  : 			// destroy the old elements
; 424  : 			for( int i = 0; i < m_nSize-nNewSize; i++ )
; 425  : 				(m_pData + nNewSize + i)->~TYPE();
; 426  : 		}
; 427  : 		m_nSize = nNewSize;

  000aa	5f		 pop	 edi
  000ab	89 73 08	 mov	 DWORD PTR [ebx+8], esi

; 472  : 		m_nSize = nNewSize;
; 473  : 		m_nMaxSize = nNewMax;
; 474  : 	}
; 475  : }

  000ae	5e		 pop	 esi
  000af	5b		 pop	 ebx
  000b0	8b e5		 mov	 esp, ebp
  000b2	5d		 pop	 ebp
  000b3	c2 08 00	 ret	 8
$LN24@SetSize:

; 428  : 	}
; 429  : 	else
; 430  : 	{
; 431  : 		// otherwise, grow array
; 432  : 		nGrowBy = m_nGrowBy;

  000b6	8b 43 10	 mov	 eax, DWORD PTR [ebx+16]

; 433  : 		if (nGrowBy == 0)

  000b9	85 c0		 test	 eax, eax
  000bb	75 22		 jne	 SHORT $LN37@SetSize

; 434  : 		{
; 435  : 			// heuristically determine growth when nGrowBy == 0
; 436  : 			//  (this avoids heap fragmentation in many situations)
; 437  : 			nGrowBy = m_nSize / 8;

  000bd	8b 43 08	 mov	 eax, DWORD PTR [ebx+8]
  000c0	99		 cdq
  000c1	83 e2 07	 and	 edx, 7
  000c4	03 c2		 add	 eax, edx
  000c6	c1 f8 03	 sar	 eax, 3

; 438  : 			nGrowBy = (nGrowBy < 4) ? 4 : ((nGrowBy > 1024) ? 1024 : nGrowBy);

  000c9	83 f8 04	 cmp	 eax, 4
  000cc	7d 07		 jge	 SHORT $LN36@SetSize
  000ce	b8 04 00 00 00	 mov	 eax, 4
  000d3	eb 0a		 jmp	 SHORT $LN37@SetSize
$LN36@SetSize:
  000d5	b9 00 04 00 00	 mov	 ecx, 1024		; 00000400H
  000da	3b c1		 cmp	 eax, ecx
  000dc	0f 4f c1	 cmovg	 eax, ecx
$LN37@SetSize:

; 439  : 		}
; 440  : 		INT_PTR nNewMax;
; 441  : 		if (nNewSize < m_nMaxSize + nGrowBy)

  000df	03 f8		 add	 edi, eax
  000e1	3b f7		 cmp	 esi, edi
  000e3	7d 0b		 jge	 SHORT $LN30@SetSize

; 445  : 
; 446  : 		ASSERT(nNewMax >= m_nMaxSize);  // no wrap around
; 447  : 
; 448  : 		if(nNewMax  < m_nMaxSize)

  000e5	3b 7b 0c	 cmp	 edi, DWORD PTR [ebx+12]
  000e8	0f 8c e8 00 00
	00		 jl	 $LN70@SetSize
  000ee	eb 02		 jmp	 SHORT $LN32@SetSize
$LN30@SetSize:

; 442  : 			nNewMax = m_nMaxSize + nGrowBy;  // granularity
; 443  : 		else
; 444  : 			nNewMax = nNewSize;  // no slush

  000f0	8b fe		 mov	 edi, esi
$LN32@SetSize:

; 450  : 
; 451  : #ifdef SIZE_T_MAX
; 452  : 		ASSERT(nNewMax <= SIZE_T_MAX/sizeof(TYPE)); // no overflow
; 453  : #endif
; 454  : 		TYPE* pNewData = (TYPE*) new BYTE[(size_t)nNewMax * sizeof(TYPE)];

  000f2	8d 04 bd 00 00
	00 00		 lea	 eax, DWORD PTR [edi*4]
  000f9	50		 push	 eax
  000fa	e8 00 00 00 00	 call	 ??_U@YAPAXI@Z		; operator new[]

; 455  : 
; 456  : 		// copy new data from old
; 457  : 		::ATL::Checked::memcpy_s(pNewData, (size_t)nNewMax * sizeof(TYPE),

  000ff	8b 53 04	 mov	 edx, DWORD PTR [ebx+4]
  00102	8b c8		 mov	 ecx, eax
  00104	8b 43 08	 mov	 eax, DWORD PTR [ebx+8]
  00107	83 c4 04	 add	 esp, 4
  0010a	c1 e0 02	 shl	 eax, 2
  0010d	89 4d 0c	 mov	 DWORD PTR _pNewData$1$[ebp], ecx
  00110	89 45 fc	 mov	 DWORD PTR __N$1$[ebp], eax
  00113	89 55 08	 mov	 DWORD PTR __S2$1$[ebp], edx
; File C:\Program Files (x86)\Windows Kits\10\Include\10.0.22000.0\ucrt\corecrt_memcpy_s.h

; 46   :         if (_SourceSize == 0)

  00116	85 c0		 test	 eax, eax
  00118	74 76		 je	 SHORT $LN74@SetSize

; 47   :         {
; 48   :             return 0;
; 49   :         }
; 50   : 
; 51   :         _CRT_MEMCPY_S_VALIDATE_RETURN_ERRCODE(_Destination != NULL, EINVAL);

  0011a	85 c9		 test	 ecx, ecx
  0011c	75 56		 jne	 SHORT $LN42@SetSize
$LN73@SetSize:
; File C:\Program Files (x86)\Microsoft Visual Studio\2019\Community\VC\Tools\MSVC\14.29.30133\atlmfc\include\atlchecked.h

; 69   : 	ATLMFC_CRT_ERRORCHECK(::memcpy_s(_S1, _S1max, _S2, _N));

  0011e	ff 15 00 00 00
	00		 call	 DWORD PTR __imp___errno
  00124	c7 00 16 00 00
	00		 mov	 DWORD PTR [eax], 22	; 00000016H
  0012a	ff 15 00 00 00
	00		 call	 DWORD PTR __imp___invalid_parameter_noinfo
$LN46@SetSize:
  00130	b8 16 00 00 00	 mov	 eax, 22			; 00000016H
$LN40@SetSize:
  00135	50		 push	 eax
  00136	e8 00 00 00 00	 call	 ?AfxCrtErrorCheck@@YAHH@Z ; AfxCrtErrorCheck
; File C:\Program Files (x86)\Microsoft Visual Studio\2019\Community\VC\Tools\MSVC\14.29.30133\atlmfc\include\afxtempl.h

; 462  : 		memset((void*)(pNewData + m_nSize), 0, (size_t)(nNewSize-m_nSize) * sizeof(TYPE));

  0013b	8b 4b 08	 mov	 ecx, DWORD PTR [ebx+8]
  0013e	8b c6		 mov	 eax, esi
  00140	2b c1		 sub	 eax, ecx
  00142	c1 e0 02	 shl	 eax, 2
  00145	50		 push	 eax
  00146	8b 45 0c	 mov	 eax, DWORD PTR _pNewData$1$[ebp]
  00149	6a 00		 push	 0
  0014b	8d 04 88	 lea	 eax, DWORD PTR [eax+ecx*4]
  0014e	50		 push	 eax
  0014f	e8 00 00 00 00	 call	 _memset

; 463  : 		for( int i = 0; i < nNewSize-m_nSize; i++ )
; 464  : #pragma push_macro("new")
; 465  : #undef new
; 466  : 			::new( (void*)( pNewData + m_nSize + i ) ) TYPE;
; 467  : #pragma pop_macro("new")
; 468  : 
; 469  : 		// get rid of old stuff (note: no destructors called)
; 470  : 		delete[] (BYTE*)m_pData;

  00154	ff 73 04	 push	 DWORD PTR [ebx+4]
  00157	e8 00 00 00 00	 call	 ??_V@YAXPAX@Z		; operator delete[]

; 471  : 		m_pData = pNewData;

  0015c	8b 45 0c	 mov	 eax, DWORD PTR _pNewData$1$[ebp]
  0015f	83 c4 14	 add	 esp, 20			; 00000014H

; 472  : 		m_nSize = nNewSize;
; 473  : 		m_nMaxSize = nNewMax;
; 474  : 	}
; 475  : }

  00162	89 7b 0c	 mov	 DWORD PTR [ebx+12], edi
  00165	89 73 08	 mov	 DWORD PTR [ebx+8], esi
  00168	89 43 04	 mov	 DWORD PTR [ebx+4], eax
  0016b	5f		 pop	 edi
  0016c	5e		 pop	 esi
  0016d	5b		 pop	 ebx
  0016e	8b e5		 mov	 esp, ebp
  00170	5d		 pop	 ebp
  00171	c2 08 00	 ret	 8
$LN42@SetSize:
; File C:\Program Files (x86)\Windows Kits\10\Include\10.0.22000.0\ucrt\corecrt_memcpy_s.h

; 52   :         if (_Source == NULL || _DestinationSize < _SourceSize)

  00174	85 d2		 test	 edx, edx
  00176	8d 14 bd 00 00
	00 00		 lea	 edx, DWORD PTR [edi*4]
  0017d	74 15		 je	 SHORT $LN44@SetSize
  0017f	3b d0		 cmp	 edx, eax
  00181	72 11		 jb	 SHORT $LN44@SetSize

; 58   : 
; 59   :             // Unreachable, but required to suppress /analyze warnings:
; 60   :             return EINVAL;
; 61   :         }
; 62   :         memcpy(_Destination, _Source, _SourceSize);

  00183	50		 push	 eax
  00184	ff 75 08	 push	 DWORD PTR __S2$1$[ebp]
  00187	51		 push	 ecx
  00188	e8 00 00 00 00	 call	 _memcpy
  0018d	83 c4 0c	 add	 esp, 12			; 0000000cH
$LN74@SetSize:
; File C:\Program Files (x86)\Microsoft Visual Studio\2019\Community\VC\Tools\MSVC\14.29.30133\atlmfc\include\atlchecked.h

; 69   : 	ATLMFC_CRT_ERRORCHECK(::memcpy_s(_S1, _S1max, _S2, _N));

  00190	33 c0		 xor	 eax, eax
  00192	eb a1		 jmp	 SHORT $LN40@SetSize
$LN44@SetSize:
; File C:\Program Files (x86)\Windows Kits\10\Include\10.0.22000.0\ucrt\corecrt_memcpy_s.h

; 54   :             memset(_Destination, 0, _DestinationSize);

  00194	52		 push	 edx
  00195	6a 00		 push	 0
  00197	51		 push	 ecx
  00198	e8 00 00 00 00	 call	 _memset
  0019d	83 c4 0c	 add	 esp, 12			; 0000000cH

; 55   : 
; 56   :             _CRT_MEMCPY_S_VALIDATE_RETURN_ERRCODE(_Source != NULL,                 EINVAL);

  001a0	83 7d 08 00	 cmp	 DWORD PTR __S2$1$[ebp], 0
  001a4	0f 84 74 ff ff
	ff		 je	 $LN73@SetSize

; 57   :             _CRT_MEMCPY_S_VALIDATE_RETURN_ERRCODE(_DestinationSize >= _SourceSize, ERANGE);

  001aa	8d 04 bd 00 00
	00 00		 lea	 eax, DWORD PTR [edi*4]
  001b1	3b 45 fc	 cmp	 eax, DWORD PTR __N$1$[ebp]
  001b4	0f 83 76 ff ff
	ff		 jae	 $LN46@SetSize
  001ba	ff 15 00 00 00
	00		 call	 DWORD PTR __imp___errno
  001c0	c7 00 22 00 00
	00		 mov	 DWORD PTR [eax], 34	; 00000022H
  001c6	ff 15 00 00 00
	00		 call	 DWORD PTR __imp___invalid_parameter_noinfo
  001cc	b8 22 00 00 00	 mov	 eax, 34			; 00000022H
  001d1	e9 5f ff ff ff	 jmp	 $LN40@SetSize
$LN70@SetSize:
; File C:\Program Files (x86)\Microsoft Visual Studio\2019\Community\VC\Tools\MSVC\14.29.30133\atlmfc\include\afxtempl.h

; 449  : 			AfxThrowInvalidArgException();

  001d6	e8 00 00 00 00	 call	 ?AfxThrowInvalidArgException@@YGXXZ ; AfxThrowInvalidArgException
$LN72@SetSize:
  001db	cc		 int	 3
?SetSize@?$CArray@PAU__MASTERCODE@@PAU1@@@QAEXHH@Z ENDP	; CArray<__MASTERCODE *,__MASTERCODE *>::SetSize
_TEXT	ENDS
; Function compile flags: /Ogtp
;	COMDAT ??1CCodeTypeA@@QAE@XZ
_TEXT	SEGMENT
??1CCodeTypeA@@QAE@XZ PROC				; CCodeTypeA::~CCodeTypeA, COMDAT
; _this$ = ecx
  00000	56		 push	 esi
  00001	8b f1		 mov	 esi, ecx
  00003	8d 4e 0c	 lea	 ecx, DWORD PTR [esi+12]
  00006	ff 15 00 00 00
	00		 call	 DWORD PTR __imp_??1?$CStringT@DV?$StrTraitMFC_DLL@DV?$ChTraitsCRT@D@ATL@@@@@ATL@@QAE@XZ
  0000c	8d 4e 08	 lea	 ecx, DWORD PTR [esi+8]
  0000f	5e		 pop	 esi
  00010	ff 25 00 00 00
	00		 jmp	 DWORD PTR __imp_??1?$CStringT@DV?$StrTraitMFC_DLL@DV?$ChTraitsCRT@D@ATL@@@@@ATL@@QAE@XZ
??1CCodeTypeA@@QAE@XZ ENDP				; CCodeTypeA::~CCodeTypeA
_TEXT	ENDS
; Function compile flags: /Ogtp
; File D:\git\src\IBK\IBK_DRFN\ProjSrc\SrcDrfn\inc\ITreeListMng.h
;	COMDAT ?ConvertOneClickData@CCodeTypeA@@UAEXPAD@Z
_TEXT	SEGMENT
_strData$ = 8						; size = 4
?ConvertOneClickData@CCodeTypeA@@UAEXPAD@Z PROC		; CCodeTypeA::ConvertOneClickData, COMDAT
; _this$ = ecx

; 374  : 	{

  00000	55		 push	 ebp
  00001	8b ec		 mov	 ebp, esp

; 376  : 	}

  00003	5d		 pop	 ebp

; 375  : 		CCodeTypeBase::ConvertOneClickData(strData);

  00004	e9 00 00 00 00	 jmp	 ?ConvertOneClickData@CCodeTypeBase@@UAEXPAD@Z ; CCodeTypeBase::ConvertOneClickData
?ConvertOneClickData@CCodeTypeA@@UAEXPAD@Z ENDP		; CCodeTypeA::ConvertOneClickData
_TEXT	ENDS
; Function compile flags: /Ogtp
; File D:\git\src\IBK\IBK_DRFN\ProjSrc\SrcDrfn\inc\ITreeListMng.h
;	COMDAT ?Convert2@CCodeTypeA@@UAEXPAD@Z
_TEXT	SEGMENT
_sTmp$ = -28						; size = 21
__$ArrayPad$ = -4					; size = 4
_pData$ = 8						; size = 4
?Convert2@CCodeTypeA@@UAEXPAD@Z PROC			; CCodeTypeA::Convert2, COMDAT
; _this$ = ecx

; 361  : 	{

  00000	55		 push	 ebp
  00001	8b ec		 mov	 ebp, esp
  00003	83 ec 1c	 sub	 esp, 28			; 0000001cH
  00006	a1 00 00 00 00	 mov	 eax, DWORD PTR ___security_cookie
  0000b	33 c5		 xor	 eax, ebp
  0000d	89 45 fc	 mov	 DWORD PTR __$ArrayPad$[ebp], eax
  00010	56		 push	 esi
  00011	8b 75 08	 mov	 esi, DWORD PTR _pData$[ebp]
  00014	57		 push	 edi
  00015	8b f9		 mov	 edi, ecx

; 362  : 		int nL;
; 363  : 		char sTmp[20+1];
; 364  : 		nL=6;  memcpy(sTmp, pData, nL); sTmp[nL]=0;  pData=&pData[nL]; m_szcode=sTmp;

  00017	c6 45 ea 00	 mov	 BYTE PTR _sTmp$[ebp+6], 0
  0001b	8b 06		 mov	 eax, DWORD PTR [esi]
  0001d	89 45 e4	 mov	 DWORD PTR _sTmp$[ebp], eax
  00020	66 8b 46 04	 mov	 ax, WORD PTR [esi+4]
  00024	8d 4f 08	 lea	 ecx, DWORD PTR [edi+8]
  00027	66 89 45 e8	 mov	 WORD PTR _sTmp$[ebp+4], ax
  0002b	8d 45 e4	 lea	 eax, DWORD PTR _sTmp$[ebp]
  0002e	50		 push	 eax
  0002f	ff 15 00 00 00
	00		 call	 DWORD PTR __imp_??4?$CStringT@DV?$StrTraitMFC_DLL@DV?$ChTraitsCRT@D@ATL@@@@@ATL@@QAEAAV01@PBD@Z

; 365  : 		nL=20; memcpy(sTmp, pData, nL); sTmp[nL]=0;  m_szhname=sTmp; m_szhname.TrimRight();

  00035	0f 10 46 06	 movups	 xmm0, XMMWORD PTR [esi+6]
  00039	8d 4f 0c	 lea	 ecx, DWORD PTR [edi+12]
  0003c	0f 11 45 e4	 movups	 XMMWORD PTR _sTmp$[ebp], xmm0
  00040	8b 46 16	 mov	 eax, DWORD PTR [esi+22]
  00043	89 45 f4	 mov	 DWORD PTR _sTmp$[ebp+16], eax
  00046	8d 45 e4	 lea	 eax, DWORD PTR _sTmp$[ebp]
  00049	50		 push	 eax
  0004a	c6 45 f8 00	 mov	 BYTE PTR _sTmp$[ebp+20], 0
  0004e	ff 15 00 00 00
	00		 call	 DWORD PTR __imp_??4?$CStringT@DV?$StrTraitMFC_DLL@DV?$ChTraitsCRT@D@ATL@@@@@ATL@@QAEAAV01@PBD@Z
  00054	8d 4f 0c	 lea	 ecx, DWORD PTR [edi+12]
  00057	ff 15 00 00 00
	00		 call	 DWORD PTR __imp_?TrimRight@?$CStringT@DV?$StrTraitMFC_DLL@DV?$ChTraitsCRT@D@ATL@@@@@ATL@@QAEAAV12@XZ

; 366  : 	}

  0005d	8b 4d fc	 mov	 ecx, DWORD PTR __$ArrayPad$[ebp]
  00060	5f		 pop	 edi
  00061	33 cd		 xor	 ecx, ebp
  00063	5e		 pop	 esi
  00064	e8 00 00 00 00	 call	 @__security_check_cookie@4
  00069	8b e5		 mov	 esp, ebp
  0006b	5d		 pop	 ebp
  0006c	c2 04 00	 ret	 4
?Convert2@CCodeTypeA@@UAEXPAD@Z ENDP			; CCodeTypeA::Convert2
_TEXT	ENDS
; Function compile flags: /Ogtp
; File D:\git\src\IBK\IBK_DRFN\ProjSrc\SrcDrfn\inc\ITreeListMng.h
;	COMDAT ?Convert@CCodeTypeA@@UAEXPAD@Z
_TEXT	SEGMENT
_sTmp$ = -28						; size = 21
__$ArrayPad$ = -4					; size = 4
_pData$ = 8						; size = 4
?Convert@CCodeTypeA@@UAEXPAD@Z PROC			; CCodeTypeA::Convert, COMDAT
; _this$ = ecx

; 352  : 	{

  00000	55		 push	 ebp
  00001	8b ec		 mov	 ebp, esp
  00003	83 ec 1c	 sub	 esp, 28			; 0000001cH
  00006	a1 00 00 00 00	 mov	 eax, DWORD PTR ___security_cookie
  0000b	33 c5		 xor	 eax, ebp
  0000d	89 45 fc	 mov	 DWORD PTR __$ArrayPad$[ebp], eax
  00010	56		 push	 esi
  00011	8b 75 08	 mov	 esi, DWORD PTR _pData$[ebp]
  00014	57		 push	 edi
  00015	8b f9		 mov	 edi, ecx

; 353  : 		int nL;
; 354  : 		char sTmp[20+1];
; 355  : 		m_cGb = pData[0];   pData=&pData[1];
; 356  : 		nL=6;  memcpy(sTmp, pData, nL); sTmp[nL]=0;  pData=&pData[nL]; m_szcode=sTmp;

  00017	c6 45 ea 00	 mov	 BYTE PTR _sTmp$[ebp+6], 0
  0001b	8a 06		 mov	 al, BYTE PTR [esi]
  0001d	88 47 04	 mov	 BYTE PTR [edi+4], al
  00020	8d 4f 08	 lea	 ecx, DWORD PTR [edi+8]
  00023	8b 46 01	 mov	 eax, DWORD PTR [esi+1]
  00026	89 45 e4	 mov	 DWORD PTR _sTmp$[ebp], eax
  00029	66 8b 46 05	 mov	 ax, WORD PTR [esi+5]
  0002d	66 89 45 e8	 mov	 WORD PTR _sTmp$[ebp+4], ax
  00031	8d 45 e4	 lea	 eax, DWORD PTR _sTmp$[ebp]
  00034	50		 push	 eax
  00035	ff 15 00 00 00
	00		 call	 DWORD PTR __imp_??4?$CStringT@DV?$StrTraitMFC_DLL@DV?$ChTraitsCRT@D@ATL@@@@@ATL@@QAEAAV01@PBD@Z

; 357  : 		nL=20; memcpy(sTmp, pData, nL); sTmp[nL]=0;  m_szhname=sTmp; m_szhname.TrimRight();

  0003b	0f 10 46 07	 movups	 xmm0, XMMWORD PTR [esi+7]
  0003f	8d 4f 0c	 lea	 ecx, DWORD PTR [edi+12]
  00042	0f 11 45 e4	 movups	 XMMWORD PTR _sTmp$[ebp], xmm0
  00046	8b 46 17	 mov	 eax, DWORD PTR [esi+23]
  00049	89 45 f4	 mov	 DWORD PTR _sTmp$[ebp+16], eax
  0004c	8d 45 e4	 lea	 eax, DWORD PTR _sTmp$[ebp]
  0004f	50		 push	 eax
  00050	c6 45 f8 00	 mov	 BYTE PTR _sTmp$[ebp+20], 0
  00054	ff 15 00 00 00
	00		 call	 DWORD PTR __imp_??4?$CStringT@DV?$StrTraitMFC_DLL@DV?$ChTraitsCRT@D@ATL@@@@@ATL@@QAEAAV01@PBD@Z
  0005a	8d 4f 0c	 lea	 ecx, DWORD PTR [edi+12]
  0005d	ff 15 00 00 00
	00		 call	 DWORD PTR __imp_?TrimRight@?$CStringT@DV?$StrTraitMFC_DLL@DV?$ChTraitsCRT@D@ATL@@@@@ATL@@QAEAAV12@XZ

; 358  : 	}

  00063	8b 4d fc	 mov	 ecx, DWORD PTR __$ArrayPad$[ebp]
  00066	5f		 pop	 edi
  00067	33 cd		 xor	 ecx, ebp
  00069	5e		 pop	 esi
  0006a	e8 00 00 00 00	 call	 @__security_check_cookie@4
  0006f	8b e5		 mov	 esp, ebp
  00071	5d		 pop	 ebp
  00072	c2 04 00	 ret	 4
?Convert@CCodeTypeA@@UAEXPAD@Z ENDP			; CCodeTypeA::Convert
_TEXT	ENDS
; Function compile flags: /Ogtp
; File D:\git\src\IBK\IBK_DRFN\ProjSrc\SrcDrfn\inc\ITreeListMng.h
;	COMDAT ??0CCodeTypeA@@QAE@XZ
_TEXT	SEGMENT
_this$ = -4						; size = 4
??0CCodeTypeA@@QAE@XZ PROC				; CCodeTypeA::CCodeTypeA, COMDAT
; _this$ = ecx

; 350  : 	CCodeTypeA() {}

  00000	55		 push	 ebp
  00001	8b ec		 mov	 ebp, esp
  00003	51		 push	 ecx
  00004	56		 push	 esi
  00005	8b f1		 mov	 esi, ecx
  00007	89 75 fc	 mov	 DWORD PTR _this$[ebp], esi
  0000a	8d 4e 08	 lea	 ecx, DWORD PTR [esi+8]
  0000d	c7 06 00 00 00
	00		 mov	 DWORD PTR [esi], OFFSET ??_7CCodeTypeBase@@6B@
  00013	ff 15 00 00 00
	00		 call	 DWORD PTR __imp_??0?$CStringT@DV?$StrTraitMFC_DLL@DV?$ChTraitsCRT@D@ATL@@@@@ATL@@QAE@XZ
  00019	8d 4e 0c	 lea	 ecx, DWORD PTR [esi+12]
  0001c	ff 15 00 00 00
	00		 call	 DWORD PTR __imp_??0?$CStringT@DV?$StrTraitMFC_DLL@DV?$ChTraitsCRT@D@ATL@@@@@ATL@@QAE@XZ
  00022	c7 06 00 00 00
	00		 mov	 DWORD PTR [esi], OFFSET ??_7CCodeTypeA@@6B@
  00028	8b c6		 mov	 eax, esi
  0002a	5e		 pop	 esi
  0002b	8b e5		 mov	 esp, ebp
  0002d	5d		 pop	 ebp
  0002e	c3		 ret	 0
??0CCodeTypeA@@QAE@XZ ENDP				; CCodeTypeA::CCodeTypeA
_TEXT	ENDS
; Function compile flags: /Ogtp
; File D:\git\src\IBK\IBK_DRFN\ProjSrc\SrcDrfn\inc\ITreeListMng.h
; File C:\Program Files (x86)\Microsoft Visual Studio\2019\Community\VC\Tools\MSVC\14.29.30133\atlmfc\include\atlsimpstr.h
; File D:\git\src\IBK\IBK_DRFN\ProjSrc\SrcDrfn\inc\ITreeListMng.h
; File C:\Program Files (x86)\Microsoft Visual Studio\2019\Community\VC\Tools\MSVC\14.29.30133\atlmfc\include\cstringt.h
; File D:\git\src\IBK\IBK_DRFN\ProjSrc\SrcDrfn\inc\ITreeListMng.h
; File C:\Program Files (x86)\Microsoft Visual Studio\2019\Community\VC\Tools\MSVC\14.29.30133\atlmfc\include\cstringt.h
; File D:\git\src\IBK\IBK_DRFN\ProjSrc\SrcDrfn\inc\ITreeListMng.h
; File C:\Program Files (x86)\Microsoft Visual Studio\2019\Community\VC\Tools\MSVC\14.29.30133\atlmfc\include\cstringt.h
; File D:\git\src\IBK\IBK_DRFN\ProjSrc\SrcDrfn\inc\ITreeListMng.h
; File C:\Program Files (x86)\Microsoft Visual Studio\2019\Community\VC\Tools\MSVC\14.29.30133\atlmfc\include\cstringt.h
; File D:\git\src\IBK\IBK_DRFN\ProjSrc\SrcDrfn\inc\ITreeListMng.h
;	COMDAT ?ConvertOneClickData@CCodeTypeBase@@UAEXPAD@Z
_TEXT	SEGMENT
__$EHRec$ = -12						; size = 12
_szKey$2 = 8						; size = 4
_strData$ = 8						; size = 4
?ConvertOneClickData@CCodeTypeBase@@UAEXPAD@Z PROC	; CCodeTypeBase::ConvertOneClickData, COMDAT
; _this$ = ecx

; 321  : 	{

  00000	55		 push	 ebp
  00001	8b ec		 mov	 ebp, esp
  00003	6a ff		 push	 -1
  00005	68 00 00 00 00	 push	 __ehhandler$?ConvertOneClickData@CCodeTypeBase@@UAEXPAD@Z
  0000a	64 a1 00 00 00
	00		 mov	 eax, DWORD PTR fs:0
  00010	50		 push	 eax
  00011	56		 push	 esi
  00012	57		 push	 edi
  00013	a1 00 00 00 00	 mov	 eax, DWORD PTR ___security_cookie
  00018	33 c5		 xor	 eax, ebp
  0001a	50		 push	 eax
  0001b	8d 45 f4	 lea	 eax, DWORD PTR __$EHRec$[ebp]
  0001e	64 a3 00 00 00
	00		 mov	 DWORD PTR fs:0, eax
  00024	8b f9		 mov	 edi, ecx

; 322  : 		// Virtual  ...
; 323  : 		Convert2(strData);

  00026	8b 07		 mov	 eax, DWORD PTR [edi]
  00028	ff 75 08	 push	 DWORD PTR _strData$[ebp]
  0002b	ff 50 04	 call	 DWORD PTR [eax+4]
; File C:\Program Files (x86)\Microsoft Visual Studio\2019\Community\VC\Tools\MSVC\14.29.30133\atlmfc\include\atlsimpstr.h

; 377  : 		return( m_pszData );

  0002e	8b 77 0c	 mov	 esi, DWORD PTR [edi+12]
; File D:\git\src\IBK\IBK_DRFN\ProjSrc\SrcDrfn\inc\ITreeListMng.h

; 329  : 		CString szKey;

  00031	8d 4d 08	 lea	 ecx, DWORD PTR _szKey$2[ebp]
  00034	ff 15 00 00 00
	00		 call	 DWORD PTR __imp_??0?$CStringT@DV?$StrTraitMFC_DLL@DV?$ChTraitsCRT@D@ATL@@@@@ATL@@QAE@XZ

; 330  : 		szKey.Format("%2.2s", strData);

  0003a	56		 push	 esi
  0003b	8d 45 08	 lea	 eax, DWORD PTR _szKey$2[ebp]
  0003e	c7 45 fc 00 00
	00 00		 mov	 DWORD PTR __$EHRec$[ebp+8], 0
  00045	68 00 00 00 00	 push	 OFFSET ??_C@_05KBKNOCPJ@?$CF2?42s@
  0004a	50		 push	 eax
  0004b	ff 15 00 00 00
	00		 call	 DWORD PTR __imp_?Format@?$CStringT@DV?$StrTraitMFC_DLL@DV?$ChTraitsCRT@D@ATL@@@@@ATL@@QAAXPBDZZ
  00051	83 c4 0c	 add	 esp, 12			; 0000000cH
; File C:\Program Files (x86)\Microsoft Visual Studio\2019\Community\VC\Tools\MSVC\14.29.30133\atlmfc\include\cstringt.h

; 2486 : 		return(str1.Compare(psz2) == 0);

  00054	8d 4d 08	 lea	 ecx, DWORD PTR _szKey$2[ebp]
  00057	68 00 00 00 00	 push	 OFFSET ??_C@_02BJKMHJON@?$KI?W@
  0005c	ff 15 00 00 00
	00		 call	 DWORD PTR __imp_?Compare@?$CStringT@DV?$StrTraitMFC_DLL@DV?$ChTraitsCRT@D@ATL@@@@@ATL@@QBEHPBD@Z
; File D:\git\src\IBK\IBK_DRFN\ProjSrc\SrcDrfn\inc\ITreeListMng.h

; 332  : 		if (szKey == "")	

  00062	8d 4d 08	 lea	 ecx, DWORD PTR _szKey$2[ebp]
; File C:\Program Files (x86)\Microsoft Visual Studio\2019\Community\VC\Tools\MSVC\14.29.30133\atlmfc\include\cstringt.h

; 2486 : 		return(str1.Compare(psz2) == 0);

  00065	85 c0		 test	 eax, eax
; File D:\git\src\IBK\IBK_DRFN\ProjSrc\SrcDrfn\inc\ITreeListMng.h

; 332  : 		if (szKey == "")	

  00067	75 0a		 jne	 SHORT $LN6@ConvertOne

; 333  : 		{
; 334  : 			return codeType_KOSDAQ;

  00069	ff 15 00 00 00
	00		 call	 DWORD PTR __imp_??1?$CStringT@DV?$StrTraitMFC_DLL@DV?$ChTraitsCRT@D@ATL@@@@@ATL@@QAE@XZ
  0006f	b0 02		 mov	 al, 2
  00071	eb 24		 jmp	 SHORT $LN17@ConvertOne
$LN6@ConvertOne:
; File C:\Program Files (x86)\Microsoft Visual Studio\2019\Community\VC\Tools\MSVC\14.29.30133\atlmfc\include\cstringt.h

; 2486 : 		return(str1.Compare(psz2) == 0);

  00073	68 00 00 00 00	 push	 OFFSET ??_C@_02IJKLNJNJ@?$KI?$OA@
  00078	ff 15 00 00 00
	00		 call	 DWORD PTR __imp_?Compare@?$CStringT@DV?$StrTraitMFC_DLL@DV?$ChTraitsCRT@D@ATL@@@@@ATL@@QBEHPBD@Z
; File D:\git\src\IBK\IBK_DRFN\ProjSrc\SrcDrfn\inc\ITreeListMng.h

; 336  : 		else if(szKey == "")

  0007e	8d 4d 08	 lea	 ecx, DWORD PTR _szKey$2[ebp]
; File C:\Program Files (x86)\Microsoft Visual Studio\2019\Community\VC\Tools\MSVC\14.29.30133\atlmfc\include\cstringt.h

; 2486 : 		return(str1.Compare(psz2) == 0);

  00081	85 c0		 test	 eax, eax
; File D:\git\src\IBK\IBK_DRFN\ProjSrc\SrcDrfn\inc\ITreeListMng.h

; 336  : 		else if(szKey == "")

  00083	75 0a		 jne	 SHORT $LN8@ConvertOne

; 337  : 		{
; 338  : 			return codeType_FREEBOARD;

  00085	ff 15 00 00 00
	00		 call	 DWORD PTR __imp_??1?$CStringT@DV?$StrTraitMFC_DLL@DV?$ChTraitsCRT@D@ATL@@@@@ATL@@QAE@XZ
  0008b	b0 03		 mov	 al, 3
  0008d	eb 08		 jmp	 SHORT $LN17@ConvertOne
$LN8@ConvertOne:

; 339  : 		}
; 340  : 		else
; 341  : 		{
; 342  : 			return codeType_KOSPI;

  0008f	ff 15 00 00 00
	00		 call	 DWORD PTR __imp_??1?$CStringT@DV?$StrTraitMFC_DLL@DV?$ChTraitsCRT@D@ATL@@@@@ATL@@QAE@XZ
  00095	b0 01		 mov	 al, 1
$LN17@ConvertOne:

; 324  : 		m_cGb = CheckeNameType((LPSTR)(LPCSTR)m_szhname);
; 325  : 	}

  00097	88 47 04	 mov	 BYTE PTR [edi+4], al
  0009a	8b 4d f4	 mov	 ecx, DWORD PTR __$EHRec$[ebp]
  0009d	64 89 0d 00 00
	00 00		 mov	 DWORD PTR fs:0, ecx
  000a4	59		 pop	 ecx
  000a5	5f		 pop	 edi
  000a6	5e		 pop	 esi
  000a7	8b e5		 mov	 esp, ebp
  000a9	5d		 pop	 ebp
  000aa	c2 04 00	 ret	 4
_TEXT	ENDS
;	COMDAT text$x
text$x	SEGMENT
__unwindfunclet$?ConvertOneClickData@CCodeTypeBase@@UAEXPAD@Z$0:
  00000	8d 4d 08	 lea	 ecx, DWORD PTR _szKey$2[ebp]
  00003	ff 25 00 00 00
	00		 jmp	 DWORD PTR __imp_??1?$CStringT@DV?$StrTraitMFC_DLL@DV?$ChTraitsCRT@D@ATL@@@@@ATL@@QAE@XZ
  00009	cc		 int	 3
  0000a	cc		 int	 3
  0000b	cc		 int	 3
  0000c	cc		 int	 3
  0000d	cc		 int	 3
__ehhandler$?ConvertOneClickData@CCodeTypeBase@@UAEXPAD@Z:
  0000e	90		 npad	 1
  0000f	90		 npad	 1
  00010	8b 54 24 08	 mov	 edx, DWORD PTR [esp+8]
  00014	8d 42 0c	 lea	 eax, DWORD PTR [edx+12]
  00017	8b 4a f4	 mov	 ecx, DWORD PTR [edx-12]
  0001a	33 c8		 xor	 ecx, eax
  0001c	e8 00 00 00 00	 call	 @__security_check_cookie@4
  00021	b8 00 00 00 00	 mov	 eax, OFFSET __ehfuncinfo$?ConvertOneClickData@CCodeTypeBase@@UAEXPAD@Z
  00026	e9 00 00 00 00	 jmp	 ___CxxFrameHandler3
text$x	ENDS
?ConvertOneClickData@CCodeTypeBase@@UAEXPAD@Z ENDP	; CCodeTypeBase::ConvertOneClickData
; Function compile flags: /Ogtp
; File D:\git\src\IBK\IBK_DRFN\ProjSrc\SrcDrfn\inc\ITreeListMng.h
;	COMDAT ?Convert2@CCodeTypeBase@@UAEXPAD@Z
_TEXT	SEGMENT
_pData$ = 8						; size = 4
?Convert2@CCodeTypeBase@@UAEXPAD@Z PROC			; CCodeTypeBase::Convert2, COMDAT
; _this$ = ecx

; 318  : 	virtual void  Convert2(char* pData) 	{}

  00000	c2 04 00	 ret	 4
?Convert2@CCodeTypeBase@@UAEXPAD@Z ENDP			; CCodeTypeBase::Convert2
_TEXT	ENDS
; Function compile flags: /Ogtp
; File D:\git\src\IBK\IBK_DRFN\ProjSrc\SrcDrfn\inc\ITreeListMng.h
;	COMDAT ?Convert@CCodeTypeBase@@UAEXPAD@Z
_TEXT	SEGMENT
_pData$ = 8						; size = 4
?Convert@CCodeTypeBase@@UAEXPAD@Z PROC			; CCodeTypeBase::Convert, COMDAT
; _this$ = ecx

; 317  : 	virtual void  Convert(char* pData) 	{}

  00000	c2 04 00	 ret	 4
?Convert@CCodeTypeBase@@UAEXPAD@Z ENDP			; CCodeTypeBase::Convert
_TEXT	ENDS
; Function compile flags: /Ogtp
;	COMDAT ??1CInputCodeListEx@@QAE@XZ
_TEXT	SEGMENT
??1CInputCodeListEx@@QAE@XZ PROC			; CInputCodeListEx::~CInputCodeListEx, COMDAT
; _this$ = ecx
  00000	56		 push	 esi
  00001	8b f1		 mov	 esi, ecx
  00003	8d 4e 08	 lea	 ecx, DWORD PTR [esi+8]
  00006	ff 15 00 00 00
	00		 call	 DWORD PTR __imp_??1?$CStringT@DV?$StrTraitMFC_DLL@DV?$ChTraitsCRT@D@ATL@@@@@ATL@@QAE@XZ
  0000c	8d 4e 04	 lea	 ecx, DWORD PTR [esi+4]
  0000f	5e		 pop	 esi
  00010	ff 25 00 00 00
	00		 jmp	 DWORD PTR __imp_??1?$CStringT@DV?$StrTraitMFC_DLL@DV?$ChTraitsCRT@D@ATL@@@@@ATL@@QAE@XZ
??1CInputCodeListEx@@QAE@XZ ENDP			; CInputCodeListEx::~CInputCodeListEx
_TEXT	ENDS
; Function compile flags: /Ogtp
; File D:\git\src\IBK\IBK_DRFN\ProjSrc\SrcDrfn\inc\IBaseDefine.h
;	COMDAT ?AfxGetPctrInterface@@YGJH@Z
_TEXT	SEGMENT
_hMainWnd$ = -36					; size = 4
_szClipFormat$2 = -32					; size = 4
_aBufWnd$3 = -28					; size = 9
__$ArrayPad$ = -16					; size = 4
__$EHRec$ = -12						; size = 12
_nID$ = 8						; size = 4
?AfxGetPctrInterface@@YGJH@Z PROC			; AfxGetPctrInterface, COMDAT

; 260  : {

  00000	55		 push	 ebp
  00001	8b ec		 mov	 ebp, esp
  00003	6a ff		 push	 -1
  00005	68 00 00 00 00	 push	 __ehhandler$?AfxGetPctrInterface@@YGJH@Z
  0000a	64 a1 00 00 00
	00		 mov	 eax, DWORD PTR fs:0
  00010	50		 push	 eax
  00011	83 ec 18	 sub	 esp, 24			; 00000018H
  00014	a1 00 00 00 00	 mov	 eax, DWORD PTR ___security_cookie
  00019	33 c5		 xor	 eax, ebp
  0001b	89 45 f0	 mov	 DWORD PTR __$ArrayPad$[ebp], eax
  0001e	50		 push	 eax
  0001f	8d 45 f4	 lea	 eax, DWORD PTR __$EHRec$[ebp]
  00022	64 a3 00 00 00
	00		 mov	 DWORD PTR fs:0, eax
  00028	0f 57 c0	 xorps	 xmm0, xmm0

; 261  : 	HWND hMainWnd;
; 262  : 	AfxGetHanaroMainWnd(hMainWnd);

  0002b	c7 45 dc 00 00
	00 00		 mov	 DWORD PTR _hMainWnd$[ebp], 0
  00032	8d 4d e0	 lea	 ecx, DWORD PTR _szClipFormat$2[ebp]
  00035	66 0f d6 45 e4	 movq	 QWORD PTR _aBufWnd$3[ebp], xmm0
  0003a	c6 45 ec 00	 mov	 BYTE PTR _aBufWnd$3[ebp+8], 0
  0003e	ff 15 00 00 00
	00		 call	 DWORD PTR __imp_??0?$CStringT@DV?$StrTraitMFC_DLL@DV?$ChTraitsCRT@D@ATL@@@@@ATL@@QAE@XZ
  00044	68 00 00 00 00	 push	 OFFSET ??_C@_0M@CBBNGGHM@PcTrMng?4dll@
  00049	c7 45 fc 00 00
	00 00		 mov	 DWORD PTR __$EHRec$[ebp+8], 0
  00050	ff 15 00 00 00
	00		 call	 DWORD PTR __imp__GetModuleHandleA@4
  00056	50		 push	 eax
  00057	68 00 00 00 00	 push	 OFFSET ??_C@_0P@IDMAJEGN@HANAROPCTRMAIN@
  0005c	8d 45 e0	 lea	 eax, DWORD PTR _szClipFormat$2[ebp]
  0005f	68 00 00 00 00	 push	 OFFSET ??_C@_06NDLAHCHE@?$CFs?$CF08X@
  00064	50		 push	 eax
  00065	ff 15 00 00 00
	00		 call	 DWORD PTR __imp_?Format@?$CStringT@DV?$StrTraitMFC_DLL@DV?$ChTraitsCRT@D@ATL@@@@@ATL@@QAAXPBDZZ
  0006b	83 c4 10	 add	 esp, 16			; 00000010H
  0006e	8d 45 e4	 lea	 eax, DWORD PTR _aBufWnd$3[ebp]
  00071	6a 09		 push	 9
  00073	50		 push	 eax
  00074	ff 75 e0	 push	 DWORD PTR _szClipFormat$2[ebp]
  00077	ff 15 00 00 00
	00		 call	 DWORD PTR __imp__GetEnvironmentVariableA@12
  0007d	8d 45 dc	 lea	 eax, DWORD PTR _hMainWnd$[ebp]
  00080	50		 push	 eax
  00081	8d 45 e4	 lea	 eax, DWORD PTR _aBufWnd$3[ebp]
  00084	68 00 00 00 00	 push	 OFFSET ??_C@_02EMFKHFLK@?$CFX@
  00089	50		 push	 eax
  0008a	e8 00 00 00 00	 call	 _sscanf
  0008f	83 c4 0c	 add	 esp, 12			; 0000000cH
  00092	8d 4d e0	 lea	 ecx, DWORD PTR _szClipFormat$2[ebp]
  00095	ff 15 00 00 00
	00		 call	 DWORD PTR __imp_??1?$CStringT@DV?$StrTraitMFC_DLL@DV?$ChTraitsCRT@D@ATL@@@@@ATL@@QAE@XZ

; 263  : 
; 264  : 	return ::SendMessage(hMainWnd, RMSG_INTERFACE, (WPARAM)nID, 0);

  0009b	6a 00		 push	 0
  0009d	ff 75 08	 push	 DWORD PTR _nID$[ebp]
  000a0	ff 35 00 00 00
	00		 push	 DWORD PTR ?RMSG_INTERFACE@@3IB
  000a6	ff 75 dc	 push	 DWORD PTR _hMainWnd$[ebp]
  000a9	ff 15 00 00 00
	00		 call	 DWORD PTR __imp__SendMessageA@16

; 265  : }

  000af	8b 4d f4	 mov	 ecx, DWORD PTR __$EHRec$[ebp]
  000b2	64 89 0d 00 00
	00 00		 mov	 DWORD PTR fs:0, ecx
  000b9	59		 pop	 ecx
  000ba	8b 4d f0	 mov	 ecx, DWORD PTR __$ArrayPad$[ebp]
  000bd	33 cd		 xor	 ecx, ebp
  000bf	e8 00 00 00 00	 call	 @__security_check_cookie@4
  000c4	8b e5		 mov	 esp, ebp
  000c6	5d		 pop	 ebp
  000c7	c2 04 00	 ret	 4
_TEXT	ENDS
;	COMDAT text$x
text$x	SEGMENT
__unwindfunclet$?AfxGetPctrInterface@@YGJH@Z$0:
  00000	8d 4d e0	 lea	 ecx, DWORD PTR _szClipFormat$2[ebp]
  00003	ff 25 00 00 00
	00		 jmp	 DWORD PTR __imp_??1?$CStringT@DV?$StrTraitMFC_DLL@DV?$ChTraitsCRT@D@ATL@@@@@ATL@@QAE@XZ
  00009	cc		 int	 3
  0000a	cc		 int	 3
  0000b	cc		 int	 3
  0000c	cc		 int	 3
  0000d	cc		 int	 3
__ehhandler$?AfxGetPctrInterface@@YGJH@Z:
  0000e	90		 npad	 1
  0000f	90		 npad	 1
  00010	8b 54 24 08	 mov	 edx, DWORD PTR [esp+8]
  00014	8d 42 0c	 lea	 eax, DWORD PTR [edx+12]
  00017	8b 4a e4	 mov	 ecx, DWORD PTR [edx-28]
  0001a	33 c8		 xor	 ecx, eax
  0001c	e8 00 00 00 00	 call	 @__security_check_cookie@4
  00021	8b 4a fc	 mov	 ecx, DWORD PTR [edx-4]
  00024	33 c8		 xor	 ecx, eax
  00026	e8 00 00 00 00	 call	 @__security_check_cookie@4
  0002b	b8 00 00 00 00	 mov	 eax, OFFSET __ehfuncinfo$?AfxGetPctrInterface@@YGJH@Z
  00030	e9 00 00 00 00	 jmp	 ___CxxFrameHandler3
text$x	ENDS
?AfxGetPctrInterface@@YGJH@Z ENDP			; AfxGetPctrInterface
; Function compile flags: /Ogtp
; File D:\git\src\IBK\IBK_DRFN\ProjSrc\SrcDrfn\inc\IBaseDefine.h
;	COMDAT ??__ERMSG_SETPCTRDATA@@YAXXZ
text$di	SEGMENT
??__ERMSG_SETPCTRDATA@@YAXXZ PROC			; `dynamic initializer for 'RMSG_SETPCTRDATA'', COMDAT

; 172  : const UINT RMSG_SETPCTRDATA = ::RegisterWindowMessage("RMSG_SETPCTRDATA");

  00000	68 00 00 00 00	 push	 OFFSET ??_C@_0BB@JPACFCL@RMSG_SETPCTRDATA@
  00005	ff 15 00 00 00
	00		 call	 DWORD PTR __imp__RegisterWindowMessageA@4
  0000b	a3 00 00 00 00	 mov	 DWORD PTR ?RMSG_SETPCTRDATA@@3IB, eax
  00010	c3		 ret	 0
??__ERMSG_SETPCTRDATA@@YAXXZ ENDP			; `dynamic initializer for 'RMSG_SETPCTRDATA''
text$di	ENDS
; Function compile flags: /Ogtp
; File D:\git\src\IBK\IBK_DRFN\ProjSrc\SrcDrfn\inc\IBaseDefine.h
;	COMDAT ??__ERMSG_GETPCTRDATA@@YAXXZ
text$di	SEGMENT
??__ERMSG_GETPCTRDATA@@YAXXZ PROC			; `dynamic initializer for 'RMSG_GETPCTRDATA'', COMDAT

; 171  : const UINT RMSG_GETPCTRDATA = ::RegisterWindowMessage("RMSG_GETPCTRDATA");

  00000	68 00 00 00 00	 push	 OFFSET ??_C@_0BB@GOOPDKI@RMSG_GETPCTRDATA@
  00005	ff 15 00 00 00
	00		 call	 DWORD PTR __imp__RegisterWindowMessageA@4
  0000b	a3 00 00 00 00	 mov	 DWORD PTR ?RMSG_GETPCTRDATA@@3IB, eax
  00010	c3		 ret	 0
??__ERMSG_GETPCTRDATA@@YAXXZ ENDP			; `dynamic initializer for 'RMSG_GETPCTRDATA''
text$di	ENDS
; Function compile flags: /Ogtp
; File D:\git\src\IBK\IBK_DRFN\ProjSrc\SrcDrfn\inc\IBaseDefine.h
;	COMDAT ??__ERMSG_INTERFACE@@YAXXZ
text$di	SEGMENT
??__ERMSG_INTERFACE@@YAXXZ PROC				; `dynamic initializer for 'RMSG_INTERFACE'', COMDAT

; 170  : const UINT RMSG_INTERFACE = ::RegisterWindowMessage("RMSG_INTERFACE");

  00000	68 00 00 00 00	 push	 OFFSET ??_C@_0P@BKKCOCLK@RMSG_INTERFACE@
  00005	ff 15 00 00 00
	00		 call	 DWORD PTR __imp__RegisterWindowMessageA@4
  0000b	a3 00 00 00 00	 mov	 DWORD PTR ?RMSG_INTERFACE@@3IB, eax
  00010	c3		 ret	 0
??__ERMSG_INTERFACE@@YAXXZ ENDP				; `dynamic initializer for 'RMSG_INTERFACE''
text$di	ENDS
; Function compile flags: /Ogtp
; File C:\Program Files (x86)\Microsoft Visual Studio\2019\Community\VC\Tools\MSVC\14.29.30133\atlmfc\include\afxtempl.h
; File C:\Program Files (x86)\Microsoft Visual Studio\2019\Community\VC\Tools\MSVC\14.29.30133\atlmfc\include\afx.inl
;	COMDAT ??_G?$CList@PAVCDlgCompGroupData@@PAV1@@@UAEPAXI@Z
_TEXT	SEGMENT
__$EHRec$ = -12						; size = 12
___flags$ = 8						; size = 4
??_G?$CList@PAVCDlgCompGroupData@@PAV1@@@UAEPAXI@Z PROC	; CList<CDlgCompGroupData *,CDlgCompGroupData *>::`scalar deleting destructor', COMDAT
; _this$ = ecx
  00000	55		 push	 ebp
  00001	8b ec		 mov	 ebp, esp
  00003	6a ff		 push	 -1
  00005	68 00 00 00 00	 push	 __ehhandler$??_G?$CList@PAVCDlgCompGroupData@@PAV1@@@UAEPAXI@Z
  0000a	64 a1 00 00 00
	00		 mov	 eax, DWORD PTR fs:0
  00010	50		 push	 eax
  00011	56		 push	 esi
  00012	a1 00 00 00 00	 mov	 eax, DWORD PTR ___security_cookie
  00017	33 c5		 xor	 eax, ebp
  00019	50		 push	 eax
  0001a	8d 45 f4	 lea	 eax, DWORD PTR __$EHRec$[ebp]
  0001d	64 a3 00 00 00
	00		 mov	 DWORD PTR fs:0, eax
  00023	8b f1		 mov	 esi, ecx
; File C:\Program Files (x86)\Microsoft Visual Studio\2019\Community\VC\Tools\MSVC\14.29.30133\atlmfc\include\afxtempl.h

; 872  : 	m_pBlocks->FreeDataChain();

  00025	8b 4e 14	 mov	 ecx, DWORD PTR [esi+20]

; 878  : {

  00028	c7 45 fc 00 00
	00 00		 mov	 DWORD PTR __$EHRec$[ebp+8], 0
  0002f	c7 06 00 00 00
	00		 mov	 DWORD PTR [esi], OFFSET ??_7?$CList@PAVCDlgCompGroupData@@PAV1@@@6B@

; 870  : 	m_nCount = 0;

  00035	c7 46 0c 00 00
	00 00		 mov	 DWORD PTR [esi+12], 0

; 871  : 	m_pNodeHead = m_pNodeTail = m_pNodeFree = NULL;

  0003c	c7 46 10 00 00
	00 00		 mov	 DWORD PTR [esi+16], 0
  00043	c7 46 08 00 00
	00 00		 mov	 DWORD PTR [esi+8], 0
  0004a	c7 46 04 00 00
	00 00		 mov	 DWORD PTR [esi+4], 0

; 872  : 	m_pBlocks->FreeDataChain();

  00051	e8 00 00 00 00	 call	 ?FreeDataChain@CPlex@@QAEXXZ ; CPlex::FreeDataChain

; 873  : 	m_pBlocks = NULL;

  00056	8b 45 08	 mov	 eax, DWORD PTR ___flags$[ebp]
  00059	c7 46 14 00 00
	00 00		 mov	 DWORD PTR [esi+20], 0
  00060	a8 01		 test	 al, 1
  00062	74 2c		 je	 SHORT $LN22@scalar
  00064	a8 04		 test	 al, 4
  00066	75 1d		 jne	 SHORT $LN3@scalar
; File C:\Program Files (x86)\Microsoft Visual Studio\2019\Community\VC\Tools\MSVC\14.29.30133\atlmfc\include\afx.inl

; 112  : 	{ ::operator delete(p); }

  00068	56		 push	 esi
  00069	e8 00 00 00 00	 call	 ??3@YAXPAX@Z		; operator delete
  0006e	83 c4 04	 add	 esp, 4
  00071	8b c6		 mov	 eax, esi
  00073	8b 4d f4	 mov	 ecx, DWORD PTR __$EHRec$[ebp]
  00076	64 89 0d 00 00
	00 00		 mov	 DWORD PTR fs:0, ecx
  0007d	59		 pop	 ecx
  0007e	5e		 pop	 esi
  0007f	8b e5		 mov	 esp, ebp
  00081	5d		 pop	 ebp
  00082	c2 04 00	 ret	 4
$LN3@scalar:
  00085	6a 1c		 push	 28			; 0000001cH
  00087	56		 push	 esi
  00088	e8 00 00 00 00	 call	 ?__global_delete@@YAXPAXI@Z ; __global_delete
  0008d	83 c4 08	 add	 esp, 8
$LN22@scalar:
  00090	8b c6		 mov	 eax, esi
  00092	8b 4d f4	 mov	 ecx, DWORD PTR __$EHRec$[ebp]
  00095	64 89 0d 00 00
	00 00		 mov	 DWORD PTR fs:0, ecx
  0009c	59		 pop	 ecx
  0009d	5e		 pop	 esi
  0009e	8b e5		 mov	 esp, ebp
  000a0	5d		 pop	 ebp
  000a1	c2 04 00	 ret	 4
  000a4	cc		 int	 3
  000a5	cc		 int	 3
  000a6	cc		 int	 3
  000a7	cc		 int	 3
  000a8	cc		 int	 3
_TEXT	ENDS
;	COMDAT text$x
text$x	SEGMENT
__ehhandler$??_G?$CList@PAVCDlgCompGroupData@@PAV1@@@UAEPAXI@Z:
  00000	90		 npad	 1
  00001	90		 npad	 1
  00002	8b 54 24 08	 mov	 edx, DWORD PTR [esp+8]
  00006	8d 42 0c	 lea	 eax, DWORD PTR [edx+12]
  00009	8b 4a f8	 mov	 ecx, DWORD PTR [edx-8]
  0000c	33 c8		 xor	 ecx, eax
  0000e	e8 00 00 00 00	 call	 @__security_check_cookie@4
  00013	b8 00 00 00 00	 mov	 eax, OFFSET __ehfuncinfo$??_G?$CList@PAVCDlgCompGroupData@@PAV1@@@UAEPAXI@Z
  00018	e9 00 00 00 00	 jmp	 ___CxxFrameHandler3
text$x	ENDS
??_G?$CList@PAVCDlgCompGroupData@@PAV1@@@UAEPAXI@Z ENDP	; CList<CDlgCompGroupData *,CDlgCompGroupData *>::`scalar deleting destructor'
; Function compile flags: /Ogtp
; File C:\Program Files (x86)\Microsoft Visual Studio\2019\Community\VC\Tools\MSVC\14.29.30133\atlmfc\include\afxtempl.h
; File C:\Program Files (x86)\Microsoft Visual Studio\2019\Community\VC\Tools\MSVC\14.29.30133\atlmfc\include\afx.inl
; File C:\Program Files (x86)\Microsoft Visual Studio\2019\Community\VC\Tools\MSVC\14.29.30133\atlmfc\include\afxtempl.h
; File C:\Program Files (x86)\Microsoft Visual Studio\2019\Community\VC\Tools\MSVC\14.29.30133\atlmfc\include\afx.inl
; File C:\Program Files (x86)\Microsoft Visual Studio\2019\Community\VC\Tools\MSVC\14.29.30133\atlmfc\include\afxtempl.h
; File C:\Program Files (x86)\Microsoft Visual Studio\2019\Community\VC\Tools\MSVC\14.29.30133\atlmfc\include\afx.inl
; File C:\Program Files (x86)\Microsoft Visual Studio\2019\Community\VC\Tools\MSVC\14.29.30133\atlmfc\include\afxtempl.h
; File C:\Program Files (x86)\Microsoft Visual Studio\2019\Community\VC\Tools\MSVC\14.29.30133\atlmfc\include\afx.inl
; File C:\Program Files (x86)\Microsoft Visual Studio\2019\Community\VC\Tools\MSVC\14.29.30133\atlmfc\include\afxtempl.h
; File C:\Program Files (x86)\Microsoft Visual Studio\2019\Community\VC\Tools\MSVC\14.29.30133\atlmfc\include\afx.inl
; File C:\Program Files (x86)\Microsoft Visual Studio\2019\Community\VC\Tools\MSVC\14.29.30133\atlmfc\include\afxtempl.h
; File C:\Program Files (x86)\Microsoft Visual Studio\2019\Community\VC\Tools\MSVC\14.29.30133\atlmfc\include\afx.inl
; File C:\Program Files (x86)\Microsoft Visual Studio\2019\Community\VC\Tools\MSVC\14.29.30133\atlmfc\include\afxtempl.h
;	COMDAT ?Serialize@?$CList@PAVCDlgCompGroupData@@PAV1@@@UAEXAAVCArchive@@@Z
_TEXT	SEGMENT
_nNewCount$1$ = -16					; size = 4
_newData$1 = -12					; size = 4
_pData$1$ = -8						; size = 4
_pNode$1$ = -8						; size = 4
_nElementsLeft$1$ = -4					; size = 4
_this$1$ = -4						; size = 4
_ar$ = 8						; size = 4
?Serialize@?$CList@PAVCDlgCompGroupData@@PAV1@@@UAEXAAVCArchive@@@Z PROC ; CList<CDlgCompGroupData *,CDlgCompGroupData *>::Serialize, COMDAT
; _this$ = ecx

; 1169 : {

  00000	55		 push	 ebp
  00001	8b ec		 mov	 ebp, esp
  00003	83 ec 10	 sub	 esp, 16			; 00000010H
  00006	53		 push	 ebx
  00007	8b d9		 mov	 ebx, ecx
; File C:\Program Files (x86)\Microsoft Visual Studio\2019\Community\VC\Tools\MSVC\14.29.30133\atlmfc\include\afx.inl

; 212  : 	{ return (m_nMode & CArchive::load) == 0; }

  00009	8b 4d 08	 mov	 ecx, DWORD PTR _ar$[ebp]
; File C:\Program Files (x86)\Microsoft Visual Studio\2019\Community\VC\Tools\MSVC\14.29.30133\atlmfc\include\afxtempl.h

; 1169 : {

  0000c	56		 push	 esi
  0000d	57		 push	 edi
  0000e	89 5d fc	 mov	 DWORD PTR _this$1$[ebp], ebx
; File C:\Program Files (x86)\Microsoft Visual Studio\2019\Community\VC\Tools\MSVC\14.29.30133\atlmfc\include\afx.inl

; 212  : 	{ return (m_nMode & CArchive::load) == 0; }

  00011	8b 41 18	 mov	 eax, DWORD PTR [ecx+24]
  00014	f7 d0		 not	 eax
  00016	a8 01		 test	 al, 1
; File C:\Program Files (x86)\Microsoft Visual Studio\2019\Community\VC\Tools\MSVC\14.29.30133\atlmfc\include\afxtempl.h

; 1174 : 	if (ar.IsStoring())

  00018	0f 84 ae 00 00
	00		 je	 $LN7@Serialize

; 1175 : 	{
; 1176 : 		ar.WriteCount(m_nCount);

  0001e	ff 73 0c	 push	 DWORD PTR [ebx+12]
  00021	e8 00 00 00 00	 call	 ?WriteCount@CArchive@@QAEXK@Z ; CArchive::WriteCount

; 1177 : 		for (CNode* pNode = m_pNodeHead; pNode != NULL; pNode = pNode->pNext)

  00026	8b 43 04	 mov	 eax, DWORD PTR [ebx+4]
  00029	89 45 f8	 mov	 DWORD PTR _pNode$1$[ebp], eax
  0002c	85 c0		 test	 eax, eax
  0002e	0f 84 43 01 00
	00		 je	 $LN68@Serialize
$LL4@Serialize:

; 1178 : 		{
; 1179 : 			ASSERT(AfxIsValidAddress(pNode, sizeof(CNode)));
; 1180 : 			TYPE* pData;
; 1181 : 			/*
; 1182 : 			 * in some cases the & operator might be overloaded, and we cannot use it to obtain
; 1183 : 			 * the address of a given object.  We then use the following trick to get the address
; 1184 : 			 */
; 1185 : 			pData = reinterpret_cast< TYPE* >( &reinterpret_cast< int& >( static_cast< TYPE& >( pNode->data ) ) );

  00034	8d 70 08	 lea	 esi, DWORD PTR [eax+8]

; 68   : 	ENSURE(nCount == 0 || pElements != NULL);

  00037	85 f6		 test	 esi, esi
  00039	0f 84 4a 01 00
	00		 je	 $LN60@Serialize
; File C:\Program Files (x86)\Microsoft Visual Studio\2019\Community\VC\Tools\MSVC\14.29.30133\atlmfc\include\afx.inl

; 212  : 	{ return (m_nMode & CArchive::load) == 0; }

  0003f	8b 4d 08	 mov	 ecx, DWORD PTR _ar$[ebp]
  00042	8b 41 18	 mov	 eax, DWORD PTR [ecx+24]
  00045	f7 d0		 not	 eax
  00047	a8 01		 test	 al, 1
; File C:\Program Files (x86)\Microsoft Visual Studio\2019\Community\VC\Tools\MSVC\14.29.30133\atlmfc\include\afxtempl.h

; 73   : 	if (ar.IsStoring())

  00049	74 33		 je	 SHORT $LN21@Serialize

; 74   : 	{
; 75   : 		TYPE* pData;
; 76   : 		UINT_PTR nElementsLeft;
; 77   : 
; 78   : 		nElementsLeft = nCount;

  0004b	b8 01 00 00 00	 mov	 eax, 1
  00050	89 45 fc	 mov	 DWORD PTR _nElementsLeft$1$[ebp], eax
$LL16@Serialize:

; 80   : 		while( nElementsLeft > 0 )
; 81   : 		{
; 82   : 			UINT nElementsToWrite;
; 83   : 
; 84   : 			nElementsToWrite = UINT(__min(nElementsLeft, INT_MAX/sizeof(TYPE)));

  00053	bb ff ff ff 1f	 mov	 ebx, 536870911		; 1fffffffH
  00058	3b c3		 cmp	 eax, ebx
  0005a	0f 42 d8	 cmovb	 ebx, eax

; 85   : 			ar.Write(pData, nElementsToWrite*sizeof(TYPE));

  0005d	8d 3c 9d 00 00
	00 00		 lea	 edi, DWORD PTR [ebx*4]
  00064	57		 push	 edi
  00065	56		 push	 esi
  00066	e8 00 00 00 00	 call	 ?Write@CArchive@@QAEXPBXI@Z ; CArchive::Write

; 86   : 			nElementsLeft -= nElementsToWrite;

  0006b	8b 45 fc	 mov	 eax, DWORD PTR _nElementsLeft$1$[ebp]

; 87   : 			pData += nElementsToWrite;

  0006e	03 f7		 add	 esi, edi
  00070	8b 4d 08	 mov	 ecx, DWORD PTR _ar$[ebp]
  00073	2b c3		 sub	 eax, ebx
  00075	89 45 fc	 mov	 DWORD PTR _nElementsLeft$1$[ebp], eax
  00078	85 c0		 test	 eax, eax
  0007a	75 d7		 jne	 SHORT $LL16@Serialize

; 88   : 		}
; 89   : 	}

  0007c	eb 35		 jmp	 SHORT $LN2@Serialize
$LN21@Serialize:

; 90   : 	else
; 91   : 	{
; 92   : 		TYPE* pData;
; 93   : 		UINT_PTR nElementsLeft;
; 94   : 
; 95   : 		nElementsLeft = nCount;

  0007e	bf 01 00 00 00	 mov	 edi, 1
$LL18@Serialize:

; 98   : 		{
; 99   : 			UINT nElementsToRead;
; 100  : 
; 101  : 			nElementsToRead = UINT(__min(nElementsLeft, INT_MAX/sizeof(TYPE)));

  00083	bb ff ff ff 1f	 mov	 ebx, 536870911		; 1fffffffH
  00088	3b fb		 cmp	 edi, ebx
  0008a	0f 42 df	 cmovb	 ebx, edi

; 102  : 			ar.EnsureRead(pData, nElementsToRead*sizeof(TYPE));

  0008d	8d 04 9d 00 00
	00 00		 lea	 eax, DWORD PTR [ebx*4]
; File C:\Program Files (x86)\Microsoft Visual Studio\2019\Community\VC\Tools\MSVC\14.29.30133\atlmfc\include\afx.inl

; 399  : 	UINT nRead=Read(lpBuf, nCount);

  00094	50		 push	 eax
  00095	56		 push	 esi
  00096	e8 00 00 00 00	 call	 ?Read@CArchive@@QAEIPAXI@Z ; CArchive::Read

; 400  : 	if(nRead!=nCount)

  0009b	8d 0c 9d 00 00
	00 00		 lea	 ecx, DWORD PTR [ebx*4]
  000a2	3b c1		 cmp	 eax, ecx
  000a4	0f 85 d6 00 00
	00		 jne	 $LN59@Serialize
; File C:\Program Files (x86)\Microsoft Visual Studio\2019\Community\VC\Tools\MSVC\14.29.30133\atlmfc\include\afxtempl.h

; 97   : 		while( nElementsLeft > 0 )

  000aa	03 f1		 add	 esi, ecx
  000ac	8b 4d 08	 mov	 ecx, DWORD PTR _ar$[ebp]

; 103  : 			nElementsLeft -= nElementsToRead;

  000af	2b fb		 sub	 edi, ebx
  000b1	75 d0		 jne	 SHORT $LL18@Serialize
$LN2@Serialize:

; 1177 : 		for (CNode* pNode = m_pNodeHead; pNode != NULL; pNode = pNode->pNext)

  000b3	8b 45 f8	 mov	 eax, DWORD PTR _pNode$1$[ebp]
  000b6	8b 00		 mov	 eax, DWORD PTR [eax]
  000b8	89 45 f8	 mov	 DWORD PTR _pNode$1$[ebp], eax
  000bb	85 c0		 test	 eax, eax
  000bd	0f 85 71 ff ff
	ff		 jne	 $LL4@Serialize

; 1197 : 		}
; 1198 : 	}
; 1199 : }

  000c3	5f		 pop	 edi
  000c4	5e		 pop	 esi
  000c5	5b		 pop	 ebx
  000c6	8b e5		 mov	 esp, ebp
  000c8	5d		 pop	 ebp
  000c9	c2 04 00	 ret	 4
$LN7@Serialize:

; 1186 : 			SerializeElements<TYPE>(ar, pData, 1);
; 1187 : 		}
; 1188 : 	}
; 1189 : 	else
; 1190 : 	{
; 1191 : 		DWORD_PTR nNewCount = ar.ReadCount();

  000cc	e8 00 00 00 00	 call	 ?ReadCount@CArchive@@QAEKXZ ; CArchive::ReadCount

; 1192 : 		while (nNewCount--)

  000d1	85 c0		 test	 eax, eax
  000d3	0f 84 9e 00 00
	00		 je	 $LN68@Serialize
  000d9	0f 1f 80 00 00
	00 00		 npad	 7
$LL5@Serialize:
  000e0	48		 dec	 eax
  000e1	89 45 f0	 mov	 DWORD PTR _nNewCount$1$[ebp], eax
; File C:\Program Files (x86)\Microsoft Visual Studio\2019\Community\VC\Tools\MSVC\14.29.30133\atlmfc\include\afx.inl

; 212  : 	{ return (m_nMode & CArchive::load) == 0; }

  000e4	8b 45 08	 mov	 eax, DWORD PTR _ar$[ebp]
  000e7	8b 48 18	 mov	 ecx, DWORD PTR [eax+24]
  000ea	f7 d1		 not	 ecx
  000ec	f6 c1 01	 test	 cl, 1
; File C:\Program Files (x86)\Microsoft Visual Studio\2019\Community\VC\Tools\MSVC\14.29.30133\atlmfc\include\afxtempl.h

; 73   : 	if (ar.IsStoring())

  000ef	74 3a		 je	 SHORT $LN42@Serialize

; 79   : 		pData = pElements;

  000f1	8d 4d f4	 lea	 ecx, DWORD PTR _newData$1[ebp]
  000f4	bb 01 00 00 00	 mov	 ebx, 1
  000f9	89 4d f8	 mov	 DWORD PTR _pData$1$[ebp], ecx
  000fc	0f 1f 40 00	 npad	 4
$LL37@Serialize:

; 80   : 		while( nElementsLeft > 0 )
; 81   : 		{
; 82   : 			UINT nElementsToWrite;
; 83   : 
; 84   : 			nElementsToWrite = UINT(__min(nElementsLeft, INT_MAX/sizeof(TYPE)));

  00100	bf ff ff ff 1f	 mov	 edi, 536870911		; 1fffffffH
  00105	3b df		 cmp	 ebx, edi
  00107	0f 42 fb	 cmovb	 edi, ebx

; 85   : 			ar.Write(pData, nElementsToWrite*sizeof(TYPE));

  0010a	8d 34 bd 00 00
	00 00		 lea	 esi, DWORD PTR [edi*4]
  00111	56		 push	 esi
  00112	51		 push	 ecx
  00113	8b c8		 mov	 ecx, eax
  00115	e8 00 00 00 00	 call	 ?Write@CArchive@@QAEXPBXI@Z ; CArchive::Write

; 87   : 			pData += nElementsToWrite;

  0011a	8b 4d f8	 mov	 ecx, DWORD PTR _pData$1$[ebp]
  0011d	8b 45 08	 mov	 eax, DWORD PTR _ar$[ebp]
  00120	03 ce		 add	 ecx, esi
  00122	89 4d f8	 mov	 DWORD PTR _pData$1$[ebp], ecx
  00125	2b df		 sub	 ebx, edi
  00127	75 d7		 jne	 SHORT $LL37@Serialize

; 88   : 		}
; 89   : 	}

  00129	eb 36		 jmp	 SHORT $LN40@Serialize
$LN42@Serialize:

; 90   : 	else
; 91   : 	{
; 92   : 		TYPE* pData;
; 93   : 		UINT_PTR nElementsLeft;
; 94   : 
; 95   : 		nElementsLeft = nCount;

  0012b	be 01 00 00 00	 mov	 esi, 1

; 96   : 		pData = pElements;

  00130	8d 5d f4	 lea	 ebx, DWORD PTR _newData$1[ebp]
$LL39@Serialize:

; 98   : 		{
; 99   : 			UINT nElementsToRead;
; 100  : 
; 101  : 			nElementsToRead = UINT(__min(nElementsLeft, INT_MAX/sizeof(TYPE)));

  00133	bf ff ff ff 1f	 mov	 edi, 536870911		; 1fffffffH
  00138	3b f7		 cmp	 esi, edi
  0013a	0f 42 fe	 cmovb	 edi, esi

; 102  : 			ar.EnsureRead(pData, nElementsToRead*sizeof(TYPE));

  0013d	8d 0c bd 00 00
	00 00		 lea	 ecx, DWORD PTR [edi*4]
; File C:\Program Files (x86)\Microsoft Visual Studio\2019\Community\VC\Tools\MSVC\14.29.30133\atlmfc\include\afx.inl

; 399  : 	UINT nRead=Read(lpBuf, nCount);

  00144	51		 push	 ecx
  00145	53		 push	 ebx
  00146	8b c8		 mov	 ecx, eax
  00148	e8 00 00 00 00	 call	 ?Read@CArchive@@QAEIPAXI@Z ; CArchive::Read

; 400  : 	if(nRead!=nCount)

  0014d	8d 0c bd 00 00
	00 00		 lea	 ecx, DWORD PTR [edi*4]
  00154	3b c1		 cmp	 eax, ecx
  00156	75 28		 jne	 SHORT $LN59@Serialize
; File C:\Program Files (x86)\Microsoft Visual Studio\2019\Community\VC\Tools\MSVC\14.29.30133\atlmfc\include\afxtempl.h

; 104  : 			pData += nElementsToRead;

  00158	8b 45 08	 mov	 eax, DWORD PTR _ar$[ebp]
  0015b	03 d9		 add	 ebx, ecx
  0015d	2b f7		 sub	 esi, edi
  0015f	75 d2		 jne	 SHORT $LL39@Serialize
$LN40@Serialize:

; 1193 : 		{
; 1194 : 			TYPE newData[1];
; 1195 : 			SerializeElements<TYPE>(ar, newData, 1);
; 1196 : 			AddTail(newData[0]);

  00161	ff 75 f4	 push	 DWORD PTR _newData$1[ebp]
  00164	8b 4d fc	 mov	 ecx, DWORD PTR _this$1$[ebp]
  00167	e8 00 00 00 00	 call	 ?AddTail@?$CList@PAVCDlgCompGroupData@@PAV1@@@QAEPAU__POSITION@@PAVCDlgCompGroupData@@@Z ; CList<CDlgCompGroupData *,CDlgCompGroupData *>::AddTail
  0016c	8b 45 f0	 mov	 eax, DWORD PTR _nNewCount$1$[ebp]
  0016f	85 c0		 test	 eax, eax
  00171	0f 85 69 ff ff
	ff		 jne	 $LL5@Serialize
$LN68@Serialize:
  00177	5f		 pop	 edi

; 1197 : 		}
; 1198 : 	}
; 1199 : }

  00178	5e		 pop	 esi
  00179	5b		 pop	 ebx
  0017a	8b e5		 mov	 esp, ebp
  0017c	5d		 pop	 ebp
  0017d	c2 04 00	 ret	 4
$LN59@Serialize:
  00180	6a 00		 push	 0
  00182	6a 03		 push	 3
  00184	e8 00 00 00 00	 call	 ?AfxThrowArchiveException@@YGXHPBD@Z ; AfxThrowArchiveException
$LN60@Serialize:

; 68   : 	ENSURE(nCount == 0 || pElements != NULL);

  00189	e8 00 00 00 00	 call	 ?AfxThrowInvalidArgException@@YGXXZ ; AfxThrowInvalidArgException
$LN85@Serialize:
  0018e	cc		 int	 3
?Serialize@?$CList@PAVCDlgCompGroupData@@PAV1@@@UAEXAAVCArchive@@@Z ENDP ; CList<CDlgCompGroupData *,CDlgCompGroupData *>::Serialize
_TEXT	ENDS
; Function compile flags: /Ogtp
; File C:\Program Files (x86)\Microsoft Visual Studio\2019\Community\VC\Tools\MSVC\14.29.30133\atlmfc\include\afxtempl.h
;	COMDAT ??1?$CList@PAVCDlgCompGroupData@@PAV1@@@UAE@XZ
_TEXT	SEGMENT
__$EHRec$ = -12						; size = 12
??1?$CList@PAVCDlgCompGroupData@@PAV1@@@UAE@XZ PROC	; CList<CDlgCompGroupData *,CDlgCompGroupData *>::~CList<CDlgCompGroupData *,CDlgCompGroupData *>, COMDAT
; _this$ = ecx

; 878  : {

  00000	55		 push	 ebp
  00001	8b ec		 mov	 ebp, esp
  00003	6a ff		 push	 -1
  00005	68 00 00 00 00	 push	 __ehhandler$??1?$CList@PAVCDlgCompGroupData@@PAV1@@@UAE@XZ
  0000a	64 a1 00 00 00
	00		 mov	 eax, DWORD PTR fs:0
  00010	50		 push	 eax
  00011	56		 push	 esi
  00012	a1 00 00 00 00	 mov	 eax, DWORD PTR ___security_cookie
  00017	33 c5		 xor	 eax, ebp
  00019	50		 push	 eax
  0001a	8d 45 f4	 lea	 eax, DWORD PTR __$EHRec$[ebp]
  0001d	64 a3 00 00 00
	00		 mov	 DWORD PTR fs:0, eax
  00023	8b f1		 mov	 esi, ecx

; 872  : 	m_pBlocks->FreeDataChain();

  00025	8b 4e 14	 mov	 ecx, DWORD PTR [esi+20]

; 878  : {

  00028	c7 06 00 00 00
	00		 mov	 DWORD PTR [esi], OFFSET ??_7?$CList@PAVCDlgCompGroupData@@PAV1@@@6B@

; 870  : 	m_nCount = 0;

  0002e	c7 46 0c 00 00
	00 00		 mov	 DWORD PTR [esi+12], 0

; 871  : 	m_pNodeHead = m_pNodeTail = m_pNodeFree = NULL;

  00035	c7 46 10 00 00
	00 00		 mov	 DWORD PTR [esi+16], 0
  0003c	c7 46 08 00 00
	00 00		 mov	 DWORD PTR [esi+8], 0
  00043	c7 46 04 00 00
	00 00		 mov	 DWORD PTR [esi+4], 0

; 872  : 	m_pBlocks->FreeDataChain();

  0004a	e8 00 00 00 00	 call	 ?FreeDataChain@CPlex@@QAEXXZ ; CPlex::FreeDataChain

; 873  : 	m_pBlocks = NULL;

  0004f	c7 46 14 00 00
	00 00		 mov	 DWORD PTR [esi+20], 0

; 879  : 	RemoveAll();
; 880  : 	ASSERT(m_nCount == 0);
; 881  : }

  00056	8b 4d f4	 mov	 ecx, DWORD PTR __$EHRec$[ebp]
  00059	64 89 0d 00 00
	00 00		 mov	 DWORD PTR fs:0, ecx
  00060	59		 pop	 ecx
  00061	5e		 pop	 esi
  00062	8b e5		 mov	 esp, ebp
  00064	5d		 pop	 ebp
  00065	c3		 ret	 0
  00066	cc		 int	 3
  00067	cc		 int	 3
  00068	cc		 int	 3
  00069	cc		 int	 3
  0006a	cc		 int	 3
_TEXT	ENDS
;	COMDAT text$x
text$x	SEGMENT
__ehhandler$??1?$CList@PAVCDlgCompGroupData@@PAV1@@@UAE@XZ:
  00000	90		 npad	 1
  00001	90		 npad	 1
  00002	8b 54 24 08	 mov	 edx, DWORD PTR [esp+8]
  00006	8d 42 0c	 lea	 eax, DWORD PTR [edx+12]
  00009	8b 4a f8	 mov	 ecx, DWORD PTR [edx-8]
  0000c	33 c8		 xor	 ecx, eax
  0000e	e8 00 00 00 00	 call	 @__security_check_cookie@4
  00013	b8 00 00 00 00	 mov	 eax, OFFSET __ehfuncinfo$??1?$CList@PAVCDlgCompGroupData@@PAV1@@@UAE@XZ
  00018	e9 00 00 00 00	 jmp	 ___CxxFrameHandler3
text$x	ENDS
??1?$CList@PAVCDlgCompGroupData@@PAV1@@@UAE@XZ ENDP	; CList<CDlgCompGroupData *,CDlgCompGroupData *>::~CList<CDlgCompGroupData *,CDlgCompGroupData *>
; Function compile flags: /Ogtp
; File C:\Program Files (x86)\Microsoft Visual Studio\2019\Community\VC\Tools\MSVC\14.29.30133\atlmfc\include\afxtempl.h
;	COMDAT ?FreeNode@?$CList@PAVCDlgCompGroupData@@PAV1@@@IAEXPAUCNode@1@@Z
_TEXT	SEGMENT
_pNode$ = 8						; size = 4
?FreeNode@?$CList@PAVCDlgCompGroupData@@PAV1@@@IAEXPAUCNode@1@@Z PROC ; CList<CDlgCompGroupData *,CDlgCompGroupData *>::FreeNode, COMDAT
; _this$ = ecx

; 936  : {

  00000	55		 push	 ebp
  00001	8b ec		 mov	 ebp, esp

; 937  : 	pNode->data.~TYPE();
; 938  : 	pNode->pNext = m_pNodeFree;

  00003	8b 55 08	 mov	 edx, DWORD PTR _pNode$[ebp]
  00006	56		 push	 esi
  00007	8b f1		 mov	 esi, ecx
  00009	8b 46 10	 mov	 eax, DWORD PTR [esi+16]
  0000c	89 02		 mov	 DWORD PTR [edx], eax

; 939  : 	m_pNodeFree = pNode;
; 940  : 	m_nCount--;

  0000e	83 46 0c ff	 add	 DWORD PTR [esi+12], -1
  00012	89 56 10	 mov	 DWORD PTR [esi+16], edx

; 941  : 	ASSERT(m_nCount >= 0);  // make sure we don't underflow
; 942  : 
; 943  : 	// if no more elements, cleanup completely
; 944  : 	if (m_nCount == 0)

  00015	75 2b		 jne	 SHORT $LN2@FreeNode

; 872  : 	m_pBlocks->FreeDataChain();

  00017	8b 4e 14	 mov	 ecx, DWORD PTR [esi+20]
  0001a	c7 46 0c 00 00
	00 00		 mov	 DWORD PTR [esi+12], 0
  00021	c7 46 10 00 00
	00 00		 mov	 DWORD PTR [esi+16], 0
  00028	c7 46 08 00 00
	00 00		 mov	 DWORD PTR [esi+8], 0
  0002f	c7 46 04 00 00
	00 00		 mov	 DWORD PTR [esi+4], 0
  00036	e8 00 00 00 00	 call	 ?FreeDataChain@CPlex@@QAEXXZ ; CPlex::FreeDataChain

; 873  : 	m_pBlocks = NULL;

  0003b	c7 46 14 00 00
	00 00		 mov	 DWORD PTR [esi+20], 0
$LN2@FreeNode:
  00042	5e		 pop	 esi

; 945  : 		RemoveAll();
; 946  : }

  00043	5d		 pop	 ebp
  00044	c2 04 00	 ret	 4
?FreeNode@?$CList@PAVCDlgCompGroupData@@PAV1@@@IAEXPAUCNode@1@@Z ENDP ; CList<CDlgCompGroupData *,CDlgCompGroupData *>::FreeNode
_TEXT	ENDS
; Function compile flags: /Ogtp
; File C:\Program Files (x86)\Microsoft Visual Studio\2019\Community\VC\Tools\MSVC\14.29.30133\atlmfc\include\afxtempl.h
;	COMDAT ?NewNode@?$CList@PAVCDlgCompGroupData@@PAV1@@@IAEPAUCNode@1@PAU21@0@Z
_TEXT	SEGMENT
_pPrev$ = 8						; size = 4
_pNext$ = 12						; size = 4
?NewNode@?$CList@PAVCDlgCompGroupData@@PAV1@@@IAEPAUCNode@1@PAU21@0@Z PROC ; CList<CDlgCompGroupData *,CDlgCompGroupData *>::NewNode, COMDAT
; _this$ = ecx

; 901  : {

  00000	55		 push	 ebp
  00001	8b ec		 mov	 ebp, esp
  00003	56		 push	 esi
  00004	8b f1		 mov	 esi, ecx

; 902  : 	if (m_pNodeFree == NULL)

  00006	83 7e 10 00	 cmp	 DWORD PTR [esi+16], 0
  0000a	75 34		 jne	 SHORT $LN7@NewNode

; 903  : 	{
; 904  : 		// add another block
; 905  : 		CPlex* pNewBlock = CPlex::Create(m_pBlocks, m_nBlockSize,

  0000c	6a 0c		 push	 12			; 0000000cH
  0000e	ff 76 18	 push	 DWORD PTR [esi+24]
  00011	8d 46 14	 lea	 eax, DWORD PTR [esi+20]
  00014	50		 push	 eax
  00015	e8 00 00 00 00	 call	 ?Create@CPlex@@SGPAU1@AAPAU1@II@Z ; CPlex::Create

; 906  : 				 sizeof(CNode));
; 907  : 
; 908  : 		// chain them into free list
; 909  : 		CNode* pNode = (CNode*) pNewBlock->data();
; 910  : 		// free in reverse order to make it easier to debug
; 911  : 		pNode += m_nBlockSize - 1;

  0001a	8b 56 18	 mov	 edx, DWORD PTR [esi+24]
  0001d	83 c0 08	 add	 eax, 8
  00020	8d 0c 52	 lea	 ecx, DWORD PTR [edx+edx*2]
  00023	8d 04 88	 lea	 eax, DWORD PTR [eax+ecx*4]
  00026	83 c0 f4	 add	 eax, -12		; fffffff4H

; 912  : 		for (INT_PTR i = m_nBlockSize-1; i >= 0; i--, pNode--)

  00029	83 c2 ff	 add	 edx, -1
  0002c	78 12		 js	 SHORT $LN7@NewNode
  0002e	66 90		 npad	 2
$LL4@NewNode:

; 913  : 		{
; 914  : 			pNode->pNext = m_pNodeFree;

  00030	8b 4e 10	 mov	 ecx, DWORD PTR [esi+16]
  00033	89 08		 mov	 DWORD PTR [eax], ecx

; 915  : 			m_pNodeFree = pNode;

  00035	89 46 10	 mov	 DWORD PTR [esi+16], eax
  00038	83 e8 0c	 sub	 eax, 12			; 0000000cH
  0003b	83 ea 01	 sub	 edx, 1
  0003e	79 f0		 jns	 SHORT $LL4@NewNode
$LN7@NewNode:

; 916  : 		}
; 917  : 	}
; 918  : 	ENSURE(m_pNodeFree != NULL);  // we must have something

  00040	8b 46 10	 mov	 eax, DWORD PTR [esi+16]
  00043	85 c0		 test	 eax, eax
  00045	74 18		 je	 SHORT $LN17@NewNode

; 919  : 
; 920  : 	CList::CNode* pNode = m_pNodeFree;
; 921  : 	m_pNodeFree = m_pNodeFree->pNext;

  00047	8b 08		 mov	 ecx, DWORD PTR [eax]
  00049	89 4e 10	 mov	 DWORD PTR [esi+16], ecx

; 922  : 	pNode->pPrev = pPrev;

  0004c	8b 4d 08	 mov	 ecx, DWORD PTR _pPrev$[ebp]
  0004f	89 48 04	 mov	 DWORD PTR [eax+4], ecx

; 923  : 	pNode->pNext = pNext;

  00052	8b 4d 0c	 mov	 ecx, DWORD PTR _pNext$[ebp]
  00055	89 08		 mov	 DWORD PTR [eax], ecx

; 924  : 	m_nCount++;

  00057	ff 46 0c	 inc	 DWORD PTR [esi+12]

; 925  : 	ASSERT(m_nCount > 0);  // make sure we don't overflow
; 926  : 
; 927  : #pragma push_macro("new")
; 928  : #undef new
; 929  : 	::new( (void*)( &pNode->data ) ) TYPE;
; 930  : #pragma pop_macro("new")
; 931  : 	return pNode;

  0005a	5e		 pop	 esi

; 932  : }

  0005b	5d		 pop	 ebp
  0005c	c2 08 00	 ret	 8
$LN17@NewNode:

; 916  : 		}
; 917  : 	}
; 918  : 	ENSURE(m_pNodeFree != NULL);  // we must have something

  0005f	e8 00 00 00 00	 call	 ?AfxThrowInvalidArgException@@YGXXZ ; AfxThrowInvalidArgException
$LN15@NewNode:
  00064	cc		 int	 3
?NewNode@?$CList@PAVCDlgCompGroupData@@PAV1@@@IAEPAUCNode@1@PAU21@0@Z ENDP ; CList<CDlgCompGroupData *,CDlgCompGroupData *>::NewNode
_TEXT	ENDS
; Function compile flags: /Ogtp
; File C:\Program Files (x86)\Microsoft Visual Studio\2019\Community\VC\Tools\MSVC\14.29.30133\atlmfc\include\afxtempl.h
;	COMDAT ?FindIndex@?$CList@PAVCDlgCompGroupData@@PAV1@@@QBEPAU__POSITION@@H@Z
_TEXT	SEGMENT
_nIndex$ = 8						; size = 4
?FindIndex@?$CList@PAVCDlgCompGroupData@@PAV1@@@QBEPAU__POSITION@@H@Z PROC ; CList<CDlgCompGroupData *,CDlgCompGroupData *>::FindIndex, COMDAT
; _this$ = ecx

; 1130 : {

  00000	55		 push	 ebp
  00001	8b ec		 mov	 ebp, esp

; 1131 : 	ASSERT_VALID(this);
; 1132 : 
; 1133 : 	if (nIndex >= m_nCount || nIndex < 0)

  00003	8b 55 08	 mov	 edx, DWORD PTR _nIndex$[ebp]
  00006	3b 51 0c	 cmp	 edx, DWORD PTR [ecx+12]
  00009	7d 14		 jge	 SHORT $LN5@FindIndex
  0000b	85 d2		 test	 edx, edx
  0000d	78 10		 js	 SHORT $LN5@FindIndex

; 1135 : 
; 1136 : 	CNode* pNode = m_pNodeHead;

  0000f	8b 41 04	 mov	 eax, DWORD PTR [ecx+4]

; 1137 : 	while (nIndex--)

  00012	74 0d		 je	 SHORT $LN1@FindIndex
$LL2@FindIndex:

; 1138 : 	{
; 1139 : 		ASSERT(AfxIsValidAddress(pNode, sizeof(CNode)));
; 1140 : 		pNode = pNode->pNext;

  00014	8b 00		 mov	 eax, DWORD PTR [eax]
  00016	83 ea 01	 sub	 edx, 1
  00019	75 f9		 jne	 SHORT $LL2@FindIndex

; 1141 : 	}
; 1142 : 	return (POSITION) pNode;
; 1143 : }

  0001b	5d		 pop	 ebp
  0001c	c2 04 00	 ret	 4
$LN5@FindIndex:

; 1134 : 		return NULL;  // went too far

  0001f	33 c0		 xor	 eax, eax
$LN1@FindIndex:

; 1141 : 	}
; 1142 : 	return (POSITION) pNode;
; 1143 : }

  00021	5d		 pop	 ebp
  00022	c2 04 00	 ret	 4
?FindIndex@?$CList@PAVCDlgCompGroupData@@PAV1@@@QBEPAU__POSITION@@H@Z ENDP ; CList<CDlgCompGroupData *,CDlgCompGroupData *>::FindIndex
_TEXT	ENDS
; Function compile flags: /Ogtp
; File C:\Program Files (x86)\Microsoft Visual Studio\2019\Community\VC\Tools\MSVC\14.29.30133\atlmfc\include\afxtempl.h
;	COMDAT ?RemoveAt@?$CList@PAVCDlgCompGroupData@@PAV1@@@QAEXPAU__POSITION@@@Z
_TEXT	SEGMENT
_position$ = 8						; size = 4
?RemoveAt@?$CList@PAVCDlgCompGroupData@@PAV1@@@QAEXPAU__POSITION@@@Z PROC ; CList<CDlgCompGroupData *,CDlgCompGroupData *>::RemoveAt, COMDAT
; _this$ = ecx

; 1100 : {

  00000	55		 push	 ebp
  00001	8b ec		 mov	 ebp, esp
  00003	56		 push	 esi
  00004	8b f1		 mov	 esi, ecx

; 1101 : 	ASSERT_VALID(this);
; 1102 : 
; 1103 : 	CNode* pOldNode = (CNode*) position;
; 1104 : 	ASSERT(AfxIsValidAddress(pOldNode, sizeof(CNode)));
; 1105 : 
; 1106 : 	// remove pOldNode from list
; 1107 : 	if (pOldNode == m_pNodeHead)

  00006	8b 4d 08	 mov	 ecx, DWORD PTR _position$[ebp]
  00009	8b 11		 mov	 edx, DWORD PTR [ecx]
  0000b	3b 4e 04	 cmp	 ecx, DWORD PTR [esi+4]
  0000e	75 05		 jne	 SHORT $LN2@RemoveAt

; 1108 : 	{
; 1109 : 		m_pNodeHead = pOldNode->pNext;

  00010	89 56 04	 mov	 DWORD PTR [esi+4], edx

; 1110 : 	}

  00013	eb 05		 jmp	 SHORT $LN3@RemoveAt
$LN2@RemoveAt:

; 1111 : 	else
; 1112 : 	{
; 1113 : 		ASSERT(AfxIsValidAddress(pOldNode->pPrev, sizeof(CNode)));
; 1114 : 		pOldNode->pPrev->pNext = pOldNode->pNext;

  00015	8b 41 04	 mov	 eax, DWORD PTR [ecx+4]
  00018	89 10		 mov	 DWORD PTR [eax], edx
$LN3@RemoveAt:

; 1115 : 	}
; 1116 : 	if (pOldNode == m_pNodeTail)

  0001a	8b 51 04	 mov	 edx, DWORD PTR [ecx+4]
  0001d	3b 4e 08	 cmp	 ecx, DWORD PTR [esi+8]
  00020	75 05		 jne	 SHORT $LN4@RemoveAt

; 1117 : 	{
; 1118 : 		m_pNodeTail = pOldNode->pPrev;

  00022	89 56 08	 mov	 DWORD PTR [esi+8], edx

; 1119 : 	}

  00025	eb 05		 jmp	 SHORT $LN5@RemoveAt
$LN4@RemoveAt:

; 1120 : 	else
; 1121 : 	{
; 1122 : 		ASSERT(AfxIsValidAddress(pOldNode->pNext, sizeof(CNode)));
; 1123 : 		pOldNode->pNext->pPrev = pOldNode->pPrev;

  00027	8b 01		 mov	 eax, DWORD PTR [ecx]
  00029	89 50 04	 mov	 DWORD PTR [eax+4], edx
$LN5@RemoveAt:

; 938  : 	pNode->pNext = m_pNodeFree;

  0002c	8b 46 10	 mov	 eax, DWORD PTR [esi+16]
  0002f	89 01		 mov	 DWORD PTR [ecx], eax

; 939  : 	m_pNodeFree = pNode;
; 940  : 	m_nCount--;

  00031	83 46 0c ff	 add	 DWORD PTR [esi+12], -1
  00035	89 4e 10	 mov	 DWORD PTR [esi+16], ecx

; 941  : 	ASSERT(m_nCount >= 0);  // make sure we don't underflow
; 942  : 
; 943  : 	// if no more elements, cleanup completely
; 944  : 	if (m_nCount == 0)

  00038	75 2b		 jne	 SHORT $LN8@RemoveAt

; 872  : 	m_pBlocks->FreeDataChain();

  0003a	8b 4e 14	 mov	 ecx, DWORD PTR [esi+20]
  0003d	c7 46 0c 00 00
	00 00		 mov	 DWORD PTR [esi+12], 0
  00044	c7 46 10 00 00
	00 00		 mov	 DWORD PTR [esi+16], 0
  0004b	c7 46 08 00 00
	00 00		 mov	 DWORD PTR [esi+8], 0
  00052	c7 46 04 00 00
	00 00		 mov	 DWORD PTR [esi+4], 0
  00059	e8 00 00 00 00	 call	 ?FreeDataChain@CPlex@@QAEXXZ ; CPlex::FreeDataChain

; 873  : 	m_pBlocks = NULL;

  0005e	c7 46 14 00 00
	00 00		 mov	 DWORD PTR [esi+20], 0
$LN8@RemoveAt:
  00065	5e		 pop	 esi

; 1124 : 	}
; 1125 : 	FreeNode(pOldNode);
; 1126 : }

  00066	5d		 pop	 ebp
  00067	c2 04 00	 ret	 4
?RemoveAt@?$CList@PAVCDlgCompGroupData@@PAV1@@@QAEXPAU__POSITION@@@Z ENDP ; CList<CDlgCompGroupData *,CDlgCompGroupData *>::RemoveAt
_TEXT	ENDS
; Function compile flags: /Ogtp
; File C:\Program Files (x86)\Microsoft Visual Studio\2019\Community\VC\Tools\MSVC\14.29.30133\atlmfc\include\afxtempl.h
;	COMDAT ?RemoveAll@?$CList@PAVCDlgCompGroupData@@PAV1@@@QAEXXZ
_TEXT	SEGMENT
?RemoveAll@?$CList@PAVCDlgCompGroupData@@PAV1@@@QAEXXZ PROC ; CList<CDlgCompGroupData *,CDlgCompGroupData *>::RemoveAll, COMDAT
; _this$ = ecx

; 862  : {

  00000	56		 push	 esi
  00001	8b f1		 mov	 esi, ecx

; 863  : 	ASSERT_VALID(this);
; 864  : 
; 865  : 	// destroy elements
; 866  : 	CNode* pNode;
; 867  : 	for (pNode = m_pNodeHead; pNode != NULL; pNode = pNode->pNext)
; 868  : 		pNode->data.~TYPE();
; 869  : 
; 870  : 	m_nCount = 0;
; 871  : 	m_pNodeHead = m_pNodeTail = m_pNodeFree = NULL;
; 872  : 	m_pBlocks->FreeDataChain();

  00003	8b 4e 14	 mov	 ecx, DWORD PTR [esi+20]
  00006	c7 46 0c 00 00
	00 00		 mov	 DWORD PTR [esi+12], 0
  0000d	c7 46 10 00 00
	00 00		 mov	 DWORD PTR [esi+16], 0
  00014	c7 46 08 00 00
	00 00		 mov	 DWORD PTR [esi+8], 0
  0001b	c7 46 04 00 00
	00 00		 mov	 DWORD PTR [esi+4], 0
  00022	e8 00 00 00 00	 call	 ?FreeDataChain@CPlex@@QAEXXZ ; CPlex::FreeDataChain

; 873  : 	m_pBlocks = NULL;

  00027	c7 46 14 00 00
	00 00		 mov	 DWORD PTR [esi+20], 0
  0002e	5e		 pop	 esi

; 874  : }

  0002f	c3		 ret	 0
?RemoveAll@?$CList@PAVCDlgCompGroupData@@PAV1@@@QAEXXZ ENDP ; CList<CDlgCompGroupData *,CDlgCompGroupData *>::RemoveAll
_TEXT	ENDS
; Function compile flags: /Ogtp
; File C:\Program Files (x86)\Microsoft Visual Studio\2019\Community\VC\Tools\MSVC\14.29.30133\atlmfc\include\afxtempl.h
;	COMDAT ?AddTail@?$CList@PAVCDlgCompGroupData@@PAV1@@@QAEPAU__POSITION@@PAVCDlgCompGroupData@@@Z
_TEXT	SEGMENT
_newElement$ = 8					; size = 4
?AddTail@?$CList@PAVCDlgCompGroupData@@PAV1@@@QAEPAU__POSITION@@PAVCDlgCompGroupData@@@Z PROC ; CList<CDlgCompGroupData *,CDlgCompGroupData *>::AddTail, COMDAT
; _this$ = ecx

; 965  : {

  00000	55		 push	 ebp
  00001	8b ec		 mov	 ebp, esp
  00003	56		 push	 esi
  00004	8b f1		 mov	 esi, ecx
  00006	57		 push	 edi

; 902  : 	if (m_pNodeFree == NULL)

  00007	83 7e 10 00	 cmp	 DWORD PTR [esi+16], 0

; 966  : 	ASSERT_VALID(this);
; 967  : 
; 968  : 	CNode* pNewNode = NewNode(m_pNodeTail, NULL);

  0000b	8b 7e 08	 mov	 edi, DWORD PTR [esi+8]

; 902  : 	if (m_pNodeFree == NULL)

  0000e	75 32		 jne	 SHORT $LN11@AddTail

; 903  : 	{
; 904  : 		// add another block
; 905  : 		CPlex* pNewBlock = CPlex::Create(m_pBlocks, m_nBlockSize,

  00010	6a 0c		 push	 12			; 0000000cH
  00012	ff 76 18	 push	 DWORD PTR [esi+24]
  00015	8d 46 14	 lea	 eax, DWORD PTR [esi+20]
  00018	50		 push	 eax
  00019	e8 00 00 00 00	 call	 ?Create@CPlex@@SGPAU1@AAPAU1@II@Z ; CPlex::Create

; 906  : 				 sizeof(CNode));
; 907  : 
; 908  : 		// chain them into free list
; 909  : 		CNode* pNode = (CNode*) pNewBlock->data();
; 910  : 		// free in reverse order to make it easier to debug
; 911  : 		pNode += m_nBlockSize - 1;

  0001e	8b 56 18	 mov	 edx, DWORD PTR [esi+24]
  00021	83 c0 08	 add	 eax, 8
  00024	8d 4a ff	 lea	 ecx, DWORD PTR [edx-1]

; 912  : 		for (INT_PTR i = m_nBlockSize-1; i >= 0; i--, pNode--)

  00027	83 c2 ff	 add	 edx, -1
  0002a	8d 0c 49	 lea	 ecx, DWORD PTR [ecx+ecx*2]
  0002d	8d 0c 88	 lea	 ecx, DWORD PTR [eax+ecx*4]
  00030	78 10		 js	 SHORT $LN11@AddTail
$LL8@AddTail:

; 913  : 		{
; 914  : 			pNode->pNext = m_pNodeFree;

  00032	8b 46 10	 mov	 eax, DWORD PTR [esi+16]
  00035	89 01		 mov	 DWORD PTR [ecx], eax

; 915  : 			m_pNodeFree = pNode;

  00037	89 4e 10	 mov	 DWORD PTR [esi+16], ecx
  0003a	83 e9 0c	 sub	 ecx, 12			; 0000000cH
  0003d	83 ea 01	 sub	 edx, 1
  00040	79 f0		 jns	 SHORT $LL8@AddTail
$LN11@AddTail:

; 916  : 		}
; 917  : 	}
; 918  : 	ENSURE(m_pNodeFree != NULL);  // we must have something

  00042	8b 4e 10	 mov	 ecx, DWORD PTR [esi+16]
  00045	85 c9		 test	 ecx, ecx
  00047	74 39		 je	 SHORT $LN22@AddTail

; 919  : 
; 920  : 	CList::CNode* pNode = m_pNodeFree;
; 921  : 	m_pNodeFree = m_pNodeFree->pNext;

  00049	8b 01		 mov	 eax, DWORD PTR [ecx]
  0004b	89 46 10	 mov	 DWORD PTR [esi+16], eax

; 969  : 	pNewNode->data = newElement;

  0004e	8b 45 08	 mov	 eax, DWORD PTR _newElement$[ebp]

; 922  : 	pNode->pPrev = pPrev;

  00051	89 79 04	 mov	 DWORD PTR [ecx+4], edi

; 923  : 	pNode->pNext = pNext;

  00054	c7 01 00 00 00
	00		 mov	 DWORD PTR [ecx], 0

; 924  : 	m_nCount++;

  0005a	ff 46 0c	 inc	 DWORD PTR [esi+12]

; 969  : 	pNewNode->data = newElement;

  0005d	89 41 08	 mov	 DWORD PTR [ecx+8], eax

; 970  : 	if (m_pNodeTail != NULL)

  00060	8b 46 08	 mov	 eax, DWORD PTR [esi+8]
  00063	85 c0		 test	 eax, eax
  00065	74 0d		 je	 SHORT $LN2@AddTail

; 971  : 		m_pNodeTail->pNext = pNewNode;

  00067	89 08		 mov	 DWORD PTR [eax], ecx

; 972  : 	else
; 973  : 		m_pNodeHead = pNewNode;
; 974  : 	m_pNodeTail = pNewNode;
; 975  : 	return (POSITION) pNewNode;

  00069	8b c1		 mov	 eax, ecx
  0006b	5f		 pop	 edi
  0006c	89 4e 08	 mov	 DWORD PTR [esi+8], ecx
  0006f	5e		 pop	 esi

; 976  : }

  00070	5d		 pop	 ebp
  00071	c2 04 00	 ret	 4
$LN2@AddTail:

; 972  : 	else
; 973  : 		m_pNodeHead = pNewNode;
; 974  : 	m_pNodeTail = pNewNode;
; 975  : 	return (POSITION) pNewNode;

  00074	5f		 pop	 edi
  00075	89 4e 04	 mov	 DWORD PTR [esi+4], ecx
  00078	8b c1		 mov	 eax, ecx
  0007a	89 4e 08	 mov	 DWORD PTR [esi+8], ecx
  0007d	5e		 pop	 esi

; 976  : }

  0007e	5d		 pop	 ebp
  0007f	c2 04 00	 ret	 4
$LN22@AddTail:

; 918  : 	ENSURE(m_pNodeFree != NULL);  // we must have something

  00082	e8 00 00 00 00	 call	 ?AfxThrowInvalidArgException@@YGXXZ ; AfxThrowInvalidArgException
$LN20@AddTail:
  00087	cc		 int	 3
?AddTail@?$CList@PAVCDlgCompGroupData@@PAV1@@@QAEPAU__POSITION@@PAVCDlgCompGroupData@@@Z ENDP ; CList<CDlgCompGroupData *,CDlgCompGroupData *>::AddTail
_TEXT	ENDS
; Function compile flags: /Ogtp
; File C:\Program Files (x86)\Microsoft Visual Studio\2019\Community\VC\Tools\MSVC\14.29.30133\atlmfc\include\afxtempl.h
;	COMDAT ??0?$CList@PAVCDlgCompGroupData@@PAV1@@@QAE@H@Z
_TEXT	SEGMENT
_nBlockSize$ = 8					; size = 4
??0?$CList@PAVCDlgCompGroupData@@PAV1@@@QAE@H@Z PROC	; CList<CDlgCompGroupData *,CDlgCompGroupData *>::CList<CDlgCompGroupData *,CDlgCompGroupData *>, COMDAT
; _this$ = ecx

; 851  : {

  00000	55		 push	 ebp
  00001	8b ec		 mov	 ebp, esp

; 852  : 	ASSERT(nBlockSize > 0);
; 853  : 
; 854  : 	m_nCount = 0;
; 855  : 	m_pNodeHead = m_pNodeTail = m_pNodeFree = NULL;
; 856  : 	m_pBlocks = NULL;
; 857  : 	m_nBlockSize = nBlockSize;

  00003	8b 45 08	 mov	 eax, DWORD PTR _nBlockSize$[ebp]
  00006	89 41 18	 mov	 DWORD PTR [ecx+24], eax

; 858  : }

  00009	8b c1		 mov	 eax, ecx
  0000b	c7 01 00 00 00
	00		 mov	 DWORD PTR [ecx], OFFSET ??_7?$CList@PAVCDlgCompGroupData@@PAV1@@@6B@
  00011	c7 41 0c 00 00
	00 00		 mov	 DWORD PTR [ecx+12], 0
  00018	c7 41 10 00 00
	00 00		 mov	 DWORD PTR [ecx+16], 0
  0001f	c7 41 08 00 00
	00 00		 mov	 DWORD PTR [ecx+8], 0
  00026	c7 41 04 00 00
	00 00		 mov	 DWORD PTR [ecx+4], 0
  0002d	c7 41 14 00 00
	00 00		 mov	 DWORD PTR [ecx+20], 0
  00034	5d		 pop	 ebp
  00035	c2 04 00	 ret	 4
??0?$CList@PAVCDlgCompGroupData@@PAV1@@@QAE@H@Z ENDP	; CList<CDlgCompGroupData *,CDlgCompGroupData *>::CList<CDlgCompGroupData *,CDlgCompGroupData *>
_TEXT	ENDS
; Function compile flags: /Ogtp
; File C:\Program Files (x86)\Microsoft Visual Studio\2019\Community\VC\Tools\MSVC\14.29.30133\atlmfc\include\afxtempl.h
;	COMDAT ??0CDlgCompGroupData@@QAE@XZ
_TEXT	SEGMENT
_this$ = -4						; size = 4
??0CDlgCompGroupData@@QAE@XZ PROC			; CDlgCompGroupData::CDlgCompGroupData, COMDAT
; _this$ = ecx
  00000	55		 push	 ebp
  00001	8b ec		 mov	 ebp, esp
  00003	51		 push	 ecx

; 851  : {

  00004	56		 push	 esi
  00005	8b f1		 mov	 esi, ecx
  00007	89 75 fc	 mov	 DWORD PTR _this$[ebp], esi
  0000a	ff 15 00 00 00
	00		 call	 DWORD PTR __imp_??0?$CStringT@DV?$StrTraitMFC_DLL@DV?$ChTraitsCRT@D@ATL@@@@@ATL@@QAE@XZ
  00010	c7 46 04 00 00
	00 00		 mov	 DWORD PTR [esi+4], OFFSET ??_7?$CList@PAVCDlgCompSubItem@@PAV1@@@6B@
  00017	8b c6		 mov	 eax, esi

; 852  : 	ASSERT(nBlockSize > 0);
; 853  : 
; 854  : 	m_nCount = 0;

  00019	c7 46 10 00 00
	00 00		 mov	 DWORD PTR [esi+16], 0

; 855  : 	m_pNodeHead = m_pNodeTail = m_pNodeFree = NULL;

  00020	c7 46 14 00 00
	00 00		 mov	 DWORD PTR [esi+20], 0
  00027	c7 46 0c 00 00
	00 00		 mov	 DWORD PTR [esi+12], 0
  0002e	c7 46 08 00 00
	00 00		 mov	 DWORD PTR [esi+8], 0

; 856  : 	m_pBlocks = NULL;

  00035	c7 46 18 00 00
	00 00		 mov	 DWORD PTR [esi+24], 0

; 857  : 	m_nBlockSize = nBlockSize;

  0003c	c7 46 1c 0a 00
	00 00		 mov	 DWORD PTR [esi+28], 10	; 0000000aH
  00043	5e		 pop	 esi
  00044	8b e5		 mov	 esp, ebp
  00046	5d		 pop	 ebp
  00047	c3		 ret	 0
??0CDlgCompGroupData@@QAE@XZ ENDP			; CDlgCompGroupData::CDlgCompGroupData
_TEXT	ENDS
; Function compile flags: /Ogtp
; File C:\Program Files (x86)\Microsoft Visual Studio\2019\Community\VC\Tools\MSVC\14.29.30133\atlmfc\include\afxtempl.h
; File C:\Program Files (x86)\Microsoft Visual Studio\2019\Community\VC\Tools\MSVC\14.29.30133\atlmfc\include\afx.inl
;	COMDAT ??_G?$CList@PAVCDlgCompSubItem@@PAV1@@@UAEPAXI@Z
_TEXT	SEGMENT
__$EHRec$ = -12						; size = 12
___flags$ = 8						; size = 4
??_G?$CList@PAVCDlgCompSubItem@@PAV1@@@UAEPAXI@Z PROC	; CList<CDlgCompSubItem *,CDlgCompSubItem *>::`scalar deleting destructor', COMDAT
; _this$ = ecx
  00000	55		 push	 ebp
  00001	8b ec		 mov	 ebp, esp
  00003	6a ff		 push	 -1
  00005	68 00 00 00 00	 push	 __ehhandler$??_G?$CList@PAVCDlgCompSubItem@@PAV1@@@UAEPAXI@Z
  0000a	64 a1 00 00 00
	00		 mov	 eax, DWORD PTR fs:0
  00010	50		 push	 eax
  00011	56		 push	 esi
  00012	a1 00 00 00 00	 mov	 eax, DWORD PTR ___security_cookie
  00017	33 c5		 xor	 eax, ebp
  00019	50		 push	 eax
  0001a	8d 45 f4	 lea	 eax, DWORD PTR __$EHRec$[ebp]
  0001d	64 a3 00 00 00
	00		 mov	 DWORD PTR fs:0, eax
  00023	8b f1		 mov	 esi, ecx
; File C:\Program Files (x86)\Microsoft Visual Studio\2019\Community\VC\Tools\MSVC\14.29.30133\atlmfc\include\afxtempl.h

; 872  : 	m_pBlocks->FreeDataChain();

  00025	8b 4e 14	 mov	 ecx, DWORD PTR [esi+20]

; 878  : {

  00028	c7 45 fc 00 00
	00 00		 mov	 DWORD PTR __$EHRec$[ebp+8], 0
  0002f	c7 06 00 00 00
	00		 mov	 DWORD PTR [esi], OFFSET ??_7?$CList@PAVCDlgCompSubItem@@PAV1@@@6B@

; 870  : 	m_nCount = 0;

  00035	c7 46 0c 00 00
	00 00		 mov	 DWORD PTR [esi+12], 0

; 871  : 	m_pNodeHead = m_pNodeTail = m_pNodeFree = NULL;

  0003c	c7 46 10 00 00
	00 00		 mov	 DWORD PTR [esi+16], 0
  00043	c7 46 08 00 00
	00 00		 mov	 DWORD PTR [esi+8], 0
  0004a	c7 46 04 00 00
	00 00		 mov	 DWORD PTR [esi+4], 0

; 872  : 	m_pBlocks->FreeDataChain();

  00051	e8 00 00 00 00	 call	 ?FreeDataChain@CPlex@@QAEXXZ ; CPlex::FreeDataChain

; 873  : 	m_pBlocks = NULL;

  00056	8b 45 08	 mov	 eax, DWORD PTR ___flags$[ebp]
  00059	c7 46 14 00 00
	00 00		 mov	 DWORD PTR [esi+20], 0
  00060	a8 01		 test	 al, 1
  00062	74 2c		 je	 SHORT $LN22@scalar
  00064	a8 04		 test	 al, 4
  00066	75 1d		 jne	 SHORT $LN3@scalar
; File C:\Program Files (x86)\Microsoft Visual Studio\2019\Community\VC\Tools\MSVC\14.29.30133\atlmfc\include\afx.inl

; 112  : 	{ ::operator delete(p); }

  00068	56		 push	 esi
  00069	e8 00 00 00 00	 call	 ??3@YAXPAX@Z		; operator delete
  0006e	83 c4 04	 add	 esp, 4
  00071	8b c6		 mov	 eax, esi
  00073	8b 4d f4	 mov	 ecx, DWORD PTR __$EHRec$[ebp]
  00076	64 89 0d 00 00
	00 00		 mov	 DWORD PTR fs:0, ecx
  0007d	59		 pop	 ecx
  0007e	5e		 pop	 esi
  0007f	8b e5		 mov	 esp, ebp
  00081	5d		 pop	 ebp
  00082	c2 04 00	 ret	 4
$LN3@scalar:
  00085	6a 1c		 push	 28			; 0000001cH
  00087	56		 push	 esi
  00088	e8 00 00 00 00	 call	 ?__global_delete@@YAXPAXI@Z ; __global_delete
  0008d	83 c4 08	 add	 esp, 8
$LN22@scalar:
  00090	8b c6		 mov	 eax, esi
  00092	8b 4d f4	 mov	 ecx, DWORD PTR __$EHRec$[ebp]
  00095	64 89 0d 00 00
	00 00		 mov	 DWORD PTR fs:0, ecx
  0009c	59		 pop	 ecx
  0009d	5e		 pop	 esi
  0009e	8b e5		 mov	 esp, ebp
  000a0	5d		 pop	 ebp
  000a1	c2 04 00	 ret	 4
  000a4	cc		 int	 3
  000a5	cc		 int	 3
  000a6	cc		 int	 3
  000a7	cc		 int	 3
  000a8	cc		 int	 3
_TEXT	ENDS
;	COMDAT text$x
text$x	SEGMENT
__ehhandler$??_G?$CList@PAVCDlgCompSubItem@@PAV1@@@UAEPAXI@Z:
  00000	90		 npad	 1
  00001	90		 npad	 1
  00002	8b 54 24 08	 mov	 edx, DWORD PTR [esp+8]
  00006	8d 42 0c	 lea	 eax, DWORD PTR [edx+12]
  00009	8b 4a f8	 mov	 ecx, DWORD PTR [edx-8]
  0000c	33 c8		 xor	 ecx, eax
  0000e	e8 00 00 00 00	 call	 @__security_check_cookie@4
  00013	b8 00 00 00 00	 mov	 eax, OFFSET __ehfuncinfo$??_G?$CList@PAVCDlgCompSubItem@@PAV1@@@UAEPAXI@Z
  00018	e9 00 00 00 00	 jmp	 ___CxxFrameHandler3
text$x	ENDS
??_G?$CList@PAVCDlgCompSubItem@@PAV1@@@UAEPAXI@Z ENDP	; CList<CDlgCompSubItem *,CDlgCompSubItem *>::`scalar deleting destructor'
; Function compile flags: /Ogtp
; File C:\Program Files (x86)\Microsoft Visual Studio\2019\Community\VC\Tools\MSVC\14.29.30133\atlmfc\include\afxtempl.h
; File C:\Program Files (x86)\Microsoft Visual Studio\2019\Community\VC\Tools\MSVC\14.29.30133\atlmfc\include\afx.inl
; File C:\Program Files (x86)\Microsoft Visual Studio\2019\Community\VC\Tools\MSVC\14.29.30133\atlmfc\include\afxtempl.h
; File C:\Program Files (x86)\Microsoft Visual Studio\2019\Community\VC\Tools\MSVC\14.29.30133\atlmfc\include\afx.inl
; File C:\Program Files (x86)\Microsoft Visual Studio\2019\Community\VC\Tools\MSVC\14.29.30133\atlmfc\include\afxtempl.h
; File C:\Program Files (x86)\Microsoft Visual Studio\2019\Community\VC\Tools\MSVC\14.29.30133\atlmfc\include\afx.inl
; File C:\Program Files (x86)\Microsoft Visual Studio\2019\Community\VC\Tools\MSVC\14.29.30133\atlmfc\include\afxtempl.h
; File C:\Program Files (x86)\Microsoft Visual Studio\2019\Community\VC\Tools\MSVC\14.29.30133\atlmfc\include\afx.inl
; File C:\Program Files (x86)\Microsoft Visual Studio\2019\Community\VC\Tools\MSVC\14.29.30133\atlmfc\include\afxtempl.h
; File C:\Program Files (x86)\Microsoft Visual Studio\2019\Community\VC\Tools\MSVC\14.29.30133\atlmfc\include\afx.inl
; File C:\Program Files (x86)\Microsoft Visual Studio\2019\Community\VC\Tools\MSVC\14.29.30133\atlmfc\include\afxtempl.h
; File C:\Program Files (x86)\Microsoft Visual Studio\2019\Community\VC\Tools\MSVC\14.29.30133\atlmfc\include\afx.inl
; File C:\Program Files (x86)\Microsoft Visual Studio\2019\Community\VC\Tools\MSVC\14.29.30133\atlmfc\include\afxtempl.h
;	COMDAT ?Serialize@?$CList@PAVCDlgCompSubItem@@PAV1@@@UAEXAAVCArchive@@@Z
_TEXT	SEGMENT
_nNewCount$1$ = -16					; size = 4
_newData$1 = -12					; size = 4
_pData$1$ = -8						; size = 4
_pNode$1$ = -8						; size = 4
_nElementsLeft$1$ = -4					; size = 4
_this$1$ = -4						; size = 4
_ar$ = 8						; size = 4
?Serialize@?$CList@PAVCDlgCompSubItem@@PAV1@@@UAEXAAVCArchive@@@Z PROC ; CList<CDlgCompSubItem *,CDlgCompSubItem *>::Serialize, COMDAT
; _this$ = ecx

; 1169 : {

  00000	55		 push	 ebp
  00001	8b ec		 mov	 ebp, esp
  00003	83 ec 10	 sub	 esp, 16			; 00000010H
  00006	53		 push	 ebx
  00007	8b d9		 mov	 ebx, ecx
; File C:\Program Files (x86)\Microsoft Visual Studio\2019\Community\VC\Tools\MSVC\14.29.30133\atlmfc\include\afx.inl

; 212  : 	{ return (m_nMode & CArchive::load) == 0; }

  00009	8b 4d 08	 mov	 ecx, DWORD PTR _ar$[ebp]
; File C:\Program Files (x86)\Microsoft Visual Studio\2019\Community\VC\Tools\MSVC\14.29.30133\atlmfc\include\afxtempl.h

; 1169 : {

  0000c	56		 push	 esi
  0000d	57		 push	 edi
  0000e	89 5d fc	 mov	 DWORD PTR _this$1$[ebp], ebx
; File C:\Program Files (x86)\Microsoft Visual Studio\2019\Community\VC\Tools\MSVC\14.29.30133\atlmfc\include\afx.inl

; 212  : 	{ return (m_nMode & CArchive::load) == 0; }

  00011	8b 41 18	 mov	 eax, DWORD PTR [ecx+24]
  00014	f7 d0		 not	 eax
  00016	a8 01		 test	 al, 1
; File C:\Program Files (x86)\Microsoft Visual Studio\2019\Community\VC\Tools\MSVC\14.29.30133\atlmfc\include\afxtempl.h

; 1174 : 	if (ar.IsStoring())

  00018	0f 84 ae 00 00
	00		 je	 $LN7@Serialize

; 1175 : 	{
; 1176 : 		ar.WriteCount(m_nCount);

  0001e	ff 73 0c	 push	 DWORD PTR [ebx+12]
  00021	e8 00 00 00 00	 call	 ?WriteCount@CArchive@@QAEXK@Z ; CArchive::WriteCount

; 1177 : 		for (CNode* pNode = m_pNodeHead; pNode != NULL; pNode = pNode->pNext)

  00026	8b 43 04	 mov	 eax, DWORD PTR [ebx+4]
  00029	89 45 f8	 mov	 DWORD PTR _pNode$1$[ebp], eax
  0002c	85 c0		 test	 eax, eax
  0002e	0f 84 43 01 00
	00		 je	 $LN68@Serialize
$LL4@Serialize:

; 1178 : 		{
; 1179 : 			ASSERT(AfxIsValidAddress(pNode, sizeof(CNode)));
; 1180 : 			TYPE* pData;
; 1181 : 			/*
; 1182 : 			 * in some cases the & operator might be overloaded, and we cannot use it to obtain
; 1183 : 			 * the address of a given object.  We then use the following trick to get the address
; 1184 : 			 */
; 1185 : 			pData = reinterpret_cast< TYPE* >( &reinterpret_cast< int& >( static_cast< TYPE& >( pNode->data ) ) );

  00034	8d 70 08	 lea	 esi, DWORD PTR [eax+8]

; 68   : 	ENSURE(nCount == 0 || pElements != NULL);

  00037	85 f6		 test	 esi, esi
  00039	0f 84 4a 01 00
	00		 je	 $LN60@Serialize
; File C:\Program Files (x86)\Microsoft Visual Studio\2019\Community\VC\Tools\MSVC\14.29.30133\atlmfc\include\afx.inl

; 212  : 	{ return (m_nMode & CArchive::load) == 0; }

  0003f	8b 4d 08	 mov	 ecx, DWORD PTR _ar$[ebp]
  00042	8b 41 18	 mov	 eax, DWORD PTR [ecx+24]
  00045	f7 d0		 not	 eax
  00047	a8 01		 test	 al, 1
; File C:\Program Files (x86)\Microsoft Visual Studio\2019\Community\VC\Tools\MSVC\14.29.30133\atlmfc\include\afxtempl.h

; 73   : 	if (ar.IsStoring())

  00049	74 33		 je	 SHORT $LN21@Serialize

; 74   : 	{
; 75   : 		TYPE* pData;
; 76   : 		UINT_PTR nElementsLeft;
; 77   : 
; 78   : 		nElementsLeft = nCount;

  0004b	b8 01 00 00 00	 mov	 eax, 1
  00050	89 45 fc	 mov	 DWORD PTR _nElementsLeft$1$[ebp], eax
$LL16@Serialize:

; 80   : 		while( nElementsLeft > 0 )
; 81   : 		{
; 82   : 			UINT nElementsToWrite;
; 83   : 
; 84   : 			nElementsToWrite = UINT(__min(nElementsLeft, INT_MAX/sizeof(TYPE)));

  00053	bb ff ff ff 1f	 mov	 ebx, 536870911		; 1fffffffH
  00058	3b c3		 cmp	 eax, ebx
  0005a	0f 42 d8	 cmovb	 ebx, eax

; 85   : 			ar.Write(pData, nElementsToWrite*sizeof(TYPE));

  0005d	8d 3c 9d 00 00
	00 00		 lea	 edi, DWORD PTR [ebx*4]
  00064	57		 push	 edi
  00065	56		 push	 esi
  00066	e8 00 00 00 00	 call	 ?Write@CArchive@@QAEXPBXI@Z ; CArchive::Write

; 86   : 			nElementsLeft -= nElementsToWrite;

  0006b	8b 45 fc	 mov	 eax, DWORD PTR _nElementsLeft$1$[ebp]

; 87   : 			pData += nElementsToWrite;

  0006e	03 f7		 add	 esi, edi
  00070	8b 4d 08	 mov	 ecx, DWORD PTR _ar$[ebp]
  00073	2b c3		 sub	 eax, ebx
  00075	89 45 fc	 mov	 DWORD PTR _nElementsLeft$1$[ebp], eax
  00078	85 c0		 test	 eax, eax
  0007a	75 d7		 jne	 SHORT $LL16@Serialize

; 88   : 		}
; 89   : 	}

  0007c	eb 35		 jmp	 SHORT $LN2@Serialize
$LN21@Serialize:

; 90   : 	else
; 91   : 	{
; 92   : 		TYPE* pData;
; 93   : 		UINT_PTR nElementsLeft;
; 94   : 
; 95   : 		nElementsLeft = nCount;

  0007e	bf 01 00 00 00	 mov	 edi, 1
$LL18@Serialize:

; 98   : 		{
; 99   : 			UINT nElementsToRead;
; 100  : 
; 101  : 			nElementsToRead = UINT(__min(nElementsLeft, INT_MAX/sizeof(TYPE)));

  00083	bb ff ff ff 1f	 mov	 ebx, 536870911		; 1fffffffH
  00088	3b fb		 cmp	 edi, ebx
  0008a	0f 42 df	 cmovb	 ebx, edi

; 102  : 			ar.EnsureRead(pData, nElementsToRead*sizeof(TYPE));

  0008d	8d 04 9d 00 00
	00 00		 lea	 eax, DWORD PTR [ebx*4]
; File C:\Program Files (x86)\Microsoft Visual Studio\2019\Community\VC\Tools\MSVC\14.29.30133\atlmfc\include\afx.inl

; 399  : 	UINT nRead=Read(lpBuf, nCount);

  00094	50		 push	 eax
  00095	56		 push	 esi
  00096	e8 00 00 00 00	 call	 ?Read@CArchive@@QAEIPAXI@Z ; CArchive::Read

; 400  : 	if(nRead!=nCount)

  0009b	8d 0c 9d 00 00
	00 00		 lea	 ecx, DWORD PTR [ebx*4]
  000a2	3b c1		 cmp	 eax, ecx
  000a4	0f 85 d6 00 00
	00		 jne	 $LN59@Serialize
; File C:\Program Files (x86)\Microsoft Visual Studio\2019\Community\VC\Tools\MSVC\14.29.30133\atlmfc\include\afxtempl.h

; 97   : 		while( nElementsLeft > 0 )

  000aa	03 f1		 add	 esi, ecx
  000ac	8b 4d 08	 mov	 ecx, DWORD PTR _ar$[ebp]

; 103  : 			nElementsLeft -= nElementsToRead;

  000af	2b fb		 sub	 edi, ebx
  000b1	75 d0		 jne	 SHORT $LL18@Serialize
$LN2@Serialize:

; 1177 : 		for (CNode* pNode = m_pNodeHead; pNode != NULL; pNode = pNode->pNext)

  000b3	8b 45 f8	 mov	 eax, DWORD PTR _pNode$1$[ebp]
  000b6	8b 00		 mov	 eax, DWORD PTR [eax]
  000b8	89 45 f8	 mov	 DWORD PTR _pNode$1$[ebp], eax
  000bb	85 c0		 test	 eax, eax
  000bd	0f 85 71 ff ff
	ff		 jne	 $LL4@Serialize

; 1197 : 		}
; 1198 : 	}
; 1199 : }

  000c3	5f		 pop	 edi
  000c4	5e		 pop	 esi
  000c5	5b		 pop	 ebx
  000c6	8b e5		 mov	 esp, ebp
  000c8	5d		 pop	 ebp
  000c9	c2 04 00	 ret	 4
$LN7@Serialize:

; 1186 : 			SerializeElements<TYPE>(ar, pData, 1);
; 1187 : 		}
; 1188 : 	}
; 1189 : 	else
; 1190 : 	{
; 1191 : 		DWORD_PTR nNewCount = ar.ReadCount();

  000cc	e8 00 00 00 00	 call	 ?ReadCount@CArchive@@QAEKXZ ; CArchive::ReadCount

; 1192 : 		while (nNewCount--)

  000d1	85 c0		 test	 eax, eax
  000d3	0f 84 9e 00 00
	00		 je	 $LN68@Serialize
  000d9	0f 1f 80 00 00
	00 00		 npad	 7
$LL5@Serialize:
  000e0	48		 dec	 eax
  000e1	89 45 f0	 mov	 DWORD PTR _nNewCount$1$[ebp], eax
; File C:\Program Files (x86)\Microsoft Visual Studio\2019\Community\VC\Tools\MSVC\14.29.30133\atlmfc\include\afx.inl

; 212  : 	{ return (m_nMode & CArchive::load) == 0; }

  000e4	8b 45 08	 mov	 eax, DWORD PTR _ar$[ebp]
  000e7	8b 48 18	 mov	 ecx, DWORD PTR [eax+24]
  000ea	f7 d1		 not	 ecx
  000ec	f6 c1 01	 test	 cl, 1
; File C:\Program Files (x86)\Microsoft Visual Studio\2019\Community\VC\Tools\MSVC\14.29.30133\atlmfc\include\afxtempl.h

; 73   : 	if (ar.IsStoring())

  000ef	74 3a		 je	 SHORT $LN42@Serialize

; 79   : 		pData = pElements;

  000f1	8d 4d f4	 lea	 ecx, DWORD PTR _newData$1[ebp]
  000f4	bb 01 00 00 00	 mov	 ebx, 1
  000f9	89 4d f8	 mov	 DWORD PTR _pData$1$[ebp], ecx
  000fc	0f 1f 40 00	 npad	 4
$LL37@Serialize:

; 80   : 		while( nElementsLeft > 0 )
; 81   : 		{
; 82   : 			UINT nElementsToWrite;
; 83   : 
; 84   : 			nElementsToWrite = UINT(__min(nElementsLeft, INT_MAX/sizeof(TYPE)));

  00100	bf ff ff ff 1f	 mov	 edi, 536870911		; 1fffffffH
  00105	3b df		 cmp	 ebx, edi
  00107	0f 42 fb	 cmovb	 edi, ebx

; 85   : 			ar.Write(pData, nElementsToWrite*sizeof(TYPE));

  0010a	8d 34 bd 00 00
	00 00		 lea	 esi, DWORD PTR [edi*4]
  00111	56		 push	 esi
  00112	51		 push	 ecx
  00113	8b c8		 mov	 ecx, eax
  00115	e8 00 00 00 00	 call	 ?Write@CArchive@@QAEXPBXI@Z ; CArchive::Write

; 87   : 			pData += nElementsToWrite;

  0011a	8b 4d f8	 mov	 ecx, DWORD PTR _pData$1$[ebp]
  0011d	8b 45 08	 mov	 eax, DWORD PTR _ar$[ebp]
  00120	03 ce		 add	 ecx, esi
  00122	89 4d f8	 mov	 DWORD PTR _pData$1$[ebp], ecx
  00125	2b df		 sub	 ebx, edi
  00127	75 d7		 jne	 SHORT $LL37@Serialize

; 88   : 		}
; 89   : 	}

  00129	eb 36		 jmp	 SHORT $LN40@Serialize
$LN42@Serialize:

; 90   : 	else
; 91   : 	{
; 92   : 		TYPE* pData;
; 93   : 		UINT_PTR nElementsLeft;
; 94   : 
; 95   : 		nElementsLeft = nCount;

  0012b	be 01 00 00 00	 mov	 esi, 1

; 96   : 		pData = pElements;

  00130	8d 5d f4	 lea	 ebx, DWORD PTR _newData$1[ebp]
$LL39@Serialize:

; 98   : 		{
; 99   : 			UINT nElementsToRead;
; 100  : 
; 101  : 			nElementsToRead = UINT(__min(nElementsLeft, INT_MAX/sizeof(TYPE)));

  00133	bf ff ff ff 1f	 mov	 edi, 536870911		; 1fffffffH
  00138	3b f7		 cmp	 esi, edi
  0013a	0f 42 fe	 cmovb	 edi, esi

; 102  : 			ar.EnsureRead(pData, nElementsToRead*sizeof(TYPE));

  0013d	8d 0c bd 00 00
	00 00		 lea	 ecx, DWORD PTR [edi*4]
; File C:\Program Files (x86)\Microsoft Visual Studio\2019\Community\VC\Tools\MSVC\14.29.30133\atlmfc\include\afx.inl

; 399  : 	UINT nRead=Read(lpBuf, nCount);

  00144	51		 push	 ecx
  00145	53		 push	 ebx
  00146	8b c8		 mov	 ecx, eax
  00148	e8 00 00 00 00	 call	 ?Read@CArchive@@QAEIPAXI@Z ; CArchive::Read

; 400  : 	if(nRead!=nCount)

  0014d	8d 0c bd 00 00
	00 00		 lea	 ecx, DWORD PTR [edi*4]
  00154	3b c1		 cmp	 eax, ecx
  00156	75 28		 jne	 SHORT $LN59@Serialize
; File C:\Program Files (x86)\Microsoft Visual Studio\2019\Community\VC\Tools\MSVC\14.29.30133\atlmfc\include\afxtempl.h

; 104  : 			pData += nElementsToRead;

  00158	8b 45 08	 mov	 eax, DWORD PTR _ar$[ebp]
  0015b	03 d9		 add	 ebx, ecx
  0015d	2b f7		 sub	 esi, edi
  0015f	75 d2		 jne	 SHORT $LL39@Serialize
$LN40@Serialize:

; 1193 : 		{
; 1194 : 			TYPE newData[1];
; 1195 : 			SerializeElements<TYPE>(ar, newData, 1);
; 1196 : 			AddTail(newData[0]);

  00161	ff 75 f4	 push	 DWORD PTR _newData$1[ebp]
  00164	8b 4d fc	 mov	 ecx, DWORD PTR _this$1$[ebp]
  00167	e8 00 00 00 00	 call	 ?AddTail@?$CList@PAVCDlgCompSubItem@@PAV1@@@QAEPAU__POSITION@@PAVCDlgCompSubItem@@@Z ; CList<CDlgCompSubItem *,CDlgCompSubItem *>::AddTail
  0016c	8b 45 f0	 mov	 eax, DWORD PTR _nNewCount$1$[ebp]
  0016f	85 c0		 test	 eax, eax
  00171	0f 85 69 ff ff
	ff		 jne	 $LL5@Serialize
$LN68@Serialize:
  00177	5f		 pop	 edi

; 1197 : 		}
; 1198 : 	}
; 1199 : }

  00178	5e		 pop	 esi
  00179	5b		 pop	 ebx
  0017a	8b e5		 mov	 esp, ebp
  0017c	5d		 pop	 ebp
  0017d	c2 04 00	 ret	 4
$LN59@Serialize:
  00180	6a 00		 push	 0
  00182	6a 03		 push	 3
  00184	e8 00 00 00 00	 call	 ?AfxThrowArchiveException@@YGXHPBD@Z ; AfxThrowArchiveException
$LN60@Serialize:

; 68   : 	ENSURE(nCount == 0 || pElements != NULL);

  00189	e8 00 00 00 00	 call	 ?AfxThrowInvalidArgException@@YGXXZ ; AfxThrowInvalidArgException
$LN85@Serialize:
  0018e	cc		 int	 3
?Serialize@?$CList@PAVCDlgCompSubItem@@PAV1@@@UAEXAAVCArchive@@@Z ENDP ; CList<CDlgCompSubItem *,CDlgCompSubItem *>::Serialize
_TEXT	ENDS
; Function compile flags: /Ogtp
; File C:\Program Files (x86)\Microsoft Visual Studio\2019\Community\VC\Tools\MSVC\14.29.30133\atlmfc\include\afxtempl.h
;	COMDAT ??1?$CList@PAVCDlgCompSubItem@@PAV1@@@UAE@XZ
_TEXT	SEGMENT
__$EHRec$ = -12						; size = 12
??1?$CList@PAVCDlgCompSubItem@@PAV1@@@UAE@XZ PROC	; CList<CDlgCompSubItem *,CDlgCompSubItem *>::~CList<CDlgCompSubItem *,CDlgCompSubItem *>, COMDAT
; _this$ = ecx

; 878  : {

  00000	55		 push	 ebp
  00001	8b ec		 mov	 ebp, esp
  00003	6a ff		 push	 -1
  00005	68 00 00 00 00	 push	 __ehhandler$??1?$CList@PAVCDlgCompSubItem@@PAV1@@@UAE@XZ
  0000a	64 a1 00 00 00
	00		 mov	 eax, DWORD PTR fs:0
  00010	50		 push	 eax
  00011	56		 push	 esi
  00012	a1 00 00 00 00	 mov	 eax, DWORD PTR ___security_cookie
  00017	33 c5		 xor	 eax, ebp
  00019	50		 push	 eax
  0001a	8d 45 f4	 lea	 eax, DWORD PTR __$EHRec$[ebp]
  0001d	64 a3 00 00 00
	00		 mov	 DWORD PTR fs:0, eax
  00023	8b f1		 mov	 esi, ecx

; 872  : 	m_pBlocks->FreeDataChain();

  00025	8b 4e 14	 mov	 ecx, DWORD PTR [esi+20]

; 878  : {

  00028	c7 06 00 00 00
	00		 mov	 DWORD PTR [esi], OFFSET ??_7?$CList@PAVCDlgCompSubItem@@PAV1@@@6B@

; 870  : 	m_nCount = 0;

  0002e	c7 46 0c 00 00
	00 00		 mov	 DWORD PTR [esi+12], 0

; 871  : 	m_pNodeHead = m_pNodeTail = m_pNodeFree = NULL;

  00035	c7 46 10 00 00
	00 00		 mov	 DWORD PTR [esi+16], 0
  0003c	c7 46 08 00 00
	00 00		 mov	 DWORD PTR [esi+8], 0
  00043	c7 46 04 00 00
	00 00		 mov	 DWORD PTR [esi+4], 0

; 872  : 	m_pBlocks->FreeDataChain();

  0004a	e8 00 00 00 00	 call	 ?FreeDataChain@CPlex@@QAEXXZ ; CPlex::FreeDataChain

; 873  : 	m_pBlocks = NULL;

  0004f	c7 46 14 00 00
	00 00		 mov	 DWORD PTR [esi+20], 0

; 879  : 	RemoveAll();
; 880  : 	ASSERT(m_nCount == 0);
; 881  : }

  00056	8b 4d f4	 mov	 ecx, DWORD PTR __$EHRec$[ebp]
  00059	64 89 0d 00 00
	00 00		 mov	 DWORD PTR fs:0, ecx
  00060	59		 pop	 ecx
  00061	5e		 pop	 esi
  00062	8b e5		 mov	 esp, ebp
  00064	5d		 pop	 ebp
  00065	c3		 ret	 0
  00066	cc		 int	 3
  00067	cc		 int	 3
  00068	cc		 int	 3
  00069	cc		 int	 3
  0006a	cc		 int	 3
_TEXT	ENDS
;	COMDAT text$x
text$x	SEGMENT
__ehhandler$??1?$CList@PAVCDlgCompSubItem@@PAV1@@@UAE@XZ:
  00000	90		 npad	 1
  00001	90		 npad	 1
  00002	8b 54 24 08	 mov	 edx, DWORD PTR [esp+8]
  00006	8d 42 0c	 lea	 eax, DWORD PTR [edx+12]
  00009	8b 4a f8	 mov	 ecx, DWORD PTR [edx-8]
  0000c	33 c8		 xor	 ecx, eax
  0000e	e8 00 00 00 00	 call	 @__security_check_cookie@4
  00013	b8 00 00 00 00	 mov	 eax, OFFSET __ehfuncinfo$??1?$CList@PAVCDlgCompSubItem@@PAV1@@@UAE@XZ
  00018	e9 00 00 00 00	 jmp	 ___CxxFrameHandler3
text$x	ENDS
??1?$CList@PAVCDlgCompSubItem@@PAV1@@@UAE@XZ ENDP	; CList<CDlgCompSubItem *,CDlgCompSubItem *>::~CList<CDlgCompSubItem *,CDlgCompSubItem *>
; Function compile flags: /Ogtp
; File C:\Program Files (x86)\Microsoft Visual Studio\2019\Community\VC\Tools\MSVC\14.29.30133\atlmfc\include\afxtempl.h
;	COMDAT ?FreeNode@?$CList@PAVCDlgCompSubItem@@PAV1@@@IAEXPAUCNode@1@@Z
_TEXT	SEGMENT
_pNode$ = 8						; size = 4
?FreeNode@?$CList@PAVCDlgCompSubItem@@PAV1@@@IAEXPAUCNode@1@@Z PROC ; CList<CDlgCompSubItem *,CDlgCompSubItem *>::FreeNode, COMDAT
; _this$ = ecx

; 936  : {

  00000	55		 push	 ebp
  00001	8b ec		 mov	 ebp, esp

; 937  : 	pNode->data.~TYPE();
; 938  : 	pNode->pNext = m_pNodeFree;

  00003	8b 55 08	 mov	 edx, DWORD PTR _pNode$[ebp]
  00006	56		 push	 esi
  00007	8b f1		 mov	 esi, ecx
  00009	8b 46 10	 mov	 eax, DWORD PTR [esi+16]
  0000c	89 02		 mov	 DWORD PTR [edx], eax

; 939  : 	m_pNodeFree = pNode;
; 940  : 	m_nCount--;

  0000e	83 46 0c ff	 add	 DWORD PTR [esi+12], -1
  00012	89 56 10	 mov	 DWORD PTR [esi+16], edx

; 941  : 	ASSERT(m_nCount >= 0);  // make sure we don't underflow
; 942  : 
; 943  : 	// if no more elements, cleanup completely
; 944  : 	if (m_nCount == 0)

  00015	75 2b		 jne	 SHORT $LN2@FreeNode

; 872  : 	m_pBlocks->FreeDataChain();

  00017	8b 4e 14	 mov	 ecx, DWORD PTR [esi+20]
  0001a	c7 46 0c 00 00
	00 00		 mov	 DWORD PTR [esi+12], 0
  00021	c7 46 10 00 00
	00 00		 mov	 DWORD PTR [esi+16], 0
  00028	c7 46 08 00 00
	00 00		 mov	 DWORD PTR [esi+8], 0
  0002f	c7 46 04 00 00
	00 00		 mov	 DWORD PTR [esi+4], 0
  00036	e8 00 00 00 00	 call	 ?FreeDataChain@CPlex@@QAEXXZ ; CPlex::FreeDataChain

; 873  : 	m_pBlocks = NULL;

  0003b	c7 46 14 00 00
	00 00		 mov	 DWORD PTR [esi+20], 0
$LN2@FreeNode:
  00042	5e		 pop	 esi

; 945  : 		RemoveAll();
; 946  : }

  00043	5d		 pop	 ebp
  00044	c2 04 00	 ret	 4
?FreeNode@?$CList@PAVCDlgCompSubItem@@PAV1@@@IAEXPAUCNode@1@@Z ENDP ; CList<CDlgCompSubItem *,CDlgCompSubItem *>::FreeNode
_TEXT	ENDS
; Function compile flags: /Ogtp
; File C:\Program Files (x86)\Microsoft Visual Studio\2019\Community\VC\Tools\MSVC\14.29.30133\atlmfc\include\afxtempl.h
;	COMDAT ?NewNode@?$CList@PAVCDlgCompSubItem@@PAV1@@@IAEPAUCNode@1@PAU21@0@Z
_TEXT	SEGMENT
_pPrev$ = 8						; size = 4
_pNext$ = 12						; size = 4
?NewNode@?$CList@PAVCDlgCompSubItem@@PAV1@@@IAEPAUCNode@1@PAU21@0@Z PROC ; CList<CDlgCompSubItem *,CDlgCompSubItem *>::NewNode, COMDAT
; _this$ = ecx

; 901  : {

  00000	55		 push	 ebp
  00001	8b ec		 mov	 ebp, esp
  00003	56		 push	 esi
  00004	8b f1		 mov	 esi, ecx

; 902  : 	if (m_pNodeFree == NULL)

  00006	83 7e 10 00	 cmp	 DWORD PTR [esi+16], 0
  0000a	75 34		 jne	 SHORT $LN7@NewNode

; 903  : 	{
; 904  : 		// add another block
; 905  : 		CPlex* pNewBlock = CPlex::Create(m_pBlocks, m_nBlockSize,

  0000c	6a 0c		 push	 12			; 0000000cH
  0000e	ff 76 18	 push	 DWORD PTR [esi+24]
  00011	8d 46 14	 lea	 eax, DWORD PTR [esi+20]
  00014	50		 push	 eax
  00015	e8 00 00 00 00	 call	 ?Create@CPlex@@SGPAU1@AAPAU1@II@Z ; CPlex::Create

; 906  : 				 sizeof(CNode));
; 907  : 
; 908  : 		// chain them into free list
; 909  : 		CNode* pNode = (CNode*) pNewBlock->data();
; 910  : 		// free in reverse order to make it easier to debug
; 911  : 		pNode += m_nBlockSize - 1;

  0001a	8b 56 18	 mov	 edx, DWORD PTR [esi+24]
  0001d	83 c0 08	 add	 eax, 8
  00020	8d 0c 52	 lea	 ecx, DWORD PTR [edx+edx*2]
  00023	8d 04 88	 lea	 eax, DWORD PTR [eax+ecx*4]
  00026	83 c0 f4	 add	 eax, -12		; fffffff4H

; 912  : 		for (INT_PTR i = m_nBlockSize-1; i >= 0; i--, pNode--)

  00029	83 c2 ff	 add	 edx, -1
  0002c	78 12		 js	 SHORT $LN7@NewNode
  0002e	66 90		 npad	 2
$LL4@NewNode:

; 913  : 		{
; 914  : 			pNode->pNext = m_pNodeFree;

  00030	8b 4e 10	 mov	 ecx, DWORD PTR [esi+16]
  00033	89 08		 mov	 DWORD PTR [eax], ecx

; 915  : 			m_pNodeFree = pNode;

  00035	89 46 10	 mov	 DWORD PTR [esi+16], eax
  00038	83 e8 0c	 sub	 eax, 12			; 0000000cH
  0003b	83 ea 01	 sub	 edx, 1
  0003e	79 f0		 jns	 SHORT $LL4@NewNode
$LN7@NewNode:

; 916  : 		}
; 917  : 	}
; 918  : 	ENSURE(m_pNodeFree != NULL);  // we must have something

  00040	8b 46 10	 mov	 eax, DWORD PTR [esi+16]
  00043	85 c0		 test	 eax, eax
  00045	74 18		 je	 SHORT $LN17@NewNode

; 919  : 
; 920  : 	CList::CNode* pNode = m_pNodeFree;
; 921  : 	m_pNodeFree = m_pNodeFree->pNext;

  00047	8b 08		 mov	 ecx, DWORD PTR [eax]
  00049	89 4e 10	 mov	 DWORD PTR [esi+16], ecx

; 922  : 	pNode->pPrev = pPrev;

  0004c	8b 4d 08	 mov	 ecx, DWORD PTR _pPrev$[ebp]
  0004f	89 48 04	 mov	 DWORD PTR [eax+4], ecx

; 923  : 	pNode->pNext = pNext;

  00052	8b 4d 0c	 mov	 ecx, DWORD PTR _pNext$[ebp]
  00055	89 08		 mov	 DWORD PTR [eax], ecx

; 924  : 	m_nCount++;

  00057	ff 46 0c	 inc	 DWORD PTR [esi+12]

; 925  : 	ASSERT(m_nCount > 0);  // make sure we don't overflow
; 926  : 
; 927  : #pragma push_macro("new")
; 928  : #undef new
; 929  : 	::new( (void*)( &pNode->data ) ) TYPE;
; 930  : #pragma pop_macro("new")
; 931  : 	return pNode;

  0005a	5e		 pop	 esi

; 932  : }

  0005b	5d		 pop	 ebp
  0005c	c2 08 00	 ret	 8
$LN17@NewNode:

; 916  : 		}
; 917  : 	}
; 918  : 	ENSURE(m_pNodeFree != NULL);  // we must have something

  0005f	e8 00 00 00 00	 call	 ?AfxThrowInvalidArgException@@YGXXZ ; AfxThrowInvalidArgException
$LN15@NewNode:
  00064	cc		 int	 3
?NewNode@?$CList@PAVCDlgCompSubItem@@PAV1@@@IAEPAUCNode@1@PAU21@0@Z ENDP ; CList<CDlgCompSubItem *,CDlgCompSubItem *>::NewNode
_TEXT	ENDS
; Function compile flags: /Ogtp
; File C:\Program Files (x86)\Microsoft Visual Studio\2019\Community\VC\Tools\MSVC\14.29.30133\atlmfc\include\afxtempl.h
;	COMDAT ?FindIndex@?$CList@PAVCDlgCompSubItem@@PAV1@@@QBEPAU__POSITION@@H@Z
_TEXT	SEGMENT
_nIndex$ = 8						; size = 4
?FindIndex@?$CList@PAVCDlgCompSubItem@@PAV1@@@QBEPAU__POSITION@@H@Z PROC ; CList<CDlgCompSubItem *,CDlgCompSubItem *>::FindIndex, COMDAT
; _this$ = ecx

; 1130 : {

  00000	55		 push	 ebp
  00001	8b ec		 mov	 ebp, esp

; 1131 : 	ASSERT_VALID(this);
; 1132 : 
; 1133 : 	if (nIndex >= m_nCount || nIndex < 0)

  00003	8b 55 08	 mov	 edx, DWORD PTR _nIndex$[ebp]
  00006	3b 51 0c	 cmp	 edx, DWORD PTR [ecx+12]
  00009	7d 14		 jge	 SHORT $LN5@FindIndex
  0000b	85 d2		 test	 edx, edx
  0000d	78 10		 js	 SHORT $LN5@FindIndex

; 1135 : 
; 1136 : 	CNode* pNode = m_pNodeHead;

  0000f	8b 41 04	 mov	 eax, DWORD PTR [ecx+4]

; 1137 : 	while (nIndex--)

  00012	74 0d		 je	 SHORT $LN1@FindIndex
$LL2@FindIndex:

; 1138 : 	{
; 1139 : 		ASSERT(AfxIsValidAddress(pNode, sizeof(CNode)));
; 1140 : 		pNode = pNode->pNext;

  00014	8b 00		 mov	 eax, DWORD PTR [eax]
  00016	83 ea 01	 sub	 edx, 1
  00019	75 f9		 jne	 SHORT $LL2@FindIndex

; 1141 : 	}
; 1142 : 	return (POSITION) pNode;
; 1143 : }

  0001b	5d		 pop	 ebp
  0001c	c2 04 00	 ret	 4
$LN5@FindIndex:

; 1134 : 		return NULL;  // went too far

  0001f	33 c0		 xor	 eax, eax
$LN1@FindIndex:

; 1141 : 	}
; 1142 : 	return (POSITION) pNode;
; 1143 : }

  00021	5d		 pop	 ebp
  00022	c2 04 00	 ret	 4
?FindIndex@?$CList@PAVCDlgCompSubItem@@PAV1@@@QBEPAU__POSITION@@H@Z ENDP ; CList<CDlgCompSubItem *,CDlgCompSubItem *>::FindIndex
_TEXT	ENDS
; Function compile flags: /Ogtp
; File C:\Program Files (x86)\Microsoft Visual Studio\2019\Community\VC\Tools\MSVC\14.29.30133\atlmfc\include\afxtempl.h
;	COMDAT ?RemoveAt@?$CList@PAVCDlgCompSubItem@@PAV1@@@QAEXPAU__POSITION@@@Z
_TEXT	SEGMENT
_position$ = 8						; size = 4
?RemoveAt@?$CList@PAVCDlgCompSubItem@@PAV1@@@QAEXPAU__POSITION@@@Z PROC ; CList<CDlgCompSubItem *,CDlgCompSubItem *>::RemoveAt, COMDAT
; _this$ = ecx

; 1100 : {

  00000	55		 push	 ebp
  00001	8b ec		 mov	 ebp, esp
  00003	56		 push	 esi
  00004	8b f1		 mov	 esi, ecx

; 1101 : 	ASSERT_VALID(this);
; 1102 : 
; 1103 : 	CNode* pOldNode = (CNode*) position;
; 1104 : 	ASSERT(AfxIsValidAddress(pOldNode, sizeof(CNode)));
; 1105 : 
; 1106 : 	// remove pOldNode from list
; 1107 : 	if (pOldNode == m_pNodeHead)

  00006	8b 4d 08	 mov	 ecx, DWORD PTR _position$[ebp]
  00009	8b 11		 mov	 edx, DWORD PTR [ecx]
  0000b	3b 4e 04	 cmp	 ecx, DWORD PTR [esi+4]
  0000e	75 05		 jne	 SHORT $LN2@RemoveAt

; 1108 : 	{
; 1109 : 		m_pNodeHead = pOldNode->pNext;

  00010	89 56 04	 mov	 DWORD PTR [esi+4], edx

; 1110 : 	}

  00013	eb 05		 jmp	 SHORT $LN3@RemoveAt
$LN2@RemoveAt:

; 1111 : 	else
; 1112 : 	{
; 1113 : 		ASSERT(AfxIsValidAddress(pOldNode->pPrev, sizeof(CNode)));
; 1114 : 		pOldNode->pPrev->pNext = pOldNode->pNext;

  00015	8b 41 04	 mov	 eax, DWORD PTR [ecx+4]
  00018	89 10		 mov	 DWORD PTR [eax], edx
$LN3@RemoveAt:

; 1115 : 	}
; 1116 : 	if (pOldNode == m_pNodeTail)

  0001a	8b 51 04	 mov	 edx, DWORD PTR [ecx+4]
  0001d	3b 4e 08	 cmp	 ecx, DWORD PTR [esi+8]
  00020	75 05		 jne	 SHORT $LN4@RemoveAt

; 1117 : 	{
; 1118 : 		m_pNodeTail = pOldNode->pPrev;

  00022	89 56 08	 mov	 DWORD PTR [esi+8], edx

; 1119 : 	}

  00025	eb 05		 jmp	 SHORT $LN5@RemoveAt
$LN4@RemoveAt:

; 1120 : 	else
; 1121 : 	{
; 1122 : 		ASSERT(AfxIsValidAddress(pOldNode->pNext, sizeof(CNode)));
; 1123 : 		pOldNode->pNext->pPrev = pOldNode->pPrev;

  00027	8b 01		 mov	 eax, DWORD PTR [ecx]
  00029	89 50 04	 mov	 DWORD PTR [eax+4], edx
$LN5@RemoveAt:

; 938  : 	pNode->pNext = m_pNodeFree;

  0002c	8b 46 10	 mov	 eax, DWORD PTR [esi+16]
  0002f	89 01		 mov	 DWORD PTR [ecx], eax

; 939  : 	m_pNodeFree = pNode;
; 940  : 	m_nCount--;

  00031	83 46 0c ff	 add	 DWORD PTR [esi+12], -1
  00035	89 4e 10	 mov	 DWORD PTR [esi+16], ecx

; 941  : 	ASSERT(m_nCount >= 0);  // make sure we don't underflow
; 942  : 
; 943  : 	// if no more elements, cleanup completely
; 944  : 	if (m_nCount == 0)

  00038	75 2b		 jne	 SHORT $LN8@RemoveAt

; 872  : 	m_pBlocks->FreeDataChain();

  0003a	8b 4e 14	 mov	 ecx, DWORD PTR [esi+20]
  0003d	c7 46 0c 00 00
	00 00		 mov	 DWORD PTR [esi+12], 0
  00044	c7 46 10 00 00
	00 00		 mov	 DWORD PTR [esi+16], 0
  0004b	c7 46 08 00 00
	00 00		 mov	 DWORD PTR [esi+8], 0
  00052	c7 46 04 00 00
	00 00		 mov	 DWORD PTR [esi+4], 0
  00059	e8 00 00 00 00	 call	 ?FreeDataChain@CPlex@@QAEXXZ ; CPlex::FreeDataChain

; 873  : 	m_pBlocks = NULL;

  0005e	c7 46 14 00 00
	00 00		 mov	 DWORD PTR [esi+20], 0
$LN8@RemoveAt:
  00065	5e		 pop	 esi

; 1124 : 	}
; 1125 : 	FreeNode(pOldNode);
; 1126 : }

  00066	5d		 pop	 ebp
  00067	c2 04 00	 ret	 4
?RemoveAt@?$CList@PAVCDlgCompSubItem@@PAV1@@@QAEXPAU__POSITION@@@Z ENDP ; CList<CDlgCompSubItem *,CDlgCompSubItem *>::RemoveAt
_TEXT	ENDS
; Function compile flags: /Ogtp
; File C:\Program Files (x86)\Microsoft Visual Studio\2019\Community\VC\Tools\MSVC\14.29.30133\atlmfc\include\afxtempl.h
;	COMDAT ?RemoveAll@?$CList@PAVCDlgCompSubItem@@PAV1@@@QAEXXZ
_TEXT	SEGMENT
?RemoveAll@?$CList@PAVCDlgCompSubItem@@PAV1@@@QAEXXZ PROC ; CList<CDlgCompSubItem *,CDlgCompSubItem *>::RemoveAll, COMDAT
; _this$ = ecx

; 862  : {

  00000	56		 push	 esi
  00001	8b f1		 mov	 esi, ecx

; 863  : 	ASSERT_VALID(this);
; 864  : 
; 865  : 	// destroy elements
; 866  : 	CNode* pNode;
; 867  : 	for (pNode = m_pNodeHead; pNode != NULL; pNode = pNode->pNext)
; 868  : 		pNode->data.~TYPE();
; 869  : 
; 870  : 	m_nCount = 0;
; 871  : 	m_pNodeHead = m_pNodeTail = m_pNodeFree = NULL;
; 872  : 	m_pBlocks->FreeDataChain();

  00003	8b 4e 14	 mov	 ecx, DWORD PTR [esi+20]
  00006	c7 46 0c 00 00
	00 00		 mov	 DWORD PTR [esi+12], 0
  0000d	c7 46 10 00 00
	00 00		 mov	 DWORD PTR [esi+16], 0
  00014	c7 46 08 00 00
	00 00		 mov	 DWORD PTR [esi+8], 0
  0001b	c7 46 04 00 00
	00 00		 mov	 DWORD PTR [esi+4], 0
  00022	e8 00 00 00 00	 call	 ?FreeDataChain@CPlex@@QAEXXZ ; CPlex::FreeDataChain

; 873  : 	m_pBlocks = NULL;

  00027	c7 46 14 00 00
	00 00		 mov	 DWORD PTR [esi+20], 0
  0002e	5e		 pop	 esi

; 874  : }

  0002f	c3		 ret	 0
?RemoveAll@?$CList@PAVCDlgCompSubItem@@PAV1@@@QAEXXZ ENDP ; CList<CDlgCompSubItem *,CDlgCompSubItem *>::RemoveAll
_TEXT	ENDS
; Function compile flags: /Ogtp
; File C:\Program Files (x86)\Microsoft Visual Studio\2019\Community\VC\Tools\MSVC\14.29.30133\atlmfc\include\afxtempl.h
;	COMDAT ?AddTail@?$CList@PAVCDlgCompSubItem@@PAV1@@@QAEPAU__POSITION@@PAVCDlgCompSubItem@@@Z
_TEXT	SEGMENT
_newElement$ = 8					; size = 4
?AddTail@?$CList@PAVCDlgCompSubItem@@PAV1@@@QAEPAU__POSITION@@PAVCDlgCompSubItem@@@Z PROC ; CList<CDlgCompSubItem *,CDlgCompSubItem *>::AddTail, COMDAT
; _this$ = ecx

; 965  : {

  00000	55		 push	 ebp
  00001	8b ec		 mov	 ebp, esp
  00003	56		 push	 esi
  00004	8b f1		 mov	 esi, ecx
  00006	57		 push	 edi

; 902  : 	if (m_pNodeFree == NULL)

  00007	83 7e 10 00	 cmp	 DWORD PTR [esi+16], 0

; 966  : 	ASSERT_VALID(this);
; 967  : 
; 968  : 	CNode* pNewNode = NewNode(m_pNodeTail, NULL);

  0000b	8b 7e 08	 mov	 edi, DWORD PTR [esi+8]

; 902  : 	if (m_pNodeFree == NULL)

  0000e	75 32		 jne	 SHORT $LN11@AddTail

; 903  : 	{
; 904  : 		// add another block
; 905  : 		CPlex* pNewBlock = CPlex::Create(m_pBlocks, m_nBlockSize,

  00010	6a 0c		 push	 12			; 0000000cH
  00012	ff 76 18	 push	 DWORD PTR [esi+24]
  00015	8d 46 14	 lea	 eax, DWORD PTR [esi+20]
  00018	50		 push	 eax
  00019	e8 00 00 00 00	 call	 ?Create@CPlex@@SGPAU1@AAPAU1@II@Z ; CPlex::Create

; 906  : 				 sizeof(CNode));
; 907  : 
; 908  : 		// chain them into free list
; 909  : 		CNode* pNode = (CNode*) pNewBlock->data();
; 910  : 		// free in reverse order to make it easier to debug
; 911  : 		pNode += m_nBlockSize - 1;

  0001e	8b 56 18	 mov	 edx, DWORD PTR [esi+24]
  00021	83 c0 08	 add	 eax, 8
  00024	8d 4a ff	 lea	 ecx, DWORD PTR [edx-1]

; 912  : 		for (INT_PTR i = m_nBlockSize-1; i >= 0; i--, pNode--)

  00027	83 c2 ff	 add	 edx, -1
  0002a	8d 0c 49	 lea	 ecx, DWORD PTR [ecx+ecx*2]
  0002d	8d 0c 88	 lea	 ecx, DWORD PTR [eax+ecx*4]
  00030	78 10		 js	 SHORT $LN11@AddTail
$LL8@AddTail:

; 913  : 		{
; 914  : 			pNode->pNext = m_pNodeFree;

  00032	8b 46 10	 mov	 eax, DWORD PTR [esi+16]
  00035	89 01		 mov	 DWORD PTR [ecx], eax

; 915  : 			m_pNodeFree = pNode;

  00037	89 4e 10	 mov	 DWORD PTR [esi+16], ecx
  0003a	83 e9 0c	 sub	 ecx, 12			; 0000000cH
  0003d	83 ea 01	 sub	 edx, 1
  00040	79 f0		 jns	 SHORT $LL8@AddTail
$LN11@AddTail:

; 916  : 		}
; 917  : 	}
; 918  : 	ENSURE(m_pNodeFree != NULL);  // we must have something

  00042	8b 4e 10	 mov	 ecx, DWORD PTR [esi+16]
  00045	85 c9		 test	 ecx, ecx
  00047	74 39		 je	 SHORT $LN22@AddTail

; 919  : 
; 920  : 	CList::CNode* pNode = m_pNodeFree;
; 921  : 	m_pNodeFree = m_pNodeFree->pNext;

  00049	8b 01		 mov	 eax, DWORD PTR [ecx]
  0004b	89 46 10	 mov	 DWORD PTR [esi+16], eax

; 969  : 	pNewNode->data = newElement;

  0004e	8b 45 08	 mov	 eax, DWORD PTR _newElement$[ebp]

; 922  : 	pNode->pPrev = pPrev;

  00051	89 79 04	 mov	 DWORD PTR [ecx+4], edi

; 923  : 	pNode->pNext = pNext;

  00054	c7 01 00 00 00
	00		 mov	 DWORD PTR [ecx], 0

; 924  : 	m_nCount++;

  0005a	ff 46 0c	 inc	 DWORD PTR [esi+12]

; 969  : 	pNewNode->data = newElement;

  0005d	89 41 08	 mov	 DWORD PTR [ecx+8], eax

; 970  : 	if (m_pNodeTail != NULL)

  00060	8b 46 08	 mov	 eax, DWORD PTR [esi+8]
  00063	85 c0		 test	 eax, eax
  00065	74 0d		 je	 SHORT $LN2@AddTail

; 971  : 		m_pNodeTail->pNext = pNewNode;

  00067	89 08		 mov	 DWORD PTR [eax], ecx

; 972  : 	else
; 973  : 		m_pNodeHead = pNewNode;
; 974  : 	m_pNodeTail = pNewNode;
; 975  : 	return (POSITION) pNewNode;

  00069	8b c1		 mov	 eax, ecx
  0006b	5f		 pop	 edi
  0006c	89 4e 08	 mov	 DWORD PTR [esi+8], ecx
  0006f	5e		 pop	 esi

; 976  : }

  00070	5d		 pop	 ebp
  00071	c2 04 00	 ret	 4
$LN2@AddTail:

; 972  : 	else
; 973  : 		m_pNodeHead = pNewNode;
; 974  : 	m_pNodeTail = pNewNode;
; 975  : 	return (POSITION) pNewNode;

  00074	5f		 pop	 edi
  00075	89 4e 04	 mov	 DWORD PTR [esi+4], ecx
  00078	8b c1		 mov	 eax, ecx
  0007a	89 4e 08	 mov	 DWORD PTR [esi+8], ecx
  0007d	5e		 pop	 esi

; 976  : }

  0007e	5d		 pop	 ebp
  0007f	c2 04 00	 ret	 4
$LN22@AddTail:

; 918  : 	ENSURE(m_pNodeFree != NULL);  // we must have something

  00082	e8 00 00 00 00	 call	 ?AfxThrowInvalidArgException@@YGXXZ ; AfxThrowInvalidArgException
$LN20@AddTail:
  00087	cc		 int	 3
?AddTail@?$CList@PAVCDlgCompSubItem@@PAV1@@@QAEPAU__POSITION@@PAVCDlgCompSubItem@@@Z ENDP ; CList<CDlgCompSubItem *,CDlgCompSubItem *>::AddTail
_TEXT	ENDS
; Function compile flags: /Ogtp
; File C:\Program Files (x86)\Microsoft Visual Studio\2019\Community\VC\Tools\MSVC\14.29.30133\atlmfc\include\afxtempl.h
;	COMDAT ??0?$CList@PAVCDlgCompSubItem@@PAV1@@@QAE@H@Z
_TEXT	SEGMENT
_nBlockSize$ = 8					; size = 4
??0?$CList@PAVCDlgCompSubItem@@PAV1@@@QAE@H@Z PROC	; CList<CDlgCompSubItem *,CDlgCompSubItem *>::CList<CDlgCompSubItem *,CDlgCompSubItem *>, COMDAT
; _this$ = ecx

; 851  : {

  00000	55		 push	 ebp
  00001	8b ec		 mov	 ebp, esp

; 852  : 	ASSERT(nBlockSize > 0);
; 853  : 
; 854  : 	m_nCount = 0;
; 855  : 	m_pNodeHead = m_pNodeTail = m_pNodeFree = NULL;
; 856  : 	m_pBlocks = NULL;
; 857  : 	m_nBlockSize = nBlockSize;

  00003	8b 45 08	 mov	 eax, DWORD PTR _nBlockSize$[ebp]
  00006	89 41 18	 mov	 DWORD PTR [ecx+24], eax

; 858  : }

  00009	8b c1		 mov	 eax, ecx
  0000b	c7 01 00 00 00
	00		 mov	 DWORD PTR [ecx], OFFSET ??_7?$CList@PAVCDlgCompSubItem@@PAV1@@@6B@
  00011	c7 41 0c 00 00
	00 00		 mov	 DWORD PTR [ecx+12], 0
  00018	c7 41 10 00 00
	00 00		 mov	 DWORD PTR [ecx+16], 0
  0001f	c7 41 08 00 00
	00 00		 mov	 DWORD PTR [ecx+8], 0
  00026	c7 41 04 00 00
	00 00		 mov	 DWORD PTR [ecx+4], 0
  0002d	c7 41 14 00 00
	00 00		 mov	 DWORD PTR [ecx+20], 0
  00034	5d		 pop	 ebp
  00035	c2 04 00	 ret	 4
??0?$CList@PAVCDlgCompSubItem@@PAV1@@@QAE@H@Z ENDP	; CList<CDlgCompSubItem *,CDlgCompSubItem *>::CList<CDlgCompSubItem *,CDlgCompSubItem *>
_TEXT	ENDS
; Function compile flags: /Ogtp
;	COMDAT ??0CDlgCompSubItem@@QAE@XZ
_TEXT	SEGMENT
??0CDlgCompSubItem@@QAE@XZ PROC				; CDlgCompSubItem::CDlgCompSubItem, COMDAT
; _this$ = ecx
  00000	56		 push	 esi
  00001	8b f1		 mov	 esi, ecx
  00003	ff 15 00 00 00
	00		 call	 DWORD PTR __imp_??0?$CStringT@DV?$StrTraitMFC_DLL@DV?$ChTraitsCRT@D@ATL@@@@@ATL@@QAE@XZ
  00009	8d 4e 04	 lea	 ecx, DWORD PTR [esi+4]
  0000c	ff 15 00 00 00
	00		 call	 DWORD PTR __imp_??0?$CStringT@DV?$StrTraitMFC_DLL@DV?$ChTraitsCRT@D@ATL@@@@@ATL@@QAE@XZ
  00012	8b c6		 mov	 eax, esi
  00014	5e		 pop	 esi
  00015	c3		 ret	 0
??0CDlgCompSubItem@@QAE@XZ ENDP				; CDlgCompSubItem::CDlgCompSubItem
_TEXT	ENDS
; Function compile flags: /Ogtp
; File C:\Program Files (x86)\Microsoft Visual Studio\2019\Community\VC\Tools\MSVC\14.29.30133\atlmfc\include\afx.inl
;	COMDAT ??_GCTreeCtrl@@UAEPAXI@Z
_TEXT	SEGMENT
___flags$ = 8						; size = 4
??_GCTreeCtrl@@UAEPAXI@Z PROC				; CTreeCtrl::`scalar deleting destructor', COMDAT
; _this$ = ecx
  00000	55		 push	 ebp
  00001	8b ec		 mov	 ebp, esp
  00003	56		 push	 esi
  00004	8b f1		 mov	 esi, ecx
  00006	e8 00 00 00 00	 call	 ??1CTreeCtrl@@UAE@XZ	; CTreeCtrl::~CTreeCtrl
  0000b	8b 45 08	 mov	 eax, DWORD PTR ___flags$[ebp]
  0000e	a8 01		 test	 al, 1
  00010	74 22		 je	 SHORT $LN9@scalar
  00012	a8 04		 test	 al, 4
  00014	75 10		 jne	 SHORT $LN3@scalar

; 112  : 	{ ::operator delete(p); }

  00016	56		 push	 esi
  00017	e8 00 00 00 00	 call	 ??3@YAXPAX@Z		; operator delete
  0001c	83 c4 04	 add	 esp, 4
  0001f	8b c6		 mov	 eax, esi
  00021	5e		 pop	 esi
  00022	5d		 pop	 ebp
  00023	c2 04 00	 ret	 4
$LN3@scalar:
  00026	68 80 00 00 00	 push	 128			; 00000080H
  0002b	56		 push	 esi
  0002c	e8 00 00 00 00	 call	 ?__global_delete@@YAXPAXI@Z ; __global_delete
  00031	83 c4 08	 add	 esp, 8
$LN9@scalar:
  00034	8b c6		 mov	 eax, esi
  00036	5e		 pop	 esi
  00037	5d		 pop	 ebp
  00038	c2 04 00	 ret	 4
??_GCTreeCtrl@@UAEPAXI@Z ENDP				; CTreeCtrl::`scalar deleting destructor'
_TEXT	ENDS
; Function compile flags: /Ogtp
; File C:\Program Files (x86)\Microsoft Visual Studio\2019\Community\VC\Tools\MSVC\14.29.30133\atlmfc\include\afx.inl
;	COMDAT ??_GCListCtrl@@UAEPAXI@Z
_TEXT	SEGMENT
___flags$ = 8						; size = 4
??_GCListCtrl@@UAEPAXI@Z PROC				; CListCtrl::`scalar deleting destructor', COMDAT
; _this$ = ecx
  00000	55		 push	 ebp
  00001	8b ec		 mov	 ebp, esp
  00003	56		 push	 esi
  00004	8b f1		 mov	 esi, ecx
  00006	e8 00 00 00 00	 call	 ??1CListCtrl@@UAE@XZ	; CListCtrl::~CListCtrl
  0000b	8b 45 08	 mov	 eax, DWORD PTR ___flags$[ebp]
  0000e	a8 01		 test	 al, 1
  00010	74 22		 je	 SHORT $LN9@scalar
  00012	a8 04		 test	 al, 4
  00014	75 10		 jne	 SHORT $LN3@scalar

; 112  : 	{ ::operator delete(p); }

  00016	56		 push	 esi
  00017	e8 00 00 00 00	 call	 ??3@YAXPAX@Z		; operator delete
  0001c	83 c4 04	 add	 esp, 4
  0001f	8b c6		 mov	 eax, esi
  00021	5e		 pop	 esi
  00022	5d		 pop	 ebp
  00023	c2 04 00	 ret	 4
$LN3@scalar:
  00026	68 80 00 00 00	 push	 128			; 00000080H
  0002b	56		 push	 esi
  0002c	e8 00 00 00 00	 call	 ?__global_delete@@YAXPAXI@Z ; __global_delete
  00031	83 c4 08	 add	 esp, 8
$LN9@scalar:
  00034	8b c6		 mov	 eax, esi
  00036	5e		 pop	 esi
  00037	5d		 pop	 ebp
  00038	c2 04 00	 ret	 4
??_GCListCtrl@@UAEPAXI@Z ENDP				; CListCtrl::`scalar deleting destructor'
_TEXT	ENDS
; Function compile flags: /Ogtp
; File C:\Program Files (x86)\Microsoft Visual Studio\2019\Community\VC\Tools\MSVC\14.29.30133\atlmfc\include\afxcmn.inl
;	COMDAT ?GetItemCount@CListCtrl@@QBEHXZ
_TEXT	SEGMENT
?GetItemCount@CListCtrl@@QBEHXZ PROC			; CListCtrl::GetItemCount, COMDAT
; _this$ = ecx

; 155  : 	{ ASSERT(::IsWindow(m_hWnd)); return (int) ::SendMessage(m_hWnd, LVM_GETITEMCOUNT, 0, 0L); }

  00000	6a 00		 push	 0
  00002	6a 00		 push	 0
  00004	68 04 10 00 00	 push	 4100			; 00001004H
  00009	ff 71 20	 push	 DWORD PTR [ecx+32]
  0000c	ff 15 00 00 00
	00		 call	 DWORD PTR __imp__SendMessageA@16
  00012	c3		 ret	 0
?GetItemCount@CListCtrl@@QBEHXZ ENDP			; CListCtrl::GetItemCount
_TEXT	ENDS
; Function compile flags: /Ogtp
; File C:\Program Files (x86)\Microsoft Visual Studio\2019\Community\VC\Tools\MSVC\14.29.30133\atlmfc\include\afx.inl
;	COMDAT ??_GCComboBox@@UAEPAXI@Z
_TEXT	SEGMENT
___flags$ = 8						; size = 4
??_GCComboBox@@UAEPAXI@Z PROC				; CComboBox::`scalar deleting destructor', COMDAT
; _this$ = ecx
  00000	55		 push	 ebp
  00001	8b ec		 mov	 ebp, esp
  00003	56		 push	 esi
  00004	8b f1		 mov	 esi, ecx
  00006	e8 00 00 00 00	 call	 ??1CComboBox@@UAE@XZ	; CComboBox::~CComboBox
  0000b	8b 45 08	 mov	 eax, DWORD PTR ___flags$[ebp]
  0000e	a8 01		 test	 al, 1
  00010	74 22		 je	 SHORT $LN9@scalar
  00012	a8 04		 test	 al, 4
  00014	75 10		 jne	 SHORT $LN3@scalar

; 112  : 	{ ::operator delete(p); }

  00016	56		 push	 esi
  00017	e8 00 00 00 00	 call	 ??3@YAXPAX@Z		; operator delete
  0001c	83 c4 04	 add	 esp, 4
  0001f	8b c6		 mov	 eax, esi
  00021	5e		 pop	 esi
  00022	5d		 pop	 ebp
  00023	c2 04 00	 ret	 4
$LN3@scalar:
  00026	68 80 00 00 00	 push	 128			; 00000080H
  0002b	56		 push	 esi
  0002c	e8 00 00 00 00	 call	 ?__global_delete@@YAXPAXI@Z ; __global_delete
  00031	83 c4 08	 add	 esp, 8
$LN9@scalar:
  00034	8b c6		 mov	 eax, esi
  00036	5e		 pop	 esi
  00037	5d		 pop	 ebp
  00038	c2 04 00	 ret	 4
??_GCComboBox@@UAEPAXI@Z ENDP				; CComboBox::`scalar deleting destructor'
_TEXT	ENDS
; Function compile flags: /Ogtp
; File C:\Program Files (x86)\Microsoft Visual Studio\2019\Community\VC\Tools\MSVC\14.29.30133\atlmfc\include\afx.inl
;	COMDAT ??_GCListBox@@UAEPAXI@Z
_TEXT	SEGMENT
___flags$ = 8						; size = 4
??_GCListBox@@UAEPAXI@Z PROC				; CListBox::`scalar deleting destructor', COMDAT
; _this$ = ecx
  00000	55		 push	 ebp
  00001	8b ec		 mov	 ebp, esp
  00003	56		 push	 esi
  00004	8b f1		 mov	 esi, ecx
  00006	e8 00 00 00 00	 call	 ??1CListBox@@UAE@XZ	; CListBox::~CListBox
  0000b	8b 45 08	 mov	 eax, DWORD PTR ___flags$[ebp]
  0000e	a8 01		 test	 al, 1
  00010	74 22		 je	 SHORT $LN9@scalar
  00012	a8 04		 test	 al, 4
  00014	75 10		 jne	 SHORT $LN3@scalar

; 112  : 	{ ::operator delete(p); }

  00016	56		 push	 esi
  00017	e8 00 00 00 00	 call	 ??3@YAXPAX@Z		; operator delete
  0001c	83 c4 04	 add	 esp, 4
  0001f	8b c6		 mov	 eax, esi
  00021	5e		 pop	 esi
  00022	5d		 pop	 ebp
  00023	c2 04 00	 ret	 4
$LN3@scalar:
  00026	68 80 00 00 00	 push	 128			; 00000080H
  0002b	56		 push	 esi
  0002c	e8 00 00 00 00	 call	 ?__global_delete@@YAXPAXI@Z ; __global_delete
  00031	83 c4 08	 add	 esp, 8
$LN9@scalar:
  00034	8b c6		 mov	 eax, esi
  00036	5e		 pop	 esi
  00037	5d		 pop	 ebp
  00038	c2 04 00	 ret	 4
??_GCListBox@@UAEPAXI@Z ENDP				; CListBox::`scalar deleting destructor'
_TEXT	ENDS
; Function compile flags: /Ogtp
; File C:\Program Files (x86)\Microsoft Visual Studio\2019\Community\VC\Tools\MSVC\14.29.30133\atlmfc\include\afxwin2.inl
;	COMDAT ?Create@CDialog@@UAEHIPAVCWnd@@@Z
_TEXT	SEGMENT
_nIDTemplate$ = 8					; size = 4
_pParentWnd$ = 12					; size = 4
?Create@CDialog@@UAEHIPAVCWnd@@@Z PROC			; CDialog::Create, COMDAT
; _this$ = ecx

; 585  : 	{ return CDialog::Create(ATL_MAKEINTRESOURCE(nIDTemplate), pParentWnd); }

  00000	55		 push	 ebp
  00001	8b ec		 mov	 ebp, esp
  00003	0f b7 45 08	 movzx	 eax, WORD PTR _nIDTemplate$[ebp]
  00007	89 45 08	 mov	 DWORD PTR _nIDTemplate$[ebp], eax
  0000a	5d		 pop	 ebp
  0000b	e9 00 00 00 00	 jmp	 ?Create@CDialog@@UAEHPBDPAVCWnd@@@Z ; CDialog::Create
?Create@CDialog@@UAEHIPAVCWnd@@@Z ENDP			; CDialog::Create
_TEXT	ENDS
; Function compile flags: /Ogtp
; File C:\Program Files (x86)\Microsoft Visual Studio\2019\Community\VC\Tools\MSVC\14.29.30133\atlmfc\include\afxwin2.inl
;	COMDAT ?EndModalState@CWnd@@UAEXXZ
_TEXT	SEGMENT
?EndModalState@CWnd@@UAEXXZ PROC			; CWnd::EndModalState, COMDAT
; _this$ = ecx

; 567  : 	{ ::EnableWindow(m_hWnd, TRUE); }

  00000	6a 01		 push	 1
  00002	ff 71 20	 push	 DWORD PTR [ecx+32]
  00005	ff 15 00 00 00
	00		 call	 DWORD PTR __imp__EnableWindow@8
  0000b	c3		 ret	 0
?EndModalState@CWnd@@UAEXXZ ENDP			; CWnd::EndModalState
_TEXT	ENDS
; Function compile flags: /Ogtp
; File C:\Program Files (x86)\Microsoft Visual Studio\2019\Community\VC\Tools\MSVC\14.29.30133\atlmfc\include\afxwin2.inl
;	COMDAT ?BeginModalState@CWnd@@UAEXXZ
_TEXT	SEGMENT
?BeginModalState@CWnd@@UAEXXZ PROC			; CWnd::BeginModalState, COMDAT
; _this$ = ecx

; 565  : 	{ ::EnableWindow(m_hWnd, FALSE); }

  00000	6a 00		 push	 0
  00002	ff 71 20	 push	 DWORD PTR [ecx+32]
  00005	ff 15 00 00 00
	00		 call	 DWORD PTR __imp__EnableWindow@8
  0000b	c3		 ret	 0
?BeginModalState@CWnd@@UAEXXZ ENDP			; CWnd::BeginModalState
_TEXT	ENDS
; Function compile flags: /Ogtp
; File C:\Program Files (x86)\Microsoft Visual Studio\2019\Community\VC\Tools\MSVC\14.29.30133\atlmfc\include\afxwin2.inl
;	COMDAT ?DoDataExchange@CWnd@@MAEXPAVCDataExchange@@@Z
_TEXT	SEGMENT
___formal$ = 8						; size = 4
?DoDataExchange@CWnd@@MAEXPAVCDataExchange@@@Z PROC	; CWnd::DoDataExchange, COMDAT
; _this$ = ecx

; 561  : 	{ } // default does nothing

  00000	c2 04 00	 ret	 4
?DoDataExchange@CWnd@@MAEXPAVCDataExchange@@@Z ENDP	; CWnd::DoDataExchange
_TEXT	ENDS
; Function compile flags: /Ogtp
; File C:\Program Files (x86)\Microsoft Visual Studio\2019\Community\VC\Tools\MSVC\14.29.30133\atlmfc\include\afx.inl
;	COMDAT ?_AfxInitManaged@@YAHXZ
_TEXT	SEGMENT
?_AfxInitManaged@@YAHXZ PROC				; _AfxInitManaged, COMDAT

; 87   : 	return 0;

  00000	33 c0		 xor	 eax, eax

; 88   : }

  00002	c3		 ret	 0
?_AfxInitManaged@@YAHXZ ENDP				; _AfxInitManaged
_TEXT	ENDS
; Function compile flags: /Ogtp
; File C:\Program Files (x86)\Microsoft Visual Studio\2019\Community\VC\Tools\MSVC\14.29.30133\atlmfc\include\afx.inl
;	COMDAT ?Dump@CObject@@UBEXAAVCDumpContext@@@Z
_TEXT	SEGMENT
___formal$ = 8						; size = 4
?Dump@CObject@@UBEXAAVCDumpContext@@@Z PROC		; CObject::Dump, COMDAT
; _this$ = ecx

; 122  : 	{ /* no dumping in release builds */ }

  00000	c2 04 00	 ret	 4
?Dump@CObject@@UBEXAAVCDumpContext@@@Z ENDP		; CObject::Dump
_TEXT	ENDS
; Function compile flags: /Ogtp
; File C:\Program Files (x86)\Microsoft Visual Studio\2019\Community\VC\Tools\MSVC\14.29.30133\atlmfc\include\afx.inl
;	COMDAT ?AssertValid@CObject@@UBEXXZ
_TEXT	SEGMENT
?AssertValid@CObject@@UBEXXZ PROC			; CObject::AssertValid, COMDAT
; _this$ = ecx

; 120  : 	{ /* no asserts in release builds */ }

  00000	c2 00 00	 ret	 0
?AssertValid@CObject@@UBEXXZ ENDP			; CObject::AssertValid
_TEXT	ENDS
; Function compile flags: /Ogtp
; File C:\Program Files (x86)\Microsoft Visual Studio\2019\Community\VC\Tools\MSVC\14.29.30133\atlmfc\include\afx.inl
;	COMDAT ?Serialize@CObject@@UAEXAAVCArchive@@@Z
_TEXT	SEGMENT
___formal$ = 8						; size = 4
?Serialize@CObject@@UAEXAAVCArchive@@@Z PROC		; CObject::Serialize, COMDAT
; _this$ = ecx

; 106  : 	{ /* CObject does not serialize anything by default */ }

  00000	c2 04 00	 ret	 4
?Serialize@CObject@@UAEXAAVCArchive@@@Z ENDP		; CObject::Serialize
_TEXT	ENDS
; Function compile flags: /Ogtp
; File C:\Program Files (x86)\Microsoft Visual Studio\2019\Community\VC\Tools\MSVC\14.29.30133\atlmfc\include\afx.inl
;	COMDAT ??3CObject@@SGXPAX@Z
_TEXT	SEGMENT
_p$ = 8							; size = 4
??3CObject@@SGXPAX@Z PROC				; CObject::operator delete, COMDAT

; 112  : 	{ ::operator delete(p); }

  00000	55		 push	 ebp
  00001	8b ec		 mov	 ebp, esp
  00003	ff 75 08	 push	 DWORD PTR _p$[ebp]
  00006	e8 00 00 00 00	 call	 ??3@YAXPAX@Z		; operator delete
  0000b	83 c4 04	 add	 esp, 4
  0000e	5d		 pop	 ebp
  0000f	c2 04 00	 ret	 4
??3CObject@@SGXPAX@Z ENDP				; CObject::operator delete
_TEXT	ENDS
; Function compile flags: /Ogtp
; File C:\Program Files (x86)\Microsoft Visual Studio\2019\Community\VC\Tools\MSVC\14.29.30133\atlmfc\include\afx.inl
;	COMDAT ??1CObject@@UAE@XZ
_TEXT	SEGMENT
??1CObject@@UAE@XZ PROC					; CObject::~CObject, COMDAT
; _this$ = ecx

; 104  : 	{ }

  00000	c2 00 00	 ret	 0
??1CObject@@UAE@XZ ENDP					; CObject::~CObject
_TEXT	ENDS
; Function compile flags: /Ogtp
; File C:\Program Files (x86)\Microsoft Visual Studio\2019\Community\VC\Tools\MSVC\14.29.30133\atlmfc\include\afx.h
;	COMDAT ?AfxCrtErrorCheck@@YAHH@Z
_TEXT	SEGMENT
_error$ = 8						; size = 4
?AfxCrtErrorCheck@@YAHH@Z PROC				; AfxCrtErrorCheck, COMDAT

; 503  : {

  00000	55		 push	 ebp
  00001	8b ec		 mov	 ebp, esp

; 504  : 	switch(error)

  00003	8b 4d 08	 mov	 ecx, DWORD PTR _error$[ebp]
  00006	83 f9 50	 cmp	 ecx, 80			; 00000050H
  00009	77 17		 ja	 SHORT $LN9@AfxCrtErro
  0000b	0f b6 81 00 00
	00 00		 movzx	 eax, BYTE PTR $LN11@AfxCrtErro[ecx]
  00012	ff 24 85 00 00
	00 00		 jmp	 DWORD PTR $LN12@AfxCrtErro[eax*4]
$LN4@AfxCrtErro:

; 505  : 	{
; 506  : 	case ENOMEM:
; 507  : 		AfxThrowMemoryException();

  00019	e9 00 00 00 00	 jmp	 ?AfxThrowMemoryException@@YGXXZ ; AfxThrowMemoryException
$LN7@AfxCrtErro:

; 518  : 		break;
; 519  : 	}
; 520  : 	return error;

  0001e	8b c1		 mov	 eax, ecx

; 521  : }

  00020	5d		 pop	 ebp
  00021	c3		 ret	 0
$LN9@AfxCrtErro:

; 508  : 		break;
; 509  : 	case EINVAL:
; 510  : 	case ERANGE:
; 511  : 		AfxThrowInvalidArgException();
; 512  : 		break;
; 513  : 	case STRUNCATE:
; 514  : 	case 0:
; 515  : 		break;
; 516  : 	default:
; 517  : 		AfxThrowInvalidArgException();

  00022	e9 00 00 00 00	 jmp	 ?AfxThrowInvalidArgException@@YGXXZ ; AfxThrowInvalidArgException
  00027	90		 npad	 1
$LN12@AfxCrtErro:

; 521  : }

  00028	00 00 00 00	 DD	 $LN7@AfxCrtErro
  0002c	00 00 00 00	 DD	 $LN4@AfxCrtErro
  00030	00 00 00 00	 DD	 $LN9@AfxCrtErro
  00034	00 00 00 00	 DD	 $LN9@AfxCrtErro
$LN11@AfxCrtErro:
  00038	00		 DB	 0
  00039	03		 DB	 3
  0003a	03		 DB	 3
  0003b	03		 DB	 3
  0003c	03		 DB	 3
  0003d	03		 DB	 3
  0003e	03		 DB	 3
  0003f	03		 DB	 3
  00040	03		 DB	 3
  00041	03		 DB	 3
  00042	03		 DB	 3
  00043	03		 DB	 3
  00044	01		 DB	 1
  00045	03		 DB	 3
  00046	03		 DB	 3
  00047	03		 DB	 3
  00048	03		 DB	 3
  00049	03		 DB	 3
  0004a	03		 DB	 3
  0004b	03		 DB	 3
  0004c	03		 DB	 3
  0004d	03		 DB	 3
  0004e	02		 DB	 2
  0004f	03		 DB	 3
  00050	03		 DB	 3
  00051	03		 DB	 3
  00052	03		 DB	 3
  00053	03		 DB	 3
  00054	03		 DB	 3
  00055	03		 DB	 3
  00056	03		 DB	 3
  00057	03		 DB	 3
  00058	03		 DB	 3
  00059	03		 DB	 3
  0005a	02		 DB	 2
  0005b	03		 DB	 3
  0005c	03		 DB	 3
  0005d	03		 DB	 3
  0005e	03		 DB	 3
  0005f	03		 DB	 3
  00060	03		 DB	 3
  00061	03		 DB	 3
  00062	03		 DB	 3
  00063	03		 DB	 3
  00064	03		 DB	 3
  00065	03		 DB	 3
  00066	03		 DB	 3
  00067	03		 DB	 3
  00068	03		 DB	 3
  00069	03		 DB	 3
  0006a	03		 DB	 3
  0006b	03		 DB	 3
  0006c	03		 DB	 3
  0006d	03		 DB	 3
  0006e	03		 DB	 3
  0006f	03		 DB	 3
  00070	03		 DB	 3
  00071	03		 DB	 3
  00072	03		 DB	 3
  00073	03		 DB	 3
  00074	03		 DB	 3
  00075	03		 DB	 3
  00076	03		 DB	 3
  00077	03		 DB	 3
  00078	03		 DB	 3
  00079	03		 DB	 3
  0007a	03		 DB	 3
  0007b	03		 DB	 3
  0007c	03		 DB	 3
  0007d	03		 DB	 3
  0007e	03		 DB	 3
  0007f	03		 DB	 3
  00080	03		 DB	 3
  00081	03		 DB	 3
  00082	03		 DB	 3
  00083	03		 DB	 3
  00084	03		 DB	 3
  00085	03		 DB	 3
  00086	03		 DB	 3
  00087	03		 DB	 3
  00088	00		 DB	 0
?AfxCrtErrorCheck@@YAHH@Z ENDP				; AfxCrtErrorCheck
_TEXT	ENDS
; Function compile flags: /Ogtp
; File C:\Program Files (x86)\Windows Kits\10\Include\10.0.22000.0\ucrt\stdio.h
;	COMDAT _sscanf
_TEXT	SEGMENT
__Buffer$ = 8						; size = 4
__Format$ = 12						; size = 4
_sscanf	PROC						; COMDAT

; 2247 :     {

  00000	55		 push	 ebp
  00001	8b ec		 mov	 ebp, esp

; 2153 :         return __stdio_common_vsscanf(

  00003	8d 45 10	 lea	 eax, DWORD PTR __Format$[ebp+4]
  00006	50		 push	 eax
  00007	6a 00		 push	 0
  00009	ff 75 0c	 push	 DWORD PTR __Format$[ebp]
  0000c	6a ff		 push	 -1
  0000e	ff 75 08	 push	 DWORD PTR __Buffer$[ebp]
  00011	e8 00 00 00 00	 call	 ___local_stdio_scanf_options
  00016	ff 70 04	 push	 DWORD PTR [eax+4]
  00019	ff 30		 push	 DWORD PTR [eax]
  0001b	ff 15 00 00 00
	00		 call	 DWORD PTR __imp____stdio_common_vsscanf
  00021	83 c4 1c	 add	 esp, 28			; 0000001cH

; 2248 :         int _Result;
; 2249 :         va_list _ArgList;
; 2250 :         __crt_va_start(_ArgList, _Format);
; 2251 :         _Result = _vsscanf_l(_Buffer, _Format, NULL, _ArgList);
; 2252 :         __crt_va_end(_ArgList);
; 2253 :         return _Result;
; 2254 :     }

  00024	5d		 pop	 ebp
  00025	c3		 ret	 0
_sscanf	ENDP
_TEXT	ENDS
; Function compile flags: /Ogtp
; File C:\Program Files (x86)\Windows Kits\10\Include\10.0.22000.0\ucrt\corecrt_stdio_config.h
;	COMDAT ___local_stdio_scanf_options
_TEXT	SEGMENT
___local_stdio_scanf_options PROC			; COMDAT

; 101  :         static unsigned __int64 _OptionsStorage;
; 102  :         return &_OptionsStorage;

  00000	b8 00 00 00 00	 mov	 eax, OFFSET ?_OptionsStorage@?1??__local_stdio_scanf_options@@9@4_KA ; `__local_stdio_scanf_options'::`2'::_OptionsStorage

; 103  :     }

  00005	c3		 ret	 0
___local_stdio_scanf_options ENDP
_TEXT	ENDS
; Function compile flags: /Ogtp
; File D:\git\src\IBK\IBK_DRFN\ProjSrc\SrcDrfn\Chart\ChartUtil\DlgCompSetup.cpp
;	COMDAT ?__empty_global_delete@@YAXPAXI@Z
_TEXT	SEGMENT
___formal$ = 8						; size = 4
___formal$ = 12						; size = 4
?__empty_global_delete@@YAXPAXI@Z PROC			; __empty_global_delete, COMDAT

  00000	c2 00 00	 ret	 0
?__empty_global_delete@@YAXPAXI@Z ENDP			; __empty_global_delete
_TEXT	ENDS
; Function compile flags: /Ogtp
; File D:\git\src\IBK\IBK_DRFN\ProjSrc\SrcDrfn\Chart\ChartUtil\DlgCompSetup.cpp
;	COMDAT ?__empty_global_delete@@YAXPAX@Z
_TEXT	SEGMENT
___formal$ = 8						; size = 4
?__empty_global_delete@@YAXPAX@Z PROC			; __empty_global_delete, COMDAT

  00000	c2 00 00	 ret	 0
?__empty_global_delete@@YAXPAX@Z ENDP			; __empty_global_delete
_TEXT	ENDS
END
