; Listing generated by Microsoft (R) Optimizing Compiler Version 19.29.30145.0 

	TITLE	D:\git\src\IBK\IBK_DRFN\#DRfn-CS\_Obj\ChartUtil\XColourPicker.obj
	.686P
	.XMM
	include listing.inc
	.model	flat

INCLUDELIB MSVCRT
INCLUDELIB OLDNAMES

PUBLIC	?__empty_global_delete@@YAXPAX@Z		; __empty_global_delete
PUBLIC	?__empty_global_delete@@YAXPAXI@Z		; __empty_global_delete
PUBLIC	??3CObject@@SGXPAX@Z				; CObject::operator delete
PUBLIC	?Serialize@CObject@@UAEXAAVCArchive@@@Z		; CObject::Serialize
PUBLIC	?AssertValid@CObject@@UBEXXZ			; CObject::AssertValid
PUBLIC	?Dump@CObject@@UBEXAAVCDumpContext@@@Z		; CObject::Dump
PUBLIC	?DoDataExchange@CWnd@@MAEXPAVCDataExchange@@@Z	; CWnd::DoDataExchange
PUBLIC	?BeginModalState@CWnd@@UAEXXZ			; CWnd::BeginModalState
PUBLIC	?EndModalState@CWnd@@UAEXXZ			; CWnd::EndModalState
PUBLIC	??_GCButton@@UAEPAXI@Z				; CButton::`scalar deleting destructor'
PUBLIC	?DDX_ColorPicker@@YGXPAVCDataExchange@@HAAK@Z	; DDX_ColorPicker
PUBLIC	?DDX_ColorPickerCustom@@YGXPAVCDataExchange@@HAAV?$CStringT@DV?$StrTraitMFC_DLL@DV?$ChTraitsCRT@D@ATL@@@@@ATL@@@Z ; DDX_ColorPickerCustom
PUBLIC	?_GetBaseClass@CXColourPicker@@KGPAUCRuntimeClass@@XZ ; CXColourPicker::_GetBaseClass
PUBLIC	?GetThisClass@CXColourPicker@@SGPAUCRuntimeClass@@XZ ; CXColourPicker::GetThisClass
PUBLIC	?GetRuntimeClass@CXColourPicker@@UBEPAUCRuntimeClass@@XZ ; CXColourPicker::GetRuntimeClass
PUBLIC	?CreateObject@CXColourPicker@@SGPAVCObject@@XZ	; CXColourPicker::CreateObject
PUBLIC	??0CXColourPicker@@QAE@XZ			; CXColourPicker::CXColourPicker
PUBLIC	??1CXColourPicker@@UAE@XZ			; CXColourPicker::~CXColourPicker
PUBLIC	?SetColor@CXColourPicker@@QAEXK@Z		; CXColourPicker::SetColor
PUBLIC	?GetColor@CXColourPicker@@QAEKXZ		; CXColourPicker::GetColor
PUBLIC	?SetCustomColors@CXColourPicker@@QAEXPAK@Z	; CXColourPicker::SetCustomColors
PUBLIC	?GetCustomColors@CXColourPicker@@QAEXPAK@Z	; CXColourPicker::GetCustomColors
PUBLIC	?SetCustomColors@CXColourPicker@@QAEXPBD@Z	; CXColourPicker::SetCustomColors
PUBLIC	?GetCustomColors@CXColourPicker@@QAE?AV?$CStringT@DV?$StrTraitMFC_DLL@DV?$ChTraitsCRT@D@ATL@@@@@ATL@@XZ ; CXColourPicker::GetCustomColors
PUBLIC	?DrawItem@CXColourPicker@@UAEXPAUtagDRAWITEMSTRUCT@@@Z ; CXColourPicker::DrawItem
PUBLIC	?PreSubclassWindow@CXColourPicker@@MAEXXZ	; CXColourPicker::PreSubclassWindow
PUBLIC	?GetArrowSize@CXColourPicker@@IAE?AVCSize@@XZ	; CXColourPicker::GetArrowSize
PUBLIC	?OnClicked@CXColourPicker@@IAEHXZ		; CXColourPicker::OnClicked
PUBLIC	?OnCreate@CXColourPicker@@IAEHPAUtagCREATESTRUCTA@@@Z ; CXColourPicker::OnCreate
PUBLIC	?OnEraseBkgnd@CXColourPicker@@IAEHPAVCDC@@@Z	; CXColourPicker::OnEraseBkgnd
PUBLIC	?OnEnable@CXColourPicker@@IAEXH@Z		; CXColourPicker::OnEnable
PUBLIC	?OnSelEndOK@CXColourPicker@@IAEJIJ@Z		; CXColourPicker::OnSelEndOK
PUBLIC	?OnSelEndCancel@CXColourPicker@@IAEJIJ@Z	; CXColourPicker::OnSelEndCancel
PUBLIC	?OnSelChange@CXColourPicker@@IAEJIJ@Z		; CXColourPicker::OnSelChange
PUBLIC	?GetThisMessageMap@CXColourPicker@@KGPBUAFX_MSGMAP@@XZ ; CXColourPicker::GetThisMessageMap
PUBLIC	?GetMessageMap@CXColourPicker@@MBEPBUAFX_MSGMAP@@XZ ; CXColourPicker::GetMessageMap
PUBLIC	??_GCXColourPicker@@UAEPAXI@Z			; CXColourPicker::`scalar deleting destructor'
PUBLIC	??_C@_00CNPNBAHC@@				; `string'
PUBLIC	??_7CButton@@6B@				; CButton::`vftable'
PUBLIC	??_R0?AVCObject@@@8				; CObject `RTTI Type Descriptor'
PUBLIC	??_R3CObject@@8					; CObject::`RTTI Class Hierarchy Descriptor'
PUBLIC	??_R2CObject@@8					; CObject::`RTTI Base Class Array'
PUBLIC	??_R1A@?0A@EA@CObject@@8			; CObject::`RTTI Base Class Descriptor at (0,-1,0,64)'
PUBLIC	??_R1A@?0A@EA@CWnd@@8				; CWnd::`RTTI Base Class Descriptor at (0,-1,0,64)'
PUBLIC	??_R0?AVCWnd@@@8				; CWnd `RTTI Type Descriptor'
PUBLIC	??_R3CWnd@@8					; CWnd::`RTTI Class Hierarchy Descriptor'
PUBLIC	??_R2CWnd@@8					; CWnd::`RTTI Base Class Array'
PUBLIC	??_R1A@?0A@EA@CCmdTarget@@8			; CCmdTarget::`RTTI Base Class Descriptor at (0,-1,0,64)'
PUBLIC	??_R0?AVCCmdTarget@@@8				; CCmdTarget `RTTI Type Descriptor'
PUBLIC	??_R3CCmdTarget@@8				; CCmdTarget::`RTTI Class Hierarchy Descriptor'
PUBLIC	??_R2CCmdTarget@@8				; CCmdTarget::`RTTI Base Class Array'
PUBLIC	??_R4CButton@@6B@				; CButton::`RTTI Complete Object Locator'
PUBLIC	??_R0?AVCButton@@@8				; CButton `RTTI Type Descriptor'
PUBLIC	??_R3CButton@@8					; CButton::`RTTI Class Hierarchy Descriptor'
PUBLIC	??_R2CButton@@8					; CButton::`RTTI Base Class Array'
PUBLIC	??_R1A@?0A@EA@CButton@@8			; CButton::`RTTI Base Class Descriptor at (0,-1,0,64)'
PUBLIC	?classCXColourPicker@CXColourPicker@@2UCRuntimeClass@@B ; CXColourPicker::classCXColourPicker
PUBLIC	??_7CXColourPicker@@6B@				; CXColourPicker::`vftable'
PUBLIC	??_C@_0P@POJEKFNL@CXColourPicker@		; `string'
PUBLIC	??_C@_01CLKCMJKC@?5@				; `string'
PUBLIC	??_C@_04JCFDBOEJ@?$CF06X@			; `string'
PUBLIC	??_R4CXColourPicker@@6B@			; CXColourPicker::`RTTI Complete Object Locator'
PUBLIC	??_R0?AVCXColourPicker@@@8			; CXColourPicker `RTTI Type Descriptor'
PUBLIC	??_R3CXColourPicker@@8				; CXColourPicker::`RTTI Class Hierarchy Descriptor'
PUBLIC	??_R2CXColourPicker@@8				; CXColourPicker::`RTTI Base Class Array'
PUBLIC	??_R1A@?0A@EA@CXColourPicker@@8			; CXColourPicker::`RTTI Base Class Descriptor at (0,-1,0,64)'
PUBLIC	__xmm@00ffffff00ffffff00ffffff00ffffff
EXTRN	??2@YAPAXI@Z:PROC				; operator new
EXTRN	??3@YAXPAX@Z:PROC				; operator delete
EXTRN	?__global_delete@@YAXPAXI@Z:PROC		; __global_delete
EXTRN	__imp__GetStockObject@4:PROC
EXTRN	__imp__DrawEdge@16:PROC
EXTRN	__imp__DrawFrameControl@16:PROC
EXTRN	__imp__SendMessageA@16:PROC
EXTRN	__imp__EnableWindow@8:PROC
EXTRN	__imp__GetSystemMetrics@4:PROC
EXTRN	__imp__RedrawWindow@16:PROC
EXTRN	__imp__GetClientRect@8:PROC
EXTRN	__imp__GetWindowRect@8:PROC
EXTRN	__imp__GetSysColor@4:PROC
EXTRN	__imp__DrawFocusRect@8:PROC
EXTRN	__imp__FrameRect@12:PROC
EXTRN	__imp__CopyRect@8:PROC
EXTRN	__imp__InflateRect@12:PROC
EXTRN	__imp__OffsetRect@12:PROC
EXTRN	__imp__GetParent@4:PROC
EXTRN	__imp___mbsnbcpy:PROC
EXTRN	__imp___mbstok:PROC
EXTRN	__imp__strtoul:PROC
EXTRN	__imp_??0?$CStringT@DV?$StrTraitMFC_DLL@DV?$ChTraitsCRT@D@ATL@@@@@ATL@@QAE@PBD@Z:PROC
EXTRN	__imp_??1?$CStringT@DV?$StrTraitMFC_DLL@DV?$ChTraitsCRT@D@ATL@@@@@ATL@@QAE@XZ:PROC
EXTRN	__imp_??4?$CStringT@DV?$StrTraitMFC_DLL@DV?$ChTraitsCRT@D@ATL@@@@@ATL@@QAEAAV01@ABV01@@Z:PROC
EXTRN	__imp_??Y?$CStringT@DV?$StrTraitMFC_DLL@DV?$ChTraitsCRT@D@ATL@@@@@ATL@@QAEAAV01@ABV?$CSimpleStringT@D$00@1@@Z:PROC
EXTRN	__imp_??Y?$CStringT@DV?$StrTraitMFC_DLL@DV?$ChTraitsCRT@D@ATL@@@@@ATL@@QAEAAV01@PBD@Z:PROC
EXTRN	__imp_?Format@?$CStringT@DV?$StrTraitMFC_DLL@DV?$ChTraitsCRT@D@ATL@@@@@ATL@@QAAXPBDZZ:PROC
EXTRN	?FromHandle@CDC@@SGPAV1@PAUHDC__@@@Z:PROC	; CDC::FromHandle
EXTRN	?MoveTo@CDC@@QAE?AVCPoint@@HH@Z:PROC		; CDC::MoveTo
EXTRN	?LineTo@CDC@@QAEHHH@Z:PROC			; CDC::LineTo
EXTRN	?FillSolidRect@CDC@@QAEXPBUtagRECT@@K@Z:PROC	; CDC::FillSolidRect
EXTRN	?PrepareCtrl@CDataExchange@@QAEPAUHWND__@@H@Z:PROC ; CDataExchange::PrepareCtrl
EXTRN	?OnCmdMsg@CCmdTarget@@UAEHIHPAXPAUAFX_CMDHANDLERINFO@@@Z:PROC ; CCmdTarget::OnCmdMsg
EXTRN	?IsInvokeAllowed@CCmdTarget@@UAEHJ@Z:PROC	; CCmdTarget::IsInvokeAllowed
EXTRN	?GetDispatchIID@CCmdTarget@@UAEHPAU_GUID@@@Z:PROC ; CCmdTarget::GetDispatchIID
EXTRN	?GetTypeInfoCount@CCmdTarget@@UAEIXZ:PROC	; CCmdTarget::GetTypeInfoCount
EXTRN	?GetTypeLibCache@CCmdTarget@@UAEPAVCTypeLibCache@@XZ:PROC ; CCmdTarget::GetTypeLibCache
EXTRN	?GetTypeLib@CCmdTarget@@UAEJKPAPAUITypeLib@@@Z:PROC ; CCmdTarget::GetTypeLib
EXTRN	?GetCommandMap@CCmdTarget@@MBEPBUAFX_OLECMDMAP@@XZ:PROC ; CCmdTarget::GetCommandMap
EXTRN	?GetDispatchMap@CCmdTarget@@MBEPBUAFX_DISPMAP@@XZ:PROC ; CCmdTarget::GetDispatchMap
EXTRN	?GetConnectionMap@CCmdTarget@@MBEPBUAFX_CONNECTIONMAP@@XZ:PROC ; CCmdTarget::GetConnectionMap
EXTRN	?GetEventSinkMap@CCmdTarget@@MBEPBUAFX_EVENTSINKMAP@@XZ:PROC ; CCmdTarget::GetEventSinkMap
EXTRN	?OnCreateAggregates@CCmdTarget@@UAEHXZ:PROC	; CCmdTarget::OnCreateAggregates
EXTRN	?GetInterfaceHook@CCmdTarget@@UAEPAUIUnknown@@PBX@Z:PROC ; CCmdTarget::GetInterfaceHook
EXTRN	?GetExtraConnectionPoints@CCmdTarget@@MAEHPAVCPtrArray@@@Z:PROC ; CCmdTarget::GetExtraConnectionPoints
EXTRN	?GetConnectionHook@CCmdTarget@@MAEPAUIConnectionPoint@@ABU_GUID@@@Z:PROC ; CCmdTarget::GetConnectionHook
EXTRN	?ModifyStyle@CWnd@@QAEHKKI@Z:PROC		; CWnd::ModifyStyle
EXTRN	??0CWnd@@QAE@XZ:PROC				; CWnd::CWnd
EXTRN	?FromHandle@CWnd@@SGPAV1@PAUHWND__@@@Z:PROC	; CWnd::FromHandle
EXTRN	?PreSubclassWindow@CWnd@@UAEXXZ:PROC		; CWnd::PreSubclassWindow
EXTRN	?Create@CWnd@@UAEHPBD0KABUtagRECT@@PAV1@IPAUCCreateContext@@@Z:PROC ; CWnd::Create
EXTRN	?CreateEx@CWnd@@UAEHKPBD0KHHHHPAUHWND__@@PAUHMENU__@@PAX@Z:PROC ; CWnd::CreateEx
EXTRN	?CreateEx@CWnd@@UAEHKPBD0KABUtagRECT@@PAV1@IPAX@Z:PROC ; CWnd::CreateEx
EXTRN	?DestroyWindow@CWnd@@UAEHXZ:PROC		; CWnd::DestroyWindow
EXTRN	?PreCreateWindow@CWnd@@UAEHAAUtagCREATESTRUCTA@@@Z:PROC ; CWnd::PreCreateWindow
EXTRN	?CalcWindowRect@CWnd@@UAEXPAUtagRECT@@I@Z:PROC	; CWnd::CalcWindowRect
EXTRN	?GetDlgCtrlID@CWnd@@QBEHXZ:PROC			; CWnd::GetDlgCtrlID
EXTRN	?GetMenu@CWnd@@UBEPAVCMenu@@XZ:PROC		; CWnd::GetMenu
EXTRN	?SetMenu@CWnd@@UAEHPAVCMenu@@@Z:PROC		; CWnd::SetMenu
EXTRN	?OnToolHitTest@CWnd@@UBEHVCPoint@@PAUtagTOOLINFOA@@@Z:PROC ; CWnd::OnToolHitTest
EXTRN	?GetScrollBarCtrl@CWnd@@UBEPAVCScrollBar@@H@Z:PROC ; CWnd::GetScrollBarCtrl
EXTRN	?WinHelpA@CWnd@@UAEXKI@Z:PROC			; CWnd::WinHelpA
EXTRN	?HtmlHelpA@CWnd@@UAEXKI@Z:PROC			; CWnd::HtmlHelpA
EXTRN	?WinHelpInternal@CWnd@@UAEXKI@Z:PROC		; CWnd::WinHelpInternal
EXTRN	?ContinueModal@CWnd@@UAEHXZ:PROC		; CWnd::ContinueModal
EXTRN	?EndModalLoop@CWnd@@UAEXH@Z:PROC		; CWnd::EndModalLoop
EXTRN	?OnDrawIconicThumbnailOrLivePreview@CWnd@@UAEXAAVCDC@@VCRect@@VCSize@@HAAH@Z:PROC ; CWnd::OnDrawIconicThumbnailOrLivePreview
EXTRN	?GetInterfaceMap@CWnd@@MBEPBUAFX_INTERFACEMAP@@XZ:PROC ; CWnd::GetInterfaceMap
EXTRN	?EnsureStdObj@CWnd@@UAEJXZ:PROC			; CWnd::EnsureStdObj
EXTRN	?get_accParent@CWnd@@UAEJPAPAUIDispatch@@@Z:PROC ; CWnd::get_accParent
EXTRN	?get_accChildCount@CWnd@@UAEJPAJ@Z:PROC		; CWnd::get_accChildCount
EXTRN	?get_accChild@CWnd@@UAEJUtagVARIANT@@PAPAUIDispatch@@@Z:PROC ; CWnd::get_accChild
EXTRN	?get_accName@CWnd@@UAEJUtagVARIANT@@PAPA_W@Z:PROC ; CWnd::get_accName
EXTRN	?get_accValue@CWnd@@UAEJUtagVARIANT@@PAPA_W@Z:PROC ; CWnd::get_accValue
EXTRN	?get_accDescription@CWnd@@UAEJUtagVARIANT@@PAPA_W@Z:PROC ; CWnd::get_accDescription
EXTRN	?get_accRole@CWnd@@UAEJUtagVARIANT@@PAU2@@Z:PROC ; CWnd::get_accRole
EXTRN	?get_accState@CWnd@@UAEJUtagVARIANT@@PAU2@@Z:PROC ; CWnd::get_accState
EXTRN	?get_accHelp@CWnd@@UAEJUtagVARIANT@@PAPA_W@Z:PROC ; CWnd::get_accHelp
EXTRN	?get_accHelpTopic@CWnd@@UAEJPAPA_WUtagVARIANT@@PAJ@Z:PROC ; CWnd::get_accHelpTopic
EXTRN	?get_accKeyboardShortcut@CWnd@@UAEJUtagVARIANT@@PAPA_W@Z:PROC ; CWnd::get_accKeyboardShortcut
EXTRN	?get_accFocus@CWnd@@UAEJPAUtagVARIANT@@@Z:PROC	; CWnd::get_accFocus
EXTRN	?get_accSelection@CWnd@@UAEJPAUtagVARIANT@@@Z:PROC ; CWnd::get_accSelection
EXTRN	?get_accDefaultAction@CWnd@@UAEJUtagVARIANT@@PAPA_W@Z:PROC ; CWnd::get_accDefaultAction
EXTRN	?accSelect@CWnd@@UAEJJUtagVARIANT@@@Z:PROC	; CWnd::accSelect
EXTRN	?accLocation@CWnd@@UAEJPAJ000UtagVARIANT@@@Z:PROC ; CWnd::accLocation
EXTRN	?accNavigate@CWnd@@UAEJJUtagVARIANT@@PAU2@@Z:PROC ; CWnd::accNavigate
EXTRN	?accHitTest@CWnd@@UAEJJJPAUtagVARIANT@@@Z:PROC	; CWnd::accHitTest
EXTRN	?accDoDefaultAction@CWnd@@UAEJUtagVARIANT@@@Z:PROC ; CWnd::accDoDefaultAction
EXTRN	?put_accName@CWnd@@UAEJUtagVARIANT@@PA_W@Z:PROC	; CWnd::put_accName
EXTRN	?put_accValue@CWnd@@UAEJUtagVARIANT@@PA_W@Z:PROC ; CWnd::put_accValue
EXTRN	?SetProxy@CWnd@@UAEJPAUIAccessibleProxy@@@Z:PROC ; CWnd::SetProxy
EXTRN	?CreateAccessibleProxy@CWnd@@UAEJIJPAJ@Z:PROC	; CWnd::CreateAccessibleProxy
EXTRN	?OnCommand@CWnd@@MAEHIJ@Z:PROC			; CWnd::OnCommand
EXTRN	?OnNotify@CWnd@@MAEHIJPAJ@Z:PROC		; CWnd::OnNotify
EXTRN	?GetSuperWndProcAddr@CWnd@@MAEPAP6GJPAUHWND__@@IIJ@ZXZ:PROC ; CWnd::GetSuperWndProcAddr
EXTRN	?PreTranslateMessage@CWnd@@UAEHPAUtagMSG@@@Z:PROC ; CWnd::PreTranslateMessage
EXTRN	?OnAmbientProperty@CWnd@@UAEHPAVCOleControlSite@@JPAUtagVARIANT@@@Z:PROC ; CWnd::OnAmbientProperty
EXTRN	?WindowProc@CWnd@@MAEJIIJ@Z:PROC		; CWnd::WindowProc
EXTRN	?OnWndMsg@CWnd@@MAEHIIJPAJ@Z:PROC		; CWnd::OnWndMsg
EXTRN	?Default@CWnd@@IAEJXZ:PROC			; CWnd::Default
EXTRN	?DefWindowProcA@CWnd@@MAEJIIJ@Z:PROC		; CWnd::DefWindowProcA
EXTRN	?PostNcDestroy@CWnd@@MAEXXZ:PROC		; CWnd::PostNcDestroy
EXTRN	?OnTouchInputs@CWnd@@MAEHIPAUtagTOUCHINPUT@@@Z:PROC ; CWnd::OnTouchInputs
EXTRN	?OnTouchInput@CWnd@@MAEHVCPoint@@HHPAUtagTOUCHINPUT@@@Z:PROC ; CWnd::OnTouchInput
EXTRN	?GetGestureStatus@CWnd@@MAEKVCPoint@@@Z:PROC	; CWnd::GetGestureStatus
EXTRN	?OnGestureZoom@CWnd@@MAEHVCPoint@@J@Z:PROC	; CWnd::OnGestureZoom
EXTRN	?OnGesturePan@CWnd@@MAEHVCPoint@@0@Z:PROC	; CWnd::OnGesturePan
EXTRN	?OnGestureRotate@CWnd@@MAEHVCPoint@@N@Z:PROC	; CWnd::OnGestureRotate
EXTRN	?OnGestureTwoFingerTap@CWnd@@MAEHVCPoint@@@Z:PROC ; CWnd::OnGestureTwoFingerTap
EXTRN	?OnGesturePressAndTap@CWnd@@MAEHVCPoint@@J@Z:PROC ; CWnd::OnGesturePressAndTap
EXTRN	?ResizeDynamicLayout@CWnd@@MAEXXZ:PROC		; CWnd::ResizeDynamicLayout
EXTRN	?CheckAutoCenter@CWnd@@UAEHXZ:PROC		; CWnd::CheckAutoCenter
EXTRN	?IsFrameWnd@CWnd@@UBEHXZ:PROC			; CWnd::IsFrameWnd
EXTRN	?OnFinalRelease@CWnd@@UAEXXZ:PROC		; CWnd::OnFinalRelease
EXTRN	?CreateControlContainer@CWnd@@MAEHPAPAVCOleControlContainer@@@Z:PROC ; CWnd::CreateControlContainer
EXTRN	?CreateControlSite@CWnd@@MAEHPAVCOleControlContainer@@PAPAVCOleControlSite@@IABU_GUID@@@Z:PROC ; CWnd::CreateControlSite
EXTRN	?SetOccDialogInfo@CWnd@@MAEHPAU_AFX_OCC_DIALOG_INFO@@@Z:PROC ; CWnd::SetOccDialogInfo
EXTRN	?GetOccDialogInfo@CWnd@@MAEPAU_AFX_OCC_DIALOG_INFO@@XZ:PROC ; CWnd::GetOccDialogInfo
EXTRN	?GetThisMessageMap@CWnd@@KGPBUAFX_MSGMAP@@XZ:PROC ; CWnd::GetThisMessageMap
EXTRN	?GetMessageMap@CWnd@@MBEPBUAFX_MSGMAP@@XZ:PROC	; CWnd::GetMessageMap
EXTRN	?GetThisClass@CButton@@SGPAUCRuntimeClass@@XZ:PROC ; CButton::GetThisClass
EXTRN	?GetRuntimeClass@CButton@@UBEPAUCRuntimeClass@@XZ:PROC ; CButton::GetRuntimeClass
EXTRN	?Create@CButton@@UAEHPBDKABUtagRECT@@PAVCWnd@@I@Z:PROC ; CButton::Create
EXTRN	?DrawItem@CButton@@UAEXPAUtagDRAWITEMSTRUCT@@@Z:PROC ; CButton::DrawItem
EXTRN	??1CButton@@UAE@XZ:PROC				; CButton::~CButton
EXTRN	?OnChildNotify@CButton@@MAEHIIJPAJ@Z:PROC	; CButton::OnChildNotify
EXTRN	??_ECButton@@UAEPAXI@Z:PROC			; CButton::`vector deleting destructor'
EXTRN	??0CXColourPopup@@QAE@PAVCWnd@@VCPoint@@KPAKHHPBD@Z:PROC ; CXColourPopup::CXColourPopup
EXTRN	??_ECXColourPicker@@UAEPAXI@Z:PROC		; CXColourPicker::`vector deleting destructor'
EXTRN	@__security_check_cookie@4:PROC
EXTRN	___CxxFrameHandler3:PROC
EXTRN	_memset:PROC
EXTRN	??_7type_info@@6B@:QWORD			; type_info::`vftable'
EXTRN	___security_cookie:DWORD
;	COMDAT __xmm@00ffffff00ffffff00ffffff00ffffff
CONST	SEGMENT
__xmm@00ffffff00ffffff00ffffff00ffffff DB 0ffH, 0ffH, 0ffH, 00H, 0ffH, 0ffH
	DB	0ffH, 00H, 0ffH, 0ffH, 0ffH, 00H, 0ffH, 0ffH, 0ffH, 00H
CONST	ENDS
;	COMDAT ??_R1A@?0A@EA@CXColourPicker@@8
rdata$r	SEGMENT
??_R1A@?0A@EA@CXColourPicker@@8 DD FLAT:??_R0?AVCXColourPicker@@@8 ; CXColourPicker::`RTTI Base Class Descriptor at (0,-1,0,64)'
	DD	04H
	DD	00H
	DD	0ffffffffH
	DD	00H
	DD	040H
	DD	FLAT:??_R3CXColourPicker@@8
rdata$r	ENDS
;	COMDAT ??_R2CXColourPicker@@8
rdata$r	SEGMENT
??_R2CXColourPicker@@8 DD FLAT:??_R1A@?0A@EA@CXColourPicker@@8 ; CXColourPicker::`RTTI Base Class Array'
	DD	FLAT:??_R1A@?0A@EA@CButton@@8
	DD	FLAT:??_R1A@?0A@EA@CWnd@@8
	DD	FLAT:??_R1A@?0A@EA@CCmdTarget@@8
	DD	FLAT:??_R1A@?0A@EA@CObject@@8
rdata$r	ENDS
;	COMDAT ??_R3CXColourPicker@@8
rdata$r	SEGMENT
??_R3CXColourPicker@@8 DD 00H				; CXColourPicker::`RTTI Class Hierarchy Descriptor'
	DD	00H
	DD	05H
	DD	FLAT:??_R2CXColourPicker@@8
rdata$r	ENDS
;	COMDAT ??_R0?AVCXColourPicker@@@8
data$rs	SEGMENT
??_R0?AVCXColourPicker@@@8 DD FLAT:??_7type_info@@6B@	; CXColourPicker `RTTI Type Descriptor'
	DD	00H
	DB	'.?AVCXColourPicker@@', 00H
data$rs	ENDS
;	COMDAT ??_R4CXColourPicker@@6B@
rdata$r	SEGMENT
??_R4CXColourPicker@@6B@ DD 00H				; CXColourPicker::`RTTI Complete Object Locator'
	DD	00H
	DD	00H
	DD	FLAT:??_R0?AVCXColourPicker@@@8
	DD	FLAT:??_R3CXColourPicker@@8
rdata$r	ENDS
;	COMDAT ??_C@_04JCFDBOEJ@?$CF06X@
CONST	SEGMENT
??_C@_04JCFDBOEJ@?$CF06X@ DB '%06X', 00H		; `string'
CONST	ENDS
;	COMDAT ??_C@_01CLKCMJKC@?5@
CONST	SEGMENT
??_C@_01CLKCMJKC@?5@ DB ' ', 00H			; `string'
CONST	ENDS
;	COMDAT ?messageMap@?1??GetThisMessageMap@CXColourPicker@@KGPBUAFX_MSGMAP@@XZ@4U3@B
CONST	SEGMENT
?messageMap@?1??GetThisMessageMap@CXColourPicker@@KGPBUAFX_MSGMAP@@XZ@4U3@B DD FLAT:?GetThisMessageMap@CWnd@@KGPBUAFX_MSGMAP@@XZ ; `CXColourPicker::GetThisMessageMap'::`2'::messageMap
	DD	FLAT:?_messageEntries@?1??GetThisMessageMap@CXColourPicker@@KGPBUAFX_MSGMAP@@XZ@4QBUAFX_MSGMAP_ENTRY@@B
CONST	ENDS
;	COMDAT ?_messageEntries@?1??GetThisMessageMap@CXColourPicker@@KGPBUAFX_MSGMAP@@XZ@4QBUAFX_MSGMAP_ENTRY@@B
CONST	SEGMENT
?_messageEntries@?1??GetThisMessageMap@CXColourPicker@@KGPBUAFX_MSGMAP@@XZ@4QBUAFX_MSGMAP_ENTRY@@B DD 0bd11H ; `CXColourPicker::GetThisMessageMap'::`2'::_messageEntries
	DD	00H
	DD	00H
	DD	00H
	DD	03bH
	DD	FLAT:?OnClicked@CXColourPicker@@IAEHXZ
	DD	01H
	DD	00H
	DD	00H
	DD	00H
	DD	0dH
	DD	FLAT:?OnCreate@CXColourPicker@@IAEHPAUtagCREATESTRUCTA@@@Z
	DD	014H
	DD	00H
	DD	00H
	DD	00H
	DD	01H
	DD	FLAT:?OnEraseBkgnd@CXColourPicker@@IAEHPAVCDC@@@Z
	DD	0aH
	DD	00H
	DD	00H
	DD	00H
	DD	014H
	DD	FLAT:?OnEnable@CXColourPicker@@IAEXH@Z
	DD	07ecH
	DD	00H
	DD	00H
	DD	00H
	DD	0eH
	DD	FLAT:?OnSelEndOK@CXColourPicker@@IAEJIJ@Z
	DD	07edH
	DD	00H
	DD	00H
	DD	00H
	DD	0eH
	DD	FLAT:?OnSelEndCancel@CXColourPicker@@IAEJIJ@Z
	DD	07e9H
	DD	00H
	DD	00H
	DD	00H
	DD	0eH
	DD	FLAT:?OnSelChange@CXColourPicker@@IAEJIJ@Z
	DD	00H
	DD	00H
	DD	00H
	DD	00H
	DD	00H
	DD	00H
CONST	ENDS
;	COMDAT ??_C@_0P@POJEKFNL@CXColourPicker@
CONST	SEGMENT
??_C@_0P@POJEKFNL@CXColourPicker@ DB 'CXColourPicker', 00H ; `string'
CONST	ENDS
;	COMDAT ??_7CXColourPicker@@6B@
CONST	SEGMENT
??_7CXColourPicker@@6B@ DD FLAT:??_R4CXColourPicker@@6B@ ; CXColourPicker::`vftable'
	DD	FLAT:?GetRuntimeClass@CXColourPicker@@UBEPAUCRuntimeClass@@XZ
	DD	FLAT:??_ECXColourPicker@@UAEPAXI@Z
	DD	FLAT:?Serialize@CObject@@UAEXAAVCArchive@@@Z
	DD	FLAT:?AssertValid@CObject@@UBEXXZ
	DD	FLAT:?Dump@CObject@@UBEXAAVCDumpContext@@@Z
	DD	FLAT:?OnCmdMsg@CCmdTarget@@UAEHIHPAXPAUAFX_CMDHANDLERINFO@@@Z
	DD	FLAT:?OnFinalRelease@CWnd@@UAEXXZ
	DD	FLAT:?IsInvokeAllowed@CCmdTarget@@UAEHJ@Z
	DD	FLAT:?GetDispatchIID@CCmdTarget@@UAEHPAU_GUID@@@Z
	DD	FLAT:?GetTypeInfoCount@CCmdTarget@@UAEIXZ
	DD	FLAT:?GetTypeLibCache@CCmdTarget@@UAEPAVCTypeLibCache@@XZ
	DD	FLAT:?GetTypeLib@CCmdTarget@@UAEJKPAPAUITypeLib@@@Z
	DD	FLAT:?GetMessageMap@CXColourPicker@@MBEPBUAFX_MSGMAP@@XZ
	DD	FLAT:?GetCommandMap@CCmdTarget@@MBEPBUAFX_OLECMDMAP@@XZ
	DD	FLAT:?GetDispatchMap@CCmdTarget@@MBEPBUAFX_DISPMAP@@XZ
	DD	FLAT:?GetConnectionMap@CCmdTarget@@MBEPBUAFX_CONNECTIONMAP@@XZ
	DD	FLAT:?GetInterfaceMap@CWnd@@MBEPBUAFX_INTERFACEMAP@@XZ
	DD	FLAT:?GetEventSinkMap@CCmdTarget@@MBEPBUAFX_EVENTSINKMAP@@XZ
	DD	FLAT:?OnCreateAggregates@CCmdTarget@@UAEHXZ
	DD	FLAT:?GetInterfaceHook@CCmdTarget@@UAEPAUIUnknown@@PBX@Z
	DD	FLAT:?GetExtraConnectionPoints@CCmdTarget@@MAEHPAVCPtrArray@@@Z
	DD	FLAT:?GetConnectionHook@CCmdTarget@@MAEPAUIConnectionPoint@@ABU_GUID@@@Z
	DD	FLAT:?PreSubclassWindow@CXColourPicker@@MAEXXZ
	DD	FLAT:?Create@CWnd@@UAEHPBD0KABUtagRECT@@PAV1@IPAUCCreateContext@@@Z
	DD	FLAT:?CreateEx@CWnd@@UAEHKPBD0KABUtagRECT@@PAV1@IPAX@Z
	DD	FLAT:?CreateEx@CWnd@@UAEHKPBD0KHHHHPAUHWND__@@PAUHMENU__@@PAX@Z
	DD	FLAT:?DestroyWindow@CWnd@@UAEHXZ
	DD	FLAT:?PreCreateWindow@CWnd@@UAEHAAUtagCREATESTRUCTA@@@Z
	DD	FLAT:?CalcWindowRect@CWnd@@UAEXPAUtagRECT@@I@Z
	DD	FLAT:?GetMenu@CWnd@@UBEPAVCMenu@@XZ
	DD	FLAT:?SetMenu@CWnd@@UAEHPAVCMenu@@@Z
	DD	FLAT:?OnToolHitTest@CWnd@@UBEHVCPoint@@PAUtagTOOLINFOA@@@Z
	DD	FLAT:?GetScrollBarCtrl@CWnd@@UBEPAVCScrollBar@@H@Z
	DD	FLAT:?WinHelpA@CWnd@@UAEXKI@Z
	DD	FLAT:?HtmlHelpA@CWnd@@UAEXKI@Z
	DD	FLAT:?WinHelpInternal@CWnd@@UAEXKI@Z
	DD	FLAT:?ContinueModal@CWnd@@UAEHXZ
	DD	FLAT:?EndModalLoop@CWnd@@UAEXH@Z
	DD	FLAT:?OnDrawIconicThumbnailOrLivePreview@CWnd@@UAEXAAVCDC@@VCRect@@VCSize@@HAAH@Z
	DD	FLAT:?EnsureStdObj@CWnd@@UAEJXZ
	DD	FLAT:?get_accParent@CWnd@@UAEJPAPAUIDispatch@@@Z
	DD	FLAT:?get_accChildCount@CWnd@@UAEJPAJ@Z
	DD	FLAT:?get_accChild@CWnd@@UAEJUtagVARIANT@@PAPAUIDispatch@@@Z
	DD	FLAT:?get_accName@CWnd@@UAEJUtagVARIANT@@PAPA_W@Z
	DD	FLAT:?get_accValue@CWnd@@UAEJUtagVARIANT@@PAPA_W@Z
	DD	FLAT:?get_accDescription@CWnd@@UAEJUtagVARIANT@@PAPA_W@Z
	DD	FLAT:?get_accRole@CWnd@@UAEJUtagVARIANT@@PAU2@@Z
	DD	FLAT:?get_accState@CWnd@@UAEJUtagVARIANT@@PAU2@@Z
	DD	FLAT:?get_accHelp@CWnd@@UAEJUtagVARIANT@@PAPA_W@Z
	DD	FLAT:?get_accHelpTopic@CWnd@@UAEJPAPA_WUtagVARIANT@@PAJ@Z
	DD	FLAT:?get_accKeyboardShortcut@CWnd@@UAEJUtagVARIANT@@PAPA_W@Z
	DD	FLAT:?get_accFocus@CWnd@@UAEJPAUtagVARIANT@@@Z
	DD	FLAT:?get_accSelection@CWnd@@UAEJPAUtagVARIANT@@@Z
	DD	FLAT:?get_accDefaultAction@CWnd@@UAEJUtagVARIANT@@PAPA_W@Z
	DD	FLAT:?accSelect@CWnd@@UAEJJUtagVARIANT@@@Z
	DD	FLAT:?accLocation@CWnd@@UAEJPAJ000UtagVARIANT@@@Z
	DD	FLAT:?accNavigate@CWnd@@UAEJJUtagVARIANT@@PAU2@@Z
	DD	FLAT:?accHitTest@CWnd@@UAEJJJPAUtagVARIANT@@@Z
	DD	FLAT:?accDoDefaultAction@CWnd@@UAEJUtagVARIANT@@@Z
	DD	FLAT:?put_accName@CWnd@@UAEJUtagVARIANT@@PA_W@Z
	DD	FLAT:?put_accValue@CWnd@@UAEJUtagVARIANT@@PA_W@Z
	DD	FLAT:?SetProxy@CWnd@@UAEJPAUIAccessibleProxy@@@Z
	DD	FLAT:?CreateAccessibleProxy@CWnd@@UAEJIJPAJ@Z
	DD	FLAT:?OnCommand@CWnd@@MAEHIJ@Z
	DD	FLAT:?OnNotify@CWnd@@MAEHIJPAJ@Z
	DD	FLAT:?GetSuperWndProcAddr@CWnd@@MAEPAP6GJPAUHWND__@@IIJ@ZXZ
	DD	FLAT:?DoDataExchange@CWnd@@MAEXPAVCDataExchange@@@Z
	DD	FLAT:?BeginModalState@CWnd@@UAEXXZ
	DD	FLAT:?EndModalState@CWnd@@UAEXXZ
	DD	FLAT:?PreTranslateMessage@CWnd@@UAEHPAUtagMSG@@@Z
	DD	FLAT:?OnAmbientProperty@CWnd@@UAEHPAVCOleControlSite@@JPAUtagVARIANT@@@Z
	DD	FLAT:?WindowProc@CWnd@@MAEJIIJ@Z
	DD	FLAT:?OnWndMsg@CWnd@@MAEHIIJPAJ@Z
	DD	FLAT:?DefWindowProcA@CWnd@@MAEJIIJ@Z
	DD	FLAT:?PostNcDestroy@CWnd@@MAEXXZ
	DD	FLAT:?OnChildNotify@CButton@@MAEHIIJPAJ@Z
	DD	FLAT:?OnTouchInputs@CWnd@@MAEHIPAUtagTOUCHINPUT@@@Z
	DD	FLAT:?OnTouchInput@CWnd@@MAEHVCPoint@@HHPAUtagTOUCHINPUT@@@Z
	DD	FLAT:?GetGestureStatus@CWnd@@MAEKVCPoint@@@Z
	DD	FLAT:?OnGestureZoom@CWnd@@MAEHVCPoint@@J@Z
	DD	FLAT:?OnGesturePan@CWnd@@MAEHVCPoint@@0@Z
	DD	FLAT:?OnGestureRotate@CWnd@@MAEHVCPoint@@N@Z
	DD	FLAT:?OnGestureTwoFingerTap@CWnd@@MAEHVCPoint@@@Z
	DD	FLAT:?OnGesturePressAndTap@CWnd@@MAEHVCPoint@@J@Z
	DD	FLAT:?ResizeDynamicLayout@CWnd@@MAEXXZ
	DD	FLAT:?CheckAutoCenter@CWnd@@UAEHXZ
	DD	FLAT:?IsFrameWnd@CWnd@@UBEHXZ
	DD	FLAT:?CreateControlContainer@CWnd@@MAEHPAPAVCOleControlContainer@@@Z
	DD	FLAT:?CreateControlSite@CWnd@@MAEHPAVCOleControlContainer@@PAPAVCOleControlSite@@IABU_GUID@@@Z
	DD	FLAT:?SetOccDialogInfo@CWnd@@MAEHPAU_AFX_OCC_DIALOG_INFO@@@Z
	DD	FLAT:?GetOccDialogInfo@CWnd@@MAEPAU_AFX_OCC_DIALOG_INFO@@XZ
	DD	FLAT:?Create@CButton@@UAEHPBDKABUtagRECT@@PAVCWnd@@I@Z
	DD	FLAT:?DrawItem@CXColourPicker@@UAEXPAUtagDRAWITEMSTRUCT@@@Z
CONST	ENDS
;	COMDAT ?classCXColourPicker@CXColourPicker@@2UCRuntimeClass@@B
CONST	SEGMENT
?classCXColourPicker@CXColourPicker@@2UCRuntimeClass@@B DD FLAT:??_C@_0P@POJEKFNL@CXColourPicker@ ; CXColourPicker::classCXColourPicker
	DD	0f0H
	DD	0ffffH
	DD	FLAT:?CreateObject@CXColourPicker@@SGPAVCObject@@XZ
	DD	FLAT:?_GetBaseClass@CXColourPicker@@KGPAUCRuntimeClass@@XZ
	DD	00H
	DD	00H
CONST	ENDS
;	COMDAT ??_R1A@?0A@EA@CButton@@8
rdata$r	SEGMENT
??_R1A@?0A@EA@CButton@@8 DD FLAT:??_R0?AVCButton@@@8	; CButton::`RTTI Base Class Descriptor at (0,-1,0,64)'
	DD	03H
	DD	00H
	DD	0ffffffffH
	DD	00H
	DD	040H
	DD	FLAT:??_R3CButton@@8
rdata$r	ENDS
;	COMDAT ??_R2CButton@@8
rdata$r	SEGMENT
??_R2CButton@@8 DD FLAT:??_R1A@?0A@EA@CButton@@8	; CButton::`RTTI Base Class Array'
	DD	FLAT:??_R1A@?0A@EA@CWnd@@8
	DD	FLAT:??_R1A@?0A@EA@CCmdTarget@@8
	DD	FLAT:??_R1A@?0A@EA@CObject@@8
rdata$r	ENDS
;	COMDAT ??_R3CButton@@8
rdata$r	SEGMENT
??_R3CButton@@8 DD 00H					; CButton::`RTTI Class Hierarchy Descriptor'
	DD	00H
	DD	04H
	DD	FLAT:??_R2CButton@@8
rdata$r	ENDS
;	COMDAT ??_R0?AVCButton@@@8
data$rs	SEGMENT
??_R0?AVCButton@@@8 DD FLAT:??_7type_info@@6B@		; CButton `RTTI Type Descriptor'
	DD	00H
	DB	'.?AVCButton@@', 00H
data$rs	ENDS
;	COMDAT ??_R4CButton@@6B@
rdata$r	SEGMENT
??_R4CButton@@6B@ DD 00H				; CButton::`RTTI Complete Object Locator'
	DD	00H
	DD	00H
	DD	FLAT:??_R0?AVCButton@@@8
	DD	FLAT:??_R3CButton@@8
rdata$r	ENDS
;	COMDAT ??_R2CCmdTarget@@8
rdata$r	SEGMENT
??_R2CCmdTarget@@8 DD FLAT:??_R1A@?0A@EA@CCmdTarget@@8	; CCmdTarget::`RTTI Base Class Array'
	DD	FLAT:??_R1A@?0A@EA@CObject@@8
rdata$r	ENDS
;	COMDAT ??_R3CCmdTarget@@8
rdata$r	SEGMENT
??_R3CCmdTarget@@8 DD 00H				; CCmdTarget::`RTTI Class Hierarchy Descriptor'
	DD	00H
	DD	02H
	DD	FLAT:??_R2CCmdTarget@@8
rdata$r	ENDS
;	COMDAT ??_R0?AVCCmdTarget@@@8
data$rs	SEGMENT
??_R0?AVCCmdTarget@@@8 DD FLAT:??_7type_info@@6B@	; CCmdTarget `RTTI Type Descriptor'
	DD	00H
	DB	'.?AVCCmdTarget@@', 00H
data$rs	ENDS
;	COMDAT ??_R1A@?0A@EA@CCmdTarget@@8
rdata$r	SEGMENT
??_R1A@?0A@EA@CCmdTarget@@8 DD FLAT:??_R0?AVCCmdTarget@@@8 ; CCmdTarget::`RTTI Base Class Descriptor at (0,-1,0,64)'
	DD	01H
	DD	00H
	DD	0ffffffffH
	DD	00H
	DD	040H
	DD	FLAT:??_R3CCmdTarget@@8
rdata$r	ENDS
;	COMDAT ??_R2CWnd@@8
rdata$r	SEGMENT
??_R2CWnd@@8 DD	FLAT:??_R1A@?0A@EA@CWnd@@8		; CWnd::`RTTI Base Class Array'
	DD	FLAT:??_R1A@?0A@EA@CCmdTarget@@8
	DD	FLAT:??_R1A@?0A@EA@CObject@@8
rdata$r	ENDS
;	COMDAT ??_R3CWnd@@8
rdata$r	SEGMENT
??_R3CWnd@@8 DD	00H					; CWnd::`RTTI Class Hierarchy Descriptor'
	DD	00H
	DD	03H
	DD	FLAT:??_R2CWnd@@8
rdata$r	ENDS
;	COMDAT ??_R0?AVCWnd@@@8
data$rs	SEGMENT
??_R0?AVCWnd@@@8 DD FLAT:??_7type_info@@6B@		; CWnd `RTTI Type Descriptor'
	DD	00H
	DB	'.?AVCWnd@@', 00H
data$rs	ENDS
;	COMDAT ??_R1A@?0A@EA@CWnd@@8
rdata$r	SEGMENT
??_R1A@?0A@EA@CWnd@@8 DD FLAT:??_R0?AVCWnd@@@8		; CWnd::`RTTI Base Class Descriptor at (0,-1,0,64)'
	DD	02H
	DD	00H
	DD	0ffffffffH
	DD	00H
	DD	040H
	DD	FLAT:??_R3CWnd@@8
rdata$r	ENDS
;	COMDAT ??_R1A@?0A@EA@CObject@@8
rdata$r	SEGMENT
??_R1A@?0A@EA@CObject@@8 DD FLAT:??_R0?AVCObject@@@8	; CObject::`RTTI Base Class Descriptor at (0,-1,0,64)'
	DD	00H
	DD	00H
	DD	0ffffffffH
	DD	00H
	DD	040H
	DD	FLAT:??_R3CObject@@8
rdata$r	ENDS
;	COMDAT ??_R2CObject@@8
rdata$r	SEGMENT
??_R2CObject@@8 DD FLAT:??_R1A@?0A@EA@CObject@@8	; CObject::`RTTI Base Class Array'
rdata$r	ENDS
;	COMDAT ??_R3CObject@@8
rdata$r	SEGMENT
??_R3CObject@@8 DD 00H					; CObject::`RTTI Class Hierarchy Descriptor'
	DD	00H
	DD	01H
	DD	FLAT:??_R2CObject@@8
rdata$r	ENDS
;	COMDAT ??_R0?AVCObject@@@8
data$rs	SEGMENT
??_R0?AVCObject@@@8 DD FLAT:??_7type_info@@6B@		; CObject `RTTI Type Descriptor'
	DD	00H
	DB	'.?AVCObject@@', 00H
data$rs	ENDS
;	COMDAT ??_7CButton@@6B@
CONST	SEGMENT
??_7CButton@@6B@ DD FLAT:??_R4CButton@@6B@		; CButton::`vftable'
	DD	FLAT:?GetRuntimeClass@CButton@@UBEPAUCRuntimeClass@@XZ
	DD	FLAT:??_ECButton@@UAEPAXI@Z
	DD	FLAT:?Serialize@CObject@@UAEXAAVCArchive@@@Z
	DD	FLAT:?AssertValid@CObject@@UBEXXZ
	DD	FLAT:?Dump@CObject@@UBEXAAVCDumpContext@@@Z
	DD	FLAT:?OnCmdMsg@CCmdTarget@@UAEHIHPAXPAUAFX_CMDHANDLERINFO@@@Z
	DD	FLAT:?OnFinalRelease@CWnd@@UAEXXZ
	DD	FLAT:?IsInvokeAllowed@CCmdTarget@@UAEHJ@Z
	DD	FLAT:?GetDispatchIID@CCmdTarget@@UAEHPAU_GUID@@@Z
	DD	FLAT:?GetTypeInfoCount@CCmdTarget@@UAEIXZ
	DD	FLAT:?GetTypeLibCache@CCmdTarget@@UAEPAVCTypeLibCache@@XZ
	DD	FLAT:?GetTypeLib@CCmdTarget@@UAEJKPAPAUITypeLib@@@Z
	DD	FLAT:?GetMessageMap@CWnd@@MBEPBUAFX_MSGMAP@@XZ
	DD	FLAT:?GetCommandMap@CCmdTarget@@MBEPBUAFX_OLECMDMAP@@XZ
	DD	FLAT:?GetDispatchMap@CCmdTarget@@MBEPBUAFX_DISPMAP@@XZ
	DD	FLAT:?GetConnectionMap@CCmdTarget@@MBEPBUAFX_CONNECTIONMAP@@XZ
	DD	FLAT:?GetInterfaceMap@CWnd@@MBEPBUAFX_INTERFACEMAP@@XZ
	DD	FLAT:?GetEventSinkMap@CCmdTarget@@MBEPBUAFX_EVENTSINKMAP@@XZ
	DD	FLAT:?OnCreateAggregates@CCmdTarget@@UAEHXZ
	DD	FLAT:?GetInterfaceHook@CCmdTarget@@UAEPAUIUnknown@@PBX@Z
	DD	FLAT:?GetExtraConnectionPoints@CCmdTarget@@MAEHPAVCPtrArray@@@Z
	DD	FLAT:?GetConnectionHook@CCmdTarget@@MAEPAUIConnectionPoint@@ABU_GUID@@@Z
	DD	FLAT:?PreSubclassWindow@CWnd@@UAEXXZ
	DD	FLAT:?Create@CWnd@@UAEHPBD0KABUtagRECT@@PAV1@IPAUCCreateContext@@@Z
	DD	FLAT:?CreateEx@CWnd@@UAEHKPBD0KABUtagRECT@@PAV1@IPAX@Z
	DD	FLAT:?CreateEx@CWnd@@UAEHKPBD0KHHHHPAUHWND__@@PAUHMENU__@@PAX@Z
	DD	FLAT:?DestroyWindow@CWnd@@UAEHXZ
	DD	FLAT:?PreCreateWindow@CWnd@@UAEHAAUtagCREATESTRUCTA@@@Z
	DD	FLAT:?CalcWindowRect@CWnd@@UAEXPAUtagRECT@@I@Z
	DD	FLAT:?GetMenu@CWnd@@UBEPAVCMenu@@XZ
	DD	FLAT:?SetMenu@CWnd@@UAEHPAVCMenu@@@Z
	DD	FLAT:?OnToolHitTest@CWnd@@UBEHVCPoint@@PAUtagTOOLINFOA@@@Z
	DD	FLAT:?GetScrollBarCtrl@CWnd@@UBEPAVCScrollBar@@H@Z
	DD	FLAT:?WinHelpA@CWnd@@UAEXKI@Z
	DD	FLAT:?HtmlHelpA@CWnd@@UAEXKI@Z
	DD	FLAT:?WinHelpInternal@CWnd@@UAEXKI@Z
	DD	FLAT:?ContinueModal@CWnd@@UAEHXZ
	DD	FLAT:?EndModalLoop@CWnd@@UAEXH@Z
	DD	FLAT:?OnDrawIconicThumbnailOrLivePreview@CWnd@@UAEXAAVCDC@@VCRect@@VCSize@@HAAH@Z
	DD	FLAT:?EnsureStdObj@CWnd@@UAEJXZ
	DD	FLAT:?get_accParent@CWnd@@UAEJPAPAUIDispatch@@@Z
	DD	FLAT:?get_accChildCount@CWnd@@UAEJPAJ@Z
	DD	FLAT:?get_accChild@CWnd@@UAEJUtagVARIANT@@PAPAUIDispatch@@@Z
	DD	FLAT:?get_accName@CWnd@@UAEJUtagVARIANT@@PAPA_W@Z
	DD	FLAT:?get_accValue@CWnd@@UAEJUtagVARIANT@@PAPA_W@Z
	DD	FLAT:?get_accDescription@CWnd@@UAEJUtagVARIANT@@PAPA_W@Z
	DD	FLAT:?get_accRole@CWnd@@UAEJUtagVARIANT@@PAU2@@Z
	DD	FLAT:?get_accState@CWnd@@UAEJUtagVARIANT@@PAU2@@Z
	DD	FLAT:?get_accHelp@CWnd@@UAEJUtagVARIANT@@PAPA_W@Z
	DD	FLAT:?get_accHelpTopic@CWnd@@UAEJPAPA_WUtagVARIANT@@PAJ@Z
	DD	FLAT:?get_accKeyboardShortcut@CWnd@@UAEJUtagVARIANT@@PAPA_W@Z
	DD	FLAT:?get_accFocus@CWnd@@UAEJPAUtagVARIANT@@@Z
	DD	FLAT:?get_accSelection@CWnd@@UAEJPAUtagVARIANT@@@Z
	DD	FLAT:?get_accDefaultAction@CWnd@@UAEJUtagVARIANT@@PAPA_W@Z
	DD	FLAT:?accSelect@CWnd@@UAEJJUtagVARIANT@@@Z
	DD	FLAT:?accLocation@CWnd@@UAEJPAJ000UtagVARIANT@@@Z
	DD	FLAT:?accNavigate@CWnd@@UAEJJUtagVARIANT@@PAU2@@Z
	DD	FLAT:?accHitTest@CWnd@@UAEJJJPAUtagVARIANT@@@Z
	DD	FLAT:?accDoDefaultAction@CWnd@@UAEJUtagVARIANT@@@Z
	DD	FLAT:?put_accName@CWnd@@UAEJUtagVARIANT@@PA_W@Z
	DD	FLAT:?put_accValue@CWnd@@UAEJUtagVARIANT@@PA_W@Z
	DD	FLAT:?SetProxy@CWnd@@UAEJPAUIAccessibleProxy@@@Z
	DD	FLAT:?CreateAccessibleProxy@CWnd@@UAEJIJPAJ@Z
	DD	FLAT:?OnCommand@CWnd@@MAEHIJ@Z
	DD	FLAT:?OnNotify@CWnd@@MAEHIJPAJ@Z
	DD	FLAT:?GetSuperWndProcAddr@CWnd@@MAEPAP6GJPAUHWND__@@IIJ@ZXZ
	DD	FLAT:?DoDataExchange@CWnd@@MAEXPAVCDataExchange@@@Z
	DD	FLAT:?BeginModalState@CWnd@@UAEXXZ
	DD	FLAT:?EndModalState@CWnd@@UAEXXZ
	DD	FLAT:?PreTranslateMessage@CWnd@@UAEHPAUtagMSG@@@Z
	DD	FLAT:?OnAmbientProperty@CWnd@@UAEHPAVCOleControlSite@@JPAUtagVARIANT@@@Z
	DD	FLAT:?WindowProc@CWnd@@MAEJIIJ@Z
	DD	FLAT:?OnWndMsg@CWnd@@MAEHIIJPAJ@Z
	DD	FLAT:?DefWindowProcA@CWnd@@MAEJIIJ@Z
	DD	FLAT:?PostNcDestroy@CWnd@@MAEXXZ
	DD	FLAT:?OnChildNotify@CButton@@MAEHIIJPAJ@Z
	DD	FLAT:?OnTouchInputs@CWnd@@MAEHIPAUtagTOUCHINPUT@@@Z
	DD	FLAT:?OnTouchInput@CWnd@@MAEHVCPoint@@HHPAUtagTOUCHINPUT@@@Z
	DD	FLAT:?GetGestureStatus@CWnd@@MAEKVCPoint@@@Z
	DD	FLAT:?OnGestureZoom@CWnd@@MAEHVCPoint@@J@Z
	DD	FLAT:?OnGesturePan@CWnd@@MAEHVCPoint@@0@Z
	DD	FLAT:?OnGestureRotate@CWnd@@MAEHVCPoint@@N@Z
	DD	FLAT:?OnGestureTwoFingerTap@CWnd@@MAEHVCPoint@@@Z
	DD	FLAT:?OnGesturePressAndTap@CWnd@@MAEHVCPoint@@J@Z
	DD	FLAT:?ResizeDynamicLayout@CWnd@@MAEXXZ
	DD	FLAT:?CheckAutoCenter@CWnd@@UAEHXZ
	DD	FLAT:?IsFrameWnd@CWnd@@UBEHXZ
	DD	FLAT:?CreateControlContainer@CWnd@@MAEHPAPAVCOleControlContainer@@@Z
	DD	FLAT:?CreateControlSite@CWnd@@MAEHPAVCOleControlContainer@@PAPAVCOleControlSite@@IABU_GUID@@@Z
	DD	FLAT:?SetOccDialogInfo@CWnd@@MAEHPAU_AFX_OCC_DIALOG_INFO@@@Z
	DD	FLAT:?GetOccDialogInfo@CWnd@@MAEPAU_AFX_OCC_DIALOG_INFO@@XZ
	DD	FLAT:?Create@CButton@@UAEHPBDKABUtagRECT@@PAVCWnd@@I@Z
	DD	FLAT:?DrawItem@CButton@@UAEXPAUtagDRAWITEMSTRUCT@@@Z
CONST	ENDS
;	COMDAT ??_C@_00CNPNBAHC@@
CONST	SEGMENT
??_C@_00CNPNBAHC@@ DB 00H				; `string'
CONST	ENDS
;	COMDAT xdata$x
xdata$x	SEGMENT
__unwindtable$?OnClicked@CXColourPicker@@IAEHXZ DD 0ffffffffH
	DD	FLAT:__unwindfunclet$?OnClicked@CXColourPicker@@IAEHXZ$0
__ehfuncinfo$?OnClicked@CXColourPicker@@IAEHXZ DD 019930522H
	DD	01H
	DD	FLAT:__unwindtable$?OnClicked@CXColourPicker@@IAEHXZ
	DD	2 DUP(00H)
	DD	2 DUP(00H)
	DD	00H
	DD	01H
xdata$x	ENDS
;	COMDAT xdata$x
xdata$x	SEGMENT
__unwindtable$?GetCustomColors@CXColourPicker@@QAE?AV?$CStringT@DV?$StrTraitMFC_DLL@DV?$ChTraitsCRT@D@ATL@@@@@ATL@@XZ DD 0ffffffffH
	DD	FLAT:__unwindfunclet$?GetCustomColors@CXColourPicker@@QAE?AV?$CStringT@DV?$StrTraitMFC_DLL@DV?$ChTraitsCRT@D@ATL@@@@@ATL@@XZ$0
	DD	00H
	DD	FLAT:__unwindfunclet$?GetCustomColors@CXColourPicker@@QAE?AV?$CStringT@DV?$StrTraitMFC_DLL@DV?$ChTraitsCRT@D@ATL@@@@@ATL@@XZ$1
__ehfuncinfo$?GetCustomColors@CXColourPicker@@QAE?AV?$CStringT@DV?$StrTraitMFC_DLL@DV?$ChTraitsCRT@D@ATL@@@@@ATL@@XZ DD 019930522H
	DD	02H
	DD	FLAT:__unwindtable$?GetCustomColors@CXColourPicker@@QAE?AV?$CStringT@DV?$StrTraitMFC_DLL@DV?$ChTraitsCRT@D@ATL@@@@@ATL@@XZ
	DD	2 DUP(00H)
	DD	2 DUP(00H)
	DD	00H
	DD	01H
xdata$x	ENDS
;	COMDAT xdata$x
xdata$x	SEGMENT
__unwindtable$?CreateObject@CXColourPicker@@SGPAVCObject@@XZ DD 0ffffffffH
	DD	FLAT:__unwindfunclet$?CreateObject@CXColourPicker@@SGPAVCObject@@XZ$0
__ehfuncinfo$?CreateObject@CXColourPicker@@SGPAVCObject@@XZ DD 019930522H
	DD	01H
	DD	FLAT:__unwindtable$?CreateObject@CXColourPicker@@SGPAVCObject@@XZ
	DD	2 DUP(00H)
	DD	2 DUP(00H)
	DD	00H
	DD	01H
xdata$x	ENDS
;	COMDAT xdata$x
xdata$x	SEGMENT
__unwindtable$?DDX_ColorPickerCustom@@YGXPAVCDataExchange@@HAAV?$CStringT@DV?$StrTraitMFC_DLL@DV?$ChTraitsCRT@D@ATL@@@@@ATL@@@Z DD 0ffffffffH
	DD	FLAT:__unwindfunclet$?DDX_ColorPickerCustom@@YGXPAVCDataExchange@@HAAV?$CStringT@DV?$StrTraitMFC_DLL@DV?$ChTraitsCRT@D@ATL@@@@@ATL@@@Z$1
	DD	00H
	DD	FLAT:__unwindfunclet$?DDX_ColorPickerCustom@@YGXPAVCDataExchange@@HAAV?$CStringT@DV?$StrTraitMFC_DLL@DV?$ChTraitsCRT@D@ATL@@@@@ATL@@@Z$2
__ehfuncinfo$?DDX_ColorPickerCustom@@YGXPAVCDataExchange@@HAAV?$CStringT@DV?$StrTraitMFC_DLL@DV?$ChTraitsCRT@D@ATL@@@@@ATL@@@Z DD 019930522H
	DD	02H
	DD	FLAT:__unwindtable$?DDX_ColorPickerCustom@@YGXPAVCDataExchange@@HAAV?$CStringT@DV?$StrTraitMFC_DLL@DV?$ChTraitsCRT@D@ATL@@@@@ATL@@@Z
	DD	2 DUP(00H)
	DD	2 DUP(00H)
	DD	00H
	DD	01H
xdata$x	ENDS
; Function compile flags: /Ogtp
; File D:\git\src\IBK\IBK_DRFN\ProjSrc\SrcDrfn\Chart\ChartUtil\XColourPicker.cpp
; File C:\Program Files (x86)\Microsoft Visual Studio\2019\Community\VC\Tools\MSVC\14.29.30133\atlmfc\include\afx.inl
;	COMDAT ??_GCXColourPicker@@UAEPAXI@Z
_TEXT	SEGMENT
___flags$ = 8						; size = 4
??_GCXColourPicker@@UAEPAXI@Z PROC			; CXColourPicker::`scalar deleting destructor', COMDAT
; _this$ = ecx
  00000	55		 push	 ebp
  00001	8b ec		 mov	 ebp, esp
; File D:\git\src\IBK\IBK_DRFN\ProjSrc\SrcDrfn\Chart\ChartUtil\XColourPicker.cpp

; 119  : {

  00003	56		 push	 esi
  00004	8b f1		 mov	 esi, ecx
  00006	c7 06 00 00 00
	00		 mov	 DWORD PTR [esi], OFFSET ??_7CXColourPicker@@6B@

; 120  : }

  0000c	e8 00 00 00 00	 call	 ??1CButton@@UAE@XZ	; CButton::~CButton
  00011	8b 45 08	 mov	 eax, DWORD PTR ___flags$[ebp]
  00014	a8 01		 test	 al, 1
  00016	74 22		 je	 SHORT $LN12@scalar
  00018	a8 04		 test	 al, 4
  0001a	75 10		 jne	 SHORT $LN3@scalar
; File C:\Program Files (x86)\Microsoft Visual Studio\2019\Community\VC\Tools\MSVC\14.29.30133\atlmfc\include\afx.inl

; 112  : 	{ ::operator delete(p); }

  0001c	56		 push	 esi
  0001d	e8 00 00 00 00	 call	 ??3@YAXPAX@Z		; operator delete
  00022	83 c4 04	 add	 esp, 4
  00025	8b c6		 mov	 eax, esi
  00027	5e		 pop	 esi
  00028	5d		 pop	 ebp
  00029	c2 04 00	 ret	 4
$LN3@scalar:
  0002c	68 f0 00 00 00	 push	 240			; 000000f0H
  00031	56		 push	 esi
  00032	e8 00 00 00 00	 call	 ?__global_delete@@YAXPAXI@Z ; __global_delete
  00037	83 c4 08	 add	 esp, 8
$LN12@scalar:
  0003a	8b c6		 mov	 eax, esi
  0003c	5e		 pop	 esi
  0003d	5d		 pop	 ebp
  0003e	c2 04 00	 ret	 4
??_GCXColourPicker@@UAEPAXI@Z ENDP			; CXColourPicker::`scalar deleting destructor'
_TEXT	ENDS
; Function compile flags: /Ogtp
; File D:\git\src\IBK\IBK_DRFN\ProjSrc\SrcDrfn\Chart\ChartUtil\XColourPicker.cpp
;	COMDAT ?GetMessageMap@CXColourPicker@@MBEPBUAFX_MSGMAP@@XZ
_TEXT	SEGMENT
?GetMessageMap@CXColourPicker@@MBEPBUAFX_MSGMAP@@XZ PROC ; CXColourPicker::GetMessageMap, COMDAT
; _this$ = ecx

; 91   : BEGIN_MESSAGE_MAP(CXColourPicker, CButton)

  00000	b8 00 00 00 00	 mov	 eax, OFFSET ?messageMap@?1??GetThisMessageMap@CXColourPicker@@KGPBUAFX_MSGMAP@@XZ@4U3@B
  00005	c3		 ret	 0
?GetMessageMap@CXColourPicker@@MBEPBUAFX_MSGMAP@@XZ ENDP ; CXColourPicker::GetMessageMap
_TEXT	ENDS
; Function compile flags: /Ogtp
; File D:\git\src\IBK\IBK_DRFN\ProjSrc\SrcDrfn\Chart\ChartUtil\XColourPicker.cpp
;	COMDAT ?GetThisMessageMap@CXColourPicker@@KGPBUAFX_MSGMAP@@XZ
_TEXT	SEGMENT
?GetThisMessageMap@CXColourPicker@@KGPBUAFX_MSGMAP@@XZ PROC ; CXColourPicker::GetThisMessageMap, COMDAT

; 92   : //{{AFX_MSG_MAP(CXColourPicker)
; 93   : 	ON_CONTROL_REFLECT_EX(BN_CLICKED, OnClicked)
; 94   : 	ON_WM_CREATE()
; 95   : 	ON_WM_ERASEBKGND()
; 96   : 	ON_WM_ENABLE()
; 97   : 	//}}AFX_MSG_MAP
; 98   : 	ON_MESSAGE(CPN_SELENDOK, OnSelEndOK)
; 99   : 	ON_MESSAGE(CPN_SELENDCANCEL, OnSelEndCancel)
; 100  : 	ON_MESSAGE(CPN_SELCHANGE, OnSelChange)
; 101  : END_MESSAGE_MAP()

  00000	b8 00 00 00 00	 mov	 eax, OFFSET ?messageMap@?1??GetThisMessageMap@CXColourPicker@@KGPBUAFX_MSGMAP@@XZ@4U3@B
  00005	c3		 ret	 0
?GetThisMessageMap@CXColourPicker@@KGPBUAFX_MSGMAP@@XZ ENDP ; CXColourPicker::GetThisMessageMap
_TEXT	ENDS
; Function compile flags: /Ogtp
; File D:\git\src\IBK\IBK_DRFN\ProjSrc\SrcDrfn\Chart\ChartUtil\XColourPicker.cpp
; File C:\Program Files (x86)\Microsoft Visual Studio\2019\Community\VC\Tools\MSVC\14.29.30133\atlmfc\include\afxwin2.inl
; File D:\git\src\IBK\IBK_DRFN\ProjSrc\SrcDrfn\Chart\ChartUtil\XColourPicker.cpp
; File C:\Program Files (x86)\Microsoft Visual Studio\2019\Community\VC\Tools\MSVC\14.29.30133\atlmfc\include\afxwin2.inl
; File D:\git\src\IBK\IBK_DRFN\ProjSrc\SrcDrfn\Chart\ChartUtil\XColourPicker.cpp
;	COMDAT ?OnSelChange@CXColourPicker@@IAEJIJ@Z
_TEXT	SEGMENT
_wParam$ = 8						; size = 4
___formal$ = 12						; size = 4
?OnSelChange@CXColourPicker@@IAEJIJ@Z PROC		; CXColourPicker::OnSelChange, COMDAT
; _this$ = ecx

; 163  : {

  00000	55		 push	 ebp
  00001	8b ec		 mov	 ebp, esp

; 164  : 	if (m_bTrackSelection)

  00003	83 b9 88 00 00
	00 00		 cmp	 DWORD PTR [ecx+136], 0
  0000a	74 21		 je	 SHORT $LN12@OnSelChang

; 231  : 	m_crEnabledColor = m_crColor = crColor;

  0000c	8b 45 08	 mov	 eax, DWORD PTR _wParam$[ebp]
; File C:\Program Files (x86)\Microsoft Visual Studio\2019\Community\VC\Tools\MSVC\14.29.30133\atlmfc\include\afxwin2.inl

; 142  : 	{ ASSERT(::IsWindow(m_hWnd)); return ::RedrawWindow(m_hWnd, lpRectUpdate, (HRGN)prgnUpdate->GetSafeHandle(), flags); }

  0000f	68 05 01 00 00	 push	 261			; 00000105H
  00014	6a 00		 push	 0
  00016	6a 00		 push	 0
  00018	ff 71 20	 push	 DWORD PTR [ecx+32]
; File D:\git\src\IBK\IBK_DRFN\ProjSrc\SrcDrfn\Chart\ChartUtil\XColourPicker.cpp

; 231  : 	m_crEnabledColor = m_crColor = crColor;

  0001b	89 81 8c 00 00
	00		 mov	 DWORD PTR [ecx+140], eax
  00021	89 81 90 00 00
	00		 mov	 DWORD PTR [ecx+144], eax
; File C:\Program Files (x86)\Microsoft Visual Studio\2019\Community\VC\Tools\MSVC\14.29.30133\atlmfc\include\afxwin2.inl

; 142  : 	{ ASSERT(::IsWindow(m_hWnd)); return ::RedrawWindow(m_hWnd, lpRectUpdate, (HRGN)prgnUpdate->GetSafeHandle(), flags); }

  00027	ff 15 00 00 00
	00		 call	 DWORD PTR __imp__RedrawWindow@16
$LN12@OnSelChang:
; File D:\git\src\IBK\IBK_DRFN\ProjSrc\SrcDrfn\Chart\ChartUtil\XColourPicker.cpp

; 168  : }

  0002d	b8 01 00 00 00	 mov	 eax, 1
  00032	5d		 pop	 ebp
  00033	c2 08 00	 ret	 8
?OnSelChange@CXColourPicker@@IAEJIJ@Z ENDP		; CXColourPicker::OnSelChange
_TEXT	ENDS
; Function compile flags: /Ogtp
; File D:\git\src\IBK\IBK_DRFN\ProjSrc\SrcDrfn\Chart\ChartUtil\XColourPicker.cpp
; File C:\Program Files (x86)\Microsoft Visual Studio\2019\Community\VC\Tools\MSVC\14.29.30133\atlmfc\include\afxwin2.inl
; File D:\git\src\IBK\IBK_DRFN\ProjSrc\SrcDrfn\Chart\ChartUtil\XColourPicker.cpp
; File C:\Program Files (x86)\Microsoft Visual Studio\2019\Community\VC\Tools\MSVC\14.29.30133\atlmfc\include\afxwin2.inl
; File D:\git\src\IBK\IBK_DRFN\ProjSrc\SrcDrfn\Chart\ChartUtil\XColourPicker.cpp
; File C:\Program Files (x86)\Microsoft Visual Studio\2019\Community\VC\Tools\MSVC\14.29.30133\atlmfc\include\afxwin2.inl
; File D:\git\src\IBK\IBK_DRFN\ProjSrc\SrcDrfn\Chart\ChartUtil\XColourPicker.cpp
; File C:\Program Files (x86)\Microsoft Visual Studio\2019\Community\VC\Tools\MSVC\14.29.30133\atlmfc\include\afxwin2.inl
; File D:\git\src\IBK\IBK_DRFN\ProjSrc\SrcDrfn\Chart\ChartUtil\XColourPicker.cpp
; File C:\Program Files (x86)\Microsoft Visual Studio\2019\Community\VC\Tools\MSVC\14.29.30133\atlmfc\include\afxwin2.inl
; File D:\git\src\IBK\IBK_DRFN\ProjSrc\SrcDrfn\Chart\ChartUtil\XColourPicker.cpp
;	COMDAT ?OnSelEndCancel@CXColourPicker@@IAEJIJ@Z
_TEXT	SEGMENT
_pParent$1$ = 8						; size = 4
_wParam$ = 8						; size = 4
___formal$ = 12						; size = 4
?OnSelEndCancel@CXColourPicker@@IAEJIJ@Z PROC		; CXColourPicker::OnSelEndCancel, COMDAT
; _this$ = ecx

; 149  : {

  00000	55		 push	 ebp
  00001	8b ec		 mov	 ebp, esp
  00003	53		 push	 ebx

; 231  : 	m_crEnabledColor = m_crColor = crColor;

  00004	8b 5d 08	 mov	 ebx, DWORD PTR _wParam$[ebp]

; 149  : {

  00007	56		 push	 esi
  00008	57		 push	 edi
; File C:\Program Files (x86)\Microsoft Visual Studio\2019\Community\VC\Tools\MSVC\14.29.30133\atlmfc\include\afxwin2.inl

; 142  : 	{ ASSERT(::IsWindow(m_hWnd)); return ::RedrawWindow(m_hWnd, lpRectUpdate, (HRGN)prgnUpdate->GetSafeHandle(), flags); }

  00009	68 05 01 00 00	 push	 261			; 00000105H
; File D:\git\src\IBK\IBK_DRFN\ProjSrc\SrcDrfn\Chart\ChartUtil\XColourPicker.cpp

; 149  : {

  0000e	8b f9		 mov	 edi, ecx
; File C:\Program Files (x86)\Microsoft Visual Studio\2019\Community\VC\Tools\MSVC\14.29.30133\atlmfc\include\afxwin2.inl

; 142  : 	{ ASSERT(::IsWindow(m_hWnd)); return ::RedrawWindow(m_hWnd, lpRectUpdate, (HRGN)prgnUpdate->GetSafeHandle(), flags); }

  00010	6a 00		 push	 0
  00012	6a 00		 push	 0
  00014	ff 77 20	 push	 DWORD PTR [edi+32]
; File D:\git\src\IBK\IBK_DRFN\ProjSrc\SrcDrfn\Chart\ChartUtil\XColourPicker.cpp

; 231  : 	m_crEnabledColor = m_crColor = crColor;

  00017	89 9f 8c 00 00
	00		 mov	 DWORD PTR [edi+140], ebx
  0001d	89 9f 90 00 00
	00		 mov	 DWORD PTR [edi+144], ebx
; File C:\Program Files (x86)\Microsoft Visual Studio\2019\Community\VC\Tools\MSVC\14.29.30133\atlmfc\include\afxwin2.inl

; 142  : 	{ ASSERT(::IsWindow(m_hWnd)); return ::RedrawWindow(m_hWnd, lpRectUpdate, (HRGN)prgnUpdate->GetSafeHandle(), flags); }

  00023	ff 15 00 00 00
	00		 call	 DWORD PTR __imp__RedrawWindow@16

; 213  : 	{ ASSERT(::IsWindow(m_hWnd)); return CWnd::FromHandle(::GetParent(m_hWnd)); }

  00029	ff 77 20	 push	 DWORD PTR [edi+32]
  0002c	ff 15 00 00 00
	00		 call	 DWORD PTR __imp__GetParent@4
  00032	50		 push	 eax
  00033	e8 00 00 00 00	 call	 ?FromHandle@CWnd@@SGPAV1@PAUHWND__@@@Z ; CWnd::FromHandle
; File D:\git\src\IBK\IBK_DRFN\ProjSrc\SrcDrfn\Chart\ChartUtil\XColourPicker.cpp

; 152  : 	CWnd * pParent = GetParent();

  00038	8b f0		 mov	 esi, eax
  0003a	89 75 08	 mov	 DWORD PTR _pParent$1$[ebp], esi

; 153  : 	if (pParent)

  0003d	85 f6		 test	 esi, esi
  0003f	74 2f		 je	 SHORT $LN18@OnSelEndCa

; 154  : 	{
; 155  : 		pParent->SendMessage(CPN_CLOSEUP, wParam, (LPARAM) GetDlgCtrlID());

  00041	8b cf		 mov	 ecx, edi
  00043	e8 00 00 00 00	 call	 ?GetDlgCtrlID@CWnd@@QBEHXZ ; CWnd::GetDlgCtrlID
; File C:\Program Files (x86)\Microsoft Visual Studio\2019\Community\VC\Tools\MSVC\14.29.30133\atlmfc\include\afxwin2.inl

; 32   : 	{ ASSERT(::IsWindow(m_hWnd)); return ::SendMessage(m_hWnd, message, wParam, lParam); }

  00048	50		 push	 eax
  00049	53		 push	 ebx
  0004a	68 eb 07 00 00	 push	 2027			; 000007ebH
  0004f	ff 76 20	 push	 DWORD PTR [esi+32]
  00052	8b 35 00 00 00
	00		 mov	 esi, DWORD PTR __imp__SendMessageA@16
  00058	ff d6		 call	 esi
; File D:\git\src\IBK\IBK_DRFN\ProjSrc\SrcDrfn\Chart\ChartUtil\XColourPicker.cpp

; 156  : 		pParent->SendMessage(CPN_SELENDCANCEL, wParam, (LPARAM) GetDlgCtrlID());

  0005a	8b cf		 mov	 ecx, edi
  0005c	e8 00 00 00 00	 call	 ?GetDlgCtrlID@CWnd@@QBEHXZ ; CWnd::GetDlgCtrlID
; File C:\Program Files (x86)\Microsoft Visual Studio\2019\Community\VC\Tools\MSVC\14.29.30133\atlmfc\include\afxwin2.inl

; 32   : 	{ ASSERT(::IsWindow(m_hWnd)); return ::SendMessage(m_hWnd, message, wParam, lParam); }

  00061	50		 push	 eax
  00062	8b 45 08	 mov	 eax, DWORD PTR _pParent$1$[ebp]
  00065	53		 push	 ebx
  00066	68 ed 07 00 00	 push	 2029			; 000007edH
  0006b	ff 70 20	 push	 DWORD PTR [eax+32]
  0006e	ff d6		 call	 esi
$LN18@OnSelEndCa:
  00070	5f		 pop	 edi
; File D:\git\src\IBK\IBK_DRFN\ProjSrc\SrcDrfn\Chart\ChartUtil\XColourPicker.cpp

; 160  : }

  00071	5e		 pop	 esi
  00072	b8 01 00 00 00	 mov	 eax, 1
  00077	5b		 pop	 ebx
  00078	5d		 pop	 ebp
  00079	c2 08 00	 ret	 8
?OnSelEndCancel@CXColourPicker@@IAEJIJ@Z ENDP		; CXColourPicker::OnSelEndCancel
_TEXT	ENDS
; Function compile flags: /Ogtp
; File D:\git\src\IBK\IBK_DRFN\ProjSrc\SrcDrfn\Chart\ChartUtil\XColourPicker.cpp
; File C:\Program Files (x86)\Microsoft Visual Studio\2019\Community\VC\Tools\MSVC\14.29.30133\atlmfc\include\afxwin2.inl
; File D:\git\src\IBK\IBK_DRFN\ProjSrc\SrcDrfn\Chart\ChartUtil\XColourPicker.cpp
; File C:\Program Files (x86)\Microsoft Visual Studio\2019\Community\VC\Tools\MSVC\14.29.30133\atlmfc\include\afxwin2.inl
; File D:\git\src\IBK\IBK_DRFN\ProjSrc\SrcDrfn\Chart\ChartUtil\XColourPicker.cpp
; File C:\Program Files (x86)\Microsoft Visual Studio\2019\Community\VC\Tools\MSVC\14.29.30133\atlmfc\include\afxwin2.inl
; File D:\git\src\IBK\IBK_DRFN\ProjSrc\SrcDrfn\Chart\ChartUtil\XColourPicker.cpp
; File C:\Program Files (x86)\Microsoft Visual Studio\2019\Community\VC\Tools\MSVC\14.29.30133\atlmfc\include\afxwin2.inl
; File D:\git\src\IBK\IBK_DRFN\ProjSrc\SrcDrfn\Chart\ChartUtil\XColourPicker.cpp
; File C:\Program Files (x86)\Microsoft Visual Studio\2019\Community\VC\Tools\MSVC\14.29.30133\atlmfc\include\afxwin2.inl
; File D:\git\src\IBK\IBK_DRFN\ProjSrc\SrcDrfn\Chart\ChartUtil\XColourPicker.cpp
; File C:\Program Files (x86)\Microsoft Visual Studio\2019\Community\VC\Tools\MSVC\14.29.30133\atlmfc\include\afxwin2.inl
; File D:\git\src\IBK\IBK_DRFN\ProjSrc\SrcDrfn\Chart\ChartUtil\XColourPicker.cpp
; File C:\Program Files (x86)\Microsoft Visual Studio\2019\Community\VC\Tools\MSVC\14.29.30133\atlmfc\include\afxwin2.inl
; File D:\git\src\IBK\IBK_DRFN\ProjSrc\SrcDrfn\Chart\ChartUtil\XColourPicker.cpp
;	COMDAT ?OnSelEndOK@CXColourPicker@@IAEJIJ@Z
_TEXT	SEGMENT
_wParam$ = 8						; size = 4
_lParam$ = 12						; size = 4
?OnSelEndOK@CXColourPicker@@IAEJIJ@Z PROC		; CXColourPicker::OnSelEndOK, COMDAT
; _this$ = ecx

; 126  : {

  00000	55		 push	 ebp
  00001	8b ec		 mov	 ebp, esp

; 127  : 	m_nSelectedRow = LOWORD(lParam);

  00003	8b 55 0c	 mov	 edx, DWORD PTR _lParam$[ebp]
  00006	53		 push	 ebx
  00007	56		 push	 esi
  00008	8b f1		 mov	 esi, ecx
  0000a	0f b7 c2	 movzx	 eax, dx
  0000d	57		 push	 edi

; 128  : 	m_nSelectedCol = HIWORD(lParam);

  0000e	c1 ea 10	 shr	 edx, 16			; 00000010H
; File C:\Program Files (x86)\Microsoft Visual Studio\2019\Community\VC\Tools\MSVC\14.29.30133\atlmfc\include\afxwin2.inl

; 213  : 	{ ASSERT(::IsWindow(m_hWnd)); return CWnd::FromHandle(::GetParent(m_hWnd)); }

  00011	ff 76 20	 push	 DWORD PTR [esi+32]
; File D:\git\src\IBK\IBK_DRFN\ProjSrc\SrcDrfn\Chart\ChartUtil\XColourPicker.cpp

; 127  : 	m_nSelectedRow = LOWORD(lParam);

  00014	89 86 80 00 00
	00		 mov	 DWORD PTR [esi+128], eax

; 128  : 	m_nSelectedCol = HIWORD(lParam);

  0001a	89 96 84 00 00
	00		 mov	 DWORD PTR [esi+132], edx
; File C:\Program Files (x86)\Microsoft Visual Studio\2019\Community\VC\Tools\MSVC\14.29.30133\atlmfc\include\afxwin2.inl

; 213  : 	{ ASSERT(::IsWindow(m_hWnd)); return CWnd::FromHandle(::GetParent(m_hWnd)); }

  00020	ff 15 00 00 00
	00		 call	 DWORD PTR __imp__GetParent@4
  00026	50		 push	 eax
  00027	e8 00 00 00 00	 call	 ?FromHandle@CWnd@@SGPAV1@PAUHWND__@@@Z ; CWnd::FromHandle
; File D:\git\src\IBK\IBK_DRFN\ProjSrc\SrcDrfn\Chart\ChartUtil\XColourPicker.cpp

; 131  : 	if (pParent)

  0002c	8b 7d 08	 mov	 edi, DWORD PTR _wParam$[ebp]
  0002f	8b d8		 mov	 ebx, eax
  00031	85 db		 test	 ebx, ebx
  00033	74 2e		 je	 SHORT $LN2@OnSelEndOK

; 132  : 	{
; 133  : 		pParent->SendMessage(CPN_CLOSEUP, wParam, (LPARAM) GetDlgCtrlID());

  00035	8b ce		 mov	 ecx, esi
  00037	e8 00 00 00 00	 call	 ?GetDlgCtrlID@CWnd@@QBEHXZ ; CWnd::GetDlgCtrlID
; File C:\Program Files (x86)\Microsoft Visual Studio\2019\Community\VC\Tools\MSVC\14.29.30133\atlmfc\include\afxwin2.inl

; 32   : 	{ ASSERT(::IsWindow(m_hWnd)); return ::SendMessage(m_hWnd, message, wParam, lParam); }

  0003c	50		 push	 eax
  0003d	57		 push	 edi
  0003e	68 eb 07 00 00	 push	 2027			; 000007ebH
  00043	ff 73 20	 push	 DWORD PTR [ebx+32]
  00046	ff 15 00 00 00
	00		 call	 DWORD PTR __imp__SendMessageA@16
; File D:\git\src\IBK\IBK_DRFN\ProjSrc\SrcDrfn\Chart\ChartUtil\XColourPicker.cpp

; 134  : 		pParent->SendMessage(CPN_SELENDOK, wParam, (LPARAM) GetDlgCtrlID());

  0004c	8b ce		 mov	 ecx, esi
  0004e	e8 00 00 00 00	 call	 ?GetDlgCtrlID@CWnd@@QBEHXZ ; CWnd::GetDlgCtrlID
; File C:\Program Files (x86)\Microsoft Visual Studio\2019\Community\VC\Tools\MSVC\14.29.30133\atlmfc\include\afxwin2.inl

; 32   : 	{ ASSERT(::IsWindow(m_hWnd)); return ::SendMessage(m_hWnd, message, wParam, lParam); }

  00053	50		 push	 eax
  00054	57		 push	 edi
  00055	68 ec 07 00 00	 push	 2028			; 000007ecH
  0005a	ff 73 20	 push	 DWORD PTR [ebx+32]
  0005d	ff 15 00 00 00
	00		 call	 DWORD PTR __imp__SendMessageA@16
$LN2@OnSelEndOK:
; File D:\git\src\IBK\IBK_DRFN\ProjSrc\SrcDrfn\Chart\ChartUtil\XColourPicker.cpp

; 138  : 	if (crNewColor != m_crColor)

  00063	3b be 8c 00 00
	00		 cmp	 edi, DWORD PTR [esi+140]
  00069	74 39		 je	 SHORT $LN23@OnSelEndOK
; File C:\Program Files (x86)\Microsoft Visual Studio\2019\Community\VC\Tools\MSVC\14.29.30133\atlmfc\include\afxwin2.inl

; 142  : 	{ ASSERT(::IsWindow(m_hWnd)); return ::RedrawWindow(m_hWnd, lpRectUpdate, (HRGN)prgnUpdate->GetSafeHandle(), flags); }

  0006b	68 05 01 00 00	 push	 261			; 00000105H
  00070	6a 00		 push	 0
  00072	6a 00		 push	 0
  00074	ff 76 20	 push	 DWORD PTR [esi+32]
; File D:\git\src\IBK\IBK_DRFN\ProjSrc\SrcDrfn\Chart\ChartUtil\XColourPicker.cpp

; 231  : 	m_crEnabledColor = m_crColor = crColor;

  00077	89 be 8c 00 00
	00		 mov	 DWORD PTR [esi+140], edi
  0007d	89 be 90 00 00
	00		 mov	 DWORD PTR [esi+144], edi
; File C:\Program Files (x86)\Microsoft Visual Studio\2019\Community\VC\Tools\MSVC\14.29.30133\atlmfc\include\afxwin2.inl

; 142  : 	{ ASSERT(::IsWindow(m_hWnd)); return ::RedrawWindow(m_hWnd, lpRectUpdate, (HRGN)prgnUpdate->GetSafeHandle(), flags); }

  00083	ff 15 00 00 00
	00		 call	 DWORD PTR __imp__RedrawWindow@16
; File D:\git\src\IBK\IBK_DRFN\ProjSrc\SrcDrfn\Chart\ChartUtil\XColourPicker.cpp

; 141  : 		if (pParent)

  00089	85 db		 test	 ebx, ebx
  0008b	74 17		 je	 SHORT $LN23@OnSelEndOK

; 142  : 			pParent->SendMessage(CPN_SELCHANGE, wParam, (LPARAM) GetDlgCtrlID());

  0008d	8b ce		 mov	 ecx, esi
  0008f	e8 00 00 00 00	 call	 ?GetDlgCtrlID@CWnd@@QBEHXZ ; CWnd::GetDlgCtrlID
; File C:\Program Files (x86)\Microsoft Visual Studio\2019\Community\VC\Tools\MSVC\14.29.30133\atlmfc\include\afxwin2.inl

; 32   : 	{ ASSERT(::IsWindow(m_hWnd)); return ::SendMessage(m_hWnd, message, wParam, lParam); }

  00094	50		 push	 eax
  00095	57		 push	 edi
  00096	68 e9 07 00 00	 push	 2025			; 000007e9H
  0009b	ff 73 20	 push	 DWORD PTR [ebx+32]
  0009e	ff 15 00 00 00
	00		 call	 DWORD PTR __imp__SendMessageA@16
$LN23@OnSelEndOK:
  000a4	5f		 pop	 edi
; File D:\git\src\IBK\IBK_DRFN\ProjSrc\SrcDrfn\Chart\ChartUtil\XColourPicker.cpp

; 146  : }

  000a5	5e		 pop	 esi
  000a6	b8 01 00 00 00	 mov	 eax, 1
  000ab	5b		 pop	 ebx
  000ac	5d		 pop	 ebp
  000ad	c2 08 00	 ret	 8
?OnSelEndOK@CXColourPicker@@IAEJIJ@Z ENDP		; CXColourPicker::OnSelEndOK
_TEXT	ENDS
; Function compile flags: /Ogtp
; File D:\git\src\IBK\IBK_DRFN\ProjSrc\SrcDrfn\Chart\ChartUtil\XColourPicker.cpp
; File C:\Program Files (x86)\Microsoft Visual Studio\2019\Community\VC\Tools\MSVC\14.29.30133\atlmfc\include\afxwin2.inl
; File D:\git\src\IBK\IBK_DRFN\ProjSrc\SrcDrfn\Chart\ChartUtil\XColourPicker.cpp
;	COMDAT ?OnEnable@CXColourPicker@@IAEXH@Z
_TEXT	SEGMENT
_bEnable$ = 8						; size = 4
?OnEnable@CXColourPicker@@IAEXH@Z PROC			; CXColourPicker::OnEnable, COMDAT
; _this$ = ecx

; 308  : {

  00000	55		 push	 ebp
  00001	8b ec		 mov	 ebp, esp

; 309  : 	if (bEnable)

  00003	83 7d 08 00	 cmp	 DWORD PTR _bEnable$[ebp], 0
  00007	56		 push	 esi
  00008	8b f1		 mov	 esi, ecx
  0000a	74 08		 je	 SHORT $LN2@OnEnable

; 310  : 	{
; 311  : 		m_crColor = m_crEnabledColor;

  0000c	8b 86 90 00 00
	00		 mov	 eax, DWORD PTR [esi+144]

; 312  : 	}

  00012	eb 11		 jmp	 SHORT $LN3@OnEnable
$LN2@OnEnable:

; 313  : 	else
; 314  : 	{
; 315  : 		m_crEnabledColor = m_crColor;

  00014	8b 86 8c 00 00
	00		 mov	 eax, DWORD PTR [esi+140]
  0001a	89 86 90 00 00
	00		 mov	 DWORD PTR [esi+144], eax

; 316  : 		m_crColor = RGB(192,192,192);

  00020	b8 c0 c0 c0 00	 mov	 eax, 12632256		; 00c0c0c0H
$LN3@OnEnable:
; File C:\Program Files (x86)\Microsoft Visual Studio\2019\Community\VC\Tools\MSVC\14.29.30133\atlmfc\include\afxwin2.inl

; 142  : 	{ ASSERT(::IsWindow(m_hWnd)); return ::RedrawWindow(m_hWnd, lpRectUpdate, (HRGN)prgnUpdate->GetSafeHandle(), flags); }

  00025	68 05 01 00 00	 push	 261			; 00000105H
  0002a	6a 00		 push	 0
  0002c	6a 00		 push	 0
  0002e	89 86 8c 00 00
	00		 mov	 DWORD PTR [esi+140], eax
  00034	ff 76 20	 push	 DWORD PTR [esi+32]
  00037	ff 15 00 00 00
	00		 call	 DWORD PTR __imp__RedrawWindow@16

; 298  : 	{ Default(); }

  0003d	8b ce		 mov	 ecx, esi
  0003f	e8 00 00 00 00	 call	 ?Default@CWnd@@IAEJXZ	; CWnd::Default
  00044	5e		 pop	 esi
; File D:\git\src\IBK\IBK_DRFN\ProjSrc\SrcDrfn\Chart\ChartUtil\XColourPicker.cpp

; 321  : }

  00045	5d		 pop	 ebp
  00046	c2 04 00	 ret	 4
?OnEnable@CXColourPicker@@IAEXH@Z ENDP			; CXColourPicker::OnEnable
_TEXT	ENDS
; Function compile flags: /Ogtp
; File D:\git\src\IBK\IBK_DRFN\ProjSrc\SrcDrfn\Chart\ChartUtil\XColourPicker.cpp
; File C:\Program Files (x86)\Microsoft Visual Studio\2019\Community\VC\Tools\MSVC\14.29.30133\atlmfc\include\afxwin2.inl
; File D:\git\src\IBK\IBK_DRFN\ProjSrc\SrcDrfn\Chart\ChartUtil\XColourPicker.cpp
; File C:\Program Files (x86)\Microsoft Visual Studio\2019\Community\VC\Tools\MSVC\14.29.30133\atlmfc\include\afxwin2.inl
; File C:\Program Files (x86)\Microsoft Visual Studio\2019\Community\VC\Tools\MSVC\14.29.30133\atlmfc\include\atltypes.h
; File C:\Program Files (x86)\Microsoft Visual Studio\2019\Community\VC\Tools\MSVC\14.29.30133\atlmfc\include\afxwin2.inl
; File D:\git\src\IBK\IBK_DRFN\ProjSrc\SrcDrfn\Chart\ChartUtil\XColourPicker.cpp
;	COMDAT ?OnEraseBkgnd@CXColourPicker@@IAEHPAVCDC@@@Z
_TEXT	SEGMENT
_rectClient$ = -20					; size = 16
__$ArrayPad$ = -4					; size = 4
_pDC$ = 8						; size = 4
?OnEraseBkgnd@CXColourPicker@@IAEHPAVCDC@@@Z PROC	; CXColourPicker::OnEraseBkgnd, COMDAT
; _this$ = ecx

; 297  : {

  00000	55		 push	 ebp
  00001	8b ec		 mov	 ebp, esp
  00003	83 ec 14	 sub	 esp, 20			; 00000014H
  00006	a1 00 00 00 00	 mov	 eax, DWORD PTR ___security_cookie
  0000b	33 c5		 xor	 eax, ebp
  0000d	89 45 fc	 mov	 DWORD PTR __$ArrayPad$[ebp], eax
  00010	56		 push	 esi
  00011	57		 push	 edi
  00012	8b 7d 08	 mov	 edi, DWORD PTR _pDC$[ebp]
; File C:\Program Files (x86)\Microsoft Visual Studio\2019\Community\VC\Tools\MSVC\14.29.30133\atlmfc\include\afxwin2.inl

; 86   : 	{ ASSERT(::IsWindow(m_hWnd)); ::GetClientRect(m_hWnd, lpRect); }

  00015	8d 45 ec	 lea	 eax, DWORD PTR _rectClient$[ebp]
; File D:\git\src\IBK\IBK_DRFN\ProjSrc\SrcDrfn\Chart\ChartUtil\XColourPicker.cpp

; 297  : {

  00018	8b f1		 mov	 esi, ecx
  0001a	0f 57 c0	 xorps	 xmm0, xmm0
; File C:\Program Files (x86)\Microsoft Visual Studio\2019\Community\VC\Tools\MSVC\14.29.30133\atlmfc\include\afxwin2.inl

; 86   : 	{ ASSERT(::IsWindow(m_hWnd)); ::GetClientRect(m_hWnd, lpRect); }

  0001d	50		 push	 eax
; File C:\Program Files (x86)\Microsoft Visual Studio\2019\Community\VC\Tools\MSVC\14.29.30133\atlmfc\include\atltypes.h

; 528  : 	left = 0;

  0001e	0f 11 45 ec	 movups	 XMMWORD PTR _rectClient$[ebp], xmm0
; File C:\Program Files (x86)\Microsoft Visual Studio\2019\Community\VC\Tools\MSVC\14.29.30133\atlmfc\include\afxwin2.inl

; 86   : 	{ ASSERT(::IsWindow(m_hWnd)); ::GetClientRect(m_hWnd, lpRect); }

  00022	ff 76 20	 push	 DWORD PTR [esi+32]
  00025	ff 15 00 00 00
	00		 call	 DWORD PTR __imp__GetClientRect@8
; File D:\git\src\IBK\IBK_DRFN\ProjSrc\SrcDrfn\Chart\ChartUtil\XColourPicker.cpp

; 302  :     pDC->FillSolidRect(&rectClient, m_crColor);

  0002b	ff b6 8c 00 00
	00		 push	 DWORD PTR [esi+140]
  00031	8d 45 ec	 lea	 eax, DWORD PTR _rectClient$[ebp]
  00034	8b cf		 mov	 ecx, edi
  00036	50		 push	 eax
  00037	e8 00 00 00 00	 call	 ?FillSolidRect@CDC@@QAEXPBUtagRECT@@K@Z ; CDC::FillSolidRect

; 303  : 
; 304  : 	return TRUE;
; 305  : }

  0003c	8b 4d fc	 mov	 ecx, DWORD PTR __$ArrayPad$[ebp]
  0003f	b8 01 00 00 00	 mov	 eax, 1
  00044	5f		 pop	 edi
  00045	33 cd		 xor	 ecx, ebp
  00047	5e		 pop	 esi
  00048	e8 00 00 00 00	 call	 @__security_check_cookie@4
  0004d	8b e5		 mov	 esp, ebp
  0004f	5d		 pop	 ebp
  00050	c2 04 00	 ret	 4
?OnEraseBkgnd@CXColourPicker@@IAEHPAVCDC@@@Z ENDP	; CXColourPicker::OnEraseBkgnd
_TEXT	ENDS
; Function compile flags: /Ogtp
; File D:\git\src\IBK\IBK_DRFN\ProjSrc\SrcDrfn\Chart\ChartUtil\XColourPicker.cpp
; File C:\Program Files (x86)\Microsoft Visual Studio\2019\Community\VC\Tools\MSVC\14.29.30133\atlmfc\include\afxwin2.inl
; File D:\git\src\IBK\IBK_DRFN\ProjSrc\SrcDrfn\Chart\ChartUtil\XColourPicker.cpp
;	COMDAT ?OnCreate@CXColourPicker@@IAEHPAUtagCREATESTRUCTA@@@Z
_TEXT	SEGMENT
_lpCreateStruct$ = 8					; size = 4
?OnCreate@CXColourPicker@@IAEHPAUtagCREATESTRUCTA@@@Z PROC ; CXColourPicker::OnCreate, COMDAT
; _this$ = ecx
; File C:\Program Files (x86)\Microsoft Visual Studio\2019\Community\VC\Tools\MSVC\14.29.30133\atlmfc\include\afxwin2.inl

; 296  : 	{ return (int)Default(); }

  00000	e8 00 00 00 00	 call	 ?Default@CWnd@@IAEJXZ	; CWnd::Default
; File D:\git\src\IBK\IBK_DRFN\ProjSrc\SrcDrfn\Chart\ChartUtil\XColourPicker.cpp

; 172  : 	if (CButton::OnCreate(lpCreateStruct) == -1)

  00005	40		 inc	 eax
  00006	f7 d8		 neg	 eax
  00008	1b c0		 sbb	 eax, eax
  0000a	f7 d8		 neg	 eax
  0000c	48		 dec	 eax

; 173  : 		return - 1;
; 174  : 
; 175  : 	return 0;
; 176  : }

  0000d	c2 04 00	 ret	 4
?OnCreate@CXColourPicker@@IAEHPAUtagCREATESTRUCTA@@@Z ENDP ; CXColourPicker::OnCreate
_TEXT	ENDS
; Function compile flags: /Ogtp
; File D:\git\src\IBK\IBK_DRFN\ProjSrc\SrcDrfn\Chart\ChartUtil\XColourPicker.cpp
; File C:\Program Files (x86)\Microsoft Visual Studio\2019\Community\VC\Tools\MSVC\14.29.30133\atlmfc\include\afxwin2.inl
; File C:\Program Files (x86)\Microsoft Visual Studio\2019\Community\VC\Tools\MSVC\14.29.30133\atlmfc\include\atltypes.h
; File C:\Program Files (x86)\Microsoft Visual Studio\2019\Community\VC\Tools\MSVC\14.29.30133\atlmfc\include\afxwin2.inl
; File C:\Program Files (x86)\Microsoft Visual Studio\2019\Community\VC\Tools\MSVC\14.29.30133\atlmfc\include\afx.inl
; File D:\git\src\IBK\IBK_DRFN\ProjSrc\SrcDrfn\Chart\ChartUtil\XColourPicker.cpp
; File C:\Program Files (x86)\Microsoft Visual Studio\2019\Community\VC\Tools\MSVC\14.29.30133\atlmfc\include\afx.inl
; File D:\git\src\IBK\IBK_DRFN\ProjSrc\SrcDrfn\Chart\ChartUtil\XColourPicker.cpp
; File C:\Program Files (x86)\Microsoft Visual Studio\2019\Community\VC\Tools\MSVC\14.29.30133\atlmfc\include\afxwin2.inl
; File D:\git\src\IBK\IBK_DRFN\ProjSrc\SrcDrfn\Chart\ChartUtil\XColourPicker.cpp
; File C:\Program Files (x86)\Microsoft Visual Studio\2019\Community\VC\Tools\MSVC\14.29.30133\atlmfc\include\afxwin2.inl
; File D:\git\src\IBK\IBK_DRFN\ProjSrc\SrcDrfn\Chart\ChartUtil\XColourPicker.cpp
; File C:\Program Files (x86)\Microsoft Visual Studio\2019\Community\VC\Tools\MSVC\14.29.30133\atlmfc\include\afxwin2.inl
; File D:\git\src\IBK\IBK_DRFN\ProjSrc\SrcDrfn\Chart\ChartUtil\XColourPicker.cpp
;	COMDAT ?OnClicked@CXColourPicker@@IAEHXZ
_TEXT	SEGMENT
$T2 = -36						; size = 4
_rect$ = -32						; size = 16
__$ArrayPad$ = -16					; size = 4
__$EHRec$ = -12						; size = 12
?OnClicked@CXColourPicker@@IAEHXZ PROC			; CXColourPicker::OnClicked, COMDAT
; _this$ = ecx

; 180  : {

  00000	55		 push	 ebp
  00001	8b ec		 mov	 ebp, esp
  00003	6a ff		 push	 -1
  00005	68 00 00 00 00	 push	 __ehhandler$?OnClicked@CXColourPicker@@IAEHXZ
  0000a	64 a1 00 00 00
	00		 mov	 eax, DWORD PTR fs:0
  00010	50		 push	 eax
  00011	83 ec 18	 sub	 esp, 24			; 00000018H
  00014	a1 00 00 00 00	 mov	 eax, DWORD PTR ___security_cookie
  00019	33 c5		 xor	 eax, ebp
  0001b	89 45 f0	 mov	 DWORD PTR __$ArrayPad$[ebp], eax
  0001e	56		 push	 esi
  0001f	57		 push	 edi
  00020	50		 push	 eax
  00021	8d 45 f4	 lea	 eax, DWORD PTR __$EHRec$[ebp]
  00024	64 a3 00 00 00
	00		 mov	 DWORD PTR fs:0, eax
  0002a	8b f1		 mov	 esi, ecx
; File C:\Program Files (x86)\Microsoft Visual Studio\2019\Community\VC\Tools\MSVC\14.29.30133\atlmfc\include\afxwin2.inl

; 84   : 	{ ASSERT(::IsWindow(m_hWnd)); ::GetWindowRect(m_hWnd, lpRect); }

  0002c	8d 45 e0	 lea	 eax, DWORD PTR _rect$[ebp]
  0002f	0f 57 c0	 xorps	 xmm0, xmm0
  00032	50		 push	 eax
  00033	ff 76 20	 push	 DWORD PTR [esi+32]
; File C:\Program Files (x86)\Microsoft Visual Studio\2019\Community\VC\Tools\MSVC\14.29.30133\atlmfc\include\atltypes.h

; 528  : 	left = 0;

  00036	0f 11 45 e0	 movups	 XMMWORD PTR _rect$[ebp], xmm0
; File C:\Program Files (x86)\Microsoft Visual Studio\2019\Community\VC\Tools\MSVC\14.29.30133\atlmfc\include\afxwin2.inl

; 84   : 	{ ASSERT(::IsWindow(m_hWnd)); ::GetWindowRect(m_hWnd, lpRect); }

  0003a	ff 15 00 00 00
	00		 call	 DWORD PTR __imp__GetWindowRect@8
; File C:\Program Files (x86)\Microsoft Visual Studio\2019\Community\VC\Tools\MSVC\14.29.30133\atlmfc\include\afx.inl

; 116  : 	{ return ::operator new(nSize); }

  00040	68 98 01 00 00	 push	 408			; 00000198H
  00045	e8 00 00 00 00	 call	 ??2@YAPAXI@Z		; operator new
; File D:\git\src\IBK\IBK_DRFN\ProjSrc\SrcDrfn\Chart\ChartUtil\XColourPicker.cpp

; 186  : 	new CXColourPopup(this, CPoint(rect.left, rect.bottom), m_crColor, m_CustomColors);

  0004a	8b c8		 mov	 ecx, eax
; File C:\Program Files (x86)\Microsoft Visual Studio\2019\Community\VC\Tools\MSVC\14.29.30133\atlmfc\include\afx.inl

; 116  : 	{ return ::operator new(nSize); }

  0004c	83 c4 04	 add	 esp, 4
; File D:\git\src\IBK\IBK_DRFN\ProjSrc\SrcDrfn\Chart\ChartUtil\XColourPicker.cpp

; 186  : 	new CXColourPopup(this, CPoint(rect.left, rect.bottom), m_crColor, m_CustomColors);

  0004f	89 4d dc	 mov	 DWORD PTR $T2[ebp], ecx
  00052	c7 45 fc 00 00
	00 00		 mov	 DWORD PTR __$EHRec$[ebp+8], 0
  00059	85 c9		 test	 ecx, ecx
  0005b	74 1f		 je	 SHORT $LN4@OnClicked
  0005d	6a 00		 push	 0
  0005f	6a ff		 push	 -1
  00061	6a ff		 push	 -1
  00063	8d 86 94 00 00
	00		 lea	 eax, DWORD PTR [esi+148]
  00069	50		 push	 eax
  0006a	ff b6 8c 00 00
	00		 push	 DWORD PTR [esi+140]
  00070	ff 75 ec	 push	 DWORD PTR _rect$[ebp+12]
  00073	ff 75 e0	 push	 DWORD PTR _rect$[ebp]
  00076	56		 push	 esi
  00077	e8 00 00 00 00	 call	 ??0CXColourPopup@@QAE@PAVCWnd@@VCPoint@@KPAKHHPBD@Z ; CXColourPopup::CXColourPopup
$LN4@OnClicked:
; File C:\Program Files (x86)\Microsoft Visual Studio\2019\Community\VC\Tools\MSVC\14.29.30133\atlmfc\include\afxwin2.inl

; 213  : 	{ ASSERT(::IsWindow(m_hWnd)); return CWnd::FromHandle(::GetParent(m_hWnd)); }

  0007c	ff 76 20	 push	 DWORD PTR [esi+32]
; File D:\git\src\IBK\IBK_DRFN\ProjSrc\SrcDrfn\Chart\ChartUtil\XColourPicker.cpp

; 186  : 	new CXColourPopup(this, CPoint(rect.left, rect.bottom), m_crColor, m_CustomColors);

  0007f	c7 45 fc ff ff
	ff ff		 mov	 DWORD PTR __$EHRec$[ebp+8], -1
; File C:\Program Files (x86)\Microsoft Visual Studio\2019\Community\VC\Tools\MSVC\14.29.30133\atlmfc\include\afxwin2.inl

; 213  : 	{ ASSERT(::IsWindow(m_hWnd)); return CWnd::FromHandle(::GetParent(m_hWnd)); }

  00086	ff 15 00 00 00
	00		 call	 DWORD PTR __imp__GetParent@4
  0008c	50		 push	 eax
  0008d	e8 00 00 00 00	 call	 ?FromHandle@CWnd@@SGPAV1@PAUHWND__@@@Z ; CWnd::FromHandle
; File D:\git\src\IBK\IBK_DRFN\ProjSrc\SrcDrfn\Chart\ChartUtil\XColourPicker.cpp

; 188  : 	CWnd * pParent = GetParent();

  00092	8b f8		 mov	 edi, eax

; 189  : 	if (pParent)

  00094	85 ff		 test	 edi, edi
  00096	74 1c		 je	 SHORT $LN19@OnClicked

; 190  : 		pParent->SendMessage(CPN_DROPDOWN, (LPARAM)m_crColor, (WPARAM) GetDlgCtrlID());

  00098	8b ce		 mov	 ecx, esi
  0009a	e8 00 00 00 00	 call	 ?GetDlgCtrlID@CWnd@@QBEHXZ ; CWnd::GetDlgCtrlID
; File C:\Program Files (x86)\Microsoft Visual Studio\2019\Community\VC\Tools\MSVC\14.29.30133\atlmfc\include\afxwin2.inl

; 32   : 	{ ASSERT(::IsWindow(m_hWnd)); return ::SendMessage(m_hWnd, message, wParam, lParam); }

  0009f	50		 push	 eax
  000a0	ff b6 8c 00 00
	00		 push	 DWORD PTR [esi+140]
  000a6	68 ea 07 00 00	 push	 2026			; 000007eaH
  000ab	ff 77 20	 push	 DWORD PTR [edi+32]
  000ae	ff 15 00 00 00
	00		 call	 DWORD PTR __imp__SendMessageA@16
$LN19@OnClicked:
; File D:\git\src\IBK\IBK_DRFN\ProjSrc\SrcDrfn\Chart\ChartUtil\XColourPicker.cpp

; 195  : }

  000b4	b8 01 00 00 00	 mov	 eax, 1
  000b9	8b 4d f4	 mov	 ecx, DWORD PTR __$EHRec$[ebp]
  000bc	64 89 0d 00 00
	00 00		 mov	 DWORD PTR fs:0, ecx
  000c3	59		 pop	 ecx
  000c4	5f		 pop	 edi
  000c5	5e		 pop	 esi
  000c6	8b 4d f0	 mov	 ecx, DWORD PTR __$ArrayPad$[ebp]
  000c9	33 cd		 xor	 ecx, ebp
  000cb	e8 00 00 00 00	 call	 @__security_check_cookie@4
  000d0	8b e5		 mov	 esp, ebp
  000d2	5d		 pop	 ebp
  000d3	c3		 ret	 0
_TEXT	ENDS
;	COMDAT text$x
text$x	SEGMENT
__unwindfunclet$?OnClicked@CXColourPicker@@IAEHXZ$0:
  00000	8b 45 dc	 mov	 eax, DWORD PTR $T2[ebp]
  00003	50		 push	 eax
  00004	e8 00 00 00 00	 call	 ??3CObject@@SGXPAX@Z	; CObject::operator delete
  00009	c3		 ret	 0
  0000a	cc		 int	 3
  0000b	cc		 int	 3
  0000c	cc		 int	 3
  0000d	cc		 int	 3
  0000e	cc		 int	 3
__ehhandler$?OnClicked@CXColourPicker@@IAEHXZ:
  0000f	90		 npad	 1
  00010	90		 npad	 1
  00011	8b 54 24 08	 mov	 edx, DWORD PTR [esp+8]
  00015	8d 42 0c	 lea	 eax, DWORD PTR [edx+12]
  00018	8b 4a dc	 mov	 ecx, DWORD PTR [edx-36]
  0001b	33 c8		 xor	 ecx, eax
  0001d	e8 00 00 00 00	 call	 @__security_check_cookie@4
  00022	8b 4a fc	 mov	 ecx, DWORD PTR [edx-4]
  00025	33 c8		 xor	 ecx, eax
  00027	e8 00 00 00 00	 call	 @__security_check_cookie@4
  0002c	b8 00 00 00 00	 mov	 eax, OFFSET __ehfuncinfo$?OnClicked@CXColourPicker@@IAEHXZ
  00031	e9 00 00 00 00	 jmp	 ___CxxFrameHandler3
text$x	ENDS
?OnClicked@CXColourPicker@@IAEHXZ ENDP			; CXColourPicker::OnClicked
; Function compile flags: /Ogtp
; File D:\git\src\IBK\IBK_DRFN\ProjSrc\SrcDrfn\Chart\ChartUtil\XColourPicker.cpp
; File C:\Program Files (x86)\Microsoft Visual Studio\2019\Community\VC\Tools\MSVC\14.29.30133\atlmfc\include\atltypes.h
; File D:\git\src\IBK\IBK_DRFN\ProjSrc\SrcDrfn\Chart\ChartUtil\XColourPicker.cpp
; File C:\Program Files (x86)\Microsoft Visual Studio\2019\Community\VC\Tools\MSVC\14.29.30133\atlmfc\include\atltypes.h
; File D:\git\src\IBK\IBK_DRFN\ProjSrc\SrcDrfn\Chart\ChartUtil\XColourPicker.cpp
; File C:\Program Files (x86)\Microsoft Visual Studio\2019\Community\VC\Tools\MSVC\14.29.30133\atlmfc\include\atltypes.h
; File D:\git\src\IBK\IBK_DRFN\ProjSrc\SrcDrfn\Chart\ChartUtil\XColourPicker.cpp
;	COMDAT ?GetArrowSize@CXColourPicker@@IAE?AVCSize@@XZ
_TEXT	SEGMENT
___$ReturnUdt$ = 8					; size = 4
?GetArrowSize@CXColourPicker@@IAE?AVCSize@@XZ PROC	; CXColourPicker::GetArrowSize, COMDAT
; _this$ = ecx

; 210  : {

  00000	55		 push	 ebp
  00001	8b ec		 mov	 ebp, esp
  00003	56		 push	 esi

; 211  : 	// Get size dimensions of edges
; 212  : 	CSize MarginSize(::GetSystemMetrics(SM_CXEDGE), ::GetSystemMetrics(SM_CYEDGE));

  00004	8b 35 00 00 00
	00		 mov	 esi, DWORD PTR __imp__GetSystemMetrics@4
  0000a	57		 push	 edi
  0000b	6a 2e		 push	 46			; 0000002eH
  0000d	ff d6		 call	 esi
  0000f	6a 2d		 push	 45			; 0000002dH
  00011	ff d6		 call	 esi

; 213  : 
; 214  : 	// Get size of dropdown arrow
; 215  : 	int nArrowWidth  = ::GetSystemMetrics(SM_CXHTHUMB) / 3 + 2;

  00013	6a 0a		 push	 10			; 0000000aH
  00015	ff d6		 call	 esi
  00017	8b c8		 mov	 ecx, eax
  00019	b8 56 55 55 55	 mov	 eax, 1431655766		; 55555556H
  0001e	f7 e9		 imul	 ecx

; 216  : 	int nArrowHeight = ::GetSystemMetrics(SM_CYVTHUMB) / 3 + 2;

  00020	6a 09		 push	 9
  00022	8b fa		 mov	 edi, edx
  00024	c1 ef 1f	 shr	 edi, 31			; 0000001fH
  00027	03 fa		 add	 edi, edx
  00029	ff d6		 call	 esi
  0002b	8b c8		 mov	 ecx, eax
  0002d	b8 56 55 55 55	 mov	 eax, 1431655766		; 55555556H
  00032	f7 e9		 imul	 ecx
  00034	8d 47 02	 lea	 eax, DWORD PTR [edi+2]
  00037	8b f2		 mov	 esi, edx
  00039	c1 ee 1f	 shr	 esi, 31			; 0000001fH
  0003c	03 f2		 add	 esi, edx
  0003e	8d 4e 02	 lea	 ecx, DWORD PTR [esi+2]

; 217  : 	CSize ArrowSize(max(nArrowWidth, nArrowHeight), max(nArrowWidth, nArrowHeight));

  00041	3b c1		 cmp	 eax, ecx
; File C:\Program Files (x86)\Microsoft Visual Studio\2019\Community\VC\Tools\MSVC\14.29.30133\atlmfc\include\atltypes.h

; 312  : 	cx = initCX;

  00043	8b 45 08	 mov	 eax, DWORD PTR ___$ReturnUdt$[ebp]
; File D:\git\src\IBK\IBK_DRFN\ProjSrc\SrcDrfn\Chart\ChartUtil\XColourPicker.cpp

; 217  : 	CSize ArrowSize(max(nArrowWidth, nArrowHeight), max(nArrowWidth, nArrowHeight));

  00046	0f 4f f7	 cmovg	 esi, edi
; File C:\Program Files (x86)\Microsoft Visual Studio\2019\Community\VC\Tools\MSVC\14.29.30133\atlmfc\include\atltypes.h

; 313  : 	cy = initCY;

  00049	5f		 pop	 edi
; File D:\git\src\IBK\IBK_DRFN\ProjSrc\SrcDrfn\Chart\ChartUtil\XColourPicker.cpp

; 217  : 	CSize ArrowSize(max(nArrowWidth, nArrowHeight), max(nArrowWidth, nArrowHeight));

  0004a	8d 4e 02	 lea	 ecx, DWORD PTR [esi+2]
; File C:\Program Files (x86)\Microsoft Visual Studio\2019\Community\VC\Tools\MSVC\14.29.30133\atlmfc\include\atltypes.h

; 312  : 	cx = initCX;

  0004d	89 08		 mov	 DWORD PTR [eax], ecx

; 313  : 	cy = initCY;

  0004f	89 48 04	 mov	 DWORD PTR [eax+4], ecx
  00052	5e		 pop	 esi
; File D:\git\src\IBK\IBK_DRFN\ProjSrc\SrcDrfn\Chart\ChartUtil\XColourPicker.cpp

; 220  : 	if ((ArrowSize.cx & 1) == 0)

  00053	f6 c1 01	 test	 cl, 1
  00056	75 06		 jne	 SHORT $LN2@GetArrowSi

; 221  : 	{
; 222  : 		ArrowSize.cx++;

  00058	41		 inc	 ecx
  00059	89 08		 mov	 DWORD PTR [eax], ecx

; 223  : 		ArrowSize.cy++;

  0005b	89 48 04	 mov	 DWORD PTR [eax+4], ecx
$LN2@GetArrowSi:

; 224  : 	}
; 225  : 
; 226  : 	return ArrowSize;
; 227  : }

  0005e	5d		 pop	 ebp
  0005f	c2 04 00	 ret	 4
?GetArrowSize@CXColourPicker@@IAE?AVCSize@@XZ ENDP	; CXColourPicker::GetArrowSize
_TEXT	ENDS
; Function compile flags: /Ogtp
; File D:\git\src\IBK\IBK_DRFN\ProjSrc\SrcDrfn\Chart\ChartUtil\XColourPicker.cpp
;	COMDAT ?PreSubclassWindow@CXColourPicker@@MAEXXZ
_TEXT	SEGMENT
?PreSubclassWindow@CXColourPicker@@MAEXXZ PROC		; CXColourPicker::PreSubclassWindow, COMDAT
; _this$ = ecx

; 201  : {

  00000	56		 push	 esi

; 202  : 	ModifyStyle(0, BS_OWNERDRAW);        // Make it owner drawn

  00001	6a 00		 push	 0
  00003	6a 0b		 push	 11			; 0000000bH
  00005	6a 00		 push	 0
  00007	8b f1		 mov	 esi, ecx
  00009	e8 00 00 00 00	 call	 ?ModifyStyle@CWnd@@QAEHKKI@Z ; CWnd::ModifyStyle

; 203  : 	CButton::PreSubclassWindow();

  0000e	8b ce		 mov	 ecx, esi
  00010	5e		 pop	 esi
  00011	e9 00 00 00 00	 jmp	 ?PreSubclassWindow@CWnd@@UAEXXZ ; CWnd::PreSubclassWindow
?PreSubclassWindow@CXColourPicker@@MAEXXZ ENDP		; CXColourPicker::PreSubclassWindow
_TEXT	ENDS
; Function compile flags: /Ogtp
; File D:\git\src\IBK\IBK_DRFN\ProjSrc\SrcDrfn\Chart\ChartUtil\XColourPicker.cpp
; File C:\Program Files (x86)\Microsoft Visual Studio\2019\Community\VC\Tools\MSVC\14.29.30133\atlmfc\include\atltypes.h
; File D:\git\src\IBK\IBK_DRFN\ProjSrc\SrcDrfn\Chart\ChartUtil\XColourPicker.cpp
; File C:\Program Files (x86)\Microsoft Visual Studio\2019\Community\VC\Tools\MSVC\14.29.30133\atlmfc\include\atltypes.h
; File D:\git\src\IBK\IBK_DRFN\ProjSrc\SrcDrfn\Chart\ChartUtil\XColourPicker.cpp
; File C:\Program Files (x86)\Microsoft Visual Studio\2019\Community\VC\Tools\MSVC\14.29.30133\atlmfc\include\afxwin1.inl
; File D:\git\src\IBK\IBK_DRFN\ProjSrc\SrcDrfn\Chart\ChartUtil\XColourPicker.cpp
; File C:\Program Files (x86)\Microsoft Visual Studio\2019\Community\VC\Tools\MSVC\14.29.30133\atlmfc\include\atltypes.h
; File D:\git\src\IBK\IBK_DRFN\ProjSrc\SrcDrfn\Chart\ChartUtil\XColourPicker.cpp
; File C:\Program Files (x86)\Microsoft Visual Studio\2019\Community\VC\Tools\MSVC\14.29.30133\atlmfc\include\afxwin1.inl
; File D:\git\src\IBK\IBK_DRFN\ProjSrc\SrcDrfn\Chart\ChartUtil\XColourPicker.cpp
; File C:\Program Files (x86)\Microsoft Visual Studio\2019\Community\VC\Tools\MSVC\14.29.30133\atlmfc\include\atltypes.h
; File D:\git\src\IBK\IBK_DRFN\ProjSrc\SrcDrfn\Chart\ChartUtil\XColourPicker.cpp
; File C:\Program Files (x86)\Microsoft Visual Studio\2019\Community\VC\Tools\MSVC\14.29.30133\atlmfc\include\atltypes.h
; File D:\git\src\IBK\IBK_DRFN\ProjSrc\SrcDrfn\Chart\ChartUtil\XColourPicker.cpp
; File C:\Program Files (x86)\Microsoft Visual Studio\2019\Community\VC\Tools\MSVC\14.29.30133\atlmfc\include\atltypes.h
; File C:\Program Files (x86)\Microsoft Visual Studio\2019\Community\VC\Tools\MSVC\14.29.30133\atlmfc\include\afxwin1.inl
; File D:\git\src\IBK\IBK_DRFN\ProjSrc\SrcDrfn\Chart\ChartUtil\XColourPicker.cpp
; File C:\Program Files (x86)\Microsoft Visual Studio\2019\Community\VC\Tools\MSVC\14.29.30133\atlmfc\include\afxwin1.inl
; File D:\git\src\IBK\IBK_DRFN\ProjSrc\SrcDrfn\Chart\ChartUtil\XColourPicker.cpp
; File C:\Program Files (x86)\Microsoft Visual Studio\2019\Community\VC\Tools\MSVC\14.29.30133\atlmfc\include\afxwin1.inl
; File D:\git\src\IBK\IBK_DRFN\ProjSrc\SrcDrfn\Chart\ChartUtil\XColourPicker.cpp
; File C:\Program Files (x86)\Microsoft Visual Studio\2019\Community\VC\Tools\MSVC\14.29.30133\atlmfc\include\afxwin1.inl
; File D:\git\src\IBK\IBK_DRFN\ProjSrc\SrcDrfn\Chart\ChartUtil\XColourPicker.cpp
; File C:\Program Files (x86)\Microsoft Visual Studio\2019\Community\VC\Tools\MSVC\14.29.30133\atlmfc\include\afxwin1.inl
; File D:\git\src\IBK\IBK_DRFN\ProjSrc\SrcDrfn\Chart\ChartUtil\XColourPicker.cpp
; File C:\Program Files (x86)\Microsoft Visual Studio\2019\Community\VC\Tools\MSVC\14.29.30133\atlmfc\include\afxwin1.inl
; File D:\git\src\IBK\IBK_DRFN\ProjSrc\SrcDrfn\Chart\ChartUtil\XColourPicker.cpp
; File C:\Program Files (x86)\Microsoft Visual Studio\2019\Community\VC\Tools\MSVC\14.29.30133\atlmfc\include\afxwin1.inl
; File D:\git\src\IBK\IBK_DRFN\ProjSrc\SrcDrfn\Chart\ChartUtil\XColourPicker.cpp
; File C:\Program Files (x86)\Microsoft Visual Studio\2019\Community\VC\Tools\MSVC\14.29.30133\atlmfc\include\afxwin1.inl
; File D:\git\src\IBK\IBK_DRFN\ProjSrc\SrcDrfn\Chart\ChartUtil\XColourPicker.cpp
;	COMDAT ?DrawItem@CXColourPicker@@UAEXPAUtagDRAWITEMSTRUCT@@@Z
_TEXT	SEGMENT
tv655 = -60						; size = 4
_nArrowLeft$1$ = -56					; size = 4
_this$GSCopy$1$ = -52					; size = 4
_pDC$1$ = -48						; size = 4
_nArrowTop$1$ = -44					; size = 4
tv648 = -40						; size = 4
_rArrow$$sroa$76$1$ = -40				; size = 4
_rFocus$4 = -36						; size = 16
$T5 = -28						; size = 8
_rDraw$ = -20						; size = 16
__$ArrayPad$ = -4					; size = 4
_lpDrawItemStruct$ = 8					; size = 4
?DrawItem@CXColourPicker@@UAEXPAUtagDRAWITEMSTRUCT@@@Z PROC ; CXColourPicker::DrawItem, COMDAT
; _this$ = ecx

; 329  : {

  00000	55		 push	 ebp
  00001	8b ec		 mov	 ebp, esp
  00003	83 ec 3c	 sub	 esp, 60			; 0000003cH
  00006	a1 00 00 00 00	 mov	 eax, DWORD PTR ___security_cookie
  0000b	33 c5		 xor	 eax, ebp
  0000d	89 45 fc	 mov	 DWORD PTR __$ArrayPad$[ebp], eax
  00010	53		 push	 ebx
  00011	56		 push	 esi
  00012	8b 75 08	 mov	 esi, DWORD PTR _lpDrawItemStruct$[ebp]
  00015	57		 push	 edi
  00016	89 4d cc	 mov	 DWORD PTR _this$GSCopy$1$[ebp], ecx

; 332  : 	CDC*    pDC      = CDC::FromHandle(lpDrawItemStruct->hDC);

  00019	ff 76 18	 push	 DWORD PTR [esi+24]
  0001c	e8 00 00 00 00	 call	 ?FromHandle@CDC@@SGPAV1@PAUHDC__@@@Z ; CDC::FromHandle

; 333  : 	UINT    state    = lpDrawItemStruct->itemState;

  00021	8b 7e 10	 mov	 edi, DWORD PTR [esi+16]

; 334  :     CRect   rDraw    = lpDrawItemStruct->rcItem;

  00024	8d 4e 1c	 lea	 ecx, DWORD PTR [esi+28]
  00027	8b d8		 mov	 ebx, eax
; File C:\Program Files (x86)\Microsoft Visual Studio\2019\Community\VC\Tools\MSVC\14.29.30133\atlmfc\include\atltypes.h

; 548  : 	::CopyRect(this, &srcRect);

  00029	8d 45 ec	 lea	 eax, DWORD PTR _rDraw$[ebp]
  0002c	51		 push	 ecx
  0002d	50		 push	 eax
; File D:\git\src\IBK\IBK_DRFN\ProjSrc\SrcDrfn\Chart\ChartUtil\XColourPicker.cpp

; 332  : 	CDC*    pDC      = CDC::FromHandle(lpDrawItemStruct->hDC);

  0002e	89 5d d0	 mov	 DWORD PTR _pDC$1$[ebp], ebx
; File C:\Program Files (x86)\Microsoft Visual Studio\2019\Community\VC\Tools\MSVC\14.29.30133\atlmfc\include\atltypes.h

; 548  : 	::CopyRect(this, &srcRect);

  00031	ff 15 00 00 00
	00		 call	 DWORD PTR __imp__CopyRect@8
; File D:\git\src\IBK\IBK_DRFN\ProjSrc\SrcDrfn\Chart\ChartUtil\XColourPicker.cpp

; 343  : 	UINT uFrameState = DFCS_BUTTONPUSH|DFCS_ADJUSTRECT;

  00037	8b 4d cc	 mov	 ecx, DWORD PTR _this$GSCopy$1$[ebp]
  0003a	8b c7		 mov	 eax, edi
  0003c	83 c8 11	 or	 eax, 17			; 00000011H
  0003f	83 b9 e8 00 00
	00 00		 cmp	 DWORD PTR [ecx+232], 0
  00046	0f 44 c7	 cmove	 eax, edi

; 344  : 
; 345  : 	if (state & ODS_SELECTED)

  00049	8b f0		 mov	 esi, eax
  0004b	89 45 d8	 mov	 DWORD PTR tv648[ebp], eax
  0004e	83 e6 01	 and	 esi, 1

; 346  : 		uFrameState |= DFCS_PUSHED;
; 347  : 
; 348  : 	if (state & ODS_DISABLED)

  00051	8b d0		 mov	 edx, eax
  00053	8b ce		 mov	 ecx, esi
  00055	83 e2 04	 and	 edx, 4
  00058	c1 e1 09	 shl	 ecx, 9
  0005b	81 c1 10 20 00
	00		 add	 ecx, 8208		; 00002010H
  00061	89 55 c4	 mov	 DWORD PTR tv655[ebp], edx
; File C:\Program Files (x86)\Microsoft Visual Studio\2019\Community\VC\Tools\MSVC\14.29.30133\atlmfc\include\afxwin1.inl

; 512  : 	{ ASSERT(m_hDC != NULL); return ::DrawFrameControl(m_hDC, lpRect, nType, nState); }

  00064	8b c1		 mov	 eax, ecx
  00066	0d 00 01 00 00	 or	 eax, 256		; 00000100H
  0006b	85 d2		 test	 edx, edx
  0006d	0f 44 c1	 cmove	 eax, ecx
  00070	50		 push	 eax
  00071	6a 04		 push	 4
  00073	8d 45 ec	 lea	 eax, DWORD PTR _rDraw$[ebp]
  00076	50		 push	 eax
  00077	ff 73 04	 push	 DWORD PTR [ebx+4]
  0007a	ff 15 00 00 00
	00		 call	 DWORD PTR __imp__DrawFrameControl@16
; File D:\git\src\IBK\IBK_DRFN\ProjSrc\SrcDrfn\Chart\ChartUtil\XColourPicker.cpp

; 356  : 	if (state & ODS_SELECTED)

  00080	85 f6		 test	 esi, esi
  00082	74 0e		 je	 SHORT $LN7@DrawItem
; File C:\Program Files (x86)\Microsoft Visual Studio\2019\Community\VC\Tools\MSVC\14.29.30133\atlmfc\include\atltypes.h

; 710  : 	::OffsetRect(this, x, y);

  00084	6a 01		 push	 1
  00086	6a 01		 push	 1
  00088	8d 45 ec	 lea	 eax, DWORD PTR _rDraw$[ebp]
  0008b	50		 push	 eax
  0008c	ff 15 00 00 00
	00		 call	 DWORD PTR __imp__OffsetRect@12
$LN7@DrawItem:
; File D:\git\src\IBK\IBK_DRFN\ProjSrc\SrcDrfn\Chart\ChartUtil\XColourPicker.cpp

; 362  : 	if (state & ODS_FOCUS)

  00092	f6 45 d8 10	 test	 BYTE PTR tv648[ebp], 16	; 00000010H
  00096	74 26		 je	 SHORT $LN8@DrawItem

; 363  :     {
; 364  : 		RECT rFocus = {rDraw.left,

  00098	8b 45 ec	 mov	 eax, DWORD PTR _rDraw$[ebp]
  0009b	89 45 dc	 mov	 DWORD PTR _rFocus$4[ebp], eax

; 365  : 					   rDraw.top,

  0009e	8b 45 f0	 mov	 eax, DWORD PTR _rDraw$[ebp+4]
  000a1	89 45 e0	 mov	 DWORD PTR _rFocus$4[ebp+4], eax

; 366  : 					   rDraw.right - 1,

  000a4	8b 45 f4	 mov	 eax, DWORD PTR _rDraw$[ebp+8]
  000a7	48		 dec	 eax
  000a8	89 45 e4	 mov	 DWORD PTR _rFocus$4[ebp+8], eax

; 367  : 					   rDraw.bottom};

  000ab	8b 45 f8	 mov	 eax, DWORD PTR _rDraw$[ebp+12]
  000ae	89 45 e8	 mov	 DWORD PTR _rFocus$4[ebp+12], eax
; File C:\Program Files (x86)\Microsoft Visual Studio\2019\Community\VC\Tools\MSVC\14.29.30133\atlmfc\include\afxwin1.inl

; 522  : 	{ ASSERT(m_hDC != NULL); ::DrawFocusRect(m_hDC, lpRect); }

  000b1	8d 45 dc	 lea	 eax, DWORD PTR _rFocus$4[ebp]
  000b4	50		 push	 eax
  000b5	ff 73 04	 push	 DWORD PTR [ebx+4]
  000b8	ff 15 00 00 00
	00		 call	 DWORD PTR __imp__DrawFocusRect@8
$LN8@DrawItem:
; File D:\git\src\IBK\IBK_DRFN\ProjSrc\SrcDrfn\Chart\ChartUtil\XColourPicker.cpp

; 372  : 	rDraw.DeflateRect(::GetSystemMetrics(SM_CXEDGE),

  000be	8b 3d 00 00 00
	00		 mov	 edi, DWORD PTR __imp__GetSystemMetrics@4
  000c4	6a 2e		 push	 46			; 0000002eH
  000c6	ff d7		 call	 edi
  000c8	6a 2d		 push	 45			; 0000002dH
  000ca	8b f0		 mov	 esi, eax
  000cc	ff d7		 call	 edi
; File C:\Program Files (x86)\Microsoft Visual Studio\2019\Community\VC\Tools\MSVC\14.29.30133\atlmfc\include\atltypes.h

; 698  : 	::InflateRect(this, -x, -y);

  000ce	f7 de		 neg	 esi
  000d0	f7 d8		 neg	 eax
  000d2	56		 push	 esi
  000d3	50		 push	 eax
  000d4	8d 45 ec	 lea	 eax, DWORD PTR _rDraw$[ebp]
  000d7	50		 push	 eax
  000d8	ff 15 00 00 00
	00		 call	 DWORD PTR __imp__InflateRect@12
; File D:\git\src\IBK\IBK_DRFN\ProjSrc\SrcDrfn\Chart\ChartUtil\XColourPicker.cpp

; 378  : 	rArrow.left		= rDraw.right - g_ciArrowSizeX - 2*::GetSystemMetrics(SM_CXEDGE);///2;

  000de	6a 2d		 push	 45			; 0000002dH
  000e0	ff d7		 call	 edi
  000e2	8b 4d f4	 mov	 ecx, DWORD PTR _rDraw$[ebp+8]
  000e5	03 c0		 add	 eax, eax
  000e7	2b c8		 sub	 ecx, eax

; 212  : 	CSize MarginSize(::GetSystemMetrics(SM_CXEDGE), ::GetSystemMetrics(SM_CYEDGE));

  000e9	6a 2e		 push	 46			; 0000002eH

; 378  : 	rArrow.left		= rDraw.right - g_ciArrowSizeX - 2*::GetSystemMetrics(SM_CXEDGE);///2;

  000eb	8d 41 f9	 lea	 eax, DWORD PTR [ecx-7]
  000ee	89 45 d8	 mov	 DWORD PTR _rArrow$$sroa$76$1$[ebp], eax

; 379  : 	rArrow.right	= rArrow.left + g_ciArrowSizeX;
; 380  : 	rArrow.top		= (rDraw.bottom + rDraw.top)/2 - g_ciArrowSizeY / 2;

  000f1	8b 45 f8	 mov	 eax, DWORD PTR _rDraw$[ebp+12]
  000f4	03 45 f0	 add	 eax, DWORD PTR _rDraw$[ebp+4]
  000f7	99		 cdq
  000f8	2b c2		 sub	 eax, edx
  000fa	d1 f8		 sar	 eax, 1
  000fc	83 e8 02	 sub	 eax, 2
  000ff	89 45 d4	 mov	 DWORD PTR _nArrowTop$1$[ebp], eax

; 212  : 	CSize MarginSize(::GetSystemMetrics(SM_CXEDGE), ::GetSystemMetrics(SM_CYEDGE));

  00102	ff d7		 call	 edi
  00104	6a 2d		 push	 45			; 0000002dH
  00106	ff d7		 call	 edi

; 213  : 
; 214  : 	// Get size of dropdown arrow
; 215  : 	int nArrowWidth  = ::GetSystemMetrics(SM_CXHTHUMB) / 3 + 2;

  00108	6a 0a		 push	 10			; 0000000aH
  0010a	ff d7		 call	 edi
  0010c	8b c8		 mov	 ecx, eax
  0010e	b8 56 55 55 55	 mov	 eax, 1431655766		; 55555556H
  00113	f7 e9		 imul	 ecx

; 216  : 	int nArrowHeight = ::GetSystemMetrics(SM_CYVTHUMB) / 3 + 2;

  00115	6a 09		 push	 9
  00117	8b fa		 mov	 edi, edx
  00119	c1 ef 1f	 shr	 edi, 31			; 0000001fH
  0011c	03 fa		 add	 edi, edx
  0011e	ff 15 00 00 00
	00		 call	 DWORD PTR __imp__GetSystemMetrics@4
  00124	8b c8		 mov	 ecx, eax
  00126	b8 56 55 55 55	 mov	 eax, 1431655766		; 55555556H
  0012b	f7 e9		 imul	 ecx
  0012d	8d 47 02	 lea	 eax, DWORD PTR [edi+2]
  00130	8b f2		 mov	 esi, edx
  00132	c1 ee 1f	 shr	 esi, 31			; 0000001fH
  00135	03 f2		 add	 esi, edx
  00137	8d 4e 02	 lea	 ecx, DWORD PTR [esi+2]

; 217  : 	CSize ArrowSize(max(nArrowWidth, nArrowHeight), max(nArrowWidth, nArrowHeight));

  0013a	3b c1		 cmp	 eax, ecx

; 385  : 	int nArrowWidth = SizeArrow.cx; //g_ciArrowSizeX;

  0013c	8b 4d d8	 mov	 ecx, DWORD PTR _rArrow$$sroa$76$1$[ebp]

; 217  : 	CSize ArrowSize(max(nArrowWidth, nArrowHeight), max(nArrowWidth, nArrowHeight));

  0013f	0f 4f f7	 cmovg	 esi, edi
  00142	8d 46 02	 lea	 eax, DWORD PTR [esi+2]
; File C:\Program Files (x86)\Microsoft Visual Studio\2019\Community\VC\Tools\MSVC\14.29.30133\atlmfc\include\atltypes.h

; 312  : 	cx = initCX;

  00145	a8 01		 test	 al, 1
; File D:\git\src\IBK\IBK_DRFN\ProjSrc\SrcDrfn\Chart\ChartUtil\XColourPicker.cpp

; 385  : 	int nArrowWidth = SizeArrow.cx; //g_ciArrowSizeX;

  00147	8d 70 01	 lea	 esi, DWORD PTR [eax+1]
  0014a	0f 45 f0	 cmovne	 esi, eax
  0014d	41		 inc	 ecx

; 388  : 	while (nArrowWidth > 0)

  0014e	85 f6		 test	 esi, esi
  00150	7e 38		 jle	 SHORT $LN3@DrawItem
$LL2@DrawItem:
; File C:\Program Files (x86)\Microsoft Visual Studio\2019\Community\VC\Tools\MSVC\14.29.30133\atlmfc\include\atltypes.h

; 409  : 	y = initY;

  00152	8b 55 d4	 mov	 edx, DWORD PTR _nArrowTop$1$[ebp]
  00155	8b c1		 mov	 eax, ecx
  00157	8b da		 mov	 ebx, edx
  00159	8b f9		 mov	 edi, ecx
; File C:\Program Files (x86)\Microsoft Visual Studio\2019\Community\VC\Tools\MSVC\14.29.30133\atlmfc\include\afxwin1.inl

; 464  : 	{ ASSERT(m_hDC != NULL); return MoveTo(point.x, point.y); }

  0015b	53		 push	 ebx
; File D:\git\src\IBK\IBK_DRFN\ProjSrc\SrcDrfn\Chart\ChartUtil\XColourPicker.cpp

; 391  : 		nArrowLeft += 1;

  0015c	41		 inc	 ecx

; 392  : 		nArrowTop += 1;

  0015d	42		 inc	 edx
; File C:\Program Files (x86)\Microsoft Visual Studio\2019\Community\VC\Tools\MSVC\14.29.30133\atlmfc\include\afxwin1.inl

; 464  : 	{ ASSERT(m_hDC != NULL); return MoveTo(point.x, point.y); }

  0015e	50		 push	 eax
  0015f	8d 45 e4	 lea	 eax, DWORD PTR $T5[ebp]
; File D:\git\src\IBK\IBK_DRFN\ProjSrc\SrcDrfn\Chart\ChartUtil\XColourPicker.cpp

; 391  : 		nArrowLeft += 1;

  00162	89 4d c8	 mov	 DWORD PTR _nArrowLeft$1$[ebp], ecx
; File C:\Program Files (x86)\Microsoft Visual Studio\2019\Community\VC\Tools\MSVC\14.29.30133\atlmfc\include\afxwin1.inl

; 464  : 	{ ASSERT(m_hDC != NULL); return MoveTo(point.x, point.y); }

  00165	8b 4d d0	 mov	 ecx, DWORD PTR _pDC$1$[ebp]
  00168	50		 push	 eax
; File D:\git\src\IBK\IBK_DRFN\ProjSrc\SrcDrfn\Chart\ChartUtil\XColourPicker.cpp

; 392  : 		nArrowTop += 1;

  00169	89 55 d4	 mov	 DWORD PTR _nArrowTop$1$[ebp], edx
; File C:\Program Files (x86)\Microsoft Visual Studio\2019\Community\VC\Tools\MSVC\14.29.30133\atlmfc\include\afxwin1.inl

; 464  : 	{ ASSERT(m_hDC != NULL); return MoveTo(point.x, point.y); }

  0016c	e8 00 00 00 00	 call	 ?MoveTo@CDC@@QAE?AVCPoint@@HH@Z ; CDC::MoveTo
  00171	8d 04 37	 lea	 eax, DWORD PTR [edi+esi]
; File D:\git\src\IBK\IBK_DRFN\ProjSrc\SrcDrfn\Chart\ChartUtil\XColourPicker.cpp

; 395  : 		nArrowWidth -= 2;

  00174	83 ee 02	 sub	 esi, 2
; File C:\Program Files (x86)\Microsoft Visual Studio\2019\Community\VC\Tools\MSVC\14.29.30133\atlmfc\include\afxwin1.inl

; 466  : 	{ ASSERT(m_hDC != NULL); return LineTo(point.x, point.y); }

  00177	53		 push	 ebx
  00178	8b 5d d0	 mov	 ebx, DWORD PTR _pDC$1$[ebp]
  0017b	8b cb		 mov	 ecx, ebx
  0017d	50		 push	 eax
  0017e	e8 00 00 00 00	 call	 ?LineTo@CDC@@QAEHHH@Z	; CDC::LineTo
; File D:\git\src\IBK\IBK_DRFN\ProjSrc\SrcDrfn\Chart\ChartUtil\XColourPicker.cpp

; 388  : 	while (nArrowWidth > 0)

  00183	8b 4d c8	 mov	 ecx, DWORD PTR _nArrowLeft$1$[ebp]
  00186	85 f6		 test	 esi, esi
  00188	7f c8		 jg	 SHORT $LL2@DrawItem
$LN3@DrawItem:

; 399  : 	rDraw.right = rArrow.left - ::GetSystemMetrics(SM_CXEDGE)/2;

  0018a	8b 35 00 00 00
	00		 mov	 esi, DWORD PTR __imp__GetSystemMetrics@4
  00190	6a 2d		 push	 45			; 0000002dH
  00192	ff d6		 call	 esi
  00194	8b 4d d8	 mov	 ecx, DWORD PTR _rArrow$$sroa$76$1$[ebp]
  00197	99		 cdq
  00198	2b c2		 sub	 eax, edx
  0019a	d1 f8		 sar	 eax, 1
; File C:\Program Files (x86)\Microsoft Visual Studio\2019\Community\VC\Tools\MSVC\14.29.30133\atlmfc\include\afxwin1.inl

; 510  : 	{ ASSERT(m_hDC != NULL); return ::DrawEdge(m_hDC, lpRect, nEdge, nFlags); }

  0019c	6a 04		 push	 4
; File D:\git\src\IBK\IBK_DRFN\ProjSrc\SrcDrfn\Chart\ChartUtil\XColourPicker.cpp

; 399  : 	rDraw.right = rArrow.left - ::GetSystemMetrics(SM_CXEDGE)/2;

  0019e	2b c8		 sub	 ecx, eax
; File C:\Program Files (x86)\Microsoft Visual Studio\2019\Community\VC\Tools\MSVC\14.29.30133\atlmfc\include\afxwin1.inl

; 510  : 	{ ASSERT(m_hDC != NULL); return ::DrawEdge(m_hDC, lpRect, nEdge, nFlags); }

  001a0	8d 45 ec	 lea	 eax, DWORD PTR _rDraw$[ebp]
  001a3	6a 06		 push	 6
  001a5	50		 push	 eax
; File D:\git\src\IBK\IBK_DRFN\ProjSrc\SrcDrfn\Chart\ChartUtil\XColourPicker.cpp

; 399  : 	rDraw.right = rArrow.left - ::GetSystemMetrics(SM_CXEDGE)/2;

  001a6	89 4d f4	 mov	 DWORD PTR _rDraw$[ebp+8], ecx
; File C:\Program Files (x86)\Microsoft Visual Studio\2019\Community\VC\Tools\MSVC\14.29.30133\atlmfc\include\afxwin1.inl

; 510  : 	{ ASSERT(m_hDC != NULL); return ::DrawEdge(m_hDC, lpRect, nEdge, nFlags); }

  001a9	ff 73 04	 push	 DWORD PTR [ebx+4]
  001ac	ff 15 00 00 00
	00		 call	 DWORD PTR __imp__DrawEdge@16
; File D:\git\src\IBK\IBK_DRFN\ProjSrc\SrcDrfn\Chart\ChartUtil\XColourPicker.cpp

; 408  : 	rDraw.right -= (::GetSystemMetrics(SM_CXEDGE) * 2) + 1 ;

  001b2	6a 2d		 push	 45			; 0000002dH
  001b4	ff d6		 call	 esi
  001b6	03 c0		 add	 eax, eax
  001b8	83 c9 ff	 or	 ecx, -1
  001bb	2b c8		 sub	 ecx, eax
  001bd	01 4d f4	 add	 DWORD PTR _rDraw$[ebp+8], ecx

; 409  : 
; 410  : 	//******************************************************
; 411  : 	//**                     Draw Color
; 412  : 	//******************************************************
; 413  : 	if ((state & ODS_DISABLED) == 0)

  001c0	83 7d c4 00	 cmp	 DWORD PTR tv655[ebp], 0
  001c4	75 38		 jne	 SHORT $LN9@DrawItem

; 414  : 	{
; 415  : 		pDC->FillSolidRect(&rDraw,

  001c6	8b 4d cc	 mov	 ecx, DWORD PTR _this$GSCopy$1$[ebp]
  001c9	8b 81 8c 00 00
	00		 mov	 eax, DWORD PTR [ecx+140]
  001cf	3d 00 00 00 ff	 cmp	 eax, -16777216		; ff000000H
  001d4	75 06		 jne	 SHORT $LN11@DrawItem
  001d6	8b 81 e4 00 00
	00		 mov	 eax, DWORD PTR [ecx+228]
$LN11@DrawItem:
  001dc	50		 push	 eax
  001dd	8d 45 ec	 lea	 eax, DWORD PTR _rDraw$[ebp]
  001e0	8b cb		 mov	 ecx, ebx
  001e2	50		 push	 eax
  001e3	e8 00 00 00 00	 call	 ?FillSolidRect@CDC@@QAEXPBUtagRECT@@K@Z ; CDC::FillSolidRect

; 416  : 						   (m_crColor == CLR_DEFAULT)
; 417  : 						   ? m_DefaultColor
; 418  : 						   : m_crColor);
; 419  : 
; 420  : 		::FrameRect(pDC->m_hDC,

  001e8	6a 04		 push	 4
  001ea	ff 15 00 00 00
	00		 call	 DWORD PTR __imp__GetStockObject@4
  001f0	50		 push	 eax
  001f1	8d 45 ec	 lea	 eax, DWORD PTR _rDraw$[ebp]
  001f4	50		 push	 eax
  001f5	ff 73 04	 push	 DWORD PTR [ebx+4]
  001f8	ff 15 00 00 00
	00		 call	 DWORD PTR __imp__FrameRect@12
$LN9@DrawItem:

; 421  : 					&rDraw,
; 422  : 					(HBRUSH)::GetStockObject(BLACK_BRUSH));
; 423  : 	}
; 424  : }

  001fe	8b 4d fc	 mov	 ecx, DWORD PTR __$ArrayPad$[ebp]
  00201	5f		 pop	 edi
  00202	5e		 pop	 esi
  00203	33 cd		 xor	 ecx, ebp
  00205	5b		 pop	 ebx
  00206	e8 00 00 00 00	 call	 @__security_check_cookie@4
  0020b	8b e5		 mov	 esp, ebp
  0020d	5d		 pop	 ebp
  0020e	c2 04 00	 ret	 4
?DrawItem@CXColourPicker@@UAEXPAUtagDRAWITEMSTRUCT@@@Z ENDP ; CXColourPicker::DrawItem
_TEXT	ENDS
; Function compile flags: /Ogtp
; File D:\git\src\IBK\IBK_DRFN\ProjSrc\SrcDrfn\Chart\ChartUtil\XColourPicker.cpp
; File C:\Program Files (x86)\Microsoft Visual Studio\2019\Community\VC\Tools\MSVC\14.29.30133\atlmfc\include\atlsimpstr.h
; File D:\git\src\IBK\IBK_DRFN\ProjSrc\SrcDrfn\Chart\ChartUtil\XColourPicker.cpp
; File C:\Program Files (x86)\Microsoft Visual Studio\2019\Community\VC\Tools\MSVC\14.29.30133\atlmfc\include\atlsimpstr.h
; File D:\git\src\IBK\IBK_DRFN\ProjSrc\SrcDrfn\Chart\ChartUtil\XColourPicker.cpp
;	COMDAT ?GetCustomColors@CXColourPicker@@QAE?AV?$CStringT@DV?$StrTraitMFC_DLL@DV?$ChTraitsCRT@D@ATL@@@@@ATL@@XZ
_TEXT	SEGMENT
$T2 = -20						; size = 4
_str$ = -16						; size = 4
__$EHRec$ = -12						; size = 12
___$ReturnUdt$ = 8					; size = 4
?GetCustomColors@CXColourPicker@@QAE?AV?$CStringT@DV?$StrTraitMFC_DLL@DV?$ChTraitsCRT@D@ATL@@@@@ATL@@XZ PROC ; CXColourPicker::GetCustomColors, COMDAT
; _this$ = ecx

; 283  : {

  00000	55		 push	 ebp
  00001	8b ec		 mov	 ebp, esp
  00003	6a ff		 push	 -1
  00005	68 00 00 00 00	 push	 __ehhandler$?GetCustomColors@CXColourPicker@@QAE?AV?$CStringT@DV?$StrTraitMFC_DLL@DV?$ChTraitsCRT@D@ATL@@@@@ATL@@XZ
  0000a	64 a1 00 00 00
	00		 mov	 eax, DWORD PTR fs:0
  00010	50		 push	 eax
  00011	83 ec 08	 sub	 esp, 8
  00014	53		 push	 ebx
  00015	56		 push	 esi
  00016	57		 push	 edi
  00017	a1 00 00 00 00	 mov	 eax, DWORD PTR ___security_cookie
  0001c	33 c5		 xor	 eax, ebp
  0001e	50		 push	 eax
  0001f	8d 45 f4	 lea	 eax, DWORD PTR __$EHRec$[ebp]
  00022	64 a3 00 00 00
	00		 mov	 DWORD PTR fs:0, eax
  00028	8b f1		 mov	 esi, ecx
  0002a	c7 45 ec 00 00
	00 00		 mov	 DWORD PTR $T2[ebp], 0

; 284  : 	CString strCustomColors = _T("");

  00031	8b 7d 08	 mov	 edi, DWORD PTR ___$ReturnUdt$[ebp]
  00034	8b cf		 mov	 ecx, edi
  00036	68 00 00 00 00	 push	 OFFSET ??_C@_00CNPNBAHC@@
  0003b	c7 45 fc 00 00
	00 00		 mov	 DWORD PTR __$EHRec$[ebp+8], 0
  00042	ff 15 00 00 00
	00		 call	 DWORD PTR __imp_??0?$CStringT@DV?$StrTraitMFC_DLL@DV?$ChTraitsCRT@D@ATL@@@@@ATL@@QAE@PBD@Z

; 292  : 	}
; 293  : 	return strCustomColors;

  00048	68 00 00 00 00	 push	 OFFSET ??_C@_00CNPNBAHC@@
  0004d	8d 4d f0	 lea	 ecx, DWORD PTR _str$[ebp]
  00050	c7 45 fc 00 00
	00 00		 mov	 DWORD PTR __$EHRec$[ebp+8], 0
  00057	c7 45 ec 01 00
	00 00		 mov	 DWORD PTR $T2[ebp], 1
  0005e	ff 15 00 00 00
	00		 call	 DWORD PTR __imp_??0?$CStringT@DV?$StrTraitMFC_DLL@DV?$ChTraitsCRT@D@ATL@@@@@ATL@@QAE@PBD@Z
  00064	c7 45 fc 01 00
	00 00		 mov	 DWORD PTR __$EHRec$[ebp+8], 1
  0006b	81 c6 94 00 00
	00		 add	 esi, 148		; 00000094H
  00071	bb 10 00 00 00	 mov	 ebx, 16			; 00000010H
$LL4@GetCustomC:

; 288  : 		str.Format(_T("%06X"), m_CustomColors[i]);

  00076	ff 36		 push	 DWORD PTR [esi]
  00078	8d 45 f0	 lea	 eax, DWORD PTR _str$[ebp]
  0007b	68 00 00 00 00	 push	 OFFSET ??_C@_04JCFDBOEJ@?$CF06X@
  00080	50		 push	 eax
  00081	ff 15 00 00 00
	00		 call	 DWORD PTR __imp_?Format@?$CStringT@DV?$StrTraitMFC_DLL@DV?$ChTraitsCRT@D@ATL@@@@@ATL@@QAAXPBDZZ
; File C:\Program Files (x86)\Microsoft Visual Studio\2019\Community\VC\Tools\MSVC\14.29.30133\atlmfc\include\atlsimpstr.h

; 533  : 		return( GetLength() == 0 );

  00087	8b 07		 mov	 eax, DWORD PTR [edi]
; File D:\git\src\IBK\IBK_DRFN\ProjSrc\SrcDrfn\Chart\ChartUtil\XColourPicker.cpp

; 288  : 		str.Format(_T("%06X"), m_CustomColors[i]);

  00089	83 c4 0c	 add	 esp, 12			; 0000000cH
; File C:\Program Files (x86)\Microsoft Visual Studio\2019\Community\VC\Tools\MSVC\14.29.30133\atlmfc\include\atlsimpstr.h

; 533  : 		return( GetLength() == 0 );

  0008c	83 78 f4 00	 cmp	 DWORD PTR [eax-12], 0
; File D:\git\src\IBK\IBK_DRFN\ProjSrc\SrcDrfn\Chart\ChartUtil\XColourPicker.cpp

; 289  : 		if (!strCustomColors.IsEmpty())

  00090	74 0d		 je	 SHORT $LN5@GetCustomC

; 290  : 			strCustomColors += _T(" ");

  00092	68 00 00 00 00	 push	 OFFSET ??_C@_01CLKCMJKC@?5@
  00097	8b cf		 mov	 ecx, edi
  00099	ff 15 00 00 00
	00		 call	 DWORD PTR __imp_??Y?$CStringT@DV?$StrTraitMFC_DLL@DV?$ChTraitsCRT@D@ATL@@@@@ATL@@QAEAAV01@PBD@Z
$LN5@GetCustomC:

; 291  : 		strCustomColors += str;

  0009f	8d 45 f0	 lea	 eax, DWORD PTR _str$[ebp]
  000a2	8b cf		 mov	 ecx, edi
  000a4	50		 push	 eax
  000a5	ff 15 00 00 00
	00		 call	 DWORD PTR __imp_??Y?$CStringT@DV?$StrTraitMFC_DLL@DV?$ChTraitsCRT@D@ATL@@@@@ATL@@QAEAAV01@ABV?$CSimpleStringT@D$00@1@@Z
  000ab	83 c6 04	 add	 esi, 4
  000ae	83 eb 01	 sub	 ebx, 1
  000b1	75 c3		 jne	 SHORT $LL4@GetCustomC

; 292  : 	}
; 293  : 	return strCustomColors;

  000b3	8d 4d f0	 lea	 ecx, DWORD PTR _str$[ebp]
  000b6	ff 15 00 00 00
	00		 call	 DWORD PTR __imp_??1?$CStringT@DV?$StrTraitMFC_DLL@DV?$ChTraitsCRT@D@ATL@@@@@ATL@@QAE@XZ
  000bc	8b c7		 mov	 eax, edi

; 294  : }

  000be	8b 4d f4	 mov	 ecx, DWORD PTR __$EHRec$[ebp]
  000c1	64 89 0d 00 00
	00 00		 mov	 DWORD PTR fs:0, ecx
  000c8	59		 pop	 ecx
  000c9	5f		 pop	 edi
  000ca	5e		 pop	 esi
  000cb	5b		 pop	 ebx
  000cc	8b e5		 mov	 esp, ebp
  000ce	5d		 pop	 ebp
  000cf	c2 04 00	 ret	 4
_TEXT	ENDS
;	COMDAT text$x
text$x	SEGMENT
__unwindfunclet$?GetCustomColors@CXColourPicker@@QAE?AV?$CStringT@DV?$StrTraitMFC_DLL@DV?$ChTraitsCRT@D@ATL@@@@@ATL@@XZ$0:
  00000	8b 45 ec	 mov	 eax, DWORD PTR $T2[ebp]
  00003	83 e0 01	 and	 eax, 1
  00006	0f 84 0d 00 00
	00		 je	 $LN8@GetCustomC
  0000c	83 65 ec fe	 and	 DWORD PTR $T2[ebp], -2	; fffffffeH
  00010	8b 4d 08	 mov	 ecx, DWORD PTR ___$ReturnUdt$[ebp]
  00013	ff 25 00 00 00
	00		 jmp	 DWORD PTR __imp_??1?$CStringT@DV?$StrTraitMFC_DLL@DV?$ChTraitsCRT@D@ATL@@@@@ATL@@QAE@XZ
$LN8@GetCustomC:
  00019	c3		 ret	 0
__unwindfunclet$?GetCustomColors@CXColourPicker@@QAE?AV?$CStringT@DV?$StrTraitMFC_DLL@DV?$ChTraitsCRT@D@ATL@@@@@ATL@@XZ$1:
  0001a	8d 4d f0	 lea	 ecx, DWORD PTR _str$[ebp]
  0001d	ff 25 00 00 00
	00		 jmp	 DWORD PTR __imp_??1?$CStringT@DV?$StrTraitMFC_DLL@DV?$ChTraitsCRT@D@ATL@@@@@ATL@@QAE@XZ
  00023	cc		 int	 3
  00024	cc		 int	 3
  00025	cc		 int	 3
  00026	cc		 int	 3
  00027	cc		 int	 3
__ehhandler$?GetCustomColors@CXColourPicker@@QAE?AV?$CStringT@DV?$StrTraitMFC_DLL@DV?$ChTraitsCRT@D@ATL@@@@@ATL@@XZ:
  00028	90		 npad	 1
  00029	90		 npad	 1
  0002a	8b 54 24 08	 mov	 edx, DWORD PTR [esp+8]
  0002e	8d 42 0c	 lea	 eax, DWORD PTR [edx+12]
  00031	8b 4a e8	 mov	 ecx, DWORD PTR [edx-24]
  00034	33 c8		 xor	 ecx, eax
  00036	e8 00 00 00 00	 call	 @__security_check_cookie@4
  0003b	b8 00 00 00 00	 mov	 eax, OFFSET __ehfuncinfo$?GetCustomColors@CXColourPicker@@QAE?AV?$CStringT@DV?$StrTraitMFC_DLL@DV?$ChTraitsCRT@D@ATL@@@@@ATL@@XZ
  00040	e9 00 00 00 00	 jmp	 ___CxxFrameHandler3
text$x	ENDS
?GetCustomColors@CXColourPicker@@QAE?AV?$CStringT@DV?$StrTraitMFC_DLL@DV?$ChTraitsCRT@D@ATL@@@@@ATL@@XZ ENDP ; CXColourPicker::GetCustomColors
; Function compile flags: /Ogtp
; File D:\git\src\IBK\IBK_DRFN\ProjSrc\SrcDrfn\Chart\ChartUtil\XColourPicker.cpp
; File C:\Program Files (x86)\Windows Kits\10\Include\10.0.22000.0\ucrt\tchar.h
; File D:\git\src\IBK\IBK_DRFN\ProjSrc\SrcDrfn\Chart\ChartUtil\XColourPicker.cpp
; File C:\Program Files (x86)\Windows Kits\10\Include\10.0.22000.0\ucrt\tchar.h
; File D:\git\src\IBK\IBK_DRFN\ProjSrc\SrcDrfn\Chart\ChartUtil\XColourPicker.cpp
; File C:\Program Files (x86)\Windows Kits\10\Include\10.0.22000.0\ucrt\tchar.h
; File D:\git\src\IBK\IBK_DRFN\ProjSrc\SrcDrfn\Chart\ChartUtil\XColourPicker.cpp
; File C:\Program Files (x86)\Windows Kits\10\Include\10.0.22000.0\ucrt\tchar.h
; File D:\git\src\IBK\IBK_DRFN\ProjSrc\SrcDrfn\Chart\ChartUtil\XColourPicker.cpp
;	COMDAT ?SetCustomColors@CXColourPicker@@QAEXPBD@Z
_TEXT	SEGMENT
_szCustomColors$ = -260					; size = 256
__$ArrayPad$ = -4					; size = 4
_lpszCustomColors$ = 8					; size = 4
?SetCustomColors@CXColourPicker@@QAEXPBD@Z PROC		; CXColourPicker::SetCustomColors, COMDAT
; _this$ = ecx

; 255  : {

  00000	55		 push	 ebp
  00001	8b ec		 mov	 ebp, esp
  00003	81 ec 04 01 00
	00		 sub	 esp, 260		; 00000104H
  00009	a1 00 00 00 00	 mov	 eax, DWORD PTR ___security_cookie
  0000e	33 c5		 xor	 eax, ebp
  00010	89 45 fc	 mov	 DWORD PTR __$ArrayPad$[ebp], eax
  00013	0f 28 05 00 00
	00 00		 movaps	 xmm0, XMMWORD PTR __xmm@00ffffff00ffffff00ffffff00ffffff
  0001a	56		 push	 esi
  0001b	8d b1 94 00 00
	00		 lea	 esi, DWORD PTR [ecx+148]
  00021	0f 11 06	 movups	 XMMWORD PTR [esi], xmm0
  00024	57		 push	 edi
  00025	8b 7d 08	 mov	 edi, DWORD PTR _lpszCustomColors$[ebp]
  00028	0f 11 46 10	 movups	 XMMWORD PTR [esi+16], xmm0
  0002c	0f 11 46 20	 movups	 XMMWORD PTR [esi+32], xmm0
  00030	0f 11 46 30	 movups	 XMMWORD PTR [esi+48], xmm0

; 256  : 	int i = 0;
; 257  : 
; 258  : 	// initialize to white
; 259  : 	for (i = 0; i < 16; i++)
; 260  : 		m_CustomColors[i] = RGB(255,255,255);
; 261  : 
; 262  : 	ASSERT(lpszCustomColors);
; 263  : 	if (lpszCustomColors == NULL)

  00034	85 ff		 test	 edi, edi
  00036	74 67		 je	 SHORT $LN26@SetCustomC

; 264  : 		return;
; 265  : 
; 266  : 	TCHAR szCustomColors[256];
; 267  : 	memset(szCustomColors, 0, sizeof(szCustomColors));

  00038	53		 push	 ebx
  00039	68 00 01 00 00	 push	 256			; 00000100H
  0003e	8d 85 fc fe ff
	ff		 lea	 eax, DWORD PTR _szCustomColors$[ebp]
  00044	6a 00		 push	 0
  00046	50		 push	 eax
  00047	e8 00 00 00 00	 call	 _memset
; File C:\Program Files (x86)\Windows Kits\10\Include\10.0.22000.0\ucrt\tchar.h

; 1528 :     return (char *)_mbsnbcpy((unsigned char *)_Dst,(const unsigned char *)_Source,_Count);

  0004c	68 fe 00 00 00	 push	 254			; 000000feH
  00051	8d 85 fc fe ff
	ff		 lea	 eax, DWORD PTR _szCustomColors$[ebp]
  00057	57		 push	 edi
  00058	50		 push	 eax
  00059	ff 15 00 00 00
	00		 call	 DWORD PTR __imp___mbsnbcpy

; 1554 :         return (char * )_mbstok((unsigned char *)_String,(const unsigned char *)_Delimiters);

  0005f	8b 1d 00 00 00
	00		 mov	 ebx, DWORD PTR __imp___mbstok
  00065	8d 85 fc fe ff
	ff		 lea	 eax, DWORD PTR _szCustomColors$[ebp]
  0006b	68 00 00 00 00	 push	 OFFSET ??_C@_01CLKCMJKC@?5@
  00070	50		 push	 eax
  00071	ff d3		 call	 ebx
  00073	83 c4 20	 add	 esp, 32			; 00000020H
; File D:\git\src\IBK\IBK_DRFN\ProjSrc\SrcDrfn\Chart\ChartUtil\XColourPicker.cpp

; 273  : 	for (i = 0; i < 16; i++)

  00076	33 ff		 xor	 edi, edi
$LL7@SetCustomC:

; 274  : 	{
; 275  : 		if (!cp)

  00078	85 c0		 test	 eax, eax
  0007a	74 22		 je	 SHORT $LN27@SetCustomC

; 277  : 		m_CustomColors[i] = _tcstoul(cp, NULL, 16);

  0007c	6a 10		 push	 16			; 00000010H
  0007e	6a 00		 push	 0
  00080	50		 push	 eax
  00081	ff 15 00 00 00
	00		 call	 DWORD PTR __imp__strtoul
; File C:\Program Files (x86)\Windows Kits\10\Include\10.0.22000.0\ucrt\tchar.h

; 1554 :         return (char * )_mbstok((unsigned char *)_String,(const unsigned char *)_Delimiters);

  00087	68 00 00 00 00	 push	 OFFSET ??_C@_01CLKCMJKC@?5@
  0008c	6a 00		 push	 0
; File D:\git\src\IBK\IBK_DRFN\ProjSrc\SrcDrfn\Chart\ChartUtil\XColourPicker.cpp

; 277  : 		m_CustomColors[i] = _tcstoul(cp, NULL, 16);

  0008e	89 06		 mov	 DWORD PTR [esi], eax
; File C:\Program Files (x86)\Windows Kits\10\Include\10.0.22000.0\ucrt\tchar.h

; 1554 :         return (char * )_mbstok((unsigned char *)_String,(const unsigned char *)_Delimiters);

  00090	ff d3		 call	 ebx
; File D:\git\src\IBK\IBK_DRFN\ProjSrc\SrcDrfn\Chart\ChartUtil\XColourPicker.cpp

; 273  : 	for (i = 0; i < 16; i++)

  00092	47		 inc	 edi
; File C:\Program Files (x86)\Windows Kits\10\Include\10.0.22000.0\ucrt\tchar.h

; 1554 :         return (char * )_mbstok((unsigned char *)_String,(const unsigned char *)_Delimiters);

  00093	83 c4 14	 add	 esp, 20			; 00000014H
; File D:\git\src\IBK\IBK_DRFN\ProjSrc\SrcDrfn\Chart\ChartUtil\XColourPicker.cpp

; 273  : 	for (i = 0; i < 16; i++)

  00096	83 c6 04	 add	 esi, 4
  00099	83 ff 10	 cmp	 edi, 16			; 00000010H
  0009c	7c da		 jl	 SHORT $LL7@SetCustomC
$LN27@SetCustomC:
  0009e	5b		 pop	 ebx
$LN26@SetCustomC:

; 278  : 		cp = _tcstok(NULL, _T(" "));
; 279  : 	}
; 280  : }

  0009f	8b 4d fc	 mov	 ecx, DWORD PTR __$ArrayPad$[ebp]
  000a2	5f		 pop	 edi
  000a3	33 cd		 xor	 ecx, ebp
  000a5	5e		 pop	 esi
  000a6	e8 00 00 00 00	 call	 @__security_check_cookie@4
  000ab	8b e5		 mov	 esp, ebp
  000ad	5d		 pop	 ebp
  000ae	c2 04 00	 ret	 4
?SetCustomColors@CXColourPicker@@QAEXPBD@Z ENDP		; CXColourPicker::SetCustomColors
_TEXT	ENDS
; Function compile flags: /Ogtp
; File D:\git\src\IBK\IBK_DRFN\ProjSrc\SrcDrfn\Chart\ChartUtil\XColourPicker.cpp
;	COMDAT ?GetCustomColors@CXColourPicker@@QAEXPAK@Z
_TEXT	SEGMENT
_pCustomColors$ = 8					; size = 4
?GetCustomColors@CXColourPicker@@QAEXPAK@Z PROC		; CXColourPicker::GetCustomColors, COMDAT
; _this$ = ecx

; 248  : {

  00000	55		 push	 ebp
  00001	8b ec		 mov	 ebp, esp
  00003	56		 push	 esi

; 249  : 	ASSERT(pCustomColors);
; 250  : 	for (int i = 0; i < 16; i++)

  00004	8b 75 08	 mov	 esi, DWORD PTR _pCustomColors$[ebp]
  00007	8d 91 94 00 00
	00		 lea	 edx, DWORD PTR [ecx+148]
  0000d	33 c0		 xor	 eax, eax
  0000f	90		 npad	 1
$LL4@GetCustomC:

; 251  : 		pCustomColors[i] = m_CustomColors[i];

  00010	8b 0a		 mov	 ecx, DWORD PTR [edx]
  00012	8d 52 04	 lea	 edx, DWORD PTR [edx+4]
  00015	89 0c 86	 mov	 DWORD PTR [esi+eax*4], ecx
  00018	40		 inc	 eax
  00019	83 f8 10	 cmp	 eax, 16			; 00000010H
  0001c	7c f2		 jl	 SHORT $LL4@GetCustomC

; 252  : }

  0001e	5e		 pop	 esi
  0001f	5d		 pop	 ebp
  00020	c2 04 00	 ret	 4
?GetCustomColors@CXColourPicker@@QAEXPAK@Z ENDP		; CXColourPicker::GetCustomColors
_TEXT	ENDS
; Function compile flags: /Ogtp
; File D:\git\src\IBK\IBK_DRFN\ProjSrc\SrcDrfn\Chart\ChartUtil\XColourPicker.cpp
;	COMDAT ?SetCustomColors@CXColourPicker@@QAEXPAK@Z
_TEXT	SEGMENT
_pCustomColors$ = 8					; size = 4
?SetCustomColors@CXColourPicker@@QAEXPAK@Z PROC		; CXColourPicker::SetCustomColors, COMDAT
; _this$ = ecx

; 241  : {

  00000	55		 push	 ebp
  00001	8b ec		 mov	 ebp, esp
  00003	56		 push	 esi

; 242  : 	ASSERT(pCustomColors);
; 243  : 	for (int i = 0; i < 16; i++)

  00004	8b 75 08	 mov	 esi, DWORD PTR _pCustomColors$[ebp]
  00007	8d 91 94 00 00
	00		 lea	 edx, DWORD PTR [ecx+148]
  0000d	33 c0		 xor	 eax, eax
  0000f	90		 npad	 1
$LL4@SetCustomC:

; 244  : 		m_CustomColors[i] = pCustomColors[i];

  00010	8b 0c 86	 mov	 ecx, DWORD PTR [esi+eax*4]
  00013	8d 52 04	 lea	 edx, DWORD PTR [edx+4]
  00016	40		 inc	 eax
  00017	89 4a fc	 mov	 DWORD PTR [edx-4], ecx
  0001a	83 f8 10	 cmp	 eax, 16			; 00000010H
  0001d	7c f1		 jl	 SHORT $LL4@SetCustomC

; 245  : }

  0001f	5e		 pop	 esi
  00020	5d		 pop	 ebp
  00021	c2 04 00	 ret	 4
?SetCustomColors@CXColourPicker@@QAEXPAK@Z ENDP		; CXColourPicker::SetCustomColors
_TEXT	ENDS
; Function compile flags: /Ogtp
; File D:\git\src\IBK\IBK_DRFN\ProjSrc\SrcDrfn\Chart\ChartUtil\XColourPicker.cpp
;	COMDAT ?GetColor@CXColourPicker@@QAEKXZ
_TEXT	SEGMENT
?GetColor@CXColourPicker@@QAEKXZ PROC			; CXColourPicker::GetColor, COMDAT
; _this$ = ecx

; 237  : 	return m_crColor;

  00000	8b 81 8c 00 00
	00		 mov	 eax, DWORD PTR [ecx+140]

; 238  : }

  00006	c3		 ret	 0
?GetColor@CXColourPicker@@QAEKXZ ENDP			; CXColourPicker::GetColor
_TEXT	ENDS
; Function compile flags: /Ogtp
; File D:\git\src\IBK\IBK_DRFN\ProjSrc\SrcDrfn\Chart\ChartUtil\XColourPicker.cpp
; File C:\Program Files (x86)\Microsoft Visual Studio\2019\Community\VC\Tools\MSVC\14.29.30133\atlmfc\include\afxwin2.inl
; File D:\git\src\IBK\IBK_DRFN\ProjSrc\SrcDrfn\Chart\ChartUtil\XColourPicker.cpp
; File C:\Program Files (x86)\Microsoft Visual Studio\2019\Community\VC\Tools\MSVC\14.29.30133\atlmfc\include\afxwin2.inl
; File D:\git\src\IBK\IBK_DRFN\ProjSrc\SrcDrfn\Chart\ChartUtil\XColourPicker.cpp
;	COMDAT ?SetColor@CXColourPicker@@QAEXK@Z
_TEXT	SEGMENT
_crColor$ = 8						; size = 4
?SetColor@CXColourPicker@@QAEXK@Z PROC			; CXColourPicker::SetColor, COMDAT
; _this$ = ecx

; 230  : {

  00000	55		 push	 ebp
  00001	8b ec		 mov	 ebp, esp

; 231  : 	m_crEnabledColor = m_crColor = crColor;

  00003	8b 45 08	 mov	 eax, DWORD PTR _crColor$[ebp]
; File C:\Program Files (x86)\Microsoft Visual Studio\2019\Community\VC\Tools\MSVC\14.29.30133\atlmfc\include\afxwin2.inl

; 142  : 	{ ASSERT(::IsWindow(m_hWnd)); return ::RedrawWindow(m_hWnd, lpRectUpdate, (HRGN)prgnUpdate->GetSafeHandle(), flags); }

  00006	68 05 01 00 00	 push	 261			; 00000105H
  0000b	6a 00		 push	 0
  0000d	6a 00		 push	 0
  0000f	ff 71 20	 push	 DWORD PTR [ecx+32]
; File D:\git\src\IBK\IBK_DRFN\ProjSrc\SrcDrfn\Chart\ChartUtil\XColourPicker.cpp

; 231  : 	m_crEnabledColor = m_crColor = crColor;

  00012	89 81 8c 00 00
	00		 mov	 DWORD PTR [ecx+140], eax
  00018	89 81 90 00 00
	00		 mov	 DWORD PTR [ecx+144], eax
; File C:\Program Files (x86)\Microsoft Visual Studio\2019\Community\VC\Tools\MSVC\14.29.30133\atlmfc\include\afxwin2.inl

; 142  : 	{ ASSERT(::IsWindow(m_hWnd)); return ::RedrawWindow(m_hWnd, lpRectUpdate, (HRGN)prgnUpdate->GetSafeHandle(), flags); }

  0001e	ff 15 00 00 00
	00		 call	 DWORD PTR __imp__RedrawWindow@16
; File D:\git\src\IBK\IBK_DRFN\ProjSrc\SrcDrfn\Chart\ChartUtil\XColourPicker.cpp

; 233  : }

  00024	5d		 pop	 ebp
  00025	c2 04 00	 ret	 4
?SetColor@CXColourPicker@@QAEXK@Z ENDP			; CXColourPicker::SetColor
_TEXT	ENDS
; Function compile flags: /Ogtp
; File D:\git\src\IBK\IBK_DRFN\ProjSrc\SrcDrfn\Chart\ChartUtil\XColourPicker.cpp
;	COMDAT ??1CXColourPicker@@UAE@XZ
_TEXT	SEGMENT
??1CXColourPicker@@UAE@XZ PROC				; CXColourPicker::~CXColourPicker, COMDAT
; _this$ = ecx

; 119  : {

  00000	c7 01 00 00 00
	00		 mov	 DWORD PTR [ecx], OFFSET ??_7CXColourPicker@@6B@

; 120  : }

  00006	e9 00 00 00 00	 jmp	 ??1CButton@@UAE@XZ	; CButton::~CButton
??1CXColourPicker@@UAE@XZ ENDP				; CXColourPicker::~CXColourPicker
_TEXT	ENDS
; Function compile flags: /Ogtp
; File D:\git\src\IBK\IBK_DRFN\ProjSrc\SrcDrfn\Chart\ChartUtil\XColourPicker.cpp
; File C:\Program Files (x86)\Microsoft Visual Studio\2019\Community\VC\Tools\MSVC\14.29.30133\atlmfc\include\afxwin2.inl
; File D:\git\src\IBK\IBK_DRFN\ProjSrc\SrcDrfn\Chart\ChartUtil\XColourPicker.cpp
; File C:\Program Files (x86)\Microsoft Visual Studio\2019\Community\VC\Tools\MSVC\14.29.30133\atlmfc\include\atltypes.h
; File D:\git\src\IBK\IBK_DRFN\ProjSrc\SrcDrfn\Chart\ChartUtil\XColourPicker.cpp
; File C:\Program Files (x86)\Microsoft Visual Studio\2019\Community\VC\Tools\MSVC\14.29.30133\atlmfc\include\afxwin2.inl
; File D:\git\src\IBK\IBK_DRFN\ProjSrc\SrcDrfn\Chart\ChartUtil\XColourPicker.cpp
; File C:\Program Files (x86)\Microsoft Visual Studio\2019\Community\VC\Tools\MSVC\14.29.30133\atlmfc\include\afxwin2.inl
; File D:\git\src\IBK\IBK_DRFN\ProjSrc\SrcDrfn\Chart\ChartUtil\XColourPicker.cpp
;	COMDAT ??0CXColourPicker@@QAE@XZ
_TEXT	SEGMENT
_this$ = -4						; size = 4
??0CXColourPicker@@QAE@XZ PROC				; CXColourPicker::CXColourPicker, COMDAT
; _this$ = ecx

; 104  : {

  00000	55		 push	 ebp
  00001	8b ec		 mov	 ebp, esp
  00003	51		 push	 ecx
  00004	57		 push	 edi
  00005	8b f9		 mov	 edi, ecx
  00007	89 7d fc	 mov	 DWORD PTR _this$[ebp], edi
; File C:\Program Files (x86)\Microsoft Visual Studio\2019\Community\VC\Tools\MSVC\14.29.30133\atlmfc\include\afxwin2.inl

; 622  : 	{ }

  0000a	e8 00 00 00 00	 call	 ??0CWnd@@QAE@XZ		; CWnd::CWnd
; File D:\git\src\IBK\IBK_DRFN\ProjSrc\SrcDrfn\Chart\ChartUtil\XColourPicker.cpp

; 104  : {

  0000f	c7 07 00 00 00
	00		 mov	 DWORD PTR [edi], OFFSET ??_7CXColourPicker@@6B@

; 105  : 	m_crEnabledColor = m_crColor = ::GetSysColor(COLOR_3DFACE);    // initial color

  00015	6a 0f		 push	 15			; 0000000fH
; File C:\Program Files (x86)\Microsoft Visual Studio\2019\Community\VC\Tools\MSVC\14.29.30133\atlmfc\include\atltypes.h

; 528  : 	left = 0;

  00017	c7 87 d4 00 00
	00 00 00 00 00	 mov	 DWORD PTR [edi+212], 0

; 529  : 	top = 0;

  00021	c7 87 d8 00 00
	00 00 00 00 00	 mov	 DWORD PTR [edi+216], 0

; 530  : 	right = 0;

  0002b	c7 87 dc 00 00
	00 00 00 00 00	 mov	 DWORD PTR [edi+220], 0

; 531  : 	bottom = 0;

  00035	c7 87 e0 00 00
	00 00 00 00 00	 mov	 DWORD PTR [edi+224], 0
; File D:\git\src\IBK\IBK_DRFN\ProjSrc\SrcDrfn\Chart\ChartUtil\XColourPicker.cpp

; 105  : 	m_crEnabledColor = m_crColor = ::GetSysColor(COLOR_3DFACE);    // initial color

  0003f	ff 15 00 00 00
	00		 call	 DWORD PTR __imp__GetSysColor@4

; 111  : 	m_DefaultColor = ::GetSysColor(COLOR_APPWORKSPACE);

  00045	6a 0c		 push	 12			; 0000000cH
  00047	89 87 90 00 00
	00		 mov	 DWORD PTR [edi+144], eax
  0004d	c7 87 88 00 00
	00 00 00 00 00	 mov	 DWORD PTR [edi+136], 0
  00057	c7 87 80 00 00
	00 ff ff ff ff	 mov	 DWORD PTR [edi+128], -1
  00061	c7 87 84 00 00
	00 ff ff ff ff	 mov	 DWORD PTR [edi+132], -1
  0006b	c7 87 8c 00 00
	00 ff ff ff 00	 mov	 DWORD PTR [edi+140], 16777215 ; 00ffffffH
  00075	ff 15 00 00 00
	00		 call	 DWORD PTR __imp__GetSysColor@4
; File C:\Program Files (x86)\Microsoft Visual Studio\2019\Community\VC\Tools\MSVC\14.29.30133\atlmfc\include\afxwin2.inl

; 622  : 	{ }

  0007b	0f 28 05 00 00
	00 00		 movaps	 xmm0, XMMWORD PTR __xmm@00ffffff00ffffff00ffffff00ffffff
; File D:\git\src\IBK\IBK_DRFN\ProjSrc\SrcDrfn\Chart\ChartUtil\XColourPicker.cpp

; 111  : 	m_DefaultColor = ::GetSysColor(COLOR_APPWORKSPACE);

  00082	89 87 e4 00 00
	00		 mov	 DWORD PTR [edi+228], eax

; 116  : }

  00088	8b c7		 mov	 eax, edi
  0008a	c7 87 e8 00 00
	00 00 00 00 00	 mov	 DWORD PTR [edi+232], 0
; File C:\Program Files (x86)\Microsoft Visual Studio\2019\Community\VC\Tools\MSVC\14.29.30133\atlmfc\include\afxwin2.inl

; 622  : 	{ }

  00094	0f 11 87 94 00
	00 00		 movups	 XMMWORD PTR [edi+148], xmm0
  0009b	0f 11 87 a4 00
	00 00		 movups	 XMMWORD PTR [edi+164], xmm0
  000a2	0f 11 87 b4 00
	00 00		 movups	 XMMWORD PTR [edi+180], xmm0
  000a9	0f 11 87 c4 00
	00 00		 movups	 XMMWORD PTR [edi+196], xmm0
; File D:\git\src\IBK\IBK_DRFN\ProjSrc\SrcDrfn\Chart\ChartUtil\XColourPicker.cpp

; 116  : }

  000b0	5f		 pop	 edi
  000b1	8b e5		 mov	 esp, ebp
  000b3	5d		 pop	 ebp
  000b4	c3		 ret	 0
??0CXColourPicker@@QAE@XZ ENDP				; CXColourPicker::CXColourPicker
_TEXT	ENDS
; Function compile flags: /Ogtp
; File D:\git\src\IBK\IBK_DRFN\ProjSrc\SrcDrfn\Chart\ChartUtil\XColourPicker.cpp
; File C:\Program Files (x86)\Microsoft Visual Studio\2019\Community\VC\Tools\MSVC\14.29.30133\atlmfc\include\afx.inl
; File D:\git\src\IBK\IBK_DRFN\ProjSrc\SrcDrfn\Chart\ChartUtil\XColourPicker.cpp
; File C:\Program Files (x86)\Microsoft Visual Studio\2019\Community\VC\Tools\MSVC\14.29.30133\atlmfc\include\afx.inl
; File D:\git\src\IBK\IBK_DRFN\ProjSrc\SrcDrfn\Chart\ChartUtil\XColourPicker.cpp
; File C:\Program Files (x86)\Microsoft Visual Studio\2019\Community\VC\Tools\MSVC\14.29.30133\atlmfc\include\afxwin2.inl
; File D:\git\src\IBK\IBK_DRFN\ProjSrc\SrcDrfn\Chart\ChartUtil\XColourPicker.cpp
; File C:\Program Files (x86)\Microsoft Visual Studio\2019\Community\VC\Tools\MSVC\14.29.30133\atlmfc\include\atltypes.h
; File D:\git\src\IBK\IBK_DRFN\ProjSrc\SrcDrfn\Chart\ChartUtil\XColourPicker.cpp
; File C:\Program Files (x86)\Microsoft Visual Studio\2019\Community\VC\Tools\MSVC\14.29.30133\atlmfc\include\afxwin2.inl
; File D:\git\src\IBK\IBK_DRFN\ProjSrc\SrcDrfn\Chart\ChartUtil\XColourPicker.cpp
; File C:\Program Files (x86)\Microsoft Visual Studio\2019\Community\VC\Tools\MSVC\14.29.30133\atlmfc\include\afxwin2.inl
; File D:\git\src\IBK\IBK_DRFN\ProjSrc\SrcDrfn\Chart\ChartUtil\XColourPicker.cpp
;	COMDAT ?CreateObject@CXColourPicker@@SGPAVCObject@@XZ
_TEXT	SEGMENT
$T2 = -16						; size = 4
__$EHRec$ = -12						; size = 12
?CreateObject@CXColourPicker@@SGPAVCObject@@XZ PROC	; CXColourPicker::CreateObject, COMDAT

; 89   : IMPLEMENT_DYNCREATE(CXColourPicker, CButton)

  00000	55		 push	 ebp
  00001	8b ec		 mov	 ebp, esp
  00003	6a ff		 push	 -1
  00005	68 00 00 00 00	 push	 __ehhandler$?CreateObject@CXColourPicker@@SGPAVCObject@@XZ
  0000a	64 a1 00 00 00
	00		 mov	 eax, DWORD PTR fs:0
  00010	50		 push	 eax
  00011	51		 push	 ecx
  00012	57		 push	 edi
  00013	a1 00 00 00 00	 mov	 eax, DWORD PTR ___security_cookie
  00018	33 c5		 xor	 eax, ebp
  0001a	50		 push	 eax
  0001b	8d 45 f4	 lea	 eax, DWORD PTR __$EHRec$[ebp]
  0001e	64 a3 00 00 00
	00		 mov	 DWORD PTR fs:0, eax
; File C:\Program Files (x86)\Microsoft Visual Studio\2019\Community\VC\Tools\MSVC\14.29.30133\atlmfc\include\afx.inl

; 116  : 	{ return ::operator new(nSize); }

  00024	68 f0 00 00 00	 push	 240			; 000000f0H
  00029	e8 00 00 00 00	 call	 ??2@YAPAXI@Z		; operator new
; File D:\git\src\IBK\IBK_DRFN\ProjSrc\SrcDrfn\Chart\ChartUtil\XColourPicker.cpp

; 89   : IMPLEMENT_DYNCREATE(CXColourPicker, CButton)

  0002e	8b f8		 mov	 edi, eax
; File C:\Program Files (x86)\Microsoft Visual Studio\2019\Community\VC\Tools\MSVC\14.29.30133\atlmfc\include\afx.inl

; 116  : 	{ return ::operator new(nSize); }

  00030	83 c4 04	 add	 esp, 4
; File D:\git\src\IBK\IBK_DRFN\ProjSrc\SrcDrfn\Chart\ChartUtil\XColourPicker.cpp

; 89   : IMPLEMENT_DYNCREATE(CXColourPicker, CButton)

  00033	89 7d f0	 mov	 DWORD PTR $T2[ebp], edi
  00036	c7 45 fc 00 00
	00 00		 mov	 DWORD PTR __$EHRec$[ebp+8], 0
  0003d	85 ff		 test	 edi, edi
  0003f	0f 84 b8 00 00
	00		 je	 $LN3@CreateObje
; File C:\Program Files (x86)\Microsoft Visual Studio\2019\Community\VC\Tools\MSVC\14.29.30133\atlmfc\include\afxwin2.inl

; 622  : 	{ }

  00045	8b cf		 mov	 ecx, edi
  00047	e8 00 00 00 00	 call	 ??0CWnd@@QAE@XZ		; CWnd::CWnd
; File D:\git\src\IBK\IBK_DRFN\ProjSrc\SrcDrfn\Chart\ChartUtil\XColourPicker.cpp

; 104  : {

  0004c	c7 07 00 00 00
	00		 mov	 DWORD PTR [edi], OFFSET ??_7CXColourPicker@@6B@

; 105  : 	m_crEnabledColor = m_crColor = ::GetSysColor(COLOR_3DFACE);    // initial color

  00052	6a 0f		 push	 15			; 0000000fH
; File C:\Program Files (x86)\Microsoft Visual Studio\2019\Community\VC\Tools\MSVC\14.29.30133\atlmfc\include\atltypes.h

; 528  : 	left = 0;

  00054	c7 87 d4 00 00
	00 00 00 00 00	 mov	 DWORD PTR [edi+212], 0

; 529  : 	top = 0;

  0005e	c7 87 d8 00 00
	00 00 00 00 00	 mov	 DWORD PTR [edi+216], 0

; 530  : 	right = 0;

  00068	c7 87 dc 00 00
	00 00 00 00 00	 mov	 DWORD PTR [edi+220], 0

; 531  : 	bottom = 0;

  00072	c7 87 e0 00 00
	00 00 00 00 00	 mov	 DWORD PTR [edi+224], 0
; File D:\git\src\IBK\IBK_DRFN\ProjSrc\SrcDrfn\Chart\ChartUtil\XColourPicker.cpp

; 105  : 	m_crEnabledColor = m_crColor = ::GetSysColor(COLOR_3DFACE);    // initial color

  0007c	ff 15 00 00 00
	00		 call	 DWORD PTR __imp__GetSysColor@4

; 111  : 	m_DefaultColor = ::GetSysColor(COLOR_APPWORKSPACE);

  00082	6a 0c		 push	 12			; 0000000cH
  00084	89 87 90 00 00
	00		 mov	 DWORD PTR [edi+144], eax
  0008a	c7 87 88 00 00
	00 00 00 00 00	 mov	 DWORD PTR [edi+136], 0
  00094	c7 87 80 00 00
	00 ff ff ff ff	 mov	 DWORD PTR [edi+128], -1
  0009e	c7 87 84 00 00
	00 ff ff ff ff	 mov	 DWORD PTR [edi+132], -1
  000a8	c7 87 8c 00 00
	00 ff ff ff 00	 mov	 DWORD PTR [edi+140], 16777215 ; 00ffffffH
  000b2	ff 15 00 00 00
	00		 call	 DWORD PTR __imp__GetSysColor@4
; File C:\Program Files (x86)\Microsoft Visual Studio\2019\Community\VC\Tools\MSVC\14.29.30133\atlmfc\include\afxwin2.inl

; 622  : 	{ }

  000b8	0f 28 05 00 00
	00 00		 movaps	 xmm0, XMMWORD PTR __xmm@00ffffff00ffffff00ffffff00ffffff
; File D:\git\src\IBK\IBK_DRFN\ProjSrc\SrcDrfn\Chart\ChartUtil\XColourPicker.cpp

; 111  : 	m_DefaultColor = ::GetSysColor(COLOR_APPWORKSPACE);

  000bf	89 87 e4 00 00
	00		 mov	 DWORD PTR [edi+228], eax

; 89   : IMPLEMENT_DYNCREATE(CXColourPicker, CButton)

  000c5	8b c7		 mov	 eax, edi

; 112  : 	m_bPopupActive = FALSE;

  000c7	c7 87 e8 00 00
	00 00 00 00 00	 mov	 DWORD PTR [edi+232], 0
; File C:\Program Files (x86)\Microsoft Visual Studio\2019\Community\VC\Tools\MSVC\14.29.30133\atlmfc\include\afxwin2.inl

; 622  : 	{ }

  000d1	0f 11 87 94 00
	00 00		 movups	 XMMWORD PTR [edi+148], xmm0
  000d8	0f 11 87 a4 00
	00 00		 movups	 XMMWORD PTR [edi+164], xmm0
  000df	0f 11 87 b4 00
	00 00		 movups	 XMMWORD PTR [edi+180], xmm0
  000e6	0f 11 87 c4 00
	00 00		 movups	 XMMWORD PTR [edi+196], xmm0
; File D:\git\src\IBK\IBK_DRFN\ProjSrc\SrcDrfn\Chart\ChartUtil\XColourPicker.cpp

; 89   : IMPLEMENT_DYNCREATE(CXColourPicker, CButton)

  000ed	8b 4d f4	 mov	 ecx, DWORD PTR __$EHRec$[ebp]
  000f0	64 89 0d 00 00
	00 00		 mov	 DWORD PTR fs:0, ecx
  000f7	59		 pop	 ecx
  000f8	5f		 pop	 edi
  000f9	8b e5		 mov	 esp, ebp
  000fb	5d		 pop	 ebp
  000fc	c3		 ret	 0
$LN3@CreateObje:
  000fd	33 c0		 xor	 eax, eax
  000ff	8b 4d f4	 mov	 ecx, DWORD PTR __$EHRec$[ebp]
  00102	64 89 0d 00 00
	00 00		 mov	 DWORD PTR fs:0, ecx
  00109	59		 pop	 ecx
  0010a	5f		 pop	 edi
  0010b	8b e5		 mov	 esp, ebp
  0010d	5d		 pop	 ebp
  0010e	c3		 ret	 0
_TEXT	ENDS
;	COMDAT text$x
text$x	SEGMENT
__unwindfunclet$?CreateObject@CXColourPicker@@SGPAVCObject@@XZ$0:
  00000	8b 45 f0	 mov	 eax, DWORD PTR $T2[ebp]
  00003	50		 push	 eax
  00004	e8 00 00 00 00	 call	 ??3CObject@@SGXPAX@Z	; CObject::operator delete
  00009	c3		 ret	 0
  0000a	cc		 int	 3
  0000b	cc		 int	 3
  0000c	cc		 int	 3
  0000d	cc		 int	 3
  0000e	cc		 int	 3
__ehhandler$?CreateObject@CXColourPicker@@SGPAVCObject@@XZ:
  0000f	90		 npad	 1
  00010	90		 npad	 1
  00011	8b 54 24 08	 mov	 edx, DWORD PTR [esp+8]
  00015	8d 42 0c	 lea	 eax, DWORD PTR [edx+12]
  00018	8b 4a f4	 mov	 ecx, DWORD PTR [edx-12]
  0001b	33 c8		 xor	 ecx, eax
  0001d	e8 00 00 00 00	 call	 @__security_check_cookie@4
  00022	b8 00 00 00 00	 mov	 eax, OFFSET __ehfuncinfo$?CreateObject@CXColourPicker@@SGPAVCObject@@XZ
  00027	e9 00 00 00 00	 jmp	 ___CxxFrameHandler3
text$x	ENDS
?CreateObject@CXColourPicker@@SGPAVCObject@@XZ ENDP	; CXColourPicker::CreateObject
; Function compile flags: /Ogtp
; File D:\git\src\IBK\IBK_DRFN\ProjSrc\SrcDrfn\Chart\ChartUtil\XColourPicker.cpp
;	COMDAT ?GetRuntimeClass@CXColourPicker@@UBEPAUCRuntimeClass@@XZ
_TEXT	SEGMENT
?GetRuntimeClass@CXColourPicker@@UBEPAUCRuntimeClass@@XZ PROC ; CXColourPicker::GetRuntimeClass, COMDAT
; _this$ = ecx

; 89   : IMPLEMENT_DYNCREATE(CXColourPicker, CButton)

  00000	b8 00 00 00 00	 mov	 eax, OFFSET ?classCXColourPicker@CXColourPicker@@2UCRuntimeClass@@B ; CXColourPicker::classCXColourPicker
  00005	c3		 ret	 0
?GetRuntimeClass@CXColourPicker@@UBEPAUCRuntimeClass@@XZ ENDP ; CXColourPicker::GetRuntimeClass
_TEXT	ENDS
; Function compile flags: /Ogtp
; File D:\git\src\IBK\IBK_DRFN\ProjSrc\SrcDrfn\Chart\ChartUtil\XColourPicker.cpp
;	COMDAT ?GetThisClass@CXColourPicker@@SGPAUCRuntimeClass@@XZ
_TEXT	SEGMENT
?GetThisClass@CXColourPicker@@SGPAUCRuntimeClass@@XZ PROC ; CXColourPicker::GetThisClass, COMDAT

; 89   : IMPLEMENT_DYNCREATE(CXColourPicker, CButton)

  00000	b8 00 00 00 00	 mov	 eax, OFFSET ?classCXColourPicker@CXColourPicker@@2UCRuntimeClass@@B ; CXColourPicker::classCXColourPicker
  00005	c3		 ret	 0
?GetThisClass@CXColourPicker@@SGPAUCRuntimeClass@@XZ ENDP ; CXColourPicker::GetThisClass
_TEXT	ENDS
; Function compile flags: /Ogtp
; File D:\git\src\IBK\IBK_DRFN\ProjSrc\SrcDrfn\Chart\ChartUtil\XColourPicker.cpp
;	COMDAT ?_GetBaseClass@CXColourPicker@@KGPAUCRuntimeClass@@XZ
_TEXT	SEGMENT
?_GetBaseClass@CXColourPicker@@KGPAUCRuntimeClass@@XZ PROC ; CXColourPicker::_GetBaseClass, COMDAT

; 89   : IMPLEMENT_DYNCREATE(CXColourPicker, CButton)

  00000	e9 00 00 00 00	 jmp	 ?GetThisClass@CButton@@SGPAUCRuntimeClass@@XZ ; CButton::GetThisClass
?_GetBaseClass@CXColourPicker@@KGPAUCRuntimeClass@@XZ ENDP ; CXColourPicker::_GetBaseClass
_TEXT	ENDS
; Function compile flags: /Ogtp
; File D:\git\src\IBK\IBK_DRFN\ProjSrc\SrcDrfn\Chart\ChartUtil\XColourPicker.cpp
; File C:\Program Files (x86)\Microsoft Visual Studio\2019\Community\VC\Tools\MSVC\14.29.30133\atlmfc\include\atlsimpstr.h
; File D:\git\src\IBK\IBK_DRFN\ProjSrc\SrcDrfn\Chart\ChartUtil\XColourPicker.cpp
; File C:\Program Files (x86)\Microsoft Visual Studio\2019\Community\VC\Tools\MSVC\14.29.30133\atlmfc\include\atlsimpstr.h
; File D:\git\src\IBK\IBK_DRFN\ProjSrc\SrcDrfn\Chart\ChartUtil\XColourPicker.cpp
; File C:\Program Files (x86)\Microsoft Visual Studio\2019\Community\VC\Tools\MSVC\14.29.30133\atlmfc\include\atlsimpstr.h
; File D:\git\src\IBK\IBK_DRFN\ProjSrc\SrcDrfn\Chart\ChartUtil\XColourPicker.cpp
; File C:\Program Files (x86)\Windows Kits\10\Include\10.0.22000.0\ucrt\tchar.h
; File D:\git\src\IBK\IBK_DRFN\ProjSrc\SrcDrfn\Chart\ChartUtil\XColourPicker.cpp
; File C:\Program Files (x86)\Windows Kits\10\Include\10.0.22000.0\ucrt\tchar.h
; File D:\git\src\IBK\IBK_DRFN\ProjSrc\SrcDrfn\Chart\ChartUtil\XColourPicker.cpp
; File C:\Program Files (x86)\Windows Kits\10\Include\10.0.22000.0\ucrt\tchar.h
; File D:\git\src\IBK\IBK_DRFN\ProjSrc\SrcDrfn\Chart\ChartUtil\XColourPicker.cpp
; File C:\Program Files (x86)\Windows Kits\10\Include\10.0.22000.0\ucrt\tchar.h
; File D:\git\src\IBK\IBK_DRFN\ProjSrc\SrcDrfn\Chart\ChartUtil\XColourPicker.cpp
;	COMDAT ?DDX_ColorPickerCustom@@YGXPAVCDataExchange@@HAAV?$CStringT@DV?$StrTraitMFC_DLL@DV?$ChTraitsCRT@D@ATL@@@@@ATL@@@Z
_TEXT	SEGMENT
$T2 = -288						; size = 4
_strCustomColors$GSCopy$1$ = -284			; size = 4
_str$3 = -280						; size = 4
$T4 = -276						; size = 4
_szCustomColors$5 = -272				; size = 256
__$ArrayPad$ = -16					; size = 4
__$EHRec$ = -12						; size = 12
_pDX$ = 8						; size = 4
_nIDC$ = 12						; size = 4
_strCustomColors$ = 16					; size = 4
?DDX_ColorPickerCustom@@YGXPAVCDataExchange@@HAAV?$CStringT@DV?$StrTraitMFC_DLL@DV?$ChTraitsCRT@D@ATL@@@@@ATL@@@Z PROC ; DDX_ColorPickerCustom, COMDAT

; 70   : {

  00000	55		 push	 ebp
  00001	8b ec		 mov	 ebp, esp
  00003	6a ff		 push	 -1
  00005	68 00 00 00 00	 push	 __ehhandler$?DDX_ColorPickerCustom@@YGXPAVCDataExchange@@HAAV?$CStringT@DV?$StrTraitMFC_DLL@DV?$ChTraitsCRT@D@ATL@@@@@ATL@@@Z
  0000a	64 a1 00 00 00
	00		 mov	 eax, DWORD PTR fs:0
  00010	50		 push	 eax
  00011	81 ec 14 01 00
	00		 sub	 esp, 276		; 00000114H
  00017	a1 00 00 00 00	 mov	 eax, DWORD PTR ___security_cookie
  0001c	33 c5		 xor	 eax, ebp
  0001e	89 45 f0	 mov	 DWORD PTR __$ArrayPad$[ebp], eax
  00021	56		 push	 esi
  00022	57		 push	 edi
  00023	50		 push	 eax
  00024	8d 45 f4	 lea	 eax, DWORD PTR __$EHRec$[ebp]
  00027	64 a3 00 00 00
	00		 mov	 DWORD PTR fs:0, eax
  0002d	8b 4d 10	 mov	 ecx, DWORD PTR _strCustomColors$[ebp]
  00030	8b 45 0c	 mov	 eax, DWORD PTR _nIDC$[ebp]
  00033	8b 75 08	 mov	 esi, DWORD PTR _pDX$[ebp]
  00036	89 8d e4 fe ff
	ff		 mov	 DWORD PTR _strCustomColors$GSCopy$1$[ebp], ecx

; 71   : 	HWND hWndCtrl = pDX->PrepareCtrl(nIDC);

  0003c	8b ce		 mov	 ecx, esi
  0003e	50		 push	 eax
  0003f	c7 85 e0 fe ff
	ff 00 00 00 00	 mov	 DWORD PTR $T2[ebp], 0
  00049	e8 00 00 00 00	 call	 ?PrepareCtrl@CDataExchange@@QAEPAUHWND__@@H@Z ; CDataExchange::PrepareCtrl

; 72   : 	ASSERT(hWndCtrl != NULL);
; 73   : 
; 74   : 	CXColourPicker * pColorPicker = (CXColourPicker *) CWnd::FromHandle(hWndCtrl);

  0004e	50		 push	 eax
  0004f	e8 00 00 00 00	 call	 ?FromHandle@CWnd@@SGPAV1@PAUHWND__@@@Z ; CWnd::FromHandle

; 75   : 
; 76   : 	if (pDX->m_bSaveAndValidate)

  00054	83 3e 00	 cmp	 DWORD PTR [esi], 0
  00057	8d b8 94 00 00
	00		 lea	 edi, DWORD PTR [eax+148]
  0005d	0f 84 c0 00 00
	00		 je	 $LN2@DDX_ColorP

; 284  : 	CString strCustomColors = _T("");

  00063	68 00 00 00 00	 push	 OFFSET ??_C@_00CNPNBAHC@@
  00068	8d 8d ec fe ff
	ff		 lea	 ecx, DWORD PTR $T4[ebp]

; 77   : 	{
; 78   : 		strCustomColors = pColorPicker->GetCustomColors();

  0006e	c7 45 fc 00 00
	00 00		 mov	 DWORD PTR __$EHRec$[ebp+8], 0

; 284  : 	CString strCustomColors = _T("");

  00075	ff 15 00 00 00
	00		 call	 DWORD PTR __imp_??0?$CStringT@DV?$StrTraitMFC_DLL@DV?$ChTraitsCRT@D@ATL@@@@@ATL@@QAE@PBD@Z

; 285  : 	CString str = _T("");

  0007b	68 00 00 00 00	 push	 OFFSET ??_C@_00CNPNBAHC@@
  00080	8d 8d e8 fe ff
	ff		 lea	 ecx, DWORD PTR _str$3[ebp]

; 292  : 	}
; 293  : 	return strCustomColors;

  00086	c7 85 e0 fe ff
	ff 01 00 00 00	 mov	 DWORD PTR $T2[ebp], 1
  00090	ff 15 00 00 00
	00		 call	 DWORD PTR __imp_??0?$CStringT@DV?$StrTraitMFC_DLL@DV?$ChTraitsCRT@D@ATL@@@@@ATL@@QAE@PBD@Z
  00096	c6 45 fc 01	 mov	 BYTE PTR __$EHRec$[ebp+8], 1

; 77   : 	{
; 78   : 		strCustomColors = pColorPicker->GetCustomColors();

  0009a	be 10 00 00 00	 mov	 esi, 16			; 00000010H
  0009f	90		 npad	 1
$LL9@DDX_ColorP:

; 288  : 		str.Format(_T("%06X"), m_CustomColors[i]);

  000a0	ff 37		 push	 DWORD PTR [edi]
  000a2	8d 85 e8 fe ff
	ff		 lea	 eax, DWORD PTR _str$3[ebp]
  000a8	68 00 00 00 00	 push	 OFFSET ??_C@_04JCFDBOEJ@?$CF06X@
  000ad	50		 push	 eax
  000ae	ff 15 00 00 00
	00		 call	 DWORD PTR __imp_?Format@?$CStringT@DV?$StrTraitMFC_DLL@DV?$ChTraitsCRT@D@ATL@@@@@ATL@@QAAXPBDZZ
; File C:\Program Files (x86)\Microsoft Visual Studio\2019\Community\VC\Tools\MSVC\14.29.30133\atlmfc\include\atlsimpstr.h

; 519  : 		return( GetData()->nDataLength );

  000b4	8b 85 ec fe ff
	ff		 mov	 eax, DWORD PTR $T4[ebp]
; File D:\git\src\IBK\IBK_DRFN\ProjSrc\SrcDrfn\Chart\ChartUtil\XColourPicker.cpp

; 288  : 		str.Format(_T("%06X"), m_CustomColors[i]);

  000ba	83 c4 0c	 add	 esp, 12			; 0000000cH
; File C:\Program Files (x86)\Microsoft Visual Studio\2019\Community\VC\Tools\MSVC\14.29.30133\atlmfc\include\atlsimpstr.h

; 533  : 		return( GetLength() == 0 );

  000bd	83 78 f4 00	 cmp	 DWORD PTR [eax-12], 0
; File D:\git\src\IBK\IBK_DRFN\ProjSrc\SrcDrfn\Chart\ChartUtil\XColourPicker.cpp

; 289  : 		if (!strCustomColors.IsEmpty())

  000c1	74 11		 je	 SHORT $LN10@DDX_ColorP

; 290  : 			strCustomColors += _T(" ");

  000c3	68 00 00 00 00	 push	 OFFSET ??_C@_01CLKCMJKC@?5@
  000c8	8d 8d ec fe ff
	ff		 lea	 ecx, DWORD PTR $T4[ebp]
  000ce	ff 15 00 00 00
	00		 call	 DWORD PTR __imp_??Y?$CStringT@DV?$StrTraitMFC_DLL@DV?$ChTraitsCRT@D@ATL@@@@@ATL@@QAEAAV01@PBD@Z
$LN10@DDX_ColorP:

; 291  : 		strCustomColors += str;

  000d4	8d 85 e8 fe ff
	ff		 lea	 eax, DWORD PTR _str$3[ebp]
  000da	50		 push	 eax
  000db	8d 8d ec fe ff
	ff		 lea	 ecx, DWORD PTR $T4[ebp]
  000e1	ff 15 00 00 00
	00		 call	 DWORD PTR __imp_??Y?$CStringT@DV?$StrTraitMFC_DLL@DV?$ChTraitsCRT@D@ATL@@@@@ATL@@QAEAAV01@ABV?$CSimpleStringT@D$00@1@@Z
  000e7	83 c7 04	 add	 edi, 4
  000ea	83 ee 01	 sub	 esi, 1
  000ed	75 b1		 jne	 SHORT $LL9@DDX_ColorP

; 292  : 	}
; 293  : 	return strCustomColors;

  000ef	8d 8d e8 fe ff
	ff		 lea	 ecx, DWORD PTR _str$3[ebp]
  000f5	c6 45 fc 00	 mov	 BYTE PTR __$EHRec$[ebp+8], 0
  000f9	ff 15 00 00 00
	00		 call	 DWORD PTR __imp_??1?$CStringT@DV?$StrTraitMFC_DLL@DV?$ChTraitsCRT@D@ATL@@@@@ATL@@QAE@XZ

; 77   : 	{
; 78   : 		strCustomColors = pColorPicker->GetCustomColors();

  000ff	8b 8d e4 fe ff
	ff		 mov	 ecx, DWORD PTR _strCustomColors$GSCopy$1$[ebp]
  00105	8d 85 ec fe ff
	ff		 lea	 eax, DWORD PTR $T4[ebp]
  0010b	50		 push	 eax
  0010c	ff 15 00 00 00
	00		 call	 DWORD PTR __imp_??4?$CStringT@DV?$StrTraitMFC_DLL@DV?$ChTraitsCRT@D@ATL@@@@@ATL@@QAEAAV01@ABV01@@Z
  00112	8d 8d ec fe ff
	ff		 lea	 ecx, DWORD PTR $T4[ebp]
  00118	ff 15 00 00 00
	00		 call	 DWORD PTR __imp_??1?$CStringT@DV?$StrTraitMFC_DLL@DV?$ChTraitsCRT@D@ATL@@@@@ATL@@QAE@XZ

; 79   : 	}

  0011e	e9 89 00 00 00	 jmp	 $LN42@DDX_ColorP
$LN2@DDX_ColorP:
; File C:\Program Files (x86)\Microsoft Visual Studio\2019\Community\VC\Tools\MSVC\14.29.30133\atlmfc\include\atlsimpstr.h

; 377  : 		return( m_pszData );

  00123	8b b5 e4 fe ff
	ff		 mov	 esi, DWORD PTR _strCustomColors$GSCopy$1$[ebp]
  00129	0f 28 05 00 00
	00 00		 movaps	 xmm0, XMMWORD PTR __xmm@00ffffff00ffffff00ffffff00ffffff
  00130	8b 36		 mov	 esi, DWORD PTR [esi]
  00132	0f 11 07	 movups	 XMMWORD PTR [edi], xmm0
  00135	0f 11 47 10	 movups	 XMMWORD PTR [edi+16], xmm0
  00139	0f 11 47 20	 movups	 XMMWORD PTR [edi+32], xmm0
  0013d	0f 11 47 30	 movups	 XMMWORD PTR [edi+48], xmm0
; File D:\git\src\IBK\IBK_DRFN\ProjSrc\SrcDrfn\Chart\ChartUtil\XColourPicker.cpp

; 263  : 	if (lpszCustomColors == NULL)

  00141	85 f6		 test	 esi, esi
  00143	74 67		 je	 SHORT $LN42@DDX_ColorP

; 264  : 		return;
; 265  : 
; 266  : 	TCHAR szCustomColors[256];
; 267  : 	memset(szCustomColors, 0, sizeof(szCustomColors));

  00145	68 00 01 00 00	 push	 256			; 00000100H
  0014a	8d 85 f0 fe ff
	ff		 lea	 eax, DWORD PTR _szCustomColors$5[ebp]
  00150	6a 00		 push	 0
  00152	50		 push	 eax
  00153	e8 00 00 00 00	 call	 _memset
; File C:\Program Files (x86)\Windows Kits\10\Include\10.0.22000.0\ucrt\tchar.h

; 1528 :     return (char *)_mbsnbcpy((unsigned char *)_Dst,(const unsigned char *)_Source,_Count);

  00158	68 fe 00 00 00	 push	 254			; 000000feH
  0015d	8d 85 f0 fe ff
	ff		 lea	 eax, DWORD PTR _szCustomColors$5[ebp]
  00163	56		 push	 esi
  00164	50		 push	 eax
  00165	ff 15 00 00 00
	00		 call	 DWORD PTR __imp___mbsnbcpy

; 1554 :         return (char * )_mbstok((unsigned char *)_String,(const unsigned char *)_Delimiters);

  0016b	8d 85 f0 fe ff
	ff		 lea	 eax, DWORD PTR _szCustomColors$5[ebp]
  00171	68 00 00 00 00	 push	 OFFSET ??_C@_01CLKCMJKC@?5@
  00176	50		 push	 eax
  00177	ff 15 00 00 00
	00		 call	 DWORD PTR __imp___mbstok
  0017d	83 c4 20	 add	 esp, 32			; 00000020H
; File D:\git\src\IBK\IBK_DRFN\ProjSrc\SrcDrfn\Chart\ChartUtil\XColourPicker.cpp

; 273  : 	for (i = 0; i < 16; i++)

  00180	33 f6		 xor	 esi, esi
$LL29@DDX_ColorP:

; 274  : 	{
; 275  : 		if (!cp)

  00182	85 c0		 test	 eax, eax
  00184	74 26		 je	 SHORT $LN42@DDX_ColorP

; 277  : 		m_CustomColors[i] = _tcstoul(cp, NULL, 16);

  00186	6a 10		 push	 16			; 00000010H
  00188	6a 00		 push	 0
  0018a	50		 push	 eax
  0018b	ff 15 00 00 00
	00		 call	 DWORD PTR __imp__strtoul
; File C:\Program Files (x86)\Windows Kits\10\Include\10.0.22000.0\ucrt\tchar.h

; 1554 :         return (char * )_mbstok((unsigned char *)_String,(const unsigned char *)_Delimiters);

  00191	68 00 00 00 00	 push	 OFFSET ??_C@_01CLKCMJKC@?5@
  00196	6a 00		 push	 0
; File D:\git\src\IBK\IBK_DRFN\ProjSrc\SrcDrfn\Chart\ChartUtil\XColourPicker.cpp

; 277  : 		m_CustomColors[i] = _tcstoul(cp, NULL, 16);

  00198	89 07		 mov	 DWORD PTR [edi], eax
; File C:\Program Files (x86)\Windows Kits\10\Include\10.0.22000.0\ucrt\tchar.h

; 1554 :         return (char * )_mbstok((unsigned char *)_String,(const unsigned char *)_Delimiters);

  0019a	ff 15 00 00 00
	00		 call	 DWORD PTR __imp___mbstok
; File D:\git\src\IBK\IBK_DRFN\ProjSrc\SrcDrfn\Chart\ChartUtil\XColourPicker.cpp

; 273  : 	for (i = 0; i < 16; i++)

  001a0	46		 inc	 esi
; File C:\Program Files (x86)\Windows Kits\10\Include\10.0.22000.0\ucrt\tchar.h

; 1554 :         return (char * )_mbstok((unsigned char *)_String,(const unsigned char *)_Delimiters);

  001a1	83 c4 14	 add	 esp, 20			; 00000014H
; File D:\git\src\IBK\IBK_DRFN\ProjSrc\SrcDrfn\Chart\ChartUtil\XColourPicker.cpp

; 273  : 	for (i = 0; i < 16; i++)

  001a4	83 c7 04	 add	 edi, 4
  001a7	83 fe 10	 cmp	 esi, 16			; 00000010H
  001aa	7c d6		 jl	 SHORT $LL29@DDX_ColorP
$LN42@DDX_ColorP:

; 80   : 	else // initializing
; 81   : 	{
; 82   : 		pColorPicker->SetCustomColors(strCustomColors);
; 83   : 	}
; 84   : }

  001ac	8b 4d f4	 mov	 ecx, DWORD PTR __$EHRec$[ebp]
  001af	64 89 0d 00 00
	00 00		 mov	 DWORD PTR fs:0, ecx
  001b6	59		 pop	 ecx
  001b7	5f		 pop	 edi
  001b8	5e		 pop	 esi
  001b9	8b 4d f0	 mov	 ecx, DWORD PTR __$ArrayPad$[ebp]
  001bc	33 cd		 xor	 ecx, ebp
  001be	e8 00 00 00 00	 call	 @__security_check_cookie@4
  001c3	8b e5		 mov	 esp, ebp
  001c5	5d		 pop	 ebp
  001c6	c2 0c 00	 ret	 12			; 0000000cH
_TEXT	ENDS
;	COMDAT text$x
text$x	SEGMENT
__unwindfunclet$?DDX_ColorPickerCustom@@YGXPAVCDataExchange@@HAAV?$CStringT@DV?$StrTraitMFC_DLL@DV?$ChTraitsCRT@D@ATL@@@@@ATL@@@Z$1:
  00000	8b 85 e0 fe ff
	ff		 mov	 eax, DWORD PTR $T2[ebp]
  00006	83 e0 01	 and	 eax, 1
  00009	0f 84 13 00 00
	00		 je	 $LN13@DDX_ColorP
  0000f	83 a5 e0 fe ff
	ff fe		 and	 DWORD PTR $T2[ebp], -2	; fffffffeH
  00016	8d 8d ec fe ff
	ff		 lea	 ecx, DWORD PTR $T4[ebp]
  0001c	ff 25 00 00 00
	00		 jmp	 DWORD PTR __imp_??1?$CStringT@DV?$StrTraitMFC_DLL@DV?$ChTraitsCRT@D@ATL@@@@@ATL@@QAE@XZ
$LN13@DDX_ColorP:
  00022	c3		 ret	 0
__unwindfunclet$?DDX_ColorPickerCustom@@YGXPAVCDataExchange@@HAAV?$CStringT@DV?$StrTraitMFC_DLL@DV?$ChTraitsCRT@D@ATL@@@@@ATL@@@Z$2:
  00023	8d 8d e8 fe ff
	ff		 lea	 ecx, DWORD PTR _str$3[ebp]
  00029	ff 25 00 00 00
	00		 jmp	 DWORD PTR __imp_??1?$CStringT@DV?$StrTraitMFC_DLL@DV?$ChTraitsCRT@D@ATL@@@@@ATL@@QAE@XZ
  0002f	cc		 int	 3
  00030	cc		 int	 3
  00031	cc		 int	 3
  00032	cc		 int	 3
  00033	cc		 int	 3
__ehhandler$?DDX_ColorPickerCustom@@YGXPAVCDataExchange@@HAAV?$CStringT@DV?$StrTraitMFC_DLL@DV?$ChTraitsCRT@D@ATL@@@@@ATL@@@Z:
  00034	90		 npad	 1
  00035	90		 npad	 1
  00036	8b 54 24 08	 mov	 edx, DWORD PTR [esp+8]
  0003a	8d 42 0c	 lea	 eax, DWORD PTR [edx+12]
  0003d	8b 8a e0 fe ff
	ff		 mov	 ecx, DWORD PTR [edx-288]
  00043	33 c8		 xor	 ecx, eax
  00045	e8 00 00 00 00	 call	 @__security_check_cookie@4
  0004a	8b 4a fc	 mov	 ecx, DWORD PTR [edx-4]
  0004d	33 c8		 xor	 ecx, eax
  0004f	e8 00 00 00 00	 call	 @__security_check_cookie@4
  00054	b8 00 00 00 00	 mov	 eax, OFFSET __ehfuncinfo$?DDX_ColorPickerCustom@@YGXPAVCDataExchange@@HAAV?$CStringT@DV?$StrTraitMFC_DLL@DV?$ChTraitsCRT@D@ATL@@@@@ATL@@@Z
  00059	e9 00 00 00 00	 jmp	 ___CxxFrameHandler3
text$x	ENDS
?DDX_ColorPickerCustom@@YGXPAVCDataExchange@@HAAV?$CStringT@DV?$StrTraitMFC_DLL@DV?$ChTraitsCRT@D@ATL@@@@@ATL@@@Z ENDP ; DDX_ColorPickerCustom
; Function compile flags: /Ogtp
; File D:\git\src\IBK\IBK_DRFN\ProjSrc\SrcDrfn\Chart\ChartUtil\XColourPicker.cpp
; File C:\Program Files (x86)\Microsoft Visual Studio\2019\Community\VC\Tools\MSVC\14.29.30133\atlmfc\include\afxwin2.inl
; File D:\git\src\IBK\IBK_DRFN\ProjSrc\SrcDrfn\Chart\ChartUtil\XColourPicker.cpp
; File C:\Program Files (x86)\Microsoft Visual Studio\2019\Community\VC\Tools\MSVC\14.29.30133\atlmfc\include\afxwin2.inl
; File D:\git\src\IBK\IBK_DRFN\ProjSrc\SrcDrfn\Chart\ChartUtil\XColourPicker.cpp
;	COMDAT ?DDX_ColorPicker@@YGXPAVCDataExchange@@HAAK@Z
_TEXT	SEGMENT
_pDX$ = 8						; size = 4
_nIDC$ = 12						; size = 4
_crColor$ = 16						; size = 4
?DDX_ColorPicker@@YGXPAVCDataExchange@@HAAK@Z PROC	; DDX_ColorPicker, COMDAT

; 53   : {

  00000	55		 push	 ebp
  00001	8b ec		 mov	 ebp, esp
  00003	56		 push	 esi

; 54   : 	HWND hWndCtrl = pDX->PrepareCtrl(nIDC);

  00004	ff 75 0c	 push	 DWORD PTR _nIDC$[ebp]
  00007	8b 75 08	 mov	 esi, DWORD PTR _pDX$[ebp]
  0000a	8b ce		 mov	 ecx, esi
  0000c	e8 00 00 00 00	 call	 ?PrepareCtrl@CDataExchange@@QAEPAUHWND__@@H@Z ; CDataExchange::PrepareCtrl

; 55   : 	ASSERT(hWndCtrl != NULL);
; 56   : 
; 57   : 	CXColourPicker * pColorPicker = (CXColourPicker *) CWnd::FromHandle(hWndCtrl);

  00011	50		 push	 eax
  00012	e8 00 00 00 00	 call	 ?FromHandle@CWnd@@SGPAV1@PAUHWND__@@@Z ; CWnd::FromHandle

; 58   : 
; 59   : 	if (pDX->m_bSaveAndValidate)

  00017	83 3e 00	 cmp	 DWORD PTR [esi], 0
  0001a	8b c8		 mov	 ecx, eax
  0001c	8b 45 10	 mov	 eax, DWORD PTR _crColor$[ebp]
  0001f	5e		 pop	 esi
  00020	74 0c		 je	 SHORT $LN2@DDX_ColorP

; 60   : 	{
; 61   : 		crColor = pColorPicker->GetColor();

  00022	8b 89 8c 00 00
	00		 mov	 ecx, DWORD PTR [ecx+140]
  00028	89 08		 mov	 DWORD PTR [eax], ecx

; 67   : }

  0002a	5d		 pop	 ebp
  0002b	c2 0c 00	 ret	 12			; 0000000cH
$LN2@DDX_ColorP:

; 62   : 	}
; 63   : 	else // initializing
; 64   : 	{
; 65   : 		pColorPicker->SetColor(crColor);

  0002e	8b 00		 mov	 eax, DWORD PTR [eax]
; File C:\Program Files (x86)\Microsoft Visual Studio\2019\Community\VC\Tools\MSVC\14.29.30133\atlmfc\include\afxwin2.inl

; 142  : 	{ ASSERT(::IsWindow(m_hWnd)); return ::RedrawWindow(m_hWnd, lpRectUpdate, (HRGN)prgnUpdate->GetSafeHandle(), flags); }

  00030	68 05 01 00 00	 push	 261			; 00000105H
  00035	6a 00		 push	 0
  00037	6a 00		 push	 0
  00039	ff 71 20	 push	 DWORD PTR [ecx+32]
; File D:\git\src\IBK\IBK_DRFN\ProjSrc\SrcDrfn\Chart\ChartUtil\XColourPicker.cpp

; 231  : 	m_crEnabledColor = m_crColor = crColor;

  0003c	89 81 8c 00 00
	00		 mov	 DWORD PTR [ecx+140], eax
  00042	89 81 90 00 00
	00		 mov	 DWORD PTR [ecx+144], eax
; File C:\Program Files (x86)\Microsoft Visual Studio\2019\Community\VC\Tools\MSVC\14.29.30133\atlmfc\include\afxwin2.inl

; 142  : 	{ ASSERT(::IsWindow(m_hWnd)); return ::RedrawWindow(m_hWnd, lpRectUpdate, (HRGN)prgnUpdate->GetSafeHandle(), flags); }

  00048	ff 15 00 00 00
	00		 call	 DWORD PTR __imp__RedrawWindow@16
; File D:\git\src\IBK\IBK_DRFN\ProjSrc\SrcDrfn\Chart\ChartUtil\XColourPicker.cpp

; 67   : }

  0004e	5d		 pop	 ebp
  0004f	c2 0c 00	 ret	 12			; 0000000cH
?DDX_ColorPicker@@YGXPAVCDataExchange@@HAAK@Z ENDP	; DDX_ColorPicker
_TEXT	ENDS
; Function compile flags: /Ogtp
; File C:\Program Files (x86)\Microsoft Visual Studio\2019\Community\VC\Tools\MSVC\14.29.30133\atlmfc\include\afx.inl
;	COMDAT ??_GCButton@@UAEPAXI@Z
_TEXT	SEGMENT
___flags$ = 8						; size = 4
??_GCButton@@UAEPAXI@Z PROC				; CButton::`scalar deleting destructor', COMDAT
; _this$ = ecx
  00000	55		 push	 ebp
  00001	8b ec		 mov	 ebp, esp
  00003	56		 push	 esi
  00004	8b f1		 mov	 esi, ecx
  00006	e8 00 00 00 00	 call	 ??1CButton@@UAE@XZ	; CButton::~CButton
  0000b	8b 45 08	 mov	 eax, DWORD PTR ___flags$[ebp]
  0000e	a8 01		 test	 al, 1
  00010	74 22		 je	 SHORT $LN9@scalar
  00012	a8 04		 test	 al, 4
  00014	75 10		 jne	 SHORT $LN3@scalar

; 112  : 	{ ::operator delete(p); }

  00016	56		 push	 esi
  00017	e8 00 00 00 00	 call	 ??3@YAXPAX@Z		; operator delete
  0001c	83 c4 04	 add	 esp, 4
  0001f	8b c6		 mov	 eax, esi
  00021	5e		 pop	 esi
  00022	5d		 pop	 ebp
  00023	c2 04 00	 ret	 4
$LN3@scalar:
  00026	68 80 00 00 00	 push	 128			; 00000080H
  0002b	56		 push	 esi
  0002c	e8 00 00 00 00	 call	 ?__global_delete@@YAXPAXI@Z ; __global_delete
  00031	83 c4 08	 add	 esp, 8
$LN9@scalar:
  00034	8b c6		 mov	 eax, esi
  00036	5e		 pop	 esi
  00037	5d		 pop	 ebp
  00038	c2 04 00	 ret	 4
??_GCButton@@UAEPAXI@Z ENDP				; CButton::`scalar deleting destructor'
_TEXT	ENDS
; Function compile flags: /Ogtp
; File C:\Program Files (x86)\Microsoft Visual Studio\2019\Community\VC\Tools\MSVC\14.29.30133\atlmfc\include\afxwin2.inl
;	COMDAT ?EndModalState@CWnd@@UAEXXZ
_TEXT	SEGMENT
?EndModalState@CWnd@@UAEXXZ PROC			; CWnd::EndModalState, COMDAT
; _this$ = ecx

; 567  : 	{ ::EnableWindow(m_hWnd, TRUE); }

  00000	6a 01		 push	 1
  00002	ff 71 20	 push	 DWORD PTR [ecx+32]
  00005	ff 15 00 00 00
	00		 call	 DWORD PTR __imp__EnableWindow@8
  0000b	c3		 ret	 0
?EndModalState@CWnd@@UAEXXZ ENDP			; CWnd::EndModalState
_TEXT	ENDS
; Function compile flags: /Ogtp
; File C:\Program Files (x86)\Microsoft Visual Studio\2019\Community\VC\Tools\MSVC\14.29.30133\atlmfc\include\afxwin2.inl
;	COMDAT ?BeginModalState@CWnd@@UAEXXZ
_TEXT	SEGMENT
?BeginModalState@CWnd@@UAEXXZ PROC			; CWnd::BeginModalState, COMDAT
; _this$ = ecx

; 565  : 	{ ::EnableWindow(m_hWnd, FALSE); }

  00000	6a 00		 push	 0
  00002	ff 71 20	 push	 DWORD PTR [ecx+32]
  00005	ff 15 00 00 00
	00		 call	 DWORD PTR __imp__EnableWindow@8
  0000b	c3		 ret	 0
?BeginModalState@CWnd@@UAEXXZ ENDP			; CWnd::BeginModalState
_TEXT	ENDS
; Function compile flags: /Ogtp
; File C:\Program Files (x86)\Microsoft Visual Studio\2019\Community\VC\Tools\MSVC\14.29.30133\atlmfc\include\afxwin2.inl
;	COMDAT ?DoDataExchange@CWnd@@MAEXPAVCDataExchange@@@Z
_TEXT	SEGMENT
___formal$ = 8						; size = 4
?DoDataExchange@CWnd@@MAEXPAVCDataExchange@@@Z PROC	; CWnd::DoDataExchange, COMDAT
; _this$ = ecx

; 561  : 	{ } // default does nothing

  00000	c2 04 00	 ret	 4
?DoDataExchange@CWnd@@MAEXPAVCDataExchange@@@Z ENDP	; CWnd::DoDataExchange
_TEXT	ENDS
; Function compile flags: /Ogtp
; File C:\Program Files (x86)\Microsoft Visual Studio\2019\Community\VC\Tools\MSVC\14.29.30133\atlmfc\include\afx.inl
;	COMDAT ?Dump@CObject@@UBEXAAVCDumpContext@@@Z
_TEXT	SEGMENT
___formal$ = 8						; size = 4
?Dump@CObject@@UBEXAAVCDumpContext@@@Z PROC		; CObject::Dump, COMDAT
; _this$ = ecx

; 122  : 	{ /* no dumping in release builds */ }

  00000	c2 04 00	 ret	 4
?Dump@CObject@@UBEXAAVCDumpContext@@@Z ENDP		; CObject::Dump
_TEXT	ENDS
; Function compile flags: /Ogtp
; File C:\Program Files (x86)\Microsoft Visual Studio\2019\Community\VC\Tools\MSVC\14.29.30133\atlmfc\include\afx.inl
;	COMDAT ?AssertValid@CObject@@UBEXXZ
_TEXT	SEGMENT
?AssertValid@CObject@@UBEXXZ PROC			; CObject::AssertValid, COMDAT
; _this$ = ecx

; 120  : 	{ /* no asserts in release builds */ }

  00000	c2 00 00	 ret	 0
?AssertValid@CObject@@UBEXXZ ENDP			; CObject::AssertValid
_TEXT	ENDS
; Function compile flags: /Ogtp
; File C:\Program Files (x86)\Microsoft Visual Studio\2019\Community\VC\Tools\MSVC\14.29.30133\atlmfc\include\afx.inl
;	COMDAT ?Serialize@CObject@@UAEXAAVCArchive@@@Z
_TEXT	SEGMENT
___formal$ = 8						; size = 4
?Serialize@CObject@@UAEXAAVCArchive@@@Z PROC		; CObject::Serialize, COMDAT
; _this$ = ecx

; 106  : 	{ /* CObject does not serialize anything by default */ }

  00000	c2 04 00	 ret	 4
?Serialize@CObject@@UAEXAAVCArchive@@@Z ENDP		; CObject::Serialize
_TEXT	ENDS
; Function compile flags: /Ogtp
; File C:\Program Files (x86)\Microsoft Visual Studio\2019\Community\VC\Tools\MSVC\14.29.30133\atlmfc\include\afx.inl
;	COMDAT ??3CObject@@SGXPAX@Z
_TEXT	SEGMENT
_p$ = 8							; size = 4
??3CObject@@SGXPAX@Z PROC				; CObject::operator delete, COMDAT

; 112  : 	{ ::operator delete(p); }

  00000	55		 push	 ebp
  00001	8b ec		 mov	 ebp, esp
  00003	ff 75 08	 push	 DWORD PTR _p$[ebp]
  00006	e8 00 00 00 00	 call	 ??3@YAXPAX@Z		; operator delete
  0000b	83 c4 04	 add	 esp, 4
  0000e	5d		 pop	 ebp
  0000f	c2 04 00	 ret	 4
??3CObject@@SGXPAX@Z ENDP				; CObject::operator delete
_TEXT	ENDS
; Function compile flags: /Ogtp
; File D:\git\src\IBK\IBK_DRFN\ProjSrc\SrcDrfn\Chart\ChartUtil\XColourPicker.cpp
;	COMDAT ?__empty_global_delete@@YAXPAXI@Z
_TEXT	SEGMENT
___formal$ = 8						; size = 4
___formal$ = 12						; size = 4
?__empty_global_delete@@YAXPAXI@Z PROC			; __empty_global_delete, COMDAT

  00000	c2 00 00	 ret	 0
?__empty_global_delete@@YAXPAXI@Z ENDP			; __empty_global_delete
_TEXT	ENDS
; Function compile flags: /Ogtp
; File D:\git\src\IBK\IBK_DRFN\ProjSrc\SrcDrfn\Chart\ChartUtil\XColourPicker.cpp
;	COMDAT ?__empty_global_delete@@YAXPAX@Z
_TEXT	SEGMENT
___formal$ = 8						; size = 4
?__empty_global_delete@@YAXPAX@Z PROC			; __empty_global_delete, COMDAT

  00000	c2 00 00	 ret	 0
?__empty_global_delete@@YAXPAX@Z ENDP			; __empty_global_delete
_TEXT	ENDS
END
