; Listing generated by Microsoft (R) Optimizing Compiler Version 19.29.30145.0 

	TITLE	D:\git\src\IBK\IBK_DRFN\#DRfn-CS\_Obj\ChartUtil\XEditPrompt.obj
	.686P
	.XMM
	include listing.inc
	.model	flat

INCLUDELIB MSVCRT
INCLUDELIB OLDNAMES

PUBLIC	?__empty_global_delete@@YAXPAX@Z		; __empty_global_delete
PUBLIC	?__empty_global_delete@@YAXPAXI@Z		; __empty_global_delete
PUBLIC	??1CObject@@UAE@XZ				; CObject::~CObject
PUBLIC	?Serialize@CObject@@UAEXAAVCArchive@@@Z		; CObject::Serialize
PUBLIC	?AssertValid@CObject@@UBEXXZ			; CObject::AssertValid
PUBLIC	?Dump@CObject@@UBEXAAVCDumpContext@@@Z		; CObject::Dump
PUBLIC	??1CGdiObject@@UAE@XZ				; CGdiObject::~CGdiObject
PUBLIC	??_GCGdiObject@@UAEPAXI@Z			; CGdiObject::`scalar deleting destructor'
PUBLIC	??1CBrush@@UAE@XZ				; CBrush::~CBrush
PUBLIC	??_GCBrush@@UAEPAXI@Z				; CBrush::`scalar deleting destructor'
PUBLIC	?DoDataExchange@CWnd@@MAEXPAVCDataExchange@@@Z	; CWnd::DoDataExchange
PUBLIC	?BeginModalState@CWnd@@UAEXXZ			; CWnd::BeginModalState
PUBLIC	?EndModalState@CWnd@@UAEXXZ			; CWnd::EndModalState
PUBLIC	??_GCEdit@@UAEPAXI@Z				; CEdit::`scalar deleting destructor'
PUBLIC	??0CXEditPrompt@@QAE@XZ				; CXEditPrompt::CXEditPrompt
PUBLIC	??1CXEditPrompt@@UAE@XZ				; CXEditPrompt::~CXEditPrompt
PUBLIC	?Reset@CXEditPrompt@@QAEXXZ			; CXEditPrompt::Reset
PUBLIC	?GetWindowTextA@CXEditPrompt@@QBEHPADH@Z	; CXEditPrompt::GetWindowTextA
PUBLIC	?GetWindowTextA@CXEditPrompt@@QBEXAAV?$CStringT@DV?$StrTraitMFC_DLL@DV?$ChTraitsCRT@D@ATL@@@@@ATL@@@Z ; CXEditPrompt::GetWindowTextA
PUBLIC	?SetPromptColor@CXEditPrompt@@QAEXK@Z		; CXEditPrompt::SetPromptColor
PUBLIC	?SetPromptText@CXEditPrompt@@QAEXPBD@Z		; CXEditPrompt::SetPromptText
PUBLIC	?SetWindowTextA@CXEditPrompt@@QAEXPBD@Z		; CXEditPrompt::SetWindowTextA
PUBLIC	?PreSubclassWindow@CXEditPrompt@@MAEXXZ		; CXEditPrompt::PreSubclassWindow
PUBLIC	?DefWindowProcA@CXEditPrompt@@MAEJIIJ@Z		; CXEditPrompt::DefWindowProcA
PUBLIC	?OnSetFocus@CXEditPrompt@@IAEXPAVCWnd@@@Z	; CXEditPrompt::OnSetFocus
PUBLIC	?CtlColor@CXEditPrompt@@IAEPAUHBRUSH__@@PAVCDC@@I@Z ; CXEditPrompt::CtlColor
PUBLIC	?OnKeyDown@CXEditPrompt@@IAEXIII@Z		; CXEditPrompt::OnKeyDown
PUBLIC	?OnLButtonDown@CXEditPrompt@@IAEXIVCPoint@@@Z	; CXEditPrompt::OnLButtonDown
PUBLIC	?OnMButtonDown@CXEditPrompt@@IAEXIVCPoint@@@Z	; CXEditPrompt::OnMButtonDown
PUBLIC	?OnRButtonDown@CXEditPrompt@@IAEXIVCPoint@@@Z	; CXEditPrompt::OnRButtonDown
PUBLIC	?GetThisMessageMap@CXEditPrompt@@KGPBUAFX_MSGMAP@@XZ ; CXEditPrompt::GetThisMessageMap
PUBLIC	?GetMessageMap@CXEditPrompt@@MBEPBUAFX_MSGMAP@@XZ ; CXEditPrompt::GetMessageMap
PUBLIC	??_GCXEditPrompt@@UAEPAXI@Z			; CXEditPrompt::`scalar deleting destructor'
PUBLIC	??_R0PAVCException@@@8				; CException * `RTTI Type Descriptor'
PUBLIC	??_C@_00CNPNBAHC@@				; `string'
PUBLIC	??_7CGdiObject@@6B@				; CGdiObject::`vftable'
PUBLIC	??_7CBrush@@6B@					; CBrush::`vftable'
PUBLIC	??_7CEdit@@6B@					; CEdit::`vftable'
PUBLIC	??_C@_0HD@JJCHHHNK@C?3?2Program?5Files?5?$CIx86?$CJ?2Microsof@ ; `string'
PUBLIC	??_C@_0BP@OIEOKIDM@Exception?5thrown?5in?5destructor@ ; `string'
PUBLIC	??_C@_0BB@HBOOMJBF@?$CFTs?5?$CI?$CFTs?3?$CFd?$CJ?6?$CFTs@ ; `string'
PUBLIC	??_C@_0N@OMEMOKLE@?$CFTs?5?$CI?$CFTs?3?$CFd?$CJ@ ; `string'
PUBLIC	??_R0?AVCObject@@@8				; CObject `RTTI Type Descriptor'
PUBLIC	??_R3CObject@@8					; CObject::`RTTI Class Hierarchy Descriptor'
PUBLIC	??_R2CObject@@8					; CObject::`RTTI Base Class Array'
PUBLIC	??_R1A@?0A@EA@CObject@@8			; CObject::`RTTI Base Class Descriptor at (0,-1,0,64)'
PUBLIC	??_R4CGdiObject@@6B@				; CGdiObject::`RTTI Complete Object Locator'
PUBLIC	??_R0?AVCGdiObject@@@8				; CGdiObject `RTTI Type Descriptor'
PUBLIC	??_R3CGdiObject@@8				; CGdiObject::`RTTI Class Hierarchy Descriptor'
PUBLIC	??_R2CGdiObject@@8				; CGdiObject::`RTTI Base Class Array'
PUBLIC	??_R1A@?0A@EA@CGdiObject@@8			; CGdiObject::`RTTI Base Class Descriptor at (0,-1,0,64)'
PUBLIC	??_R4CBrush@@6B@				; CBrush::`RTTI Complete Object Locator'
PUBLIC	??_R0?AVCBrush@@@8				; CBrush `RTTI Type Descriptor'
PUBLIC	??_R3CBrush@@8					; CBrush::`RTTI Class Hierarchy Descriptor'
PUBLIC	??_R2CBrush@@8					; CBrush::`RTTI Base Class Array'
PUBLIC	??_R1A@?0A@EA@CBrush@@8				; CBrush::`RTTI Base Class Descriptor at (0,-1,0,64)'
PUBLIC	??_R1A@?0A@EA@CWnd@@8				; CWnd::`RTTI Base Class Descriptor at (0,-1,0,64)'
PUBLIC	??_R0?AVCWnd@@@8				; CWnd `RTTI Type Descriptor'
PUBLIC	??_R3CWnd@@8					; CWnd::`RTTI Class Hierarchy Descriptor'
PUBLIC	??_R2CWnd@@8					; CWnd::`RTTI Base Class Array'
PUBLIC	??_R1A@?0A@EA@CCmdTarget@@8			; CCmdTarget::`RTTI Base Class Descriptor at (0,-1,0,64)'
PUBLIC	??_R0?AVCCmdTarget@@@8				; CCmdTarget `RTTI Type Descriptor'
PUBLIC	??_R3CCmdTarget@@8				; CCmdTarget::`RTTI Class Hierarchy Descriptor'
PUBLIC	??_R2CCmdTarget@@8				; CCmdTarget::`RTTI Base Class Array'
PUBLIC	??_R4CEdit@@6B@					; CEdit::`RTTI Complete Object Locator'
PUBLIC	??_R0?AVCEdit@@@8				; CEdit `RTTI Type Descriptor'
PUBLIC	??_R3CEdit@@8					; CEdit::`RTTI Class Hierarchy Descriptor'
PUBLIC	??_R2CEdit@@8					; CEdit::`RTTI Base Class Array'
PUBLIC	??_R1A@?0A@EA@CEdit@@8				; CEdit::`RTTI Base Class Descriptor at (0,-1,0,64)'
PUBLIC	??_7CXEditPrompt@@6B@				; CXEditPrompt::`vftable'
PUBLIC	??_C@_0BC@KPGHDFKN@?$DMEnter?5text?5here?$DO@	; `string'
PUBLIC	??_R4CXEditPrompt@@6B@				; CXEditPrompt::`RTTI Complete Object Locator'
PUBLIC	??_R0?AVCXEditPrompt@@@8			; CXEditPrompt `RTTI Type Descriptor'
PUBLIC	??_R3CXEditPrompt@@8				; CXEditPrompt::`RTTI Class Hierarchy Descriptor'
PUBLIC	??_R2CXEditPrompt@@8				; CXEditPrompt::`RTTI Base Class Array'
PUBLIC	??_R1A@?0A@EA@CXEditPrompt@@8			; CXEditPrompt::`RTTI Base Class Descriptor at (0,-1,0,64)'
EXTRN	??3@YAXPAX@Z:PROC				; operator delete
EXTRN	?__global_delete@@YAXPAXI@Z:PROC		; __global_delete
EXTRN	___std_terminate:PROC
EXTRN	__imp__CreateSolidBrush@4:PROC
EXTRN	__imp__SendMessageA@16:PROC
EXTRN	__imp__EnableWindow@8:PROC
EXTRN	__imp__InvalidateRect@12:PROC
EXTRN	__imp__GetSysColor@4:PROC
EXTRN	__imp_??0?$CStringT@DV?$StrTraitMFC_DLL@DV?$ChTraitsCRT@D@ATL@@@@@ATL@@QAE@XZ:PROC
EXTRN	__imp_??0?$CStringT@DV?$StrTraitMFC_DLL@DV?$ChTraitsCRT@D@ATL@@@@@ATL@@QAE@PBD@Z:PROC
EXTRN	__imp_??1?$CStringT@DV?$StrTraitMFC_DLL@DV?$ChTraitsCRT@D@ATL@@@@@ATL@@QAE@XZ:PROC
EXTRN	__imp_??4?$CStringT@DV?$StrTraitMFC_DLL@DV?$ChTraitsCRT@D@ATL@@@@@ATL@@QAEAAV01@PBD@Z:PROC
EXTRN	__imp_?Compare@?$CStringT@DV?$StrTraitMFC_DLL@DV?$ChTraitsCRT@D@ATL@@@@@ATL@@QBEHPBD@Z:PROC
EXTRN	__imp_?Format@?$CStringT@DV?$StrTraitMFC_DLL@DV?$ChTraitsCRT@D@ATL@@@@@ATL@@QAAXPBDZZ:PROC
EXTRN	?GetRuntimeClass@CGdiObject@@UBEPAUCRuntimeClass@@XZ:PROC ; CGdiObject::GetRuntimeClass
EXTRN	?Attach@CGdiObject@@QAEHPAX@Z:PROC		; CGdiObject::Attach
EXTRN	?DeleteObject@CGdiObject@@QAEHXZ:PROC		; CGdiObject::DeleteObject
EXTRN	??_ECGdiObject@@UAEPAXI@Z:PROC			; CGdiObject::`vector deleting destructor'
EXTRN	?GetRuntimeClass@CBrush@@UBEPAUCRuntimeClass@@XZ:PROC ; CBrush::GetRuntimeClass
EXTRN	??_ECBrush@@UAEPAXI@Z:PROC			; CBrush::`vector deleting destructor'
EXTRN	?OnCmdMsg@CCmdTarget@@UAEHIHPAXPAUAFX_CMDHANDLERINFO@@@Z:PROC ; CCmdTarget::OnCmdMsg
EXTRN	?IsInvokeAllowed@CCmdTarget@@UAEHJ@Z:PROC	; CCmdTarget::IsInvokeAllowed
EXTRN	?GetDispatchIID@CCmdTarget@@UAEHPAU_GUID@@@Z:PROC ; CCmdTarget::GetDispatchIID
EXTRN	?GetTypeInfoCount@CCmdTarget@@UAEIXZ:PROC	; CCmdTarget::GetTypeInfoCount
EXTRN	?GetTypeLibCache@CCmdTarget@@UAEPAVCTypeLibCache@@XZ:PROC ; CCmdTarget::GetTypeLibCache
EXTRN	?GetTypeLib@CCmdTarget@@UAEJKPAPAUITypeLib@@@Z:PROC ; CCmdTarget::GetTypeLib
EXTRN	?GetCommandMap@CCmdTarget@@MBEPBUAFX_OLECMDMAP@@XZ:PROC ; CCmdTarget::GetCommandMap
EXTRN	?GetDispatchMap@CCmdTarget@@MBEPBUAFX_DISPMAP@@XZ:PROC ; CCmdTarget::GetDispatchMap
EXTRN	?GetConnectionMap@CCmdTarget@@MBEPBUAFX_CONNECTIONMAP@@XZ:PROC ; CCmdTarget::GetConnectionMap
EXTRN	?GetEventSinkMap@CCmdTarget@@MBEPBUAFX_EVENTSINKMAP@@XZ:PROC ; CCmdTarget::GetEventSinkMap
EXTRN	?OnCreateAggregates@CCmdTarget@@UAEHXZ:PROC	; CCmdTarget::OnCreateAggregates
EXTRN	?GetInterfaceHook@CCmdTarget@@UAEPAUIUnknown@@PBX@Z:PROC ; CCmdTarget::GetInterfaceHook
EXTRN	?GetExtraConnectionPoints@CCmdTarget@@MAEHPAVCPtrArray@@@Z:PROC ; CCmdTarget::GetExtraConnectionPoints
EXTRN	?GetConnectionHook@CCmdTarget@@MAEPAUIConnectionPoint@@ABU_GUID@@@Z:PROC ; CCmdTarget::GetConnectionHook
EXTRN	??0CWnd@@QAE@XZ:PROC				; CWnd::CWnd
EXTRN	?PreSubclassWindow@CWnd@@UAEXXZ:PROC		; CWnd::PreSubclassWindow
EXTRN	?Create@CWnd@@UAEHPBD0KABUtagRECT@@PAV1@IPAUCCreateContext@@@Z:PROC ; CWnd::Create
EXTRN	?CreateEx@CWnd@@UAEHKPBD0KHHHHPAUHWND__@@PAUHMENU__@@PAX@Z:PROC ; CWnd::CreateEx
EXTRN	?CreateEx@CWnd@@UAEHKPBD0KABUtagRECT@@PAV1@IPAX@Z:PROC ; CWnd::CreateEx
EXTRN	?DestroyWindow@CWnd@@UAEHXZ:PROC		; CWnd::DestroyWindow
EXTRN	?PreCreateWindow@CWnd@@UAEHAAUtagCREATESTRUCTA@@@Z:PROC ; CWnd::PreCreateWindow
EXTRN	?CalcWindowRect@CWnd@@UAEXPAUtagRECT@@I@Z:PROC	; CWnd::CalcWindowRect
EXTRN	?SetWindowTextA@CWnd@@QAEXPBD@Z:PROC		; CWnd::SetWindowTextA
EXTRN	?GetWindowTextA@CWnd@@QBEHPADH@Z:PROC		; CWnd::GetWindowTextA
EXTRN	?GetWindowTextA@CWnd@@QBEXAAV?$CStringT@DV?$StrTraitMFC_DLL@DV?$ChTraitsCRT@D@ATL@@@@@ATL@@@Z:PROC ; CWnd::GetWindowTextA
EXTRN	?GetMenu@CWnd@@UBEPAVCMenu@@XZ:PROC		; CWnd::GetMenu
EXTRN	?SetMenu@CWnd@@UAEHPAVCMenu@@@Z:PROC		; CWnd::SetMenu
EXTRN	?OnToolHitTest@CWnd@@UBEHVCPoint@@PAUtagTOOLINFOA@@@Z:PROC ; CWnd::OnToolHitTest
EXTRN	?GetScrollBarCtrl@CWnd@@UBEPAVCScrollBar@@H@Z:PROC ; CWnd::GetScrollBarCtrl
EXTRN	?WinHelpA@CWnd@@UAEXKI@Z:PROC			; CWnd::WinHelpA
EXTRN	?HtmlHelpA@CWnd@@UAEXKI@Z:PROC			; CWnd::HtmlHelpA
EXTRN	?WinHelpInternal@CWnd@@UAEXKI@Z:PROC		; CWnd::WinHelpInternal
EXTRN	?ContinueModal@CWnd@@UAEHXZ:PROC		; CWnd::ContinueModal
EXTRN	?EndModalLoop@CWnd@@UAEXH@Z:PROC		; CWnd::EndModalLoop
EXTRN	?OnDrawIconicThumbnailOrLivePreview@CWnd@@UAEXAAVCDC@@VCRect@@VCSize@@HAAH@Z:PROC ; CWnd::OnDrawIconicThumbnailOrLivePreview
EXTRN	?GetInterfaceMap@CWnd@@MBEPBUAFX_INTERFACEMAP@@XZ:PROC ; CWnd::GetInterfaceMap
EXTRN	?EnsureStdObj@CWnd@@UAEJXZ:PROC			; CWnd::EnsureStdObj
EXTRN	?get_accParent@CWnd@@UAEJPAPAUIDispatch@@@Z:PROC ; CWnd::get_accParent
EXTRN	?get_accChildCount@CWnd@@UAEJPAJ@Z:PROC		; CWnd::get_accChildCount
EXTRN	?get_accChild@CWnd@@UAEJUtagVARIANT@@PAPAUIDispatch@@@Z:PROC ; CWnd::get_accChild
EXTRN	?get_accName@CWnd@@UAEJUtagVARIANT@@PAPA_W@Z:PROC ; CWnd::get_accName
EXTRN	?get_accValue@CWnd@@UAEJUtagVARIANT@@PAPA_W@Z:PROC ; CWnd::get_accValue
EXTRN	?get_accDescription@CWnd@@UAEJUtagVARIANT@@PAPA_W@Z:PROC ; CWnd::get_accDescription
EXTRN	?get_accRole@CWnd@@UAEJUtagVARIANT@@PAU2@@Z:PROC ; CWnd::get_accRole
EXTRN	?get_accState@CWnd@@UAEJUtagVARIANT@@PAU2@@Z:PROC ; CWnd::get_accState
EXTRN	?get_accHelp@CWnd@@UAEJUtagVARIANT@@PAPA_W@Z:PROC ; CWnd::get_accHelp
EXTRN	?get_accHelpTopic@CWnd@@UAEJPAPA_WUtagVARIANT@@PAJ@Z:PROC ; CWnd::get_accHelpTopic
EXTRN	?get_accKeyboardShortcut@CWnd@@UAEJUtagVARIANT@@PAPA_W@Z:PROC ; CWnd::get_accKeyboardShortcut
EXTRN	?get_accFocus@CWnd@@UAEJPAUtagVARIANT@@@Z:PROC	; CWnd::get_accFocus
EXTRN	?get_accSelection@CWnd@@UAEJPAUtagVARIANT@@@Z:PROC ; CWnd::get_accSelection
EXTRN	?get_accDefaultAction@CWnd@@UAEJUtagVARIANT@@PAPA_W@Z:PROC ; CWnd::get_accDefaultAction
EXTRN	?accSelect@CWnd@@UAEJJUtagVARIANT@@@Z:PROC	; CWnd::accSelect
EXTRN	?accLocation@CWnd@@UAEJPAJ000UtagVARIANT@@@Z:PROC ; CWnd::accLocation
EXTRN	?accNavigate@CWnd@@UAEJJUtagVARIANT@@PAU2@@Z:PROC ; CWnd::accNavigate
EXTRN	?accHitTest@CWnd@@UAEJJJPAUtagVARIANT@@@Z:PROC	; CWnd::accHitTest
EXTRN	?accDoDefaultAction@CWnd@@UAEJUtagVARIANT@@@Z:PROC ; CWnd::accDoDefaultAction
EXTRN	?put_accName@CWnd@@UAEJUtagVARIANT@@PA_W@Z:PROC	; CWnd::put_accName
EXTRN	?put_accValue@CWnd@@UAEJUtagVARIANT@@PA_W@Z:PROC ; CWnd::put_accValue
EXTRN	?SetProxy@CWnd@@UAEJPAUIAccessibleProxy@@@Z:PROC ; CWnd::SetProxy
EXTRN	?CreateAccessibleProxy@CWnd@@UAEJIJPAJ@Z:PROC	; CWnd::CreateAccessibleProxy
EXTRN	?OnCommand@CWnd@@MAEHIJ@Z:PROC			; CWnd::OnCommand
EXTRN	?OnNotify@CWnd@@MAEHIJPAJ@Z:PROC		; CWnd::OnNotify
EXTRN	?OnSetFocus@CWnd@@IAEXPAV1@@Z:PROC		; CWnd::OnSetFocus
EXTRN	?GetSuperWndProcAddr@CWnd@@MAEPAP6GJPAUHWND__@@IIJ@ZXZ:PROC ; CWnd::GetSuperWndProcAddr
EXTRN	?PreTranslateMessage@CWnd@@UAEHPAUtagMSG@@@Z:PROC ; CWnd::PreTranslateMessage
EXTRN	?OnAmbientProperty@CWnd@@UAEHPAVCOleControlSite@@JPAUtagVARIANT@@@Z:PROC ; CWnd::OnAmbientProperty
EXTRN	?WindowProc@CWnd@@MAEJIIJ@Z:PROC		; CWnd::WindowProc
EXTRN	?OnWndMsg@CWnd@@MAEHIIJPAJ@Z:PROC		; CWnd::OnWndMsg
EXTRN	?Default@CWnd@@IAEJXZ:PROC			; CWnd::Default
EXTRN	?DefWindowProcA@CWnd@@MAEJIIJ@Z:PROC		; CWnd::DefWindowProcA
EXTRN	?PostNcDestroy@CWnd@@MAEXXZ:PROC		; CWnd::PostNcDestroy
EXTRN	?OnChildNotify@CWnd@@MAEHIIJPAJ@Z:PROC		; CWnd::OnChildNotify
EXTRN	?OnTouchInputs@CWnd@@MAEHIPAUtagTOUCHINPUT@@@Z:PROC ; CWnd::OnTouchInputs
EXTRN	?OnTouchInput@CWnd@@MAEHVCPoint@@HHPAUtagTOUCHINPUT@@@Z:PROC ; CWnd::OnTouchInput
EXTRN	?GetGestureStatus@CWnd@@MAEKVCPoint@@@Z:PROC	; CWnd::GetGestureStatus
EXTRN	?OnGestureZoom@CWnd@@MAEHVCPoint@@J@Z:PROC	; CWnd::OnGestureZoom
EXTRN	?OnGesturePan@CWnd@@MAEHVCPoint@@0@Z:PROC	; CWnd::OnGesturePan
EXTRN	?OnGestureRotate@CWnd@@MAEHVCPoint@@N@Z:PROC	; CWnd::OnGestureRotate
EXTRN	?OnGestureTwoFingerTap@CWnd@@MAEHVCPoint@@@Z:PROC ; CWnd::OnGestureTwoFingerTap
EXTRN	?OnGesturePressAndTap@CWnd@@MAEHVCPoint@@J@Z:PROC ; CWnd::OnGesturePressAndTap
EXTRN	?ResizeDynamicLayout@CWnd@@MAEXXZ:PROC		; CWnd::ResizeDynamicLayout
EXTRN	?CheckAutoCenter@CWnd@@UAEHXZ:PROC		; CWnd::CheckAutoCenter
EXTRN	?IsFrameWnd@CWnd@@UBEHXZ:PROC			; CWnd::IsFrameWnd
EXTRN	?OnFinalRelease@CWnd@@UAEXXZ:PROC		; CWnd::OnFinalRelease
EXTRN	?CreateControlContainer@CWnd@@MAEHPAPAVCOleControlContainer@@@Z:PROC ; CWnd::CreateControlContainer
EXTRN	?CreateControlSite@CWnd@@MAEHPAVCOleControlContainer@@PAPAVCOleControlSite@@IABU_GUID@@@Z:PROC ; CWnd::CreateControlSite
EXTRN	?SetOccDialogInfo@CWnd@@MAEHPAU_AFX_OCC_DIALOG_INFO@@@Z:PROC ; CWnd::SetOccDialogInfo
EXTRN	?GetOccDialogInfo@CWnd@@MAEPAU_AFX_OCC_DIALOG_INFO@@XZ:PROC ; CWnd::GetOccDialogInfo
EXTRN	?GetThisMessageMap@CWnd@@KGPBUAFX_MSGMAP@@XZ:PROC ; CWnd::GetThisMessageMap
EXTRN	?GetMessageMap@CWnd@@MBEPBUAFX_MSGMAP@@XZ:PROC	; CWnd::GetMessageMap
EXTRN	?GetRuntimeClass@CEdit@@UBEPAUCRuntimeClass@@XZ:PROC ; CEdit::GetRuntimeClass
EXTRN	??1CEdit@@UAE@XZ:PROC				; CEdit::~CEdit
EXTRN	??_ECEdit@@UAEPAXI@Z:PROC			; CEdit::`vector deleting destructor'
EXTRN	?AfxMessageBox@@YGHPBDII@Z:PROC			; AfxMessageBox
EXTRN	??_ECXEditPrompt@@UAEPAXI@Z:PROC		; CXEditPrompt::`vector deleting destructor'
EXTRN	@__security_check_cookie@4:PROC
EXTRN	___CxxFrameHandler3:PROC
EXTRN	??_7type_info@@6B@:QWORD			; type_info::`vftable'
EXTRN	___security_cookie:DWORD
;	COMDAT ??_R1A@?0A@EA@CXEditPrompt@@8
rdata$r	SEGMENT
??_R1A@?0A@EA@CXEditPrompt@@8 DD FLAT:??_R0?AVCXEditPrompt@@@8 ; CXEditPrompt::`RTTI Base Class Descriptor at (0,-1,0,64)'
	DD	04H
	DD	00H
	DD	0ffffffffH
	DD	00H
	DD	040H
	DD	FLAT:??_R3CXEditPrompt@@8
rdata$r	ENDS
;	COMDAT ??_R2CXEditPrompt@@8
rdata$r	SEGMENT
??_R2CXEditPrompt@@8 DD FLAT:??_R1A@?0A@EA@CXEditPrompt@@8 ; CXEditPrompt::`RTTI Base Class Array'
	DD	FLAT:??_R1A@?0A@EA@CEdit@@8
	DD	FLAT:??_R1A@?0A@EA@CWnd@@8
	DD	FLAT:??_R1A@?0A@EA@CCmdTarget@@8
	DD	FLAT:??_R1A@?0A@EA@CObject@@8
rdata$r	ENDS
;	COMDAT ??_R3CXEditPrompt@@8
rdata$r	SEGMENT
??_R3CXEditPrompt@@8 DD 00H				; CXEditPrompt::`RTTI Class Hierarchy Descriptor'
	DD	00H
	DD	05H
	DD	FLAT:??_R2CXEditPrompt@@8
rdata$r	ENDS
;	COMDAT ??_R0?AVCXEditPrompt@@@8
data$rs	SEGMENT
??_R0?AVCXEditPrompt@@@8 DD FLAT:??_7type_info@@6B@	; CXEditPrompt `RTTI Type Descriptor'
	DD	00H
	DB	'.?AVCXEditPrompt@@', 00H
data$rs	ENDS
;	COMDAT ??_R4CXEditPrompt@@6B@
rdata$r	SEGMENT
??_R4CXEditPrompt@@6B@ DD 00H				; CXEditPrompt::`RTTI Complete Object Locator'
	DD	00H
	DD	00H
	DD	FLAT:??_R0?AVCXEditPrompt@@@8
	DD	FLAT:??_R3CXEditPrompt@@8
rdata$r	ENDS
;	COMDAT ??_C@_0BC@KPGHDFKN@?$DMEnter?5text?5here?$DO@
CONST	SEGMENT
??_C@_0BC@KPGHDFKN@?$DMEnter?5text?5here?$DO@ DB '<Enter text here>', 00H ; `string'
CONST	ENDS
;	COMDAT ?messageMap@?1??GetThisMessageMap@CXEditPrompt@@KGPBUAFX_MSGMAP@@XZ@4U3@B
CONST	SEGMENT
?messageMap@?1??GetThisMessageMap@CXEditPrompt@@KGPBUAFX_MSGMAP@@XZ@4U3@B DD FLAT:?GetThisMessageMap@CWnd@@KGPBUAFX_MSGMAP@@XZ ; `CXEditPrompt::GetThisMessageMap'::`2'::messageMap
	DD	FLAT:?_messageEntries@?1??GetThisMessageMap@CXEditPrompt@@KGPBUAFX_MSGMAP@@XZ@4QBUAFX_MSGMAP_ENTRY@@B
CONST	ENDS
;	COMDAT ?_messageEntries@?1??GetThisMessageMap@CXEditPrompt@@KGPBUAFX_MSGMAP@@XZ@4QBUAFX_MSGMAP_ENTRY@@B
CONST	SEGMENT
?_messageEntries@?1??GetThisMessageMap@CXEditPrompt@@KGPBUAFX_MSGMAP@@XZ@4QBUAFX_MSGMAP_ENTRY@@B DD 0bc19H ; `CXEditPrompt::GetThisMessageMap'::`2'::_messageEntries
	DD	00H
	DD	00H
	DD	00H
	DD	09H
	DD	FLAT:?CtlColor@CXEditPrompt@@IAEPAUHBRUSH__@@PAVCDC@@I@Z
	DD	0100H
	DD	00H
	DD	00H
	DD	00H
	DD	019H
	DD	FLAT:?OnKeyDown@CXEditPrompt@@IAEXIII@Z
	DD	07H
	DD	00H
	DD	00H
	DD	00H
	DD	024H
	DD	FLAT:?OnSetFocus@CXEditPrompt@@IAEXPAVCWnd@@@Z
	DD	0201H
	DD	00H
	DD	00H
	DD	00H
	DD	036H
	DD	FLAT:?OnLButtonDown@CXEditPrompt@@IAEXIVCPoint@@@Z
	DD	0207H
	DD	00H
	DD	00H
	DD	00H
	DD	036H
	DD	FLAT:?OnMButtonDown@CXEditPrompt@@IAEXIVCPoint@@@Z
	DD	0204H
	DD	00H
	DD	00H
	DD	00H
	DD	036H
	DD	FLAT:?OnRButtonDown@CXEditPrompt@@IAEXIVCPoint@@@Z
	DD	00H
	DD	00H
	DD	00H
	DD	00H
	DD	00H
	DD	00H
CONST	ENDS
;	COMDAT ??_7CXEditPrompt@@6B@
CONST	SEGMENT
??_7CXEditPrompt@@6B@ DD FLAT:??_R4CXEditPrompt@@6B@	; CXEditPrompt::`vftable'
	DD	FLAT:?GetRuntimeClass@CEdit@@UBEPAUCRuntimeClass@@XZ
	DD	FLAT:??_ECXEditPrompt@@UAEPAXI@Z
	DD	FLAT:?Serialize@CObject@@UAEXAAVCArchive@@@Z
	DD	FLAT:?AssertValid@CObject@@UBEXXZ
	DD	FLAT:?Dump@CObject@@UBEXAAVCDumpContext@@@Z
	DD	FLAT:?OnCmdMsg@CCmdTarget@@UAEHIHPAXPAUAFX_CMDHANDLERINFO@@@Z
	DD	FLAT:?OnFinalRelease@CWnd@@UAEXXZ
	DD	FLAT:?IsInvokeAllowed@CCmdTarget@@UAEHJ@Z
	DD	FLAT:?GetDispatchIID@CCmdTarget@@UAEHPAU_GUID@@@Z
	DD	FLAT:?GetTypeInfoCount@CCmdTarget@@UAEIXZ
	DD	FLAT:?GetTypeLibCache@CCmdTarget@@UAEPAVCTypeLibCache@@XZ
	DD	FLAT:?GetTypeLib@CCmdTarget@@UAEJKPAPAUITypeLib@@@Z
	DD	FLAT:?GetMessageMap@CXEditPrompt@@MBEPBUAFX_MSGMAP@@XZ
	DD	FLAT:?GetCommandMap@CCmdTarget@@MBEPBUAFX_OLECMDMAP@@XZ
	DD	FLAT:?GetDispatchMap@CCmdTarget@@MBEPBUAFX_DISPMAP@@XZ
	DD	FLAT:?GetConnectionMap@CCmdTarget@@MBEPBUAFX_CONNECTIONMAP@@XZ
	DD	FLAT:?GetInterfaceMap@CWnd@@MBEPBUAFX_INTERFACEMAP@@XZ
	DD	FLAT:?GetEventSinkMap@CCmdTarget@@MBEPBUAFX_EVENTSINKMAP@@XZ
	DD	FLAT:?OnCreateAggregates@CCmdTarget@@UAEHXZ
	DD	FLAT:?GetInterfaceHook@CCmdTarget@@UAEPAUIUnknown@@PBX@Z
	DD	FLAT:?GetExtraConnectionPoints@CCmdTarget@@MAEHPAVCPtrArray@@@Z
	DD	FLAT:?GetConnectionHook@CCmdTarget@@MAEPAUIConnectionPoint@@ABU_GUID@@@Z
	DD	FLAT:?PreSubclassWindow@CXEditPrompt@@MAEXXZ
	DD	FLAT:?Create@CWnd@@UAEHPBD0KABUtagRECT@@PAV1@IPAUCCreateContext@@@Z
	DD	FLAT:?CreateEx@CWnd@@UAEHKPBD0KABUtagRECT@@PAV1@IPAX@Z
	DD	FLAT:?CreateEx@CWnd@@UAEHKPBD0KHHHHPAUHWND__@@PAUHMENU__@@PAX@Z
	DD	FLAT:?DestroyWindow@CWnd@@UAEHXZ
	DD	FLAT:?PreCreateWindow@CWnd@@UAEHAAUtagCREATESTRUCTA@@@Z
	DD	FLAT:?CalcWindowRect@CWnd@@UAEXPAUtagRECT@@I@Z
	DD	FLAT:?GetMenu@CWnd@@UBEPAVCMenu@@XZ
	DD	FLAT:?SetMenu@CWnd@@UAEHPAVCMenu@@@Z
	DD	FLAT:?OnToolHitTest@CWnd@@UBEHVCPoint@@PAUtagTOOLINFOA@@@Z
	DD	FLAT:?GetScrollBarCtrl@CWnd@@UBEPAVCScrollBar@@H@Z
	DD	FLAT:?WinHelpA@CWnd@@UAEXKI@Z
	DD	FLAT:?HtmlHelpA@CWnd@@UAEXKI@Z
	DD	FLAT:?WinHelpInternal@CWnd@@UAEXKI@Z
	DD	FLAT:?ContinueModal@CWnd@@UAEHXZ
	DD	FLAT:?EndModalLoop@CWnd@@UAEXH@Z
	DD	FLAT:?OnDrawIconicThumbnailOrLivePreview@CWnd@@UAEXAAVCDC@@VCRect@@VCSize@@HAAH@Z
	DD	FLAT:?EnsureStdObj@CWnd@@UAEJXZ
	DD	FLAT:?get_accParent@CWnd@@UAEJPAPAUIDispatch@@@Z
	DD	FLAT:?get_accChildCount@CWnd@@UAEJPAJ@Z
	DD	FLAT:?get_accChild@CWnd@@UAEJUtagVARIANT@@PAPAUIDispatch@@@Z
	DD	FLAT:?get_accName@CWnd@@UAEJUtagVARIANT@@PAPA_W@Z
	DD	FLAT:?get_accValue@CWnd@@UAEJUtagVARIANT@@PAPA_W@Z
	DD	FLAT:?get_accDescription@CWnd@@UAEJUtagVARIANT@@PAPA_W@Z
	DD	FLAT:?get_accRole@CWnd@@UAEJUtagVARIANT@@PAU2@@Z
	DD	FLAT:?get_accState@CWnd@@UAEJUtagVARIANT@@PAU2@@Z
	DD	FLAT:?get_accHelp@CWnd@@UAEJUtagVARIANT@@PAPA_W@Z
	DD	FLAT:?get_accHelpTopic@CWnd@@UAEJPAPA_WUtagVARIANT@@PAJ@Z
	DD	FLAT:?get_accKeyboardShortcut@CWnd@@UAEJUtagVARIANT@@PAPA_W@Z
	DD	FLAT:?get_accFocus@CWnd@@UAEJPAUtagVARIANT@@@Z
	DD	FLAT:?get_accSelection@CWnd@@UAEJPAUtagVARIANT@@@Z
	DD	FLAT:?get_accDefaultAction@CWnd@@UAEJUtagVARIANT@@PAPA_W@Z
	DD	FLAT:?accSelect@CWnd@@UAEJJUtagVARIANT@@@Z
	DD	FLAT:?accLocation@CWnd@@UAEJPAJ000UtagVARIANT@@@Z
	DD	FLAT:?accNavigate@CWnd@@UAEJJUtagVARIANT@@PAU2@@Z
	DD	FLAT:?accHitTest@CWnd@@UAEJJJPAUtagVARIANT@@@Z
	DD	FLAT:?accDoDefaultAction@CWnd@@UAEJUtagVARIANT@@@Z
	DD	FLAT:?put_accName@CWnd@@UAEJUtagVARIANT@@PA_W@Z
	DD	FLAT:?put_accValue@CWnd@@UAEJUtagVARIANT@@PA_W@Z
	DD	FLAT:?SetProxy@CWnd@@UAEJPAUIAccessibleProxy@@@Z
	DD	FLAT:?CreateAccessibleProxy@CWnd@@UAEJIJPAJ@Z
	DD	FLAT:?OnCommand@CWnd@@MAEHIJ@Z
	DD	FLAT:?OnNotify@CWnd@@MAEHIJPAJ@Z
	DD	FLAT:?GetSuperWndProcAddr@CWnd@@MAEPAP6GJPAUHWND__@@IIJ@ZXZ
	DD	FLAT:?DoDataExchange@CWnd@@MAEXPAVCDataExchange@@@Z
	DD	FLAT:?BeginModalState@CWnd@@UAEXXZ
	DD	FLAT:?EndModalState@CWnd@@UAEXXZ
	DD	FLAT:?PreTranslateMessage@CWnd@@UAEHPAUtagMSG@@@Z
	DD	FLAT:?OnAmbientProperty@CWnd@@UAEHPAVCOleControlSite@@JPAUtagVARIANT@@@Z
	DD	FLAT:?WindowProc@CWnd@@MAEJIIJ@Z
	DD	FLAT:?OnWndMsg@CWnd@@MAEHIIJPAJ@Z
	DD	FLAT:?DefWindowProcA@CXEditPrompt@@MAEJIIJ@Z
	DD	FLAT:?PostNcDestroy@CWnd@@MAEXXZ
	DD	FLAT:?OnChildNotify@CWnd@@MAEHIIJPAJ@Z
	DD	FLAT:?OnTouchInputs@CWnd@@MAEHIPAUtagTOUCHINPUT@@@Z
	DD	FLAT:?OnTouchInput@CWnd@@MAEHVCPoint@@HHPAUtagTOUCHINPUT@@@Z
	DD	FLAT:?GetGestureStatus@CWnd@@MAEKVCPoint@@@Z
	DD	FLAT:?OnGestureZoom@CWnd@@MAEHVCPoint@@J@Z
	DD	FLAT:?OnGesturePan@CWnd@@MAEHVCPoint@@0@Z
	DD	FLAT:?OnGestureRotate@CWnd@@MAEHVCPoint@@N@Z
	DD	FLAT:?OnGestureTwoFingerTap@CWnd@@MAEHVCPoint@@@Z
	DD	FLAT:?OnGesturePressAndTap@CWnd@@MAEHVCPoint@@J@Z
	DD	FLAT:?ResizeDynamicLayout@CWnd@@MAEXXZ
	DD	FLAT:?CheckAutoCenter@CWnd@@UAEHXZ
	DD	FLAT:?IsFrameWnd@CWnd@@UBEHXZ
	DD	FLAT:?CreateControlContainer@CWnd@@MAEHPAPAVCOleControlContainer@@@Z
	DD	FLAT:?CreateControlSite@CWnd@@MAEHPAVCOleControlContainer@@PAPAVCOleControlSite@@IABU_GUID@@@Z
	DD	FLAT:?SetOccDialogInfo@CWnd@@MAEHPAU_AFX_OCC_DIALOG_INFO@@@Z
	DD	FLAT:?GetOccDialogInfo@CWnd@@MAEPAU_AFX_OCC_DIALOG_INFO@@XZ
CONST	ENDS
;	COMDAT ??_R1A@?0A@EA@CEdit@@8
rdata$r	SEGMENT
??_R1A@?0A@EA@CEdit@@8 DD FLAT:??_R0?AVCEdit@@@8	; CEdit::`RTTI Base Class Descriptor at (0,-1,0,64)'
	DD	03H
	DD	00H
	DD	0ffffffffH
	DD	00H
	DD	040H
	DD	FLAT:??_R3CEdit@@8
rdata$r	ENDS
;	COMDAT ??_R2CEdit@@8
rdata$r	SEGMENT
??_R2CEdit@@8 DD FLAT:??_R1A@?0A@EA@CEdit@@8		; CEdit::`RTTI Base Class Array'
	DD	FLAT:??_R1A@?0A@EA@CWnd@@8
	DD	FLAT:??_R1A@?0A@EA@CCmdTarget@@8
	DD	FLAT:??_R1A@?0A@EA@CObject@@8
rdata$r	ENDS
;	COMDAT ??_R3CEdit@@8
rdata$r	SEGMENT
??_R3CEdit@@8 DD 00H					; CEdit::`RTTI Class Hierarchy Descriptor'
	DD	00H
	DD	04H
	DD	FLAT:??_R2CEdit@@8
rdata$r	ENDS
;	COMDAT ??_R0?AVCEdit@@@8
data$rs	SEGMENT
??_R0?AVCEdit@@@8 DD FLAT:??_7type_info@@6B@		; CEdit `RTTI Type Descriptor'
	DD	00H
	DB	'.?AVCEdit@@', 00H
data$rs	ENDS
;	COMDAT ??_R4CEdit@@6B@
rdata$r	SEGMENT
??_R4CEdit@@6B@ DD 00H					; CEdit::`RTTI Complete Object Locator'
	DD	00H
	DD	00H
	DD	FLAT:??_R0?AVCEdit@@@8
	DD	FLAT:??_R3CEdit@@8
rdata$r	ENDS
;	COMDAT ??_R2CCmdTarget@@8
rdata$r	SEGMENT
??_R2CCmdTarget@@8 DD FLAT:??_R1A@?0A@EA@CCmdTarget@@8	; CCmdTarget::`RTTI Base Class Array'
	DD	FLAT:??_R1A@?0A@EA@CObject@@8
rdata$r	ENDS
;	COMDAT ??_R3CCmdTarget@@8
rdata$r	SEGMENT
??_R3CCmdTarget@@8 DD 00H				; CCmdTarget::`RTTI Class Hierarchy Descriptor'
	DD	00H
	DD	02H
	DD	FLAT:??_R2CCmdTarget@@8
rdata$r	ENDS
;	COMDAT ??_R0?AVCCmdTarget@@@8
data$rs	SEGMENT
??_R0?AVCCmdTarget@@@8 DD FLAT:??_7type_info@@6B@	; CCmdTarget `RTTI Type Descriptor'
	DD	00H
	DB	'.?AVCCmdTarget@@', 00H
data$rs	ENDS
;	COMDAT ??_R1A@?0A@EA@CCmdTarget@@8
rdata$r	SEGMENT
??_R1A@?0A@EA@CCmdTarget@@8 DD FLAT:??_R0?AVCCmdTarget@@@8 ; CCmdTarget::`RTTI Base Class Descriptor at (0,-1,0,64)'
	DD	01H
	DD	00H
	DD	0ffffffffH
	DD	00H
	DD	040H
	DD	FLAT:??_R3CCmdTarget@@8
rdata$r	ENDS
;	COMDAT ??_R2CWnd@@8
rdata$r	SEGMENT
??_R2CWnd@@8 DD	FLAT:??_R1A@?0A@EA@CWnd@@8		; CWnd::`RTTI Base Class Array'
	DD	FLAT:??_R1A@?0A@EA@CCmdTarget@@8
	DD	FLAT:??_R1A@?0A@EA@CObject@@8
rdata$r	ENDS
;	COMDAT ??_R3CWnd@@8
rdata$r	SEGMENT
??_R3CWnd@@8 DD	00H					; CWnd::`RTTI Class Hierarchy Descriptor'
	DD	00H
	DD	03H
	DD	FLAT:??_R2CWnd@@8
rdata$r	ENDS
;	COMDAT ??_R0?AVCWnd@@@8
data$rs	SEGMENT
??_R0?AVCWnd@@@8 DD FLAT:??_7type_info@@6B@		; CWnd `RTTI Type Descriptor'
	DD	00H
	DB	'.?AVCWnd@@', 00H
data$rs	ENDS
;	COMDAT ??_R1A@?0A@EA@CWnd@@8
rdata$r	SEGMENT
??_R1A@?0A@EA@CWnd@@8 DD FLAT:??_R0?AVCWnd@@@8		; CWnd::`RTTI Base Class Descriptor at (0,-1,0,64)'
	DD	02H
	DD	00H
	DD	0ffffffffH
	DD	00H
	DD	040H
	DD	FLAT:??_R3CWnd@@8
rdata$r	ENDS
;	COMDAT ??_R1A@?0A@EA@CBrush@@8
rdata$r	SEGMENT
??_R1A@?0A@EA@CBrush@@8 DD FLAT:??_R0?AVCBrush@@@8	; CBrush::`RTTI Base Class Descriptor at (0,-1,0,64)'
	DD	02H
	DD	00H
	DD	0ffffffffH
	DD	00H
	DD	040H
	DD	FLAT:??_R3CBrush@@8
rdata$r	ENDS
;	COMDAT ??_R2CBrush@@8
rdata$r	SEGMENT
??_R2CBrush@@8 DD FLAT:??_R1A@?0A@EA@CBrush@@8		; CBrush::`RTTI Base Class Array'
	DD	FLAT:??_R1A@?0A@EA@CGdiObject@@8
	DD	FLAT:??_R1A@?0A@EA@CObject@@8
rdata$r	ENDS
;	COMDAT ??_R3CBrush@@8
rdata$r	SEGMENT
??_R3CBrush@@8 DD 00H					; CBrush::`RTTI Class Hierarchy Descriptor'
	DD	00H
	DD	03H
	DD	FLAT:??_R2CBrush@@8
rdata$r	ENDS
;	COMDAT ??_R0?AVCBrush@@@8
data$rs	SEGMENT
??_R0?AVCBrush@@@8 DD FLAT:??_7type_info@@6B@		; CBrush `RTTI Type Descriptor'
	DD	00H
	DB	'.?AVCBrush@@', 00H
data$rs	ENDS
;	COMDAT ??_R4CBrush@@6B@
rdata$r	SEGMENT
??_R4CBrush@@6B@ DD 00H					; CBrush::`RTTI Complete Object Locator'
	DD	00H
	DD	00H
	DD	FLAT:??_R0?AVCBrush@@@8
	DD	FLAT:??_R3CBrush@@8
rdata$r	ENDS
;	COMDAT ??_R1A@?0A@EA@CGdiObject@@8
rdata$r	SEGMENT
??_R1A@?0A@EA@CGdiObject@@8 DD FLAT:??_R0?AVCGdiObject@@@8 ; CGdiObject::`RTTI Base Class Descriptor at (0,-1,0,64)'
	DD	01H
	DD	00H
	DD	0ffffffffH
	DD	00H
	DD	040H
	DD	FLAT:??_R3CGdiObject@@8
rdata$r	ENDS
;	COMDAT ??_R2CGdiObject@@8
rdata$r	SEGMENT
??_R2CGdiObject@@8 DD FLAT:??_R1A@?0A@EA@CGdiObject@@8	; CGdiObject::`RTTI Base Class Array'
	DD	FLAT:??_R1A@?0A@EA@CObject@@8
rdata$r	ENDS
;	COMDAT ??_R3CGdiObject@@8
rdata$r	SEGMENT
??_R3CGdiObject@@8 DD 00H				; CGdiObject::`RTTI Class Hierarchy Descriptor'
	DD	00H
	DD	02H
	DD	FLAT:??_R2CGdiObject@@8
rdata$r	ENDS
;	COMDAT ??_R0?AVCGdiObject@@@8
data$rs	SEGMENT
??_R0?AVCGdiObject@@@8 DD FLAT:??_7type_info@@6B@	; CGdiObject `RTTI Type Descriptor'
	DD	00H
	DB	'.?AVCGdiObject@@', 00H
data$rs	ENDS
;	COMDAT ??_R4CGdiObject@@6B@
rdata$r	SEGMENT
??_R4CGdiObject@@6B@ DD 00H				; CGdiObject::`RTTI Complete Object Locator'
	DD	00H
	DD	00H
	DD	FLAT:??_R0?AVCGdiObject@@@8
	DD	FLAT:??_R3CGdiObject@@8
rdata$r	ENDS
;	COMDAT ??_R1A@?0A@EA@CObject@@8
rdata$r	SEGMENT
??_R1A@?0A@EA@CObject@@8 DD FLAT:??_R0?AVCObject@@@8	; CObject::`RTTI Base Class Descriptor at (0,-1,0,64)'
	DD	00H
	DD	00H
	DD	0ffffffffH
	DD	00H
	DD	040H
	DD	FLAT:??_R3CObject@@8
rdata$r	ENDS
;	COMDAT ??_R2CObject@@8
rdata$r	SEGMENT
??_R2CObject@@8 DD FLAT:??_R1A@?0A@EA@CObject@@8	; CObject::`RTTI Base Class Array'
rdata$r	ENDS
;	COMDAT ??_R3CObject@@8
rdata$r	SEGMENT
??_R3CObject@@8 DD 00H					; CObject::`RTTI Class Hierarchy Descriptor'
	DD	00H
	DD	01H
	DD	FLAT:??_R2CObject@@8
rdata$r	ENDS
;	COMDAT ??_R0?AVCObject@@@8
data$rs	SEGMENT
??_R0?AVCObject@@@8 DD FLAT:??_7type_info@@6B@		; CObject `RTTI Type Descriptor'
	DD	00H
	DB	'.?AVCObject@@', 00H
data$rs	ENDS
;	COMDAT ??_C@_0N@OMEMOKLE@?$CFTs?5?$CI?$CFTs?3?$CFd?$CJ@
CONST	SEGMENT
??_C@_0N@OMEMOKLE@?$CFTs?5?$CI?$CFTs?3?$CFd?$CJ@ DB '%Ts (%Ts:%d)', 00H ; `string'
CONST	ENDS
;	COMDAT ??_C@_0BB@HBOOMJBF@?$CFTs?5?$CI?$CFTs?3?$CFd?$CJ?6?$CFTs@
CONST	SEGMENT
??_C@_0BB@HBOOMJBF@?$CFTs?5?$CI?$CFTs?3?$CFd?$CJ?6?$CFTs@ DB '%Ts (%Ts:%d'
	DB	')', 0aH, '%Ts', 00H				; `string'
CONST	ENDS
;	COMDAT ??_C@_0BP@OIEOKIDM@Exception?5thrown?5in?5destructor@
CONST	SEGMENT
??_C@_0BP@OIEOKIDM@Exception?5thrown?5in?5destructor@ DB 'Exception throw'
	DB	'n in destructor', 00H			; `string'
CONST	ENDS
;	COMDAT ??_C@_0HD@JJCHHHNK@C?3?2Program?5Files?5?$CIx86?$CJ?2Microsof@
CONST	SEGMENT
??_C@_0HD@JJCHHHNK@C?3?2Program?5Files?5?$CIx86?$CJ?2Microsof@ DB 'C:\Pro'
	DB	'gram Files (x86)\Microsoft Visual Studio\2019\Community\VC\To'
	DB	'ols\MSVC\14.29.30133\atlmfc\include\afxwin1.inl', 00H ; `string'
CONST	ENDS
;	COMDAT ??_7CEdit@@6B@
CONST	SEGMENT
??_7CEdit@@6B@ DD FLAT:??_R4CEdit@@6B@			; CEdit::`vftable'
	DD	FLAT:?GetRuntimeClass@CEdit@@UBEPAUCRuntimeClass@@XZ
	DD	FLAT:??_ECEdit@@UAEPAXI@Z
	DD	FLAT:?Serialize@CObject@@UAEXAAVCArchive@@@Z
	DD	FLAT:?AssertValid@CObject@@UBEXXZ
	DD	FLAT:?Dump@CObject@@UBEXAAVCDumpContext@@@Z
	DD	FLAT:?OnCmdMsg@CCmdTarget@@UAEHIHPAXPAUAFX_CMDHANDLERINFO@@@Z
	DD	FLAT:?OnFinalRelease@CWnd@@UAEXXZ
	DD	FLAT:?IsInvokeAllowed@CCmdTarget@@UAEHJ@Z
	DD	FLAT:?GetDispatchIID@CCmdTarget@@UAEHPAU_GUID@@@Z
	DD	FLAT:?GetTypeInfoCount@CCmdTarget@@UAEIXZ
	DD	FLAT:?GetTypeLibCache@CCmdTarget@@UAEPAVCTypeLibCache@@XZ
	DD	FLAT:?GetTypeLib@CCmdTarget@@UAEJKPAPAUITypeLib@@@Z
	DD	FLAT:?GetMessageMap@CWnd@@MBEPBUAFX_MSGMAP@@XZ
	DD	FLAT:?GetCommandMap@CCmdTarget@@MBEPBUAFX_OLECMDMAP@@XZ
	DD	FLAT:?GetDispatchMap@CCmdTarget@@MBEPBUAFX_DISPMAP@@XZ
	DD	FLAT:?GetConnectionMap@CCmdTarget@@MBEPBUAFX_CONNECTIONMAP@@XZ
	DD	FLAT:?GetInterfaceMap@CWnd@@MBEPBUAFX_INTERFACEMAP@@XZ
	DD	FLAT:?GetEventSinkMap@CCmdTarget@@MBEPBUAFX_EVENTSINKMAP@@XZ
	DD	FLAT:?OnCreateAggregates@CCmdTarget@@UAEHXZ
	DD	FLAT:?GetInterfaceHook@CCmdTarget@@UAEPAUIUnknown@@PBX@Z
	DD	FLAT:?GetExtraConnectionPoints@CCmdTarget@@MAEHPAVCPtrArray@@@Z
	DD	FLAT:?GetConnectionHook@CCmdTarget@@MAEPAUIConnectionPoint@@ABU_GUID@@@Z
	DD	FLAT:?PreSubclassWindow@CWnd@@UAEXXZ
	DD	FLAT:?Create@CWnd@@UAEHPBD0KABUtagRECT@@PAV1@IPAUCCreateContext@@@Z
	DD	FLAT:?CreateEx@CWnd@@UAEHKPBD0KABUtagRECT@@PAV1@IPAX@Z
	DD	FLAT:?CreateEx@CWnd@@UAEHKPBD0KHHHHPAUHWND__@@PAUHMENU__@@PAX@Z
	DD	FLAT:?DestroyWindow@CWnd@@UAEHXZ
	DD	FLAT:?PreCreateWindow@CWnd@@UAEHAAUtagCREATESTRUCTA@@@Z
	DD	FLAT:?CalcWindowRect@CWnd@@UAEXPAUtagRECT@@I@Z
	DD	FLAT:?GetMenu@CWnd@@UBEPAVCMenu@@XZ
	DD	FLAT:?SetMenu@CWnd@@UAEHPAVCMenu@@@Z
	DD	FLAT:?OnToolHitTest@CWnd@@UBEHVCPoint@@PAUtagTOOLINFOA@@@Z
	DD	FLAT:?GetScrollBarCtrl@CWnd@@UBEPAVCScrollBar@@H@Z
	DD	FLAT:?WinHelpA@CWnd@@UAEXKI@Z
	DD	FLAT:?HtmlHelpA@CWnd@@UAEXKI@Z
	DD	FLAT:?WinHelpInternal@CWnd@@UAEXKI@Z
	DD	FLAT:?ContinueModal@CWnd@@UAEHXZ
	DD	FLAT:?EndModalLoop@CWnd@@UAEXH@Z
	DD	FLAT:?OnDrawIconicThumbnailOrLivePreview@CWnd@@UAEXAAVCDC@@VCRect@@VCSize@@HAAH@Z
	DD	FLAT:?EnsureStdObj@CWnd@@UAEJXZ
	DD	FLAT:?get_accParent@CWnd@@UAEJPAPAUIDispatch@@@Z
	DD	FLAT:?get_accChildCount@CWnd@@UAEJPAJ@Z
	DD	FLAT:?get_accChild@CWnd@@UAEJUtagVARIANT@@PAPAUIDispatch@@@Z
	DD	FLAT:?get_accName@CWnd@@UAEJUtagVARIANT@@PAPA_W@Z
	DD	FLAT:?get_accValue@CWnd@@UAEJUtagVARIANT@@PAPA_W@Z
	DD	FLAT:?get_accDescription@CWnd@@UAEJUtagVARIANT@@PAPA_W@Z
	DD	FLAT:?get_accRole@CWnd@@UAEJUtagVARIANT@@PAU2@@Z
	DD	FLAT:?get_accState@CWnd@@UAEJUtagVARIANT@@PAU2@@Z
	DD	FLAT:?get_accHelp@CWnd@@UAEJUtagVARIANT@@PAPA_W@Z
	DD	FLAT:?get_accHelpTopic@CWnd@@UAEJPAPA_WUtagVARIANT@@PAJ@Z
	DD	FLAT:?get_accKeyboardShortcut@CWnd@@UAEJUtagVARIANT@@PAPA_W@Z
	DD	FLAT:?get_accFocus@CWnd@@UAEJPAUtagVARIANT@@@Z
	DD	FLAT:?get_accSelection@CWnd@@UAEJPAUtagVARIANT@@@Z
	DD	FLAT:?get_accDefaultAction@CWnd@@UAEJUtagVARIANT@@PAPA_W@Z
	DD	FLAT:?accSelect@CWnd@@UAEJJUtagVARIANT@@@Z
	DD	FLAT:?accLocation@CWnd@@UAEJPAJ000UtagVARIANT@@@Z
	DD	FLAT:?accNavigate@CWnd@@UAEJJUtagVARIANT@@PAU2@@Z
	DD	FLAT:?accHitTest@CWnd@@UAEJJJPAUtagVARIANT@@@Z
	DD	FLAT:?accDoDefaultAction@CWnd@@UAEJUtagVARIANT@@@Z
	DD	FLAT:?put_accName@CWnd@@UAEJUtagVARIANT@@PA_W@Z
	DD	FLAT:?put_accValue@CWnd@@UAEJUtagVARIANT@@PA_W@Z
	DD	FLAT:?SetProxy@CWnd@@UAEJPAUIAccessibleProxy@@@Z
	DD	FLAT:?CreateAccessibleProxy@CWnd@@UAEJIJPAJ@Z
	DD	FLAT:?OnCommand@CWnd@@MAEHIJ@Z
	DD	FLAT:?OnNotify@CWnd@@MAEHIJPAJ@Z
	DD	FLAT:?GetSuperWndProcAddr@CWnd@@MAEPAP6GJPAUHWND__@@IIJ@ZXZ
	DD	FLAT:?DoDataExchange@CWnd@@MAEXPAVCDataExchange@@@Z
	DD	FLAT:?BeginModalState@CWnd@@UAEXXZ
	DD	FLAT:?EndModalState@CWnd@@UAEXXZ
	DD	FLAT:?PreTranslateMessage@CWnd@@UAEHPAUtagMSG@@@Z
	DD	FLAT:?OnAmbientProperty@CWnd@@UAEHPAVCOleControlSite@@JPAUtagVARIANT@@@Z
	DD	FLAT:?WindowProc@CWnd@@MAEJIIJ@Z
	DD	FLAT:?OnWndMsg@CWnd@@MAEHIIJPAJ@Z
	DD	FLAT:?DefWindowProcA@CWnd@@MAEJIIJ@Z
	DD	FLAT:?PostNcDestroy@CWnd@@MAEXXZ
	DD	FLAT:?OnChildNotify@CWnd@@MAEHIIJPAJ@Z
	DD	FLAT:?OnTouchInputs@CWnd@@MAEHIPAUtagTOUCHINPUT@@@Z
	DD	FLAT:?OnTouchInput@CWnd@@MAEHVCPoint@@HHPAUtagTOUCHINPUT@@@Z
	DD	FLAT:?GetGestureStatus@CWnd@@MAEKVCPoint@@@Z
	DD	FLAT:?OnGestureZoom@CWnd@@MAEHVCPoint@@J@Z
	DD	FLAT:?OnGesturePan@CWnd@@MAEHVCPoint@@0@Z
	DD	FLAT:?OnGestureRotate@CWnd@@MAEHVCPoint@@N@Z
	DD	FLAT:?OnGestureTwoFingerTap@CWnd@@MAEHVCPoint@@@Z
	DD	FLAT:?OnGesturePressAndTap@CWnd@@MAEHVCPoint@@J@Z
	DD	FLAT:?ResizeDynamicLayout@CWnd@@MAEXXZ
	DD	FLAT:?CheckAutoCenter@CWnd@@UAEHXZ
	DD	FLAT:?IsFrameWnd@CWnd@@UBEHXZ
	DD	FLAT:?CreateControlContainer@CWnd@@MAEHPAPAVCOleControlContainer@@@Z
	DD	FLAT:?CreateControlSite@CWnd@@MAEHPAVCOleControlContainer@@PAPAVCOleControlSite@@IABU_GUID@@@Z
	DD	FLAT:?SetOccDialogInfo@CWnd@@MAEHPAU_AFX_OCC_DIALOG_INFO@@@Z
	DD	FLAT:?GetOccDialogInfo@CWnd@@MAEPAU_AFX_OCC_DIALOG_INFO@@XZ
CONST	ENDS
;	COMDAT ??_7CBrush@@6B@
CONST	SEGMENT
??_7CBrush@@6B@ DD FLAT:??_R4CBrush@@6B@		; CBrush::`vftable'
	DD	FLAT:?GetRuntimeClass@CBrush@@UBEPAUCRuntimeClass@@XZ
	DD	FLAT:??_ECBrush@@UAEPAXI@Z
	DD	FLAT:?Serialize@CObject@@UAEXAAVCArchive@@@Z
	DD	FLAT:?AssertValid@CObject@@UBEXXZ
	DD	FLAT:?Dump@CObject@@UBEXAAVCDumpContext@@@Z
CONST	ENDS
;	COMDAT ??_7CGdiObject@@6B@
CONST	SEGMENT
??_7CGdiObject@@6B@ DD FLAT:??_R4CGdiObject@@6B@	; CGdiObject::`vftable'
	DD	FLAT:?GetRuntimeClass@CGdiObject@@UBEPAUCRuntimeClass@@XZ
	DD	FLAT:??_ECGdiObject@@UAEPAXI@Z
	DD	FLAT:?Serialize@CObject@@UAEXAAVCArchive@@@Z
	DD	FLAT:?AssertValid@CObject@@UBEXXZ
	DD	FLAT:?Dump@CObject@@UBEXAAVCDumpContext@@@Z
CONST	ENDS
;	COMDAT ??_C@_00CNPNBAHC@@
CONST	SEGMENT
??_C@_00CNPNBAHC@@ DB 00H				; `string'
CONST	ENDS
;	COMDAT ??_R0PAVCException@@@8
data$r	SEGMENT
??_R0PAVCException@@@8 DD FLAT:??_7type_info@@6B@	; CException * `RTTI Type Descriptor'
	DD	00H
	DB	'.PAVCException@@', 00H
data$r	ENDS
;	COMDAT xdata$x
xdata$x	SEGMENT
__unwindtable$??_GCXEditPrompt@@UAEPAXI@Z DD 0ffffffffH
	DD	FLAT:___std_terminate
__ehfuncinfo$??_GCXEditPrompt@@UAEPAXI@Z DD 019930522H
	DD	01H
	DD	FLAT:__unwindtable$??_GCXEditPrompt@@UAEPAXI@Z
	DD	2 DUP(00H)
	DD	2 DUP(00H)
	DD	00H
	DD	05H
xdata$x	ENDS
;	COMDAT xdata$x
xdata$x	SEGMENT
__ehfuncinfo$??1CXEditPrompt@@UAE@XZ DD 019930522H
	DD	00H
	DD	00H
	DD	2 DUP(00H)
	DD	2 DUP(00H)
	DD	00H
	DD	05H
xdata$x	ENDS
;	COMDAT xdata$x
xdata$x	SEGMENT
__unwindtable$??0CXEditPrompt@@QAE@XZ DD 0ffffffffH
	DD	FLAT:__unwindfunclet$??0CXEditPrompt@@QAE@XZ$0
__ehfuncinfo$??0CXEditPrompt@@QAE@XZ DD 019930522H
	DD	01H
	DD	FLAT:__unwindtable$??0CXEditPrompt@@QAE@XZ
	DD	2 DUP(00H)
	DD	2 DUP(00H)
	DD	00H
	DD	01H
xdata$x	ENDS
;	COMDAT xdata$x
xdata$x	SEGMENT
__catchsym$??1CGdiObject@@UAE@XZ$3 DD 00H
	DD	FLAT:??_R0PAVCException@@@8
	DD	0fffffde4H
	DD	FLAT:__catch$??1CGdiObject@@UAE@XZ$0
__tryblocktable$??1CGdiObject@@UAE@XZ DD 00H
	DD	00H
	DD	02H
	DD	01H
	DD	FLAT:__catchsym$??1CGdiObject@@UAE@XZ$3
__unwindtable$??1CGdiObject@@UAE@XZ DD 0ffffffffH
	DD	00H
	DD	0ffffffffH
	DD	00H
	DD	01H
	DD	FLAT:__unwindfunclet$??1CGdiObject@@UAE@XZ$2
__ehfuncinfo$??1CGdiObject@@UAE@XZ DD 019930522H
	DD	03H
	DD	FLAT:__unwindtable$??1CGdiObject@@UAE@XZ
	DD	01H
	DD	FLAT:__tryblocktable$??1CGdiObject@@UAE@XZ
	DD	2 DUP(00H)
	DD	00H
	DD	05H
xdata$x	ENDS
; Function compile flags: /Ogtp
; File D:\git\src\IBK\IBK_DRFN\ProjSrc\SrcDrfn\Chart\ChartUtil\XEditPrompt.cpp
; File C:\Program Files (x86)\Microsoft Visual Studio\2019\Community\VC\Tools\MSVC\14.29.30133\atlmfc\include\afxwin1.inl
; File D:\git\src\IBK\IBK_DRFN\ProjSrc\SrcDrfn\Chart\ChartUtil\XEditPrompt.cpp
; File C:\Program Files (x86)\Microsoft Visual Studio\2019\Community\VC\Tools\MSVC\14.29.30133\atlmfc\include\afx.inl
;	COMDAT ??_GCXEditPrompt@@UAEPAXI@Z
_TEXT	SEGMENT
__$EHRec$ = -12						; size = 12
___flags$ = 8						; size = 4
??_GCXEditPrompt@@UAEPAXI@Z PROC			; CXEditPrompt::`scalar deleting destructor', COMDAT
; _this$ = ecx
  00000	55		 push	 ebp
  00001	8b ec		 mov	 ebp, esp
  00003	6a ff		 push	 -1
  00005	68 00 00 00 00	 push	 __ehhandler$??_GCXEditPrompt@@UAEPAXI@Z
  0000a	64 a1 00 00 00
	00		 mov	 eax, DWORD PTR fs:0
  00010	50		 push	 eax
  00011	56		 push	 esi
  00012	57		 push	 edi
  00013	a1 00 00 00 00	 mov	 eax, DWORD PTR ___security_cookie
  00018	33 c5		 xor	 eax, ebp
  0001a	50		 push	 eax
  0001b	8d 45 f4	 lea	 eax, DWORD PTR __$EHRec$[ebp]
  0001e	64 a3 00 00 00
	00		 mov	 DWORD PTR fs:0, eax
  00024	8b f9		 mov	 edi, ecx
; File D:\git\src\IBK\IBK_DRFN\ProjSrc\SrcDrfn\Chart\ChartUtil\XEditPrompt.cpp

; 61   : 	m_brush.DeleteObject();

  00026	8d 8f 8c 00 00
	00		 lea	 ecx, DWORD PTR [edi+140]
  0002c	c7 45 fc 00 00
	00 00		 mov	 DWORD PTR __$EHRec$[ebp+8], 0
  00033	c7 07 00 00 00
	00		 mov	 DWORD PTR [edi], OFFSET ??_7CXEditPrompt@@6B@
  00039	e8 00 00 00 00	 call	 ?DeleteObject@CGdiObject@@QAEHXZ ; CGdiObject::DeleteObject
; File C:\Program Files (x86)\Microsoft Visual Studio\2019\Community\VC\Tools\MSVC\14.29.30133\atlmfc\include\afxwin1.inl

; 130  : 	{ }

  0003e	8d 8f 8c 00 00
	00		 lea	 ecx, DWORD PTR [edi+140]
  00044	c7 87 8c 00 00
	00 00 00 00 00	 mov	 DWORD PTR [edi+140], OFFSET ??_7CBrush@@6B@
  0004e	e8 00 00 00 00	 call	 ??1CGdiObject@@UAE@XZ	; CGdiObject::~CGdiObject
; File D:\git\src\IBK\IBK_DRFN\ProjSrc\SrcDrfn\Chart\ChartUtil\XEditPrompt.cpp

; 62   : }

  00053	8d 8f 84 00 00
	00		 lea	 ecx, DWORD PTR [edi+132]
  00059	ff 15 00 00 00
	00		 call	 DWORD PTR __imp_??1?$CStringT@DV?$StrTraitMFC_DLL@DV?$ChTraitsCRT@D@ATL@@@@@ATL@@QAE@XZ
  0005f	8b cf		 mov	 ecx, edi
  00061	e8 00 00 00 00	 call	 ??1CEdit@@UAE@XZ	; CEdit::~CEdit
  00066	8b 45 08	 mov	 eax, DWORD PTR ___flags$[ebp]
  00069	a8 01		 test	 al, 1
  0006b	74 1d		 je	 SHORT $LN15@scalar
  0006d	a8 04		 test	 al, 4
  0006f	75 0b		 jne	 SHORT $LN3@scalar
; File C:\Program Files (x86)\Microsoft Visual Studio\2019\Community\VC\Tools\MSVC\14.29.30133\atlmfc\include\afx.inl

; 112  : 	{ ::operator delete(p); }

  00071	57		 push	 edi
  00072	e8 00 00 00 00	 call	 ??3@YAXPAX@Z		; operator delete
  00077	83 c4 04	 add	 esp, 4
  0007a	eb 0e		 jmp	 SHORT $LN15@scalar
$LN3@scalar:
  0007c	68 98 00 00 00	 push	 152			; 00000098H
  00081	57		 push	 edi
  00082	e8 00 00 00 00	 call	 ?__global_delete@@YAXPAXI@Z ; __global_delete
  00087	83 c4 08	 add	 esp, 8
$LN15@scalar:
  0008a	8b c7		 mov	 eax, edi
  0008c	8b 4d f4	 mov	 ecx, DWORD PTR __$EHRec$[ebp]
  0008f	64 89 0d 00 00
	00 00		 mov	 DWORD PTR fs:0, ecx
  00096	59		 pop	 ecx
  00097	5f		 pop	 edi
  00098	5e		 pop	 esi
  00099	8b e5		 mov	 esp, ebp
  0009b	5d		 pop	 ebp
  0009c	c2 04 00	 ret	 4
  0009f	cc		 int	 3
  000a0	cc		 int	 3
  000a1	cc		 int	 3
  000a2	cc		 int	 3
  000a3	cc		 int	 3
_TEXT	ENDS
;	COMDAT text$x
text$x	SEGMENT
__ehhandler$??_GCXEditPrompt@@UAEPAXI@Z:
  00000	90		 npad	 1
  00001	90		 npad	 1
  00002	8b 54 24 08	 mov	 edx, DWORD PTR [esp+8]
  00006	8d 42 0c	 lea	 eax, DWORD PTR [edx+12]
  00009	8b 4a f4	 mov	 ecx, DWORD PTR [edx-12]
  0000c	33 c8		 xor	 ecx, eax
  0000e	e8 00 00 00 00	 call	 @__security_check_cookie@4
  00013	b8 00 00 00 00	 mov	 eax, OFFSET __ehfuncinfo$??_GCXEditPrompt@@UAEPAXI@Z
  00018	e9 00 00 00 00	 jmp	 ___CxxFrameHandler3
text$x	ENDS
??_GCXEditPrompt@@UAEPAXI@Z ENDP			; CXEditPrompt::`scalar deleting destructor'
; Function compile flags: /Ogtp
; File D:\git\src\IBK\IBK_DRFN\ProjSrc\SrcDrfn\Chart\ChartUtil\XEditPrompt.cpp
;	COMDAT ?GetMessageMap@CXEditPrompt@@MBEPBUAFX_MSGMAP@@XZ
_TEXT	SEGMENT
?GetMessageMap@CXEditPrompt@@MBEPBUAFX_MSGMAP@@XZ PROC	; CXEditPrompt::GetMessageMap, COMDAT
; _this$ = ecx

; 35   : BEGIN_MESSAGE_MAP(CXEditPrompt, CEdit)

  00000	b8 00 00 00 00	 mov	 eax, OFFSET ?messageMap@?1??GetThisMessageMap@CXEditPrompt@@KGPBUAFX_MSGMAP@@XZ@4U3@B
  00005	c3		 ret	 0
?GetMessageMap@CXEditPrompt@@MBEPBUAFX_MSGMAP@@XZ ENDP	; CXEditPrompt::GetMessageMap
_TEXT	ENDS
; Function compile flags: /Ogtp
; File D:\git\src\IBK\IBK_DRFN\ProjSrc\SrcDrfn\Chart\ChartUtil\XEditPrompt.cpp
;	COMDAT ?GetThisMessageMap@CXEditPrompt@@KGPBUAFX_MSGMAP@@XZ
_TEXT	SEGMENT
?GetThisMessageMap@CXEditPrompt@@KGPBUAFX_MSGMAP@@XZ PROC ; CXEditPrompt::GetThisMessageMap, COMDAT

; 36   : 	//{{AFX_MSG_MAP(CXEditPrompt)
; 37   : 	ON_WM_CTLCOLOR_REFLECT()
; 38   : 	ON_WM_KEYDOWN()
; 39   : 	ON_WM_SETFOCUS()
; 40   : 	ON_WM_LBUTTONDOWN()
; 41   : 	ON_WM_MBUTTONDOWN()
; 42   : 	ON_WM_RBUTTONDOWN()
; 43   : 	//}}AFX_MSG_MAP
; 44   : END_MESSAGE_MAP()

  00000	b8 00 00 00 00	 mov	 eax, OFFSET ?messageMap@?1??GetThisMessageMap@CXEditPrompt@@KGPBUAFX_MSGMAP@@XZ@4U3@B
  00005	c3		 ret	 0
?GetThisMessageMap@CXEditPrompt@@KGPBUAFX_MSGMAP@@XZ ENDP ; CXEditPrompt::GetThisMessageMap
_TEXT	ENDS
; Function compile flags: /Ogtp
; File D:\git\src\IBK\IBK_DRFN\ProjSrc\SrcDrfn\Chart\ChartUtil\XEditPrompt.cpp
; File C:\Program Files (x86)\Microsoft Visual Studio\2019\Community\VC\Tools\MSVC\14.29.30133\atlmfc\include\afxwin2.inl
; File D:\git\src\IBK\IBK_DRFN\ProjSrc\SrcDrfn\Chart\ChartUtil\XEditPrompt.cpp
;	COMDAT ?OnRButtonDown@CXEditPrompt@@IAEXIVCPoint@@@Z
_TEXT	SEGMENT
_nFlags$ = 8						; size = 4
_point$ = 12						; size = 8
?OnRButtonDown@CXEditPrompt@@IAEXIVCPoint@@@Z PROC	; CXEditPrompt::OnRButtonDown, COMDAT
; _this$ = ecx

; 170  : {

  00000	56		 push	 esi
  00001	8b f1		 mov	 esi, ecx

; 171  : 	if (m_bFirstTime)

  00003	83 be 80 00 00
	00 00		 cmp	 DWORD PTR [esi+128], 0
  0000a	74 35		 je	 SHORT $LN4@OnRButtonD

; 213  : 	if (lpszString && 

  0000c	68 00 00 00 00	 push	 OFFSET ??_C@_00CNPNBAHC@@
  00011	8d 8e 84 00 00
	00		 lea	 ecx, DWORD PTR [esi+132]

; 172  : 	{
; 173  : 		m_bFirstTime = FALSE;

  00017	c7 86 80 00 00
	00 00 00 00 00	 mov	 DWORD PTR [esi+128], 0

; 213  : 	if (lpszString && 

  00021	ff 15 00 00 00
	00		 call	 DWORD PTR __imp_?Compare@?$CStringT@DV?$StrTraitMFC_DLL@DV?$ChTraitsCRT@D@ATL@@@@@ATL@@QBEHPBD@Z
  00027	85 c0		 test	 eax, eax
  00029	74 0a		 je	 SHORT $LN6@OnRButtonD

; 214  : 		(m_strPromptText.Compare(lpszString) != 0))
; 215  : 		m_bFirstTime = FALSE;

  0002b	c7 86 80 00 00
	00 00 00 00 00	 mov	 DWORD PTR [esi+128], 0
$LN6@OnRButtonD:

; 216  : 
; 217  : 	CEdit::SetWindowText(lpszString);

  00035	68 00 00 00 00	 push	 OFFSET ??_C@_00CNPNBAHC@@
  0003a	8b ce		 mov	 ecx, esi
  0003c	e8 00 00 00 00	 call	 ?SetWindowTextA@CWnd@@QAEXPBD@Z ; CWnd::SetWindowTextA
$LN4@OnRButtonD:
; File C:\Program Files (x86)\Microsoft Visual Studio\2019\Community\VC\Tools\MSVC\14.29.30133\atlmfc\include\afxwin2.inl

; 462  : 	{ Default(); }

  00041	8b ce		 mov	 ecx, esi
  00043	e8 00 00 00 00	 call	 ?Default@CWnd@@IAEJXZ	; CWnd::Default
  00048	5e		 pop	 esi
; File D:\git\src\IBK\IBK_DRFN\ProjSrc\SrcDrfn\Chart\ChartUtil\XEditPrompt.cpp

; 178  : }

  00049	c2 0c 00	 ret	 12			; 0000000cH
?OnRButtonDown@CXEditPrompt@@IAEXIVCPoint@@@Z ENDP	; CXEditPrompt::OnRButtonDown
_TEXT	ENDS
; Function compile flags: /Ogtp
; File D:\git\src\IBK\IBK_DRFN\ProjSrc\SrcDrfn\Chart\ChartUtil\XEditPrompt.cpp
; File C:\Program Files (x86)\Microsoft Visual Studio\2019\Community\VC\Tools\MSVC\14.29.30133\atlmfc\include\afxwin2.inl
; File D:\git\src\IBK\IBK_DRFN\ProjSrc\SrcDrfn\Chart\ChartUtil\XEditPrompt.cpp
;	COMDAT ?OnMButtonDown@CXEditPrompt@@IAEXIVCPoint@@@Z
_TEXT	SEGMENT
_nFlags$ = 8						; size = 4
_point$ = 12						; size = 8
?OnMButtonDown@CXEditPrompt@@IAEXIVCPoint@@@Z PROC	; CXEditPrompt::OnMButtonDown, COMDAT
; _this$ = ecx

; 157  : {

  00000	56		 push	 esi
  00001	8b f1		 mov	 esi, ecx

; 158  : 	if (m_bFirstTime)

  00003	83 be 80 00 00
	00 00		 cmp	 DWORD PTR [esi+128], 0
  0000a	74 35		 je	 SHORT $LN4@OnMButtonD

; 213  : 	if (lpszString && 

  0000c	68 00 00 00 00	 push	 OFFSET ??_C@_00CNPNBAHC@@
  00011	8d 8e 84 00 00
	00		 lea	 ecx, DWORD PTR [esi+132]

; 159  : 	{
; 160  : 		m_bFirstTime = FALSE;

  00017	c7 86 80 00 00
	00 00 00 00 00	 mov	 DWORD PTR [esi+128], 0

; 213  : 	if (lpszString && 

  00021	ff 15 00 00 00
	00		 call	 DWORD PTR __imp_?Compare@?$CStringT@DV?$StrTraitMFC_DLL@DV?$ChTraitsCRT@D@ATL@@@@@ATL@@QBEHPBD@Z
  00027	85 c0		 test	 eax, eax
  00029	74 0a		 je	 SHORT $LN6@OnMButtonD

; 214  : 		(m_strPromptText.Compare(lpszString) != 0))
; 215  : 		m_bFirstTime = FALSE;

  0002b	c7 86 80 00 00
	00 00 00 00 00	 mov	 DWORD PTR [esi+128], 0
$LN6@OnMButtonD:

; 216  : 
; 217  : 	CEdit::SetWindowText(lpszString);

  00035	68 00 00 00 00	 push	 OFFSET ??_C@_00CNPNBAHC@@
  0003a	8b ce		 mov	 ecx, esi
  0003c	e8 00 00 00 00	 call	 ?SetWindowTextA@CWnd@@QAEXPBD@Z ; CWnd::SetWindowTextA
$LN4@OnMButtonD:
; File C:\Program Files (x86)\Microsoft Visual Studio\2019\Community\VC\Tools\MSVC\14.29.30133\atlmfc\include\afxwin2.inl

; 438  : 	{ Default(); }

  00041	8b ce		 mov	 ecx, esi
  00043	e8 00 00 00 00	 call	 ?Default@CWnd@@IAEJXZ	; CWnd::Default
  00048	5e		 pop	 esi
; File D:\git\src\IBK\IBK_DRFN\ProjSrc\SrcDrfn\Chart\ChartUtil\XEditPrompt.cpp

; 165  : }

  00049	c2 0c 00	 ret	 12			; 0000000cH
?OnMButtonDown@CXEditPrompt@@IAEXIVCPoint@@@Z ENDP	; CXEditPrompt::OnMButtonDown
_TEXT	ENDS
; Function compile flags: /Ogtp
; File D:\git\src\IBK\IBK_DRFN\ProjSrc\SrcDrfn\Chart\ChartUtil\XEditPrompt.cpp
; File C:\Program Files (x86)\Microsoft Visual Studio\2019\Community\VC\Tools\MSVC\14.29.30133\atlmfc\include\afxwin2.inl
; File D:\git\src\IBK\IBK_DRFN\ProjSrc\SrcDrfn\Chart\ChartUtil\XEditPrompt.cpp
;	COMDAT ?OnLButtonDown@CXEditPrompt@@IAEXIVCPoint@@@Z
_TEXT	SEGMENT
_nFlags$ = 8						; size = 4
_point$ = 12						; size = 8
?OnLButtonDown@CXEditPrompt@@IAEXIVCPoint@@@Z PROC	; CXEditPrompt::OnLButtonDown, COMDAT
; _this$ = ecx

; 144  : {

  00000	56		 push	 esi
  00001	8b f1		 mov	 esi, ecx

; 145  : 	if (m_bFirstTime)

  00003	83 be 80 00 00
	00 00		 cmp	 DWORD PTR [esi+128], 0
  0000a	74 35		 je	 SHORT $LN4@OnLButtonD

; 213  : 	if (lpszString && 

  0000c	68 00 00 00 00	 push	 OFFSET ??_C@_00CNPNBAHC@@
  00011	8d 8e 84 00 00
	00		 lea	 ecx, DWORD PTR [esi+132]

; 146  : 	{
; 147  : 		m_bFirstTime = FALSE;

  00017	c7 86 80 00 00
	00 00 00 00 00	 mov	 DWORD PTR [esi+128], 0

; 213  : 	if (lpszString && 

  00021	ff 15 00 00 00
	00		 call	 DWORD PTR __imp_?Compare@?$CStringT@DV?$StrTraitMFC_DLL@DV?$ChTraitsCRT@D@ATL@@@@@ATL@@QBEHPBD@Z
  00027	85 c0		 test	 eax, eax
  00029	74 0a		 je	 SHORT $LN6@OnLButtonD

; 214  : 		(m_strPromptText.Compare(lpszString) != 0))
; 215  : 		m_bFirstTime = FALSE;

  0002b	c7 86 80 00 00
	00 00 00 00 00	 mov	 DWORD PTR [esi+128], 0
$LN6@OnLButtonD:

; 216  : 
; 217  : 	CEdit::SetWindowText(lpszString);

  00035	68 00 00 00 00	 push	 OFFSET ??_C@_00CNPNBAHC@@
  0003a	8b ce		 mov	 ecx, esi
  0003c	e8 00 00 00 00	 call	 ?SetWindowTextA@CWnd@@QAEXPBD@Z ; CWnd::SetWindowTextA
$LN4@OnLButtonD:
; File C:\Program Files (x86)\Microsoft Visual Studio\2019\Community\VC\Tools\MSVC\14.29.30133\atlmfc\include\afxwin2.inl

; 432  : 	{ Default(); }

  00041	8b ce		 mov	 ecx, esi
  00043	e8 00 00 00 00	 call	 ?Default@CWnd@@IAEJXZ	; CWnd::Default
  00048	5e		 pop	 esi
; File D:\git\src\IBK\IBK_DRFN\ProjSrc\SrcDrfn\Chart\ChartUtil\XEditPrompt.cpp

; 152  : }

  00049	c2 0c 00	 ret	 12			; 0000000cH
?OnLButtonDown@CXEditPrompt@@IAEXIVCPoint@@@Z ENDP	; CXEditPrompt::OnLButtonDown
_TEXT	ENDS
; Function compile flags: /Ogtp
; File D:\git\src\IBK\IBK_DRFN\ProjSrc\SrcDrfn\Chart\ChartUtil\XEditPrompt.cpp
; File C:\Program Files (x86)\Microsoft Visual Studio\2019\Community\VC\Tools\MSVC\14.29.30133\atlmfc\include\afxwin2.inl
; File D:\git\src\IBK\IBK_DRFN\ProjSrc\SrcDrfn\Chart\ChartUtil\XEditPrompt.cpp
;	COMDAT ?OnKeyDown@CXEditPrompt@@IAEXIII@Z
_TEXT	SEGMENT
_nChar$ = 8						; size = 4
_nRepCnt$ = 12						; size = 4
_nFlags$ = 16						; size = 4
?OnKeyDown@CXEditPrompt@@IAEXIII@Z PROC			; CXEditPrompt::OnKeyDown, COMDAT
; _this$ = ecx

; 130  : {

  00000	56		 push	 esi
  00001	8b f1		 mov	 esi, ecx

; 131  : 	if (m_bFirstTime)

  00003	83 be 80 00 00
	00 00		 cmp	 DWORD PTR [esi+128], 0
  0000a	74 35		 je	 SHORT $LN4@OnKeyDown

; 213  : 	if (lpszString && 

  0000c	68 00 00 00 00	 push	 OFFSET ??_C@_00CNPNBAHC@@
  00011	8d 8e 84 00 00
	00		 lea	 ecx, DWORD PTR [esi+132]

; 132  : 	{
; 133  : 		// key down includes keys like shift and ctrl
; 134  : 		m_bFirstTime = FALSE;

  00017	c7 86 80 00 00
	00 00 00 00 00	 mov	 DWORD PTR [esi+128], 0

; 213  : 	if (lpszString && 

  00021	ff 15 00 00 00
	00		 call	 DWORD PTR __imp_?Compare@?$CStringT@DV?$StrTraitMFC_DLL@DV?$ChTraitsCRT@D@ATL@@@@@ATL@@QBEHPBD@Z
  00027	85 c0		 test	 eax, eax
  00029	74 0a		 je	 SHORT $LN6@OnKeyDown

; 214  : 		(m_strPromptText.Compare(lpszString) != 0))
; 215  : 		m_bFirstTime = FALSE;

  0002b	c7 86 80 00 00
	00 00 00 00 00	 mov	 DWORD PTR [esi+128], 0
$LN6@OnKeyDown:

; 216  : 
; 217  : 	CEdit::SetWindowText(lpszString);

  00035	68 00 00 00 00	 push	 OFFSET ??_C@_00CNPNBAHC@@
  0003a	8b ce		 mov	 ecx, esi
  0003c	e8 00 00 00 00	 call	 ?SetWindowTextA@CWnd@@QAEXPBD@Z ; CWnd::SetWindowTextA
$LN4@OnKeyDown:
; File C:\Program Files (x86)\Microsoft Visual Studio\2019\Community\VC\Tools\MSVC\14.29.30133\atlmfc\include\afxwin2.inl

; 424  : 	{ Default(); }

  00041	8b ce		 mov	 ecx, esi
  00043	e8 00 00 00 00	 call	 ?Default@CWnd@@IAEJXZ	; CWnd::Default
  00048	5e		 pop	 esi
; File D:\git\src\IBK\IBK_DRFN\ProjSrc\SrcDrfn\Chart\ChartUtil\XEditPrompt.cpp

; 139  : }

  00049	c2 0c 00	 ret	 12			; 0000000cH
?OnKeyDown@CXEditPrompt@@IAEXIII@Z ENDP			; CXEditPrompt::OnKeyDown
_TEXT	ENDS
; Function compile flags: /Ogtp
; File D:\git\src\IBK\IBK_DRFN\ProjSrc\SrcDrfn\Chart\ChartUtil\XEditPrompt.cpp
; File C:\Program Files (x86)\Microsoft Visual Studio\2019\Community\VC\Tools\MSVC\14.29.30133\atlmfc\include\afxwin1.inl
; File D:\git\src\IBK\IBK_DRFN\ProjSrc\SrcDrfn\Chart\ChartUtil\XEditPrompt.cpp
;	COMDAT ?CtlColor@CXEditPrompt@@IAEPAUHBRUSH__@@PAVCDC@@I@Z
_TEXT	SEGMENT
_pDC$ = 8						; size = 4
___formal$ = 12						; size = 4
?CtlColor@CXEditPrompt@@IAEPAUHBRUSH__@@PAVCDC@@I@Z PROC ; CXEditPrompt::CtlColor, COMDAT
; _this$ = ecx

; 120  : {

  00000	55		 push	 ebp
  00001	8b ec		 mov	 ebp, esp
  00003	56		 push	 esi
  00004	8b f1		 mov	 esi, ecx

; 121  : 	if (m_bFirstTime)

  00006	83 be 80 00 00
	00 00		 cmp	 DWORD PTR [esi+128], 0
  0000d	74 0e		 je	 SHORT $LN2@CtlColor

; 122  : 		pDC->SetTextColor(m_crPromptColor);

  0000f	8b 4d 08	 mov	 ecx, DWORD PTR _pDC$[ebp]
  00012	ff b6 88 00 00
	00		 push	 DWORD PTR [esi+136]
  00018	8b 01		 mov	 eax, DWORD PTR [ecx]
  0001a	ff 50 38	 call	 DWORD PTR [eax+56]
$LN2@CtlColor:

; 123  : 	return m_brush;		// setting text color will have no effect unless 

  0001d	8d 86 8c 00 00
	00		 lea	 eax, DWORD PTR [esi+140]
  00023	5e		 pop	 esi
; File C:\Program Files (x86)\Microsoft Visual Studio\2019\Community\VC\Tools\MSVC\14.29.30133\atlmfc\include\afxwin1.inl

; 124  : 	{ return (HBRUSH)(this == NULL ? NULL : m_hObject); }

  00024	85 c0		 test	 eax, eax
  00026	75 04		 jne	 SHORT $LN6@CtlColor
; File D:\git\src\IBK\IBK_DRFN\ProjSrc\SrcDrfn\Chart\ChartUtil\XEditPrompt.cpp

; 125  : }

  00028	5d		 pop	 ebp
  00029	c2 08 00	 ret	 8
$LN6@CtlColor:

; 123  : 	return m_brush;		// setting text color will have no effect unless 

  0002c	8b 40 04	 mov	 eax, DWORD PTR [eax+4]

; 125  : }

  0002f	5d		 pop	 ebp
  00030	c2 08 00	 ret	 8
?CtlColor@CXEditPrompt@@IAEPAUHBRUSH__@@PAVCDC@@I@Z ENDP ; CXEditPrompt::CtlColor
_TEXT	ENDS
; Function compile flags: /Ogtp
; File D:\git\src\IBK\IBK_DRFN\ProjSrc\SrcDrfn\Chart\ChartUtil\XEditPrompt.cpp
; File C:\Program Files (x86)\Microsoft Visual Studio\2019\Community\VC\Tools\MSVC\14.29.30133\atlmfc\include\afxwin2.inl
; File D:\git\src\IBK\IBK_DRFN\ProjSrc\SrcDrfn\Chart\ChartUtil\XEditPrompt.cpp
;	COMDAT ?OnSetFocus@CXEditPrompt@@IAEXPAVCWnd@@@Z
_TEXT	SEGMENT
_pOldWnd$ = 8						; size = 4
?OnSetFocus@CXEditPrompt@@IAEXPAVCWnd@@@Z PROC		; CXEditPrompt::OnSetFocus, COMDAT
; _this$ = ecx

; 107  : {

  00000	55		 push	 ebp
  00001	8b ec		 mov	 ebp, esp
  00003	57		 push	 edi

; 108  : 	CEdit::OnSetFocus(pOldWnd);

  00004	ff 75 08	 push	 DWORD PTR _pOldWnd$[ebp]
  00007	8b f9		 mov	 edi, ecx
  00009	e8 00 00 00 00	 call	 ?OnSetFocus@CWnd@@IAEXPAV1@@Z ; CWnd::OnSetFocus

; 109  : 	
; 110  : 	if (m_bFirstTime)

  0000e	83 bf 80 00 00
	00 00		 cmp	 DWORD PTR [edi+128], 0
  00015	74 2b		 je	 SHORT $LN13@OnSetFocus
; File C:\Program Files (x86)\Microsoft Visual Studio\2019\Community\VC\Tools\MSVC\14.29.30133\atlmfc\include\afxwin2.inl

; 909  : 	{ ASSERT(::IsWindow(m_hWnd)); ::SendMessage(m_hWnd, EM_SETSEL, nStartChar, nEndChar);

  00017	8b 87 84 00 00
	00		 mov	 eax, DWORD PTR [edi+132]
  0001d	8b 40 f4	 mov	 eax, DWORD PTR [eax-12]
  00020	50		 push	 eax
  00021	50		 push	 eax
  00022	68 b1 00 00 00	 push	 177			; 000000b1H
  00027	ff 77 20	 push	 DWORD PTR [edi+32]
  0002a	ff 15 00 00 00
	00		 call	 DWORD PTR __imp__SendMessageA@16

; 910  : 	  if (!bNoScroll)
; 911  : 		::SendMessage(m_hWnd, EM_SCROLLCARET, 0, 0); }

  00030	6a 00		 push	 0
  00032	6a 00		 push	 0
  00034	68 b7 00 00 00	 push	 183			; 000000b7H
  00039	ff 77 20	 push	 DWORD PTR [edi+32]
  0003c	ff 15 00 00 00
	00		 call	 DWORD PTR __imp__SendMessageA@16
$LN13@OnSetFocus:
  00042	5f		 pop	 edi
; File D:\git\src\IBK\IBK_DRFN\ProjSrc\SrcDrfn\Chart\ChartUtil\XEditPrompt.cpp

; 115  : }

  00043	5d		 pop	 ebp
  00044	c2 04 00	 ret	 4
?OnSetFocus@CXEditPrompt@@IAEXPAVCWnd@@@Z ENDP		; CXEditPrompt::OnSetFocus
_TEXT	ENDS
; Function compile flags: /Ogtp
; File D:\git\src\IBK\IBK_DRFN\ProjSrc\SrcDrfn\Chart\ChartUtil\XEditPrompt.cpp
;	COMDAT ?DefWindowProcA@CXEditPrompt@@MAEJIIJ@Z
_TEXT	SEGMENT
_message$ = 8						; size = 4
_wParam$ = 12						; size = 4
_lParam$ = 16						; size = 4
?DefWindowProcA@CXEditPrompt@@MAEJIIJ@Z PROC		; CXEditPrompt::DefWindowProcA, COMDAT
; _this$ = ecx

; 223  : {

  00000	55		 push	 ebp
  00001	8b ec		 mov	 ebp, esp
  00003	53		 push	 ebx

; 224  : 	if (message == WM_SETTEXT)

  00004	8b 5d 08	 mov	 ebx, DWORD PTR _message$[ebp]
  00007	56		 push	 esi
  00008	8b f1		 mov	 esi, ecx
  0000a	57		 push	 edi
  0000b	8b 7d 10	 mov	 edi, DWORD PTR _lParam$[ebp]
  0000e	83 fb 0c	 cmp	 ebx, 12			; 0000000cH
  00011	75 4c		 jne	 SHORT $LN2@DefWindowP

; 225  : 	{
; 226  : 		TCHAR *cp = (TCHAR *) lParam;
; 227  : 
; 228  : 		if (!cp)

  00013	85 ff		 test	 edi, edi
  00015	74 3c		 je	 SHORT $LN11@DefWindowP

; 229  : 			return TRUE;
; 230  : 
; 231  : 		// the control is being initialized, just ignore
; 232  : 		if (m_bFirstTime && (cp[0] == _T('\0')))

  00017	83 be 80 00 00
	00 00		 cmp	 DWORD PTR [esi+128], 0
  0001e	74 05		 je	 SHORT $LN5@DefWindowP
  00020	80 3f 00	 cmp	 BYTE PTR [edi], 0
  00023	74 2e		 je	 SHORT $LN11@DefWindowP
$LN5@DefWindowP:

; 233  : 			return TRUE;
; 234  : 
; 235  : 		// if this is not prompt string, then no need to prompt
; 236  : 		if (m_strPromptText.Compare(cp) != 0)

  00025	57		 push	 edi
  00026	8d 8e 84 00 00
	00		 lea	 ecx, DWORD PTR [esi+132]
  0002c	ff 15 00 00 00
	00		 call	 DWORD PTR __imp_?Compare@?$CStringT@DV?$StrTraitMFC_DLL@DV?$ChTraitsCRT@D@ATL@@@@@ATL@@QBEHPBD@Z
  00032	85 c0		 test	 eax, eax
  00034	74 0a		 je	 SHORT $LN8@DefWindowP

; 237  : 			m_bFirstTime = FALSE;

  00036	c7 86 80 00 00
	00 00 00 00 00	 mov	 DWORD PTR [esi+128], 0
$LN8@DefWindowP:

; 247  : 
; 248  : 			return 0;
; 249  : 		}
; 250  : 	}
; 251  : 
; 252  : 	return CEdit::DefWindowProc(message, wParam, lParam);

  00040	57		 push	 edi
  00041	ff 75 0c	 push	 DWORD PTR _wParam$[ebp]
  00044	8b ce		 mov	 ecx, esi
  00046	53		 push	 ebx
  00047	e8 00 00 00 00	 call	 ?DefWindowProcA@CWnd@@MAEJIIJ@Z ; CWnd::DefWindowProcA
  0004c	5f		 pop	 edi

; 253  : }

  0004d	5e		 pop	 esi
  0004e	5b		 pop	 ebx
  0004f	5d		 pop	 ebp
  00050	c2 0c 00	 ret	 12			; 0000000cH
$LN11@DefWindowP:
  00053	5f		 pop	 edi
  00054	5e		 pop	 esi
  00055	b8 01 00 00 00	 mov	 eax, 1
  0005a	5b		 pop	 ebx
  0005b	5d		 pop	 ebp
  0005c	c2 0c 00	 ret	 12			; 0000000cH
$LN2@DefWindowP:

; 238  : 	}
; 239  : 	else if (message == WM_GETTEXT)

  0005f	83 fb 0d	 cmp	 ebx, 13			; 0000000dH
  00062	75 dc		 jne	 SHORT $LN8@DefWindowP

; 240  : 	{
; 241  : 		if (m_bFirstTime)

  00064	83 be 80 00 00
	00 00		 cmp	 DWORD PTR [esi+128], 0
  0006b	74 d3		 je	 SHORT $LN8@DefWindowP

; 242  : 		{
; 243  : 			TCHAR *cp = (TCHAR *) lParam;
; 244  : 
; 245  : 			if (cp && (wParam != 0))

  0006d	8b c7		 mov	 eax, edi
  0006f	85 c0		 test	 eax, eax
  00071	74 09		 je	 SHORT $LN9@DefWindowP
  00073	83 7d 0c 00	 cmp	 DWORD PTR _wParam$[ebp], 0
  00077	74 03		 je	 SHORT $LN9@DefWindowP

; 246  : 				*cp = _T('\0');

  00079	c6 00 00	 mov	 BYTE PTR [eax], 0
$LN9@DefWindowP:
  0007c	5f		 pop	 edi

; 253  : }

  0007d	5e		 pop	 esi
  0007e	33 c0		 xor	 eax, eax
  00080	5b		 pop	 ebx
  00081	5d		 pop	 ebp
  00082	c2 0c 00	 ret	 12			; 0000000cH
?DefWindowProcA@CXEditPrompt@@MAEJIIJ@Z ENDP		; CXEditPrompt::DefWindowProcA
_TEXT	ENDS
; Function compile flags: /Ogtp
; File D:\git\src\IBK\IBK_DRFN\ProjSrc\SrcDrfn\Chart\ChartUtil\XEditPrompt.cpp
; File C:\Program Files (x86)\Microsoft Visual Studio\2019\Community\VC\Tools\MSVC\14.29.30133\atlmfc\include\afxwin1.inl
; File D:\git\src\IBK\IBK_DRFN\ProjSrc\SrcDrfn\Chart\ChartUtil\XEditPrompt.cpp
; File C:\Program Files (x86)\Microsoft Visual Studio\2019\Community\VC\Tools\MSVC\14.29.30133\atlmfc\include\afxwin1.inl
; File D:\git\src\IBK\IBK_DRFN\ProjSrc\SrcDrfn\Chart\ChartUtil\XEditPrompt.cpp
; File C:\Program Files (x86)\Microsoft Visual Studio\2019\Community\VC\Tools\MSVC\14.29.30133\atlmfc\include\atlsimpstr.h
; File D:\git\src\IBK\IBK_DRFN\ProjSrc\SrcDrfn\Chart\ChartUtil\XEditPrompt.cpp
; File C:\Program Files (x86)\Microsoft Visual Studio\2019\Community\VC\Tools\MSVC\14.29.30133\atlmfc\include\afxwin2.inl
; File D:\git\src\IBK\IBK_DRFN\ProjSrc\SrcDrfn\Chart\ChartUtil\XEditPrompt.cpp
;	COMDAT ?PreSubclassWindow@CXEditPrompt@@MAEXXZ
_TEXT	SEGMENT
?PreSubclassWindow@CXEditPrompt@@MAEXXZ PROC		; CXEditPrompt::PreSubclassWindow, COMDAT
; _this$ = ecx

; 67   : {

  00000	56		 push	 esi
  00001	57		 push	 edi

; 68   : 	m_brush.CreateSolidBrush(GetSysColor(COLOR_WINDOW));

  00002	6a 05		 push	 5
  00004	8b f9		 mov	 edi, ecx
  00006	ff 15 00 00 00
	00		 call	 DWORD PTR __imp__GetSysColor@4
; File C:\Program Files (x86)\Microsoft Visual Studio\2019\Community\VC\Tools\MSVC\14.29.30133\atlmfc\include\afxwin1.inl

; 132  : 	{ return Attach(::CreateSolidBrush(crColor)); }

  0000c	50		 push	 eax
  0000d	ff 15 00 00 00
	00		 call	 DWORD PTR __imp__CreateSolidBrush@4
  00013	50		 push	 eax
; File D:\git\src\IBK\IBK_DRFN\ProjSrc\SrcDrfn\Chart\ChartUtil\XEditPrompt.cpp

; 68   : 	m_brush.CreateSolidBrush(GetSysColor(COLOR_WINDOW));

  00014	8d 8f 8c 00 00
	00		 lea	 ecx, DWORD PTR [edi+140]
; File C:\Program Files (x86)\Microsoft Visual Studio\2019\Community\VC\Tools\MSVC\14.29.30133\atlmfc\include\afxwin1.inl

; 132  : 	{ return Attach(::CreateSolidBrush(crColor)); }

  0001a	e8 00 00 00 00	 call	 ?Attach@CGdiObject@@QAEHPAX@Z ; CGdiObject::Attach
; File D:\git\src\IBK\IBK_DRFN\ProjSrc\SrcDrfn\Chart\ChartUtil\XEditPrompt.cpp

; 209  : 	if (m_bFirstTime && (lpszString[0] == _T('\0')))

  0001f	83 bf 80 00 00
	00 00		 cmp	 DWORD PTR [edi+128], 0
; File C:\Program Files (x86)\Microsoft Visual Studio\2019\Community\VC\Tools\MSVC\14.29.30133\atlmfc\include\atlsimpstr.h

; 377  : 		return( m_pszData );

  00026	8d 8f 84 00 00
	00		 lea	 ecx, DWORD PTR [edi+132]
  0002c	8b 31		 mov	 esi, DWORD PTR [ecx]
; File D:\git\src\IBK\IBK_DRFN\ProjSrc\SrcDrfn\Chart\ChartUtil\XEditPrompt.cpp

; 209  : 	if (m_bFirstTime && (lpszString[0] == _T('\0')))

  0002e	74 05		 je	 SHORT $LN8@PreSubclas
  00030	80 3e 00	 cmp	 BYTE PTR [esi], 0
  00033	74 21		 je	 SHORT $LN7@PreSubclas
$LN8@PreSubclas:

; 210  : 		return;
; 211  : 
; 212  : 	// if this is not prompt string, then no need to prompt
; 213  : 	if (lpszString && 

  00035	85 f6		 test	 esi, esi
  00037	74 15		 je	 SHORT $LN9@PreSubclas
  00039	56		 push	 esi
  0003a	ff 15 00 00 00
	00		 call	 DWORD PTR __imp_?Compare@?$CStringT@DV?$StrTraitMFC_DLL@DV?$ChTraitsCRT@D@ATL@@@@@ATL@@QBEHPBD@Z
  00040	85 c0		 test	 eax, eax
  00042	74 0a		 je	 SHORT $LN9@PreSubclas

; 214  : 		(m_strPromptText.Compare(lpszString) != 0))
; 215  : 		m_bFirstTime = FALSE;

  00044	c7 87 80 00 00
	00 00 00 00 00	 mov	 DWORD PTR [edi+128], 0
$LN9@PreSubclas:

; 216  : 
; 217  : 	CEdit::SetWindowText(lpszString);

  0004e	56		 push	 esi
  0004f	8b cf		 mov	 ecx, edi
  00051	e8 00 00 00 00	 call	 ?SetWindowTextA@CWnd@@QAEXPBD@Z ; CWnd::SetWindowTextA
$LN7@PreSubclas:
; File C:\Program Files (x86)\Microsoft Visual Studio\2019\Community\VC\Tools\MSVC\14.29.30133\atlmfc\include\afxwin2.inl

; 909  : 	{ ASSERT(::IsWindow(m_hWnd)); ::SendMessage(m_hWnd, EM_SETSEL, nStartChar, nEndChar);

  00056	8b 35 00 00 00
	00		 mov	 esi, DWORD PTR __imp__SendMessageA@16
  0005c	6a 00		 push	 0
  0005e	6a ff		 push	 -1
  00060	68 b1 00 00 00	 push	 177			; 000000b1H
  00065	ff 77 20	 push	 DWORD PTR [edi+32]
  00068	ff d6		 call	 esi

; 910  : 	  if (!bNoScroll)
; 911  : 		::SendMessage(m_hWnd, EM_SCROLLCARET, 0, 0); }

  0006a	6a 00		 push	 0
  0006c	6a 00		 push	 0
  0006e	68 b7 00 00 00	 push	 183			; 000000b7H
  00073	ff 77 20	 push	 DWORD PTR [edi+32]
  00076	ff d6		 call	 esi
; File D:\git\src\IBK\IBK_DRFN\ProjSrc\SrcDrfn\Chart\ChartUtil\XEditPrompt.cpp

; 71   : 	CEdit::PreSubclassWindow();

  00078	8b cf		 mov	 ecx, edi
  0007a	5f		 pop	 edi
  0007b	5e		 pop	 esi
  0007c	e9 00 00 00 00	 jmp	 ?PreSubclassWindow@CWnd@@UAEXXZ ; CWnd::PreSubclassWindow
?PreSubclassWindow@CXEditPrompt@@MAEXXZ ENDP		; CXEditPrompt::PreSubclassWindow
_TEXT	ENDS
; Function compile flags: /Ogtp
; File D:\git\src\IBK\IBK_DRFN\ProjSrc\SrcDrfn\Chart\ChartUtil\XEditPrompt.cpp
;	COMDAT ?SetWindowTextA@CXEditPrompt@@QAEXPBD@Z
_TEXT	SEGMENT
_lpszString$ = 8					; size = 4
?SetWindowTextA@CXEditPrompt@@QAEXPBD@Z PROC		; CXEditPrompt::SetWindowTextA, COMDAT
; _this$ = ecx

; 207  : {

  00000	55		 push	 ebp
  00001	8b ec		 mov	 ebp, esp
  00003	56		 push	 esi

; 208  : 	// the control is being initialized, just ignore
; 209  : 	if (m_bFirstTime && (lpszString[0] == _T('\0')))

  00004	8b 75 08	 mov	 esi, DWORD PTR _lpszString$[ebp]
  00007	57		 push	 edi
  00008	8b f9		 mov	 edi, ecx
  0000a	83 bf 80 00 00
	00 00		 cmp	 DWORD PTR [edi+128], 0
  00011	74 05		 je	 SHORT $LN2@SetWindowT
  00013	80 3e 00	 cmp	 BYTE PTR [esi], 0
  00016	74 27		 je	 SHORT $LN1@SetWindowT
$LN2@SetWindowT:

; 210  : 		return;
; 211  : 
; 212  : 	// if this is not prompt string, then no need to prompt
; 213  : 	if (lpszString && 

  00018	85 f6		 test	 esi, esi
  0001a	74 1b		 je	 SHORT $LN3@SetWindowT
  0001c	56		 push	 esi
  0001d	8d 8f 84 00 00
	00		 lea	 ecx, DWORD PTR [edi+132]
  00023	ff 15 00 00 00
	00		 call	 DWORD PTR __imp_?Compare@?$CStringT@DV?$StrTraitMFC_DLL@DV?$ChTraitsCRT@D@ATL@@@@@ATL@@QBEHPBD@Z
  00029	85 c0		 test	 eax, eax
  0002b	74 0a		 je	 SHORT $LN3@SetWindowT

; 214  : 		(m_strPromptText.Compare(lpszString) != 0))
; 215  : 		m_bFirstTime = FALSE;

  0002d	c7 87 80 00 00
	00 00 00 00 00	 mov	 DWORD PTR [edi+128], 0
$LN3@SetWindowT:

; 216  : 
; 217  : 	CEdit::SetWindowText(lpszString);

  00037	56		 push	 esi
  00038	8b cf		 mov	 ecx, edi
  0003a	e8 00 00 00 00	 call	 ?SetWindowTextA@CWnd@@QAEXPBD@Z ; CWnd::SetWindowTextA
$LN1@SetWindowT:

; 218  : }

  0003f	5f		 pop	 edi
  00040	5e		 pop	 esi
  00041	5d		 pop	 ebp
  00042	c2 04 00	 ret	 4
?SetWindowTextA@CXEditPrompt@@QAEXPBD@Z ENDP		; CXEditPrompt::SetWindowTextA
_TEXT	ENDS
; Function compile flags: /Ogtp
; File D:\git\src\IBK\IBK_DRFN\ProjSrc\SrcDrfn\Chart\ChartUtil\XEditPrompt.cpp
; File C:\Program Files (x86)\Microsoft Visual Studio\2019\Community\VC\Tools\MSVC\14.29.30133\atlmfc\include\atlsimpstr.h
; File D:\git\src\IBK\IBK_DRFN\ProjSrc\SrcDrfn\Chart\ChartUtil\XEditPrompt.cpp
;	COMDAT ?SetPromptText@CXEditPrompt@@QAEXPBD@Z
_TEXT	SEGMENT
_lpszPrompt$ = 8					; size = 4
?SetPromptText@CXEditPrompt@@QAEXPBD@Z PROC		; CXEditPrompt::SetPromptText, COMDAT
; _this$ = ecx

; 96   : { 

  00000	55		 push	 ebp
  00001	8b ec		 mov	 ebp, esp
  00003	53		 push	 ebx
  00004	56		 push	 esi
  00005	8b f1		 mov	 esi, ecx
  00007	57		 push	 edi

; 97   : 	m_strPromptText = lpszPrompt;

  00008	ff 75 08	 push	 DWORD PTR _lpszPrompt$[ebp]
  0000b	8d 8e 84 00 00
	00		 lea	 ecx, DWORD PTR [esi+132]
  00011	ff 15 00 00 00
	00		 call	 DWORD PTR __imp_??4?$CStringT@DV?$StrTraitMFC_DLL@DV?$ChTraitsCRT@D@ATL@@@@@ATL@@QAEAAV01@PBD@Z
; File C:\Program Files (x86)\Microsoft Visual Studio\2019\Community\VC\Tools\MSVC\14.29.30133\atlmfc\include\atlsimpstr.h

; 519  : 		return( GetData()->nDataLength );

  00017	8b be 84 00 00
	00		 mov	 edi, DWORD PTR [esi+132]

; 533  : 		return( GetLength() == 0 );

  0001d	83 7f f4 00	 cmp	 DWORD PTR [edi-12], 0
; File D:\git\src\IBK\IBK_DRFN\ProjSrc\SrcDrfn\Chart\ChartUtil\XEditPrompt.cpp

; 98   : 	if (m_strPromptText.IsEmpty())

  00021	75 11		 jne	 SHORT $LN17@SetPromptT

; 99   : 		m_bFirstTime = FALSE;

  00023	5f		 pop	 edi
  00024	c7 86 80 00 00
	00 00 00 00 00	 mov	 DWORD PTR [esi+128], 0

; 101  : 		SetWindowText(m_strPromptText);
; 102  : }

  0002e	5e		 pop	 esi
  0002f	5b		 pop	 ebx
  00030	5d		 pop	 ebp
  00031	c2 04 00	 ret	 4
$LN17@SetPromptT:

; 100  : 	if (m_bFirstTime)

  00034	83 be 80 00 00
	00 00		 cmp	 DWORD PTR [esi+128], 0
  0003b	74 28		 je	 SHORT $LN13@SetPromptT

; 209  : 	if (m_bFirstTime && (lpszString[0] == _T('\0')))

  0003d	80 3f 00	 cmp	 BYTE PTR [edi], 0
  00040	74 23		 je	 SHORT $LN13@SetPromptT

; 210  : 		return;
; 211  : 
; 212  : 	// if this is not prompt string, then no need to prompt
; 213  : 	if (lpszString && 

  00042	57		 push	 edi
  00043	8d 8e 84 00 00
	00		 lea	 ecx, DWORD PTR [esi+132]
  00049	ff 15 00 00 00
	00		 call	 DWORD PTR __imp_?Compare@?$CStringT@DV?$StrTraitMFC_DLL@DV?$ChTraitsCRT@D@ATL@@@@@ATL@@QBEHPBD@Z
  0004f	85 c0		 test	 eax, eax
  00051	74 0a		 je	 SHORT $LN15@SetPromptT

; 214  : 		(m_strPromptText.Compare(lpszString) != 0))
; 215  : 		m_bFirstTime = FALSE;

  00053	c7 86 80 00 00
	00 00 00 00 00	 mov	 DWORD PTR [esi+128], 0
$LN15@SetPromptT:

; 216  : 
; 217  : 	CEdit::SetWindowText(lpszString);

  0005d	57		 push	 edi
  0005e	8b ce		 mov	 ecx, esi
  00060	e8 00 00 00 00	 call	 ?SetWindowTextA@CWnd@@QAEXPBD@Z ; CWnd::SetWindowTextA
$LN13@SetPromptT:
  00065	5f		 pop	 edi

; 101  : 		SetWindowText(m_strPromptText);
; 102  : }

  00066	5e		 pop	 esi
  00067	5b		 pop	 ebx
  00068	5d		 pop	 ebp
  00069	c2 04 00	 ret	 4
?SetPromptText@CXEditPrompt@@QAEXPBD@Z ENDP		; CXEditPrompt::SetPromptText
_TEXT	ENDS
; Function compile flags: /Ogtp
; File D:\git\src\IBK\IBK_DRFN\ProjSrc\SrcDrfn\Chart\ChartUtil\XEditPrompt.cpp
;	COMDAT ?SetPromptColor@CXEditPrompt@@QAEXK@Z
_TEXT	SEGMENT
_crText$ = 8						; size = 4
?SetPromptColor@CXEditPrompt@@QAEXK@Z PROC		; CXEditPrompt::SetPromptColor, COMDAT
; _this$ = ecx

; 87   : {

  00000	55		 push	 ebp
  00001	8b ec		 mov	 ebp, esp

; 88   : 	m_crPromptColor = crText; 

  00003	8b 45 08	 mov	 eax, DWORD PTR _crText$[ebp]
  00006	89 81 88 00 00
	00		 mov	 DWORD PTR [ecx+136], eax

; 89   : 	//if (m_bFirstTime)
; 90   : 	//	Invalidate(FALSE);
; 91   : }

  0000c	5d		 pop	 ebp
  0000d	c2 04 00	 ret	 4
?SetPromptColor@CXEditPrompt@@QAEXK@Z ENDP		; CXEditPrompt::SetPromptColor
_TEXT	ENDS
; Function compile flags: /Ogtp
; File D:\git\src\IBK\IBK_DRFN\ProjSrc\SrcDrfn\Chart\ChartUtil\XEditPrompt.cpp
;	COMDAT ?GetWindowTextA@CXEditPrompt@@QBEXAAV?$CStringT@DV?$StrTraitMFC_DLL@DV?$ChTraitsCRT@D@ATL@@@@@ATL@@@Z
_TEXT	SEGMENT
_rString$ = 8						; size = 4
?GetWindowTextA@CXEditPrompt@@QBEXAAV?$CStringT@DV?$StrTraitMFC_DLL@DV?$ChTraitsCRT@D@ATL@@@@@ATL@@@Z PROC ; CXEditPrompt::GetWindowTextA, COMDAT
; _this$ = ecx

; 197  : {

  00000	55		 push	 ebp
  00001	8b ec		 mov	 ebp, esp

; 198  : 	if (m_bFirstTime)

  00003	83 b9 80 00 00
	00 00		 cmp	 DWORD PTR [ecx+128], 0
  0000a	74 12		 je	 SHORT $LN2@GetWindowT

; 199  : 		rString = _T("");

  0000c	8b 4d 08	 mov	 ecx, DWORD PTR _rString$[ebp]
  0000f	68 00 00 00 00	 push	 OFFSET ??_C@_00CNPNBAHC@@
  00014	ff 15 00 00 00
	00		 call	 DWORD PTR __imp_??4?$CStringT@DV?$StrTraitMFC_DLL@DV?$ChTraitsCRT@D@ATL@@@@@ATL@@QAEAAV01@PBD@Z

; 202  : }

  0001a	5d		 pop	 ebp
  0001b	c2 04 00	 ret	 4
$LN2@GetWindowT:
  0001e	5d		 pop	 ebp

; 200  : 	else
; 201  : 		CEdit::GetWindowText(rString);

  0001f	e9 00 00 00 00	 jmp	 ?GetWindowTextA@CWnd@@QBEXAAV?$CStringT@DV?$StrTraitMFC_DLL@DV?$ChTraitsCRT@D@ATL@@@@@ATL@@@Z ; CWnd::GetWindowTextA
?GetWindowTextA@CXEditPrompt@@QBEXAAV?$CStringT@DV?$StrTraitMFC_DLL@DV?$ChTraitsCRT@D@ATL@@@@@ATL@@@Z ENDP ; CXEditPrompt::GetWindowTextA
_TEXT	ENDS
; Function compile flags: /Ogtp
; File D:\git\src\IBK\IBK_DRFN\ProjSrc\SrcDrfn\Chart\ChartUtil\XEditPrompt.cpp
;	COMDAT ?GetWindowTextA@CXEditPrompt@@QBEHPADH@Z
_TEXT	SEGMENT
_lpszStringBuf$ = 8					; size = 4
_nMaxCount$ = 12					; size = 4
?GetWindowTextA@CXEditPrompt@@QBEHPADH@Z PROC		; CXEditPrompt::GetWindowTextA, COMDAT
; _this$ = ecx

; 183  : {

  00000	55		 push	 ebp
  00001	8b ec		 mov	 ebp, esp

; 184  : 	if (m_bFirstTime)

  00003	83 b9 80 00 00
	00 00		 cmp	 DWORD PTR [ecx+128], 0
  0000a	74 16		 je	 SHORT $LN2@GetWindowT

; 185  : 	{
; 186  : 		if (lpszStringBuf && (nMaxCount > 0))

  0000c	8b 45 08	 mov	 eax, DWORD PTR _lpszStringBuf$[ebp]
  0000f	85 c0		 test	 eax, eax
  00011	74 09		 je	 SHORT $LN3@GetWindowT
  00013	83 7d 0c 00	 cmp	 DWORD PTR _nMaxCount$[ebp], 0
  00017	7e 03		 jle	 SHORT $LN3@GetWindowT

; 187  : 			lpszStringBuf[0] = _T('\0');

  00019	c6 00 00	 mov	 BYTE PTR [eax], 0
$LN3@GetWindowT:

; 188  : 		return 0;

  0001c	33 c0		 xor	 eax, eax

; 192  : }

  0001e	5d		 pop	 ebp
  0001f	c2 08 00	 ret	 8
$LN2@GetWindowT:
  00022	5d		 pop	 ebp

; 189  : 	}
; 190  : 
; 191  : 	return CEdit::GetWindowText(lpszStringBuf, nMaxCount);

  00023	e9 00 00 00 00	 jmp	 ?GetWindowTextA@CWnd@@QBEHPADH@Z ; CWnd::GetWindowTextA
?GetWindowTextA@CXEditPrompt@@QBEHPADH@Z ENDP		; CXEditPrompt::GetWindowTextA
_TEXT	ENDS
; Function compile flags: /Ogtp
; File D:\git\src\IBK\IBK_DRFN\ProjSrc\SrcDrfn\Chart\ChartUtil\XEditPrompt.cpp
; File C:\Program Files (x86)\Microsoft Visual Studio\2019\Community\VC\Tools\MSVC\14.29.30133\atlmfc\include\atlsimpstr.h
; File D:\git\src\IBK\IBK_DRFN\ProjSrc\SrcDrfn\Chart\ChartUtil\XEditPrompt.cpp
; File C:\Program Files (x86)\Microsoft Visual Studio\2019\Community\VC\Tools\MSVC\14.29.30133\atlmfc\include\afxwin2.inl
; File D:\git\src\IBK\IBK_DRFN\ProjSrc\SrcDrfn\Chart\ChartUtil\XEditPrompt.cpp
;	COMDAT ?Reset@CXEditPrompt@@QAEXXZ
_TEXT	SEGMENT
?Reset@CXEditPrompt@@QAEXXZ PROC			; CXEditPrompt::Reset, COMDAT
; _this$ = ecx

; 77   : {

  00000	53		 push	 ebx
  00001	56		 push	 esi
  00002	57		 push	 edi
  00003	8b f9		 mov	 edi, ecx
; File C:\Program Files (x86)\Microsoft Visual Studio\2019\Community\VC\Tools\MSVC\14.29.30133\atlmfc\include\atlsimpstr.h

; 377  : 		return( m_pszData );

  00005	8b b7 84 00 00
	00		 mov	 esi, DWORD PTR [edi+132]
; File D:\git\src\IBK\IBK_DRFN\ProjSrc\SrcDrfn\Chart\ChartUtil\XEditPrompt.cpp

; 78   : 	m_bFirstTime = TRUE;

  0000b	c7 87 80 00 00
	00 01 00 00 00	 mov	 DWORD PTR [edi+128], 1

; 209  : 	if (m_bFirstTime && (lpszString[0] == _T('\0')))

  00015	80 3e 00	 cmp	 BYTE PTR [esi], 0
  00018	74 29		 je	 SHORT $LN5@Reset

; 210  : 		return;
; 211  : 
; 212  : 	// if this is not prompt string, then no need to prompt
; 213  : 	if (lpszString && 

  0001a	56		 push	 esi
  0001b	8d 8f 84 00 00
	00		 lea	 ecx, DWORD PTR [edi+132]
  00021	ff 15 00 00 00
	00		 call	 DWORD PTR __imp_?Compare@?$CStringT@DV?$StrTraitMFC_DLL@DV?$ChTraitsCRT@D@ATL@@@@@ATL@@QBEHPBD@Z
  00027	85 c0		 test	 eax, eax
  00029	74 0a		 je	 SHORT $LN7@Reset

; 214  : 		(m_strPromptText.Compare(lpszString) != 0))
; 215  : 		m_bFirstTime = FALSE;

  0002b	c7 87 80 00 00
	00 00 00 00 00	 mov	 DWORD PTR [edi+128], 0
$LN7@Reset:

; 216  : 
; 217  : 	CEdit::SetWindowText(lpszString);

  00035	56		 push	 esi
  00036	8b cf		 mov	 ecx, edi
  00038	e8 00 00 00 00	 call	 ?SetWindowTextA@CWnd@@QAEXPBD@Z ; CWnd::SetWindowTextA
  0003d	8b b7 84 00 00
	00		 mov	 esi, DWORD PTR [edi+132]
$LN5@Reset:
; File C:\Program Files (x86)\Microsoft Visual Studio\2019\Community\VC\Tools\MSVC\14.29.30133\atlmfc\include\afxwin2.inl

; 909  : 	{ ASSERT(::IsWindow(m_hWnd)); ::SendMessage(m_hWnd, EM_SETSEL, nStartChar, nEndChar);

  00043	8b 46 f4	 mov	 eax, DWORD PTR [esi-12]
  00046	8b 35 00 00 00
	00		 mov	 esi, DWORD PTR __imp__SendMessageA@16
  0004c	50		 push	 eax
  0004d	50		 push	 eax
  0004e	68 b1 00 00 00	 push	 177			; 000000b1H
  00053	ff 77 20	 push	 DWORD PTR [edi+32]
  00056	ff d6		 call	 esi

; 910  : 	  if (!bNoScroll)
; 911  : 		::SendMessage(m_hWnd, EM_SCROLLCARET, 0, 0); }

  00058	6a 00		 push	 0
  0005a	6a 00		 push	 0
  0005c	68 b7 00 00 00	 push	 183			; 000000b7H
  00061	ff 77 20	 push	 DWORD PTR [edi+32]
  00064	ff d6		 call	 esi

; 114  : 	{ ASSERT(::IsWindow(m_hWnd)); ::InvalidateRect(m_hWnd, NULL, bErase); }

  00066	6a 01		 push	 1
  00068	6a 00		 push	 0
  0006a	ff 77 20	 push	 DWORD PTR [edi+32]
  0006d	ff 15 00 00 00
	00		 call	 DWORD PTR __imp__InvalidateRect@12
  00073	5f		 pop	 edi
  00074	5e		 pop	 esi
  00075	5b		 pop	 ebx
; File D:\git\src\IBK\IBK_DRFN\ProjSrc\SrcDrfn\Chart\ChartUtil\XEditPrompt.cpp

; 82   : }

  00076	c3		 ret	 0
?Reset@CXEditPrompt@@QAEXXZ ENDP			; CXEditPrompt::Reset
_TEXT	ENDS
; Function compile flags: /Ogtp
; File D:\git\src\IBK\IBK_DRFN\ProjSrc\SrcDrfn\Chart\ChartUtil\XEditPrompt.cpp
; File C:\Program Files (x86)\Microsoft Visual Studio\2019\Community\VC\Tools\MSVC\14.29.30133\atlmfc\include\afxwin1.inl
; File D:\git\src\IBK\IBK_DRFN\ProjSrc\SrcDrfn\Chart\ChartUtil\XEditPrompt.cpp
;	COMDAT ??1CXEditPrompt@@UAE@XZ
_TEXT	SEGMENT
__$EHRec$ = -12						; size = 12
??1CXEditPrompt@@UAE@XZ PROC				; CXEditPrompt::~CXEditPrompt, COMDAT
; _this$ = ecx

; 60   : {

  00000	55		 push	 ebp
  00001	8b ec		 mov	 ebp, esp
  00003	6a ff		 push	 -1
  00005	68 00 00 00 00	 push	 __ehhandler$??1CXEditPrompt@@UAE@XZ
  0000a	64 a1 00 00 00
	00		 mov	 eax, DWORD PTR fs:0
  00010	50		 push	 eax
  00011	56		 push	 esi
  00012	57		 push	 edi
  00013	a1 00 00 00 00	 mov	 eax, DWORD PTR ___security_cookie
  00018	33 c5		 xor	 eax, ebp
  0001a	50		 push	 eax
  0001b	8d 45 f4	 lea	 eax, DWORD PTR __$EHRec$[ebp]
  0001e	64 a3 00 00 00
	00		 mov	 DWORD PTR fs:0, eax
  00024	8b f9		 mov	 edi, ecx

; 61   : 	m_brush.DeleteObject();

  00026	8d 8f 8c 00 00
	00		 lea	 ecx, DWORD PTR [edi+140]
  0002c	c7 07 00 00 00
	00		 mov	 DWORD PTR [edi], OFFSET ??_7CXEditPrompt@@6B@
  00032	e8 00 00 00 00	 call	 ?DeleteObject@CGdiObject@@QAEHXZ ; CGdiObject::DeleteObject
; File C:\Program Files (x86)\Microsoft Visual Studio\2019\Community\VC\Tools\MSVC\14.29.30133\atlmfc\include\afxwin1.inl

; 130  : 	{ }

  00037	8d 8f 8c 00 00
	00		 lea	 ecx, DWORD PTR [edi+140]
  0003d	c7 87 8c 00 00
	00 00 00 00 00	 mov	 DWORD PTR [edi+140], OFFSET ??_7CBrush@@6B@
  00047	e8 00 00 00 00	 call	 ??1CGdiObject@@UAE@XZ	; CGdiObject::~CGdiObject
; File D:\git\src\IBK\IBK_DRFN\ProjSrc\SrcDrfn\Chart\ChartUtil\XEditPrompt.cpp

; 62   : }

  0004c	8d 8f 84 00 00
	00		 lea	 ecx, DWORD PTR [edi+132]
  00052	ff 15 00 00 00
	00		 call	 DWORD PTR __imp_??1?$CStringT@DV?$StrTraitMFC_DLL@DV?$ChTraitsCRT@D@ATL@@@@@ATL@@QAE@XZ
  00058	8b cf		 mov	 ecx, edi
  0005a	e8 00 00 00 00	 call	 ??1CEdit@@UAE@XZ	; CEdit::~CEdit
  0005f	8b 4d f4	 mov	 ecx, DWORD PTR __$EHRec$[ebp]
  00062	64 89 0d 00 00
	00 00		 mov	 DWORD PTR fs:0, ecx
  00069	59		 pop	 ecx
  0006a	5f		 pop	 edi
  0006b	5e		 pop	 esi
  0006c	8b e5		 mov	 esp, ebp
  0006e	5d		 pop	 ebp
  0006f	c3		 ret	 0
  00070	cc		 int	 3
  00071	cc		 int	 3
  00072	cc		 int	 3
  00073	cc		 int	 3
  00074	cc		 int	 3
_TEXT	ENDS
;	COMDAT text$x
text$x	SEGMENT
__ehhandler$??1CXEditPrompt@@UAE@XZ:
  00000	90		 npad	 1
  00001	90		 npad	 1
  00002	8b 54 24 08	 mov	 edx, DWORD PTR [esp+8]
  00006	8d 42 0c	 lea	 eax, DWORD PTR [edx+12]
  00009	8b 4a f4	 mov	 ecx, DWORD PTR [edx-12]
  0000c	33 c8		 xor	 ecx, eax
  0000e	e8 00 00 00 00	 call	 @__security_check_cookie@4
  00013	b8 00 00 00 00	 mov	 eax, OFFSET __ehfuncinfo$??1CXEditPrompt@@UAE@XZ
  00018	e9 00 00 00 00	 jmp	 ___CxxFrameHandler3
text$x	ENDS
??1CXEditPrompt@@UAE@XZ ENDP				; CXEditPrompt::~CXEditPrompt
; Function compile flags: /Ogtp
; File D:\git\src\IBK\IBK_DRFN\ProjSrc\SrcDrfn\Chart\ChartUtil\XEditPrompt.cpp
; File C:\Program Files (x86)\Microsoft Visual Studio\2019\Community\VC\Tools\MSVC\14.29.30133\atlmfc\include\afxwin2.inl
; File D:\git\src\IBK\IBK_DRFN\ProjSrc\SrcDrfn\Chart\ChartUtil\XEditPrompt.cpp
; File C:\Program Files (x86)\Microsoft Visual Studio\2019\Community\VC\Tools\MSVC\14.29.30133\atlmfc\include\afxwin1.inl
; File D:\git\src\IBK\IBK_DRFN\ProjSrc\SrcDrfn\Chart\ChartUtil\XEditPrompt.cpp
;	COMDAT ??0CXEditPrompt@@QAE@XZ
_TEXT	SEGMENT
_this$ = -16						; size = 4
__$EHRec$ = -12						; size = 12
??0CXEditPrompt@@QAE@XZ PROC				; CXEditPrompt::CXEditPrompt, COMDAT
; _this$ = ecx

; 53   : {

  00000	55		 push	 ebp
  00001	8b ec		 mov	 ebp, esp
  00003	6a ff		 push	 -1
  00005	68 00 00 00 00	 push	 __ehhandler$??0CXEditPrompt@@QAE@XZ
  0000a	64 a1 00 00 00
	00		 mov	 eax, DWORD PTR fs:0
  00010	50		 push	 eax
  00011	51		 push	 ecx
  00012	56		 push	 esi
  00013	a1 00 00 00 00	 mov	 eax, DWORD PTR ___security_cookie
  00018	33 c5		 xor	 eax, ebp
  0001a	50		 push	 eax
  0001b	8d 45 f4	 lea	 eax, DWORD PTR __$EHRec$[ebp]
  0001e	64 a3 00 00 00
	00		 mov	 DWORD PTR fs:0, eax
  00024	8b f1		 mov	 esi, ecx
  00026	89 75 f0	 mov	 DWORD PTR _this$[ebp], esi
; File C:\Program Files (x86)\Microsoft Visual Studio\2019\Community\VC\Tools\MSVC\14.29.30133\atlmfc\include\afxwin2.inl

; 851  : 	{ }

  00029	e8 00 00 00 00	 call	 ??0CWnd@@QAE@XZ		; CWnd::CWnd
; File D:\git\src\IBK\IBK_DRFN\ProjSrc\SrcDrfn\Chart\ChartUtil\XEditPrompt.cpp

; 50   : 	m_strPromptText(_T("<Enter text here>")),

  0002e	68 00 00 00 00	 push	 OFFSET ??_C@_0BC@KPGHDFKN@?$DMEnter?5text?5here?$DO@
  00033	8d 8e 84 00 00
	00		 lea	 ecx, DWORD PTR [esi+132]
  00039	c7 45 fc 00 00
	00 00		 mov	 DWORD PTR __$EHRec$[ebp+8], 0
  00040	c7 06 00 00 00
	00		 mov	 DWORD PTR [esi], OFFSET ??_7CXEditPrompt@@6B@
  00046	c7 86 80 00 00
	00 01 00 00 00	 mov	 DWORD PTR [esi+128], 1
  00050	ff 15 00 00 00
	00		 call	 DWORD PTR __imp_??0?$CStringT@DV?$StrTraitMFC_DLL@DV?$ChTraitsCRT@D@ATL@@@@@ATL@@QAE@PBD@Z

; 51   : 	m_crPromptColor(RGB(119,121,118))	// RAL 9023 (Pearl dark gray)

  00056	c7 86 88 00 00
	00 77 79 76 00	 mov	 DWORD PTR [esi+136], 7764343 ; 00767977H

; 55   : }

  00060	8b c6		 mov	 eax, esi
; File C:\Program Files (x86)\Microsoft Visual Studio\2019\Community\VC\Tools\MSVC\14.29.30133\atlmfc\include\afxwin1.inl

; 70   : 	{ m_hObject = NULL; }

  00062	c7 86 90 00 00
	00 00 00 00 00	 mov	 DWORD PTR [esi+144], 0

; 128  : 	{ }

  0006c	c7 86 8c 00 00
	00 00 00 00 00	 mov	 DWORD PTR [esi+140], OFFSET ??_7CBrush@@6B@
; File D:\git\src\IBK\IBK_DRFN\ProjSrc\SrcDrfn\Chart\ChartUtil\XEditPrompt.cpp

; 55   : }

  00076	8b 4d f4	 mov	 ecx, DWORD PTR __$EHRec$[ebp]
  00079	64 89 0d 00 00
	00 00		 mov	 DWORD PTR fs:0, ecx
  00080	59		 pop	 ecx
  00081	5e		 pop	 esi
  00082	8b e5		 mov	 esp, ebp
  00084	5d		 pop	 ebp
  00085	c3		 ret	 0
_TEXT	ENDS
;	COMDAT text$x
text$x	SEGMENT
__unwindfunclet$??0CXEditPrompt@@QAE@XZ$0:
  00000	8b 4d f0	 mov	 ecx, DWORD PTR _this$[ebp]
  00003	e9 00 00 00 00	 jmp	 ??1CEdit@@UAE@XZ	; CEdit::~CEdit
  00008	cc		 int	 3
  00009	cc		 int	 3
  0000a	cc		 int	 3
  0000b	cc		 int	 3
  0000c	cc		 int	 3
__ehhandler$??0CXEditPrompt@@QAE@XZ:
  0000d	90		 npad	 1
  0000e	90		 npad	 1
  0000f	8b 54 24 08	 mov	 edx, DWORD PTR [esp+8]
  00013	8d 42 0c	 lea	 eax, DWORD PTR [edx+12]
  00016	8b 4a f4	 mov	 ecx, DWORD PTR [edx-12]
  00019	33 c8		 xor	 ecx, eax
  0001b	e8 00 00 00 00	 call	 @__security_check_cookie@4
  00020	b8 00 00 00 00	 mov	 eax, OFFSET __ehfuncinfo$??0CXEditPrompt@@QAE@XZ
  00025	e9 00 00 00 00	 jmp	 ___CxxFrameHandler3
text$x	ENDS
??0CXEditPrompt@@QAE@XZ ENDP				; CXEditPrompt::CXEditPrompt
; Function compile flags: /Ogtp
; File C:\Program Files (x86)\Microsoft Visual Studio\2019\Community\VC\Tools\MSVC\14.29.30133\atlmfc\include\afx.inl
;	COMDAT ??_GCEdit@@UAEPAXI@Z
_TEXT	SEGMENT
___flags$ = 8						; size = 4
??_GCEdit@@UAEPAXI@Z PROC				; CEdit::`scalar deleting destructor', COMDAT
; _this$ = ecx
  00000	55		 push	 ebp
  00001	8b ec		 mov	 ebp, esp
  00003	56		 push	 esi
  00004	8b f1		 mov	 esi, ecx
  00006	e8 00 00 00 00	 call	 ??1CEdit@@UAE@XZ	; CEdit::~CEdit
  0000b	8b 45 08	 mov	 eax, DWORD PTR ___flags$[ebp]
  0000e	a8 01		 test	 al, 1
  00010	74 22		 je	 SHORT $LN9@scalar
  00012	a8 04		 test	 al, 4
  00014	75 10		 jne	 SHORT $LN3@scalar

; 112  : 	{ ::operator delete(p); }

  00016	56		 push	 esi
  00017	e8 00 00 00 00	 call	 ??3@YAXPAX@Z		; operator delete
  0001c	83 c4 04	 add	 esp, 4
  0001f	8b c6		 mov	 eax, esi
  00021	5e		 pop	 esi
  00022	5d		 pop	 ebp
  00023	c2 04 00	 ret	 4
$LN3@scalar:
  00026	68 80 00 00 00	 push	 128			; 00000080H
  0002b	56		 push	 esi
  0002c	e8 00 00 00 00	 call	 ?__global_delete@@YAXPAXI@Z ; __global_delete
  00031	83 c4 08	 add	 esp, 8
$LN9@scalar:
  00034	8b c6		 mov	 eax, esi
  00036	5e		 pop	 esi
  00037	5d		 pop	 ebp
  00038	c2 04 00	 ret	 4
??_GCEdit@@UAEPAXI@Z ENDP				; CEdit::`scalar deleting destructor'
_TEXT	ENDS
; Function compile flags: /Ogtp
; File C:\Program Files (x86)\Microsoft Visual Studio\2019\Community\VC\Tools\MSVC\14.29.30133\atlmfc\include\afxwin2.inl
;	COMDAT ?EndModalState@CWnd@@UAEXXZ
_TEXT	SEGMENT
?EndModalState@CWnd@@UAEXXZ PROC			; CWnd::EndModalState, COMDAT
; _this$ = ecx

; 567  : 	{ ::EnableWindow(m_hWnd, TRUE); }

  00000	6a 01		 push	 1
  00002	ff 71 20	 push	 DWORD PTR [ecx+32]
  00005	ff 15 00 00 00
	00		 call	 DWORD PTR __imp__EnableWindow@8
  0000b	c3		 ret	 0
?EndModalState@CWnd@@UAEXXZ ENDP			; CWnd::EndModalState
_TEXT	ENDS
; Function compile flags: /Ogtp
; File C:\Program Files (x86)\Microsoft Visual Studio\2019\Community\VC\Tools\MSVC\14.29.30133\atlmfc\include\afxwin2.inl
;	COMDAT ?BeginModalState@CWnd@@UAEXXZ
_TEXT	SEGMENT
?BeginModalState@CWnd@@UAEXXZ PROC			; CWnd::BeginModalState, COMDAT
; _this$ = ecx

; 565  : 	{ ::EnableWindow(m_hWnd, FALSE); }

  00000	6a 00		 push	 0
  00002	ff 71 20	 push	 DWORD PTR [ecx+32]
  00005	ff 15 00 00 00
	00		 call	 DWORD PTR __imp__EnableWindow@8
  0000b	c3		 ret	 0
?BeginModalState@CWnd@@UAEXXZ ENDP			; CWnd::BeginModalState
_TEXT	ENDS
; Function compile flags: /Ogtp
; File C:\Program Files (x86)\Microsoft Visual Studio\2019\Community\VC\Tools\MSVC\14.29.30133\atlmfc\include\afxwin2.inl
;	COMDAT ?DoDataExchange@CWnd@@MAEXPAVCDataExchange@@@Z
_TEXT	SEGMENT
___formal$ = 8						; size = 4
?DoDataExchange@CWnd@@MAEXPAVCDataExchange@@@Z PROC	; CWnd::DoDataExchange, COMDAT
; _this$ = ecx

; 561  : 	{ } // default does nothing

  00000	c2 04 00	 ret	 4
?DoDataExchange@CWnd@@MAEXPAVCDataExchange@@@Z ENDP	; CWnd::DoDataExchange
_TEXT	ENDS
; Function compile flags: /Ogtp
; File C:\Program Files (x86)\Microsoft Visual Studio\2019\Community\VC\Tools\MSVC\14.29.30133\atlmfc\include\afxwin1.inl
; File C:\Program Files (x86)\Microsoft Visual Studio\2019\Community\VC\Tools\MSVC\14.29.30133\atlmfc\include\afx.inl
;	COMDAT ??_GCBrush@@UAEPAXI@Z
_TEXT	SEGMENT
___flags$ = 8						; size = 4
??_GCBrush@@UAEPAXI@Z PROC				; CBrush::`scalar deleting destructor', COMDAT
; _this$ = ecx
  00000	55		 push	 ebp
  00001	8b ec		 mov	 ebp, esp
; File C:\Program Files (x86)\Microsoft Visual Studio\2019\Community\VC\Tools\MSVC\14.29.30133\atlmfc\include\afxwin1.inl

; 130  : 	{ }

  00003	56		 push	 esi
  00004	8b f1		 mov	 esi, ecx
  00006	c7 06 00 00 00
	00		 mov	 DWORD PTR [esi], OFFSET ??_7CBrush@@6B@
  0000c	e8 00 00 00 00	 call	 ??1CGdiObject@@UAE@XZ	; CGdiObject::~CGdiObject
  00011	8b 45 08	 mov	 eax, DWORD PTR ___flags$[ebp]
  00014	a8 01		 test	 al, 1
  00016	74 1f		 je	 SHORT $LN12@scalar
  00018	a8 04		 test	 al, 4
  0001a	75 10		 jne	 SHORT $LN3@scalar
; File C:\Program Files (x86)\Microsoft Visual Studio\2019\Community\VC\Tools\MSVC\14.29.30133\atlmfc\include\afx.inl

; 112  : 	{ ::operator delete(p); }

  0001c	56		 push	 esi
  0001d	e8 00 00 00 00	 call	 ??3@YAXPAX@Z		; operator delete
  00022	83 c4 04	 add	 esp, 4
  00025	8b c6		 mov	 eax, esi
  00027	5e		 pop	 esi
  00028	5d		 pop	 ebp
  00029	c2 04 00	 ret	 4
$LN3@scalar:
  0002c	6a 08		 push	 8
  0002e	56		 push	 esi
  0002f	e8 00 00 00 00	 call	 ?__global_delete@@YAXPAXI@Z ; __global_delete
  00034	83 c4 08	 add	 esp, 8
$LN12@scalar:
  00037	8b c6		 mov	 eax, esi
  00039	5e		 pop	 esi
  0003a	5d		 pop	 ebp
  0003b	c2 04 00	 ret	 4
??_GCBrush@@UAEPAXI@Z ENDP				; CBrush::`scalar deleting destructor'
_TEXT	ENDS
; Function compile flags: /Ogtp
; File C:\Program Files (x86)\Microsoft Visual Studio\2019\Community\VC\Tools\MSVC\14.29.30133\atlmfc\include\afxwin1.inl
;	COMDAT ??1CBrush@@UAE@XZ
_TEXT	SEGMENT
??1CBrush@@UAE@XZ PROC					; CBrush::~CBrush, COMDAT
; _this$ = ecx

; 130  : 	{ }

  00000	c7 01 00 00 00
	00		 mov	 DWORD PTR [ecx], OFFSET ??_7CBrush@@6B@
  00006	e9 00 00 00 00	 jmp	 ??1CGdiObject@@UAE@XZ	; CGdiObject::~CGdiObject
??1CBrush@@UAE@XZ ENDP					; CBrush::~CBrush
_TEXT	ENDS
; Function compile flags: /Ogtp
; File C:\Program Files (x86)\Microsoft Visual Studio\2019\Community\VC\Tools\MSVC\14.29.30133\atlmfc\include\afx.inl
;	COMDAT ??_GCGdiObject@@UAEPAXI@Z
_TEXT	SEGMENT
___flags$ = 8						; size = 4
??_GCGdiObject@@UAEPAXI@Z PROC				; CGdiObject::`scalar deleting destructor', COMDAT
; _this$ = ecx
  00000	55		 push	 ebp
  00001	8b ec		 mov	 ebp, esp
  00003	56		 push	 esi
  00004	8b f1		 mov	 esi, ecx
  00006	e8 00 00 00 00	 call	 ??1CGdiObject@@UAE@XZ	; CGdiObject::~CGdiObject
  0000b	8b 45 08	 mov	 eax, DWORD PTR ___flags$[ebp]
  0000e	a8 01		 test	 al, 1
  00010	74 1f		 je	 SHORT $LN9@scalar
  00012	a8 04		 test	 al, 4
  00014	75 10		 jne	 SHORT $LN3@scalar

; 112  : 	{ ::operator delete(p); }

  00016	56		 push	 esi
  00017	e8 00 00 00 00	 call	 ??3@YAXPAX@Z		; operator delete
  0001c	83 c4 04	 add	 esp, 4
  0001f	8b c6		 mov	 eax, esi
  00021	5e		 pop	 esi
  00022	5d		 pop	 ebp
  00023	c2 04 00	 ret	 4
$LN3@scalar:
  00026	6a 08		 push	 8
  00028	56		 push	 esi
  00029	e8 00 00 00 00	 call	 ?__global_delete@@YAXPAXI@Z ; __global_delete
  0002e	83 c4 08	 add	 esp, 8
$LN9@scalar:
  00031	8b c6		 mov	 eax, esi
  00033	5e		 pop	 esi
  00034	5d		 pop	 ebp
  00035	c2 04 00	 ret	 4
??_GCGdiObject@@UAEPAXI@Z ENDP				; CGdiObject::`scalar deleting destructor'
_TEXT	ENDS
; Function compile flags: /Ogtp
; File C:\Program Files (x86)\Microsoft Visual Studio\2019\Community\VC\Tools\MSVC\14.29.30133\atlmfc\include\afxwin1.inl
;	COMDAT ??1CGdiObject@@UAE@XZ
_TEXT	SEGMENT
_pException$2 = -540					; size = 4
_strMsg$3 = -536					; size = 4
_szErrorMessage$4 = -532				; size = 512
__$ArrayPad$ = -20					; size = 4
__$EHRec$ = -16						; size = 16
??1CGdiObject@@UAE@XZ PROC				; CGdiObject::~CGdiObject, COMDAT
; _this$ = ecx

; 74   : {

  00000	55		 push	 ebp
  00001	8b ec		 mov	 ebp, esp
  00003	6a ff		 push	 -1
  00005	68 00 00 00 00	 push	 __ehhandler$??1CGdiObject@@UAE@XZ
  0000a	64 a1 00 00 00
	00		 mov	 eax, DWORD PTR fs:0
  00010	50		 push	 eax
  00011	81 ec 10 02 00
	00		 sub	 esp, 528		; 00000210H
  00017	a1 00 00 00 00	 mov	 eax, DWORD PTR ___security_cookie
  0001c	33 c5		 xor	 eax, ebp
  0001e	89 45 ec	 mov	 DWORD PTR __$ArrayPad$[ebp], eax
  00021	53		 push	 ebx
  00022	56		 push	 esi
  00023	57		 push	 edi
  00024	50		 push	 eax
  00025	8d 45 f4	 lea	 eax, DWORD PTR __$EHRec$[ebp+4]
  00028	64 a3 00 00 00
	00		 mov	 DWORD PTR fs:0, eax
  0002e	89 65 f0	 mov	 DWORD PTR __$EHRec$[ebp], esp
  00031	c7 01 00 00 00
	00		 mov	 DWORD PTR [ecx], OFFSET ??_7CGdiObject@@6B@

; 75   : 	AFX_BEGIN_DESTRUCTOR

  00037	c7 45 fc 00 00
	00 00		 mov	 DWORD PTR __$EHRec$[ebp+12], 0

; 76   : 	DeleteObject();

  0003e	e8 00 00 00 00	 call	 ?DeleteObject@CGdiObject@@QAEHXZ ; CGdiObject::DeleteObject
$LN18@CGdiObject:

; 78   : }

  00043	8b 4d f4	 mov	 ecx, DWORD PTR __$EHRec$[ebp+4]
  00046	64 89 0d 00 00
	00 00		 mov	 DWORD PTR fs:0, ecx
  0004d	59		 pop	 ecx
  0004e	5f		 pop	 edi
  0004f	5e		 pop	 esi
  00050	5b		 pop	 ebx
  00051	8b 4d ec	 mov	 ecx, DWORD PTR __$ArrayPad$[ebp]
  00054	33 cd		 xor	 ecx, ebp
  00056	e8 00 00 00 00	 call	 @__security_check_cookie@4
  0005b	8b e5		 mov	 esp, ebp
  0005d	5d		 pop	 ebp
  0005e	c3		 ret	 0
__catch$??1CGdiObject@@UAE@XZ$0:

; 77   : 	AFX_END_DESTRUCTOR

  0005f	8d 8d e8 fd ff
	ff		 lea	 ecx, DWORD PTR _strMsg$3[ebp]
  00065	ff 15 00 00 00
	00		 call	 DWORD PTR __imp_??0?$CStringT@DV?$StrTraitMFC_DLL@DV?$ChTraitsCRT@D@ATL@@@@@ATL@@QAE@XZ
  0006b	8b b5 e4 fd ff
	ff		 mov	 esi, DWORD PTR _pException$2[ebp]
  00071	8d 8d ec fd ff
	ff		 lea	 ecx, DWORD PTR _szErrorMessage$4[ebp]
  00077	6a 00		 push	 0
  00079	68 00 02 00 00	 push	 512			; 00000200H
  0007e	51		 push	 ecx
  0007f	8b 06		 mov	 eax, DWORD PTR [esi]
  00081	8b ce		 mov	 ecx, esi
  00083	c6 45 fc 02	 mov	 BYTE PTR __$EHRec$[ebp+12], 2
  00087	ff 50 14	 call	 DWORD PTR [eax+20]
  0008a	85 c0		 test	 eax, eax
  0008c	74 2a		 je	 SHORT $LN9@CGdiObject
  0008e	8d 85 ec fd ff
	ff		 lea	 eax, DWORD PTR _szErrorMessage$4[ebp]
  00094	50		 push	 eax
  00095	6a 4d		 push	 77			; 0000004dH
  00097	68 00 00 00 00	 push	 OFFSET ??_C@_0HD@JJCHHHNK@C?3?2Program?5Files?5?$CIx86?$CJ?2Microsof@
  0009c	68 00 00 00 00	 push	 OFFSET ??_C@_0BP@OIEOKIDM@Exception?5thrown?5in?5destructor@
  000a1	8d 85 e8 fd ff
	ff		 lea	 eax, DWORD PTR _strMsg$3[ebp]
  000a7	68 00 00 00 00	 push	 OFFSET ??_C@_0BB@HBOOMJBF@?$CFTs?5?$CI?$CFTs?3?$CFd?$CJ?6?$CFTs@
  000ac	50		 push	 eax
  000ad	ff 15 00 00 00
	00		 call	 DWORD PTR __imp_?Format@?$CStringT@DV?$StrTraitMFC_DLL@DV?$ChTraitsCRT@D@ATL@@@@@ATL@@QAAXPBDZZ
  000b3	83 c4 18	 add	 esp, 24			; 00000018H
  000b6	eb 21		 jmp	 SHORT $LN10@CGdiObject
$LN9@CGdiObject:
  000b8	6a 4d		 push	 77			; 0000004dH
  000ba	68 00 00 00 00	 push	 OFFSET ??_C@_0HD@JJCHHHNK@C?3?2Program?5Files?5?$CIx86?$CJ?2Microsof@
  000bf	68 00 00 00 00	 push	 OFFSET ??_C@_0BP@OIEOKIDM@Exception?5thrown?5in?5destructor@
  000c4	8d 85 e8 fd ff
	ff		 lea	 eax, DWORD PTR _strMsg$3[ebp]
  000ca	68 00 00 00 00	 push	 OFFSET ??_C@_0N@OMEMOKLE@?$CFTs?5?$CI?$CFTs?3?$CFd?$CJ@
  000cf	50		 push	 eax
  000d0	ff 15 00 00 00
	00		 call	 DWORD PTR __imp_?Format@?$CStringT@DV?$StrTraitMFC_DLL@DV?$ChTraitsCRT@D@ATL@@@@@ATL@@QAAXPBDZZ
  000d6	83 c4 14	 add	 esp, 20			; 00000014H
$LN10@CGdiObject:
  000d9	6a 00		 push	 0
  000db	6a 00		 push	 0
  000dd	ff b5 e8 fd ff
	ff		 push	 DWORD PTR _strMsg$3[ebp]
  000e3	e8 00 00 00 00	 call	 ?AfxMessageBox@@YGHPBDII@Z ; AfxMessageBox
  000e8	8d 8d e8 fd ff
	ff		 lea	 ecx, DWORD PTR _strMsg$3[ebp]
  000ee	ff 15 00 00 00
	00		 call	 DWORD PTR __imp_??1?$CStringT@DV?$StrTraitMFC_DLL@DV?$ChTraitsCRT@D@ATL@@@@@ATL@@QAE@XZ
  000f4	8b 06		 mov	 eax, DWORD PTR [esi]
  000f6	8b ce		 mov	 ecx, esi
  000f8	6a 01		 push	 1
  000fa	ff 50 04	 call	 DWORD PTR [eax+4]
  000fd	b8 00 00 00 00	 mov	 eax, $LN18@CGdiObject
  00102	c3		 ret	 0
_TEXT	ENDS
;	COMDAT text$x
text$x	SEGMENT
__unwindfunclet$??1CGdiObject@@UAE@XZ$2:
  00000	8d 8d e8 fd ff
	ff		 lea	 ecx, DWORD PTR _strMsg$3[ebp]
  00006	ff 25 00 00 00
	00		 jmp	 DWORD PTR __imp_??1?$CStringT@DV?$StrTraitMFC_DLL@DV?$ChTraitsCRT@D@ATL@@@@@ATL@@QAE@XZ
  0000c	cc		 int	 3
  0000d	cc		 int	 3
  0000e	cc		 int	 3
  0000f	cc		 int	 3
  00010	cc		 int	 3
__ehhandler$??1CGdiObject@@UAE@XZ:
  00011	90		 npad	 1
  00012	90		 npad	 1
  00013	8b 54 24 08	 mov	 edx, DWORD PTR [esp+8]
  00017	8d 42 0c	 lea	 eax, DWORD PTR [edx+12]
  0001a	8b 8a e0 fd ff
	ff		 mov	 ecx, DWORD PTR [edx-544]
  00020	33 c8		 xor	 ecx, eax
  00022	e8 00 00 00 00	 call	 @__security_check_cookie@4
  00027	8b 4a f8	 mov	 ecx, DWORD PTR [edx-8]
  0002a	33 c8		 xor	 ecx, eax
  0002c	e8 00 00 00 00	 call	 @__security_check_cookie@4
  00031	b8 00 00 00 00	 mov	 eax, OFFSET __ehfuncinfo$??1CGdiObject@@UAE@XZ
  00036	e9 00 00 00 00	 jmp	 ___CxxFrameHandler3
text$x	ENDS
??1CGdiObject@@UAE@XZ ENDP				; CGdiObject::~CGdiObject
; Function compile flags: /Ogtp
; File C:\Program Files (x86)\Microsoft Visual Studio\2019\Community\VC\Tools\MSVC\14.29.30133\atlmfc\include\afx.inl
;	COMDAT ?Dump@CObject@@UBEXAAVCDumpContext@@@Z
_TEXT	SEGMENT
___formal$ = 8						; size = 4
?Dump@CObject@@UBEXAAVCDumpContext@@@Z PROC		; CObject::Dump, COMDAT
; _this$ = ecx

; 122  : 	{ /* no dumping in release builds */ }

  00000	c2 04 00	 ret	 4
?Dump@CObject@@UBEXAAVCDumpContext@@@Z ENDP		; CObject::Dump
_TEXT	ENDS
; Function compile flags: /Ogtp
; File C:\Program Files (x86)\Microsoft Visual Studio\2019\Community\VC\Tools\MSVC\14.29.30133\atlmfc\include\afx.inl
;	COMDAT ?AssertValid@CObject@@UBEXXZ
_TEXT	SEGMENT
?AssertValid@CObject@@UBEXXZ PROC			; CObject::AssertValid, COMDAT
; _this$ = ecx

; 120  : 	{ /* no asserts in release builds */ }

  00000	c2 00 00	 ret	 0
?AssertValid@CObject@@UBEXXZ ENDP			; CObject::AssertValid
_TEXT	ENDS
; Function compile flags: /Ogtp
; File C:\Program Files (x86)\Microsoft Visual Studio\2019\Community\VC\Tools\MSVC\14.29.30133\atlmfc\include\afx.inl
;	COMDAT ?Serialize@CObject@@UAEXAAVCArchive@@@Z
_TEXT	SEGMENT
___formal$ = 8						; size = 4
?Serialize@CObject@@UAEXAAVCArchive@@@Z PROC		; CObject::Serialize, COMDAT
; _this$ = ecx

; 106  : 	{ /* CObject does not serialize anything by default */ }

  00000	c2 04 00	 ret	 4
?Serialize@CObject@@UAEXAAVCArchive@@@Z ENDP		; CObject::Serialize
_TEXT	ENDS
; Function compile flags: /Ogtp
; File C:\Program Files (x86)\Microsoft Visual Studio\2019\Community\VC\Tools\MSVC\14.29.30133\atlmfc\include\afx.inl
;	COMDAT ??1CObject@@UAE@XZ
_TEXT	SEGMENT
??1CObject@@UAE@XZ PROC					; CObject::~CObject, COMDAT
; _this$ = ecx

; 104  : 	{ }

  00000	c2 00 00	 ret	 0
??1CObject@@UAE@XZ ENDP					; CObject::~CObject
_TEXT	ENDS
; Function compile flags: /Ogtp
; File D:\git\src\IBK\IBK_DRFN\ProjSrc\SrcDrfn\Chart\ChartUtil\XEditPrompt.cpp
;	COMDAT ?__empty_global_delete@@YAXPAXI@Z
_TEXT	SEGMENT
___formal$ = 8						; size = 4
___formal$ = 12						; size = 4
?__empty_global_delete@@YAXPAXI@Z PROC			; __empty_global_delete, COMDAT

  00000	c2 00 00	 ret	 0
?__empty_global_delete@@YAXPAXI@Z ENDP			; __empty_global_delete
_TEXT	ENDS
; Function compile flags: /Ogtp
; File D:\git\src\IBK\IBK_DRFN\ProjSrc\SrcDrfn\Chart\ChartUtil\XEditPrompt.cpp
;	COMDAT ?__empty_global_delete@@YAXPAX@Z
_TEXT	SEGMENT
___formal$ = 8						; size = 4
?__empty_global_delete@@YAXPAX@Z PROC			; __empty_global_delete, COMDAT

  00000	c2 00 00	 ret	 0
?__empty_global_delete@@YAXPAX@Z ENDP			; __empty_global_delete
_TEXT	ENDS
END
